 node_snap7

 Timestamp is 5850b6f4 (Wed Dec 14 10:05:24 2016)

 Preferred load address is 0000000180000000

 Start         Length     Name                   Class
 0001:00000000 00000090H .text$di                CODE
 0001:00000090 000509c0H .text$mn                CODE
 0001:00050a50 00000020H .text$mn$00             CODE
 0001:00050a70 00000e40H .text$x                 CODE
 0001:000518b0 00000144H .text$yd                CODE
 0002:00000000 000003e0H .idata$5                DATA
 0002:000003e0 00000010H .00cfg                  DATA
 0002:000003f0 00000008H .CRT$XCA                DATA
 0002:000003f8 00000018H .CRT$XCC                DATA
 0002:00000410 00000010H .CRT$XCL                DATA
 0002:00000420 00000018H .CRT$XCU                DATA
 0002:00000438 00000008H .CRT$XCZ                DATA
 0002:00000440 00000008H .CRT$XIA                DATA
 0002:00000448 00000030H .CRT$XIC                DATA
 0002:00000478 00000008H .CRT$XIZ                DATA
 0002:00000480 00000008H .CRT$XLA                DATA
 0002:00000488 00000008H .CRT$XLZ                DATA
 0002:00000490 00000008H .CRT$XPA                DATA
 0002:00000498 00000010H .CRT$XPX                DATA
 0002:000004a8 00000008H .CRT$XPXA               DATA
 0002:000004b0 00000008H .CRT$XPZ                DATA
 0002:000004b8 00000008H .CRT$XTA                DATA
 0002:000004c0 00000010H .CRT$XTZ                DATA
 0002:000004d0 000135a8H .rdata                  DATA
 0002:00013a78 00000028H .rdata$T                DATA
 0002:00013aa0 00000884H .rdata$r                DATA
 0002:00014324 000004b4H .rdata$zzzdbg           DATA
 0002:000147d8 00000008H .rtc$IAA                DATA
 0002:000147e0 00000008H .rtc$IZZ                DATA
 0002:000147e8 00000008H .rtc$TAA                DATA
 0002:000147f0 00000010H .rtc$TZZ                DATA
 0002:00014800 000056b8H .xdata                  DATA
 0002:00019eb8 00000244H .xdata$x                DATA
 0002:0001a0fc 00000020H .didat$2                DATA
 0002:0001a11c 00000024H .didat$3                DATA
 0002:0001a140 00000268H .didat$4                DATA
 0002:0001a3a8 00001248H .didat$6                DATA
 0002:0001b5f0 00000270H .didat$7                DATA
 0002:0001b860 00000cd4H .edata                  DATA
 0002:0001c534 0000003cH .idata$2                DATA
 0002:0001c570 00000018H .idata$3                DATA
 0002:0001c588 000003e0H .idata$4                DATA
 0002:0001c968 0000077aH .idata$6                DATA
 0003:00000000 00003e20H .data                   DATA
 0003:00003e20 000002f0H .data$r                 DATA
 0003:00004110 00000270H .didat$5                DATA
 0003:00004380 00001a2cH .bss                    DATA
 0004:00000000 0000441cH .pdata                  DATA
 0005:00000000 000000b8H .gfids$x                DATA
 0005:000000b8 00000128H .gfids$y                DATA
 0006:00000000 00000004H .tls                    DATA
 0006:00000004 00000004H .tls$                   DATA
 0006:00000008 00000001H .tls$ZZZ                DATA
 0007:00000000 00000060H .rsrc$01                DATA
 0007:00000060 00000180H .rsrc$02                DATA

  Address         Publics by Value              Rva+Base               Lib:Object

 0000:00000000       __dynamic_value_reloc_table 0000000000000000     <absolute>
 0000:00000000       __guard_iat_count          0000000000000000     <absolute>
 0000:00000000       __guard_iat_table          0000000000000000     <absolute>
 0000:00000000       __guard_longjmp_table      0000000000000000     <absolute>
 0000:00000000       __guard_longjmp_count      0000000000000000     <absolute>
 0000:00000000       __guard_fids_count         0000000000000000     <absolute>
 0000:00000000       ___safe_se_handler_table   0000000000000000     <absolute>
 0000:00000000       ___safe_se_handler_count   0000000000000000     <absolute>
 0000:00000000       __guard_fids_table         0000000000000000     <absolute>
 0000:00000100       __guard_flags              0000000000000100     <absolute>
 0000:00000000       __ImageBase                0000000180000000     <linker-defined>
 0001:00000090       ?InitAll@node_snap7@@YAXV?$Local@VObject@v8@@@v8@@@Z 0000000180001090 f   node_snap7.obj
 0001:000000b0       __local_stdio_printf_options 00000001800010b0 f i node_snap7_client.obj
 0001:000000c0       sprintf_s                  00000001800010c0 f i node_snap7_client.obj
 0001:00000120       ?what@exception@stdext@@UEBAPEBDXZ 0000000180001120 f i node_snap7_client.obj
 0001:00000140       ?FragmentSkipped@TS7Worker@@MEAAXH@Z 0000000180001140 f i snap7:s7_server.obj
 0001:00000140       ?_Unlock@?$basic_streambuf@DU?$char_traits@D@std@@@std@@UEAAXXZ 0000000180001140 f i node_snap7_client.obj
 0001:00000140       ?IsoParsePDU@TIsoTcpSocket@@MEAAXUTIsoControlPDU@@@Z 0000000180001140 f i snap7:s7_isotcp.obj
 0001:00000140       ?_Lock@?$basic_streambuf@DU?$char_traits@D@std@@@std@@UEAAXXZ 0000000180001140 f i node_snap7_client.obj
 0001:00000140       __except_validate_context_record 0000000180001140 f i libvcruntime:jbcxrval.obj
 0001:00000140       ?_Doraise@exception@stdext@@MEBAXXZ 0000000180001140 f i node_snap7_client.obj
 0001:00000140       _guard_check_icall_nop     0000000180001140 f i LIBCMT:guard_support.obj
 0001:00000140       ?Execute@TSnapThread@@UEAAXXZ 0000000180001140 f i snap7:snap_threads.obj
 0001:00000140       ?imbue@?$basic_streambuf@DU?$char_traits@D@std@@@std@@MEAAXAEBVlocale@2@@Z 0000000180001140 f i node_snap7_client.obj
 0001:00000140       ?FragmentSkipped@TIsoTcpSocket@@MEAAXH@Z 0000000180001140 f i snap7:s7_isotcp.obj
 0001:00000150       ??_Eruntime_error@std@@UEAAPEAXI@Z 0000000180001150 f i * CIL library *:* CIL module *
 0001:00000150       ??_Eexception@stdext@@UEAAPEAXI@Z 0000000180001150 f i * CIL library *:* CIL module *
 0001:00000150       ??_Gruntime_error@std@@UEAAPEAXI@Z 0000000180001150 f i node_snap7_client.obj
 0001:00000150       ??_Gexception@stdext@@UEAAPEAXI@Z 0000000180001150 f i node_snap7_client.obj
 0001:00000180       ?_Doraise@runtime_error@std@@MEBAXXZ 0000000180001180 f i node_snap7_client.obj
 0001:00000180       ?_Doraise@failure@ios_base@std@@MEBAXXZ 0000000180001180 f i node_snap7_client.obj
 0001:000001a0       ??0_Locinfo@std@@QEAA@PEBD@Z 00000001800011a0 f i node_snap7_client.obj
 0001:00000260       ??1_Locinfo@std@@QEAA@XZ   0000000180001260 f i node_snap7_client.obj
 0001:00000300       ??_E_Facet_base@std@@UEAAPEAXI@Z 0000000180001300 f i * CIL library *:* CIL module *
 0001:00000300       ??_G_Facet_base@std@@UEAAPEAXI@Z 0000000180001300 f i node_snap7_client.obj
 0001:00000330       ?_Incref@facet@locale@std@@UEAAXXZ 0000000180001330 f i node_snap7_client.obj
 0001:00000340       ?_Decref@facet@locale@std@@UEAAPEAV_Facet_base@3@XZ 0000000180001340 f i node_snap7_client.obj
 0001:00000350       ?_Getcat@?$ctype@D@std@@SA_KPEAPEBVfacet@locale@2@PEBV42@@Z 0000000180001350 f i node_snap7_client.obj
 0001:00000410       ?do_tolower@?$ctype@D@std@@MEBADD@Z 0000000180001410 f i node_snap7_client.obj
 0001:00000420       ?do_tolower@?$ctype@D@std@@MEBAPEBDPEADPEBD@Z 0000000180001420 f i node_snap7_client.obj
 0001:00000480       ?do_toupper@?$ctype@D@std@@MEBADD@Z 0000000180001480 f i node_snap7_client.obj
 0001:00000490       ?do_toupper@?$ctype@D@std@@MEBAPEBDPEADPEBD@Z 0000000180001490 f i node_snap7_client.obj
 0001:000004f0       ?do_widen@?$ctype@D@std@@MEBADD@Z 00000001800014f0 f i node_snap7_client.obj
 0001:000004f0       ?do_narrow@?$ctype@D@std@@MEBADDD@Z 00000001800014f0 f i node_snap7_client.obj
 0001:00000500       ?do_widen@?$ctype@D@std@@MEBAPEBDPEBD0PEAD@Z 0000000180001500 f i node_snap7_client.obj
 0001:00000520       ?do_narrow@?$ctype@D@std@@MEBAPEBDPEBD0DPEAD@Z 0000000180001520 f i node_snap7_client.obj
 0001:00000540       ??_E?$ctype@D@std@@MEAAPEAXI@Z 0000000180001540 f i * CIL library *:* CIL module *
 0001:00000540       ??_G?$ctype@D@std@@MEAAPEAXI@Z 0000000180001540 f i node_snap7_client.obj
 0001:000005b0       ??_G_Iostream_error_category@std@@UEAAPEAXI@Z 00000001800015b0 f i node_snap7_client.obj
 0001:000005b0       ??_E_Iostream_error_category@std@@UEAAPEAXI@Z 00000001800015b0 f i * CIL library *:* CIL module *
 0001:000005b0       ??_Eerror_category@std@@UEAAPEAXI@Z 00000001800015b0 f i * CIL library *:* CIL module *
 0001:000005b0       ??_Gerror_category@std@@UEAAPEAXI@Z 00000001800015b0 f i node_snap7_client.obj
 0001:000005e0       ?default_error_condition@error_category@std@@UEBA?AVerror_condition@2@H@Z 00000001800015e0 f i node_snap7_client.obj
 0001:000005f0       ?equivalent@error_category@std@@UEBA_NHAEBVerror_condition@2@@Z 00000001800015f0 f i node_snap7_client.obj
 0001:00000610       ?equivalent@error_category@std@@UEBA_NAEBVerror_code@2@H@Z 0000000180001610 f i node_snap7_client.obj
 0001:00000630       ?_Makestr@_System_error@std@@CA?AV?$basic_string@DU?$char_traits@D@std@@V?$allocator@D@2@@2@Verror_code@2@V32@@Z 0000000180001630 f i node_snap7_client.obj
 0001:00000730       ??_G_System_error@std@@UEAAPEAXI@Z 0000000180001730 f i node_snap7_client.obj
 0001:00000730       ??_E_System_error@std@@UEAAPEAXI@Z 0000000180001730 f i * CIL library *:* CIL module *
 0001:00000730       ??_Gfailure@ios_base@std@@UEAAPEAXI@Z 0000000180001730 f i node_snap7_client.obj
 0001:00000730       ??_Efailure@ios_base@std@@UEAAPEAXI@Z 0000000180001730 f i * CIL library *:* CIL module *
 0001:00000760       ?name@_Iostream_error_category@std@@UEBAPEBDXZ 0000000180001760 f i node_snap7_client.obj
 0001:00000770       ?message@_Iostream_error_category@std@@UEBA?AV?$basic_string@DU?$char_traits@D@std@@V?$allocator@D@2@@2@H@Z 0000000180001770 f i node_snap7_client.obj
 0001:000007f0       ?clear@ios_base@std@@QEAAXH_N@Z 00000001800017f0 f i node_snap7_client.obj
 0001:00000d30       ??_Gios_base@std@@UEAAPEAXI@Z 0000000180001d30 f i node_snap7_client.obj
 0001:00000d30       ??_Eios_base@std@@UEAAPEAXI@Z 0000000180001d30 f i * CIL library *:* CIL module *
 0001:00000e20       ?New@?$Factory@VFunctionTemplate@v8@@@imp@Nan@@SA?AV?$Local@VFunctionTemplate@v8@@@v8@@P6AXAEBV?$FunctionCallbackInfo@VValue@v8@@@3@@ZV?$Local@VValue@v8@@@5@V?$Local@VSignature@v8@@@5@@Z 0000000180001e20 f i node_snap7_client.obj
 0001:00000fb0       ?ThrowTypeError@Nan@@YAXPEBD@Z 0000000180001fb0 f i node_snap7_client.obj
 0001:00001040       ??0Utf8String@Nan@@QEAA@V?$Local@VValue@v8@@@v8@@@Z 0000000180002040 f i node_snap7_client.obj
 0001:00001130       ??0Callback@Nan@@QEAA@AEBV?$Local@VFunction@v8@@@v8@@@Z 0000000180002130 f i node_snap7_client.obj
 0001:000011e0       ?SetFunction@Callback@Nan@@QEAAXAEBV?$Local@VFunction@v8@@@v8@@@Z 00000001800021e0 f i node_snap7_client.obj
 0001:00001270       ??0AsyncWorker@Nan@@QEAA@PEAVCallback@1@@Z 0000000180002270 f i node_snap7_client.obj
 0001:00001330       ??1AsyncWorker@Nan@@UEAA@XZ 0000000180002330 f i node_snap7_client.obj
 0001:000013e0       ?WorkComplete@AsyncWorker@Nan@@UEAAXXZ 00000001800023e0 f i node_snap7_client.obj
 0001:00001470       ?Destroy@AsyncWorker@Nan@@UEAAXXZ 0000000180002470 f i node_snap7_client.obj
 0001:00001490       ?HandleOKCallback@AsyncWorker@Nan@@MEAAXXZ 0000000180002490 f i node_snap7_client.obj
 0001:00001550       ?HandleErrorCallback@AsyncWorker@Nan@@MEAAXXZ 0000000180002550 f i node_snap7_client.obj
 0001:000016a0       ??_EAsyncWorker@Nan@@UEAAPEAXI@Z 00000001800026a0 f i * CIL library *:* CIL module *
 0001:000016a0       ??_GAsyncWorker@Nan@@UEAAPEAXI@Z 00000001800026a0 f i node_snap7_client.obj
 0001:000016e0       ?AsyncExecute@Nan@@YAXPEAUuv_work_s@@@Z 00000001800026e0 f i node_snap7_client.obj
 0001:000016f0       ?AsyncExecuteComplete@Nan@@YAXPEAUuv_work_s@@@Z 00000001800026f0 f i node_snap7_client.obj
 0001:00001730       ?AsyncQueueWorker@Nan@@YAXPEAVAsyncWorker@1@@Z 0000000180002730 f i node_snap7_client.obj
 0001:00001760       ?SetPrototypeMethod@Nan@@YAXV?$Local@VFunctionTemplate@v8@@@v8@@PEBDP6AXAEBV?$FunctionCallbackInfo@VValue@v8@@@1@@Z@Z 0000000180002760 f i node_snap7_client.obj
 0001:00001850       ??1ObjectWrap@Nan@@UEAA@XZ 0000000180002850 f i node_snap7_client.obj
 0001:000018c0       ?Wrap@ObjectWrap@Nan@@IEAAXV?$Local@VObject@v8@@@v8@@@Z 00000001800028c0 f i node_snap7_client.obj
 0001:000019a0       ?Ref@ObjectWrap@Nan@@MEAAXXZ 00000001800029a0 f i node_snap7_client.obj
 0001:000019e0       ?Unref@ObjectWrap@Nan@@MEAAXXZ 00000001800029e0 f i node_snap7_client.obj
 0001:00001a90       ?WeakCallback@ObjectWrap@Nan@@CAXAEBV?$WeakCallbackInfo@VObjectWrap@Nan@@@v8@@@Z 0000000180002a90 f i node_snap7_client.obj
 0001:00001b20       ??_GObjectWrap@Nan@@UEAAPEAXI@Z 0000000180002b20 f i node_snap7_client.obj
 0001:00001b20       ??_EObjectWrap@Nan@@UEAAPEAXI@Z 0000000180002b20 f i * CIL library *:* CIL module *
 0001:00001b60       ??0IOWorker@node_snap7@@QEAA@PEAVCallback@Nan@@PEAVS7Client@1@W4DataIOFunction@1@PEAXHH@Z 0000000180002b60 f i node_snap7_client.obj
 0001:00001bd0       ??0IOWorker@node_snap7@@QEAA@PEAVCallback@Nan@@PEAVS7Client@1@W4DataIOFunction@1@PEAXHHH@Z 0000000180002bd0 f i node_snap7_client.obj
 0001:00001c50       ??0IOWorker@node_snap7@@QEAA@PEAVCallback@Nan@@PEAVS7Client@1@W4DataIOFunction@1@PEAXHHHHH@Z 0000000180002c50 f i node_snap7_client.obj
 0001:00001ce0       ??_GIOWorker@node_snap7@@UEAAPEAXI@Z 0000000180002ce0 f i node_snap7_client.obj
 0001:00001ce0       ??_EIOWorker@node_snap7@@UEAAPEAXI@Z 0000000180002ce0 f i * CIL library *:* CIL module *
 0001:00001d20       ?Init@S7Client@node_snap7@@SAXV?$Local@VObject@v8@@@v8@@@Z 0000000180002d20 f   node_snap7_client.obj
 0001:00005eb0       ?New@S7Client@node_snap7@@SAXAEBV?$FunctionCallbackInfo@VValue@v8@@@Nan@@@Z 0000000180006eb0 f   node_snap7_client.obj
 0001:00005fd0       ??_GS7Client@node_snap7@@EEAAPEAXI@Z 0000000180006fd0 f i node_snap7_client.obj
 0001:00005fd0       ??_ES7Client@node_snap7@@EEAAPEAXI@Z 0000000180006fd0 f i * CIL library *:* CIL module *
 0001:00006010       ??1S7Client@node_snap7@@EEAA@XZ 0000000180007010 f   node_snap7_client.obj
 0001:000060e0       ?GetByteCountFromWordLen@S7Client@node_snap7@@SAHH@Z 00000001800070e0 f   node_snap7_client.obj
 0001:00006150       ?FreeCallback@S7Client@node_snap7@@SAXPEADPEAX@Z 0000000180007150 f   node_snap7_client.obj
 0001:00006160       ?FreeCallbackSZL@S7Client@node_snap7@@SAXPEADPEAX@Z 0000000180007160 f   node_snap7_client.obj
 0001:00006170       ?Connect@S7Client@node_snap7@@SAXAEBV?$FunctionCallbackInfo@VValue@v8@@@Nan@@@Z 0000000180007170 f   node_snap7_client.obj
 0001:000063b0       ?ConnectTo@S7Client@node_snap7@@SAXAEBV?$FunctionCallbackInfo@VValue@v8@@@Nan@@@Z 00000001800073b0 f   node_snap7_client.obj
 0001:000066b0       ??_GUtf8String@Nan@@QEAAPEAXI@Z 00000001800076b0 f i node_snap7_client.obj
 0001:000066f0       ?SetConnectionParams@S7Client@node_snap7@@SAXAEBV?$FunctionCallbackInfo@VValue@v8@@@Nan@@@Z 00000001800076f0 f   node_snap7_client.obj
 0001:000068f0       ?SetConnectionType@S7Client@node_snap7@@SAXAEBV?$FunctionCallbackInfo@VValue@v8@@@Nan@@@Z 00000001800078f0 f   node_snap7_client.obj
 0001:000069d0       ?Disconnect@S7Client@node_snap7@@SAXAEBV?$FunctionCallbackInfo@VValue@v8@@@Nan@@@Z 00000001800079d0 f   node_snap7_client.obj
 0001:00006a90       ?GetParam@S7Client@node_snap7@@SAXAEBV?$FunctionCallbackInfo@VValue@v8@@@Nan@@@Z 0000000180007a90 f   node_snap7_client.obj
 0001:00006c80       ?SetParam@S7Client@node_snap7@@SAXAEBV?$FunctionCallbackInfo@VValue@v8@@@Nan@@@Z 0000000180007c80 f   node_snap7_client.obj
 0001:00006db0       ?Execute@IOWorker@node_snap7@@EEAAXXZ 0000000180007db0 f   node_snap7_client.obj
 0001:000073f0       ?HandleOKCallback@IOWorker@node_snap7@@EEAAXXZ 00000001800083f0 f   node_snap7_client.obj
 0001:00007bc0       ?ReadArea@S7Client@node_snap7@@SAXAEBV?$FunctionCallbackInfo@VValue@v8@@@Nan@@@Z 0000000180008bc0 f   node_snap7_client.obj
 0001:00008100       ?WriteArea@S7Client@node_snap7@@SAXAEBV?$FunctionCallbackInfo@VValue@v8@@@Nan@@@Z 0000000180009100 f   node_snap7_client.obj
 0001:000085c0       ?ReadMultiVars@S7Client@node_snap7@@SAXAEBV?$FunctionCallbackInfo@VValue@v8@@@Nan@@@Z 00000001800095c0 f   node_snap7_client.obj
 0001:000093f0       ?S7DataItemToArray@S7Client@node_snap7@@QEAA?AV?$Local@VArray@v8@@@v8@@PEAUTS7DataItem@@H_N@Z 000000018000a3f0 f   node_snap7_client.obj
 0001:000097a0       ?WriteMultiVars@S7Client@node_snap7@@SAXAEBV?$FunctionCallbackInfo@VValue@v8@@@Nan@@@Z 000000018000a7a0 f   node_snap7_client.obj
 0001:0000a6c0       ?ListBlocks@S7Client@node_snap7@@SAXAEBV?$FunctionCallbackInfo@VValue@v8@@@Nan@@@Z 000000018000b6c0 f   node_snap7_client.obj
 0001:0000a970       ?S7BlocksListToObject@S7Client@node_snap7@@QEAA?AV?$Local@VObject@v8@@@v8@@PEAUTS7BlocksList@@@Z 000000018000b970 f   node_snap7_client.obj
 0001:0000adc0       ?GetAgBlockInfo@S7Client@node_snap7@@SAXAEBV?$FunctionCallbackInfo@VValue@v8@@@Nan@@@Z 000000018000bdc0 f   node_snap7_client.obj
 0001:0000b080       ?GetPgBlockInfo@S7Client@node_snap7@@SAXAEBV?$FunctionCallbackInfo@VValue@v8@@@Nan@@@Z 000000018000c080 f   node_snap7_client.obj
 0001:0000b210       ?S7BlockInfoToObject@S7Client@node_snap7@@QEAA?AV?$Local@VObject@v8@@@v8@@PEAUTS7BlockInfo@@@Z 000000018000c210 f   node_snap7_client.obj
 0001:0000bb10       ?ListBlocksOfType@S7Client@node_snap7@@SAXAEBV?$FunctionCallbackInfo@VValue@v8@@@Nan@@@Z 000000018000cb10 f   node_snap7_client.obj
 0001:0000be30       ?S7BlocksOfTypeToArray@S7Client@node_snap7@@QEAA?AV?$Local@VArray@v8@@@v8@@PEAY0CAAA@GH@Z 000000018000ce30 f   node_snap7_client.obj
 0001:0000bf80       ?Upload@S7Client@node_snap7@@SAXAEBV?$FunctionCallbackInfo@VValue@v8@@@Nan@@@Z 000000018000cf80 f   node_snap7_client.obj
 0001:0000c380       ?FullUpload@S7Client@node_snap7@@SAXAEBV?$FunctionCallbackInfo@VValue@v8@@@Nan@@@Z 000000018000d380 f   node_snap7_client.obj
 0001:0000c780       ?Download@S7Client@node_snap7@@SAXAEBV?$FunctionCallbackInfo@VValue@v8@@@Nan@@@Z 000000018000d780 f   node_snap7_client.obj
 0001:0000ca40       ?Delete@S7Client@node_snap7@@SAXAEBV?$FunctionCallbackInfo@VValue@v8@@@Nan@@@Z 000000018000da40 f   node_snap7_client.obj
 0001:0000ccc0       ?DBGet@S7Client@node_snap7@@SAXAEBV?$FunctionCallbackInfo@VValue@v8@@@Nan@@@Z 000000018000dcc0 f   node_snap7_client.obj
 0001:0000d030       ?DBFill@S7Client@node_snap7@@SAXAEBV?$FunctionCallbackInfo@VValue@v8@@@Nan@@@Z 000000018000e030 f   node_snap7_client.obj
 0001:0000d370       ?GetPlcDateTime@S7Client@node_snap7@@SAXAEBV?$FunctionCallbackInfo@VValue@v8@@@Nan@@@Z 000000018000e370 f   node_snap7_client.obj
 0001:0000d640       ?SetPlcDateTime@S7Client@node_snap7@@SAXAEBV?$FunctionCallbackInfo@VValue@v8@@@Nan@@@Z 000000018000e640 f   node_snap7_client.obj
 0001:0000dcb0       ?SetPlcSystemDateTime@S7Client@node_snap7@@SAXAEBV?$FunctionCallbackInfo@VValue@v8@@@Nan@@@Z 000000018000ecb0 f   node_snap7_client.obj
 0001:0000def0       ?GetOrderCode@S7Client@node_snap7@@SAXAEBV?$FunctionCallbackInfo@VValue@v8@@@Nan@@@Z 000000018000eef0 f   node_snap7_client.obj
 0001:0000e1b0       ?S7OrderCodeToObject@S7Client@node_snap7@@QEAA?AV?$Local@VObject@v8@@@v8@@PEAUTS7OrderCode@@@Z 000000018000f1b0 f   node_snap7_client.obj
 0001:0000e470       ?GetCpuInfo@S7Client@node_snap7@@SAXAEBV?$FunctionCallbackInfo@VValue@v8@@@Nan@@@Z 000000018000f470 f   node_snap7_client.obj
 0001:0000e730       ?S7CpuInfoToObject@S7Client@node_snap7@@QEAA?AV?$Local@VObject@v8@@@v8@@PEAUTS7CpuInfo@@@Z 000000018000f730 f   node_snap7_client.obj
 0001:0000eab0       ?GetCpInfo@S7Client@node_snap7@@SAXAEBV?$FunctionCallbackInfo@VValue@v8@@@Nan@@@Z 000000018000fab0 f   node_snap7_client.obj
 0001:0000ed70       ?S7CpInfoToObject@S7Client@node_snap7@@QEAA?AV?$Local@VObject@v8@@@v8@@PEAUTS7CpInfo@@@Z 000000018000fd70 f   node_snap7_client.obj
 0001:0000f020       ?ReadSZL@S7Client@node_snap7@@SAXAEBV?$FunctionCallbackInfo@VValue@v8@@@Nan@@@Z 0000000180010020 f   node_snap7_client.obj
 0001:0000f4e0       ?ReadSZLList@S7Client@node_snap7@@SAXAEBV?$FunctionCallbackInfo@VValue@v8@@@Nan@@@Z 00000001800104e0 f   node_snap7_client.obj
 0001:0000f830       ?S7SZLListToArray@S7Client@node_snap7@@QEAA?AV?$Local@VArray@v8@@@v8@@PEAUTS7SZLList@@H@Z 0000000180010830 f   node_snap7_client.obj
 0001:0000f980       ?PlcHotStart@S7Client@node_snap7@@SAXAEBV?$FunctionCallbackInfo@VValue@v8@@@Nan@@@Z 0000000180010980 f   node_snap7_client.obj
 0001:0000fbb0       ?PlcColdStart@S7Client@node_snap7@@SAXAEBV?$FunctionCallbackInfo@VValue@v8@@@Nan@@@Z 0000000180010bb0 f   node_snap7_client.obj
 0001:0000fde0       ?PlcStop@S7Client@node_snap7@@SAXAEBV?$FunctionCallbackInfo@VValue@v8@@@Nan@@@Z 0000000180010de0 f   node_snap7_client.obj
 0001:00010010       ?CopyRamToRom@S7Client@node_snap7@@SAXAEBV?$FunctionCallbackInfo@VValue@v8@@@Nan@@@Z 0000000180011010 f   node_snap7_client.obj
 0001:00010200       ?Compress@S7Client@node_snap7@@SAXAEBV?$FunctionCallbackInfo@VValue@v8@@@Nan@@@Z 0000000180011200 f   node_snap7_client.obj
 0001:000103f0       ?GetProtection@S7Client@node_snap7@@SAXAEBV?$FunctionCallbackInfo@VValue@v8@@@Nan@@@Z 00000001800113f0 f   node_snap7_client.obj
 0001:000106b0       ?S7ProtectionToObject@S7Client@node_snap7@@QEAA?AV?$Local@VObject@v8@@@v8@@PEAUTS7Protection@@@Z 00000001800116b0 f   node_snap7_client.obj
 0001:000109f0       ?SetSessionPassword@S7Client@node_snap7@@SAXAEBV?$FunctionCallbackInfo@VValue@v8@@@Nan@@@Z 00000001800119f0 f   node_snap7_client.obj
 0001:00010c10       ?ClearSessionPassword@S7Client@node_snap7@@SAXAEBV?$FunctionCallbackInfo@VValue@v8@@@Nan@@@Z 0000000180011c10 f   node_snap7_client.obj
 0001:00010e40       ?ExecTime@S7Client@node_snap7@@SAXAEBV?$FunctionCallbackInfo@VValue@v8@@@Nan@@@Z 0000000180011e40 f   node_snap7_client.obj
 0001:00010f40       ?LastError@S7Client@node_snap7@@SAXAEBV?$FunctionCallbackInfo@VValue@v8@@@Nan@@@Z 0000000180011f40 f   node_snap7_client.obj
 0001:00011000       ?PDURequested@S7Client@node_snap7@@SAXAEBV?$FunctionCallbackInfo@VValue@v8@@@Nan@@@Z 0000000180012000 f   node_snap7_client.obj
 0001:00011100       ?PDULength@S7Client@node_snap7@@SAXAEBV?$FunctionCallbackInfo@VValue@v8@@@Nan@@@Z 0000000180012100 f   node_snap7_client.obj
 0001:00011200       ?PlcStatus@S7Client@node_snap7@@SAXAEBV?$FunctionCallbackInfo@VValue@v8@@@Nan@@@Z 0000000180012200 f   node_snap7_client.obj
 0001:000114e0       ?Connected@S7Client@node_snap7@@SAXAEBV?$FunctionCallbackInfo@VValue@v8@@@Nan@@@Z 00000001800124e0 f   node_snap7_client.obj
 0001:00011560       ?ErrorText@S7Client@node_snap7@@SAXAEBV?$FunctionCallbackInfo@VValue@v8@@@Nan@@@Z 0000000180012560 f   node_snap7_client.obj
 0001:00011710       ??1?$basic_string@DU?$char_traits@D@std@@V?$allocator@D@2@@std@@QEAA@XZ 0000000180012710 f i node_snap7_client.obj
 0001:000117a0       ??0?$basic_string@DU?$char_traits@D@std@@V?$allocator@D@2@@std@@QEAA@PEBD@Z 00000001800127a0 f i node_snap7_client.obj
 0001:000117e0       ??1?$basic_stringstream@DU?$char_traits@D@std@@V?$allocator@D@2@@std@@UEAA@XZ 00000001800127e0 f i node_snap7_client.obj
 0001:00011910       ??0?$basic_stringstream@DU?$char_traits@D@std@@V?$allocator@D@2@@std@@QEAA@H@Z 0000000180012910 f i node_snap7_client.obj
 0001:000119b0       ?seekpos@?$basic_stringbuf@DU?$char_traits@D@std@@V?$allocator@D@2@@std@@MEAA?AV?$fpos@U_Mbstatet@@@2@V32@H@Z 00000001800129b0 f i node_snap7_client.obj
 0001:00011ac0       ?seekoff@?$basic_stringbuf@DU?$char_traits@D@std@@V?$allocator@D@2@@std@@MEAA?AV?$fpos@U_Mbstatet@@@2@_JHH@Z 0000000180012ac0 f i node_snap7_client.obj
 0001:00011c50       ?underflow@?$basic_stringbuf@DU?$char_traits@D@std@@V?$allocator@D@2@@std@@MEAAHXZ 0000000180012c50 f i node_snap7_client.obj
 0001:00011cb0       ?pbackfail@?$basic_stringbuf@DU?$char_traits@D@std@@V?$allocator@D@2@@std@@MEAAHH@Z 0000000180012cb0 f i node_snap7_client.obj
 0001:00011d00       ?overflow@?$basic_stringbuf@DU?$char_traits@D@std@@V?$allocator@D@2@@std@@MEAAHH@Z 0000000180012d00 f i node_snap7_client.obj
 0001:00011f70       ??6?$basic_ostream@DU?$char_traits@D@std@@@std@@QEAAAEAV01@H@Z 0000000180012f70 f i node_snap7_client.obj
 0001:00012140       ?sync@?$basic_streambuf@DU?$char_traits@D@std@@@std@@MEAAHXZ 0000000180013140 f i node_snap7_client.obj
 0001:00012140       ?showmanyc@?$basic_streambuf@DU?$char_traits@D@std@@@std@@MEAA_JXZ 0000000180013140 f i node_snap7_client.obj
 0001:00012150       ?setbuf@?$basic_streambuf@DU?$char_traits@D@std@@@std@@MEAAPEAV12@PEAD_J@Z 0000000180013150 f i node_snap7_client.obj
 0001:00012160       ?seekoff@?$basic_streambuf@DU?$char_traits@D@std@@@std@@MEAA?AV?$fpos@U_Mbstatet@@@2@_JHH@Z 0000000180013160 f i node_snap7_client.obj
 0001:00012160       ?seekpos@?$basic_streambuf@DU?$char_traits@D@std@@@std@@MEAA?AV?$fpos@U_Mbstatet@@@2@V32@H@Z 0000000180013160 f i node_snap7_client.obj
 0001:00012180       ?xsputn@?$basic_streambuf@DU?$char_traits@D@std@@@std@@MEAA_JPEBD_J@Z 0000000180013180 f i node_snap7_client.obj
 0001:00012240       ?xsgetn@?$basic_streambuf@DU?$char_traits@D@std@@@std@@MEAA_JPEAD_J@Z 0000000180013240 f i node_snap7_client.obj
 0001:00012340       ?uflow@?$basic_streambuf@DU?$char_traits@D@std@@@std@@MEAAHXZ 0000000180013340 f i node_snap7_client.obj
 0001:00012380       ?pbackfail@?$basic_streambuf@DU?$char_traits@D@std@@@std@@MEAAHH@Z 0000000180013380 f i node_snap7_client.obj
 0001:00012380       ?overflow@?$basic_streambuf@DU?$char_traits@D@std@@@std@@MEAAHH@Z 0000000180013380 f i node_snap7_client.obj
 0001:00012380       ?underflow@?$basic_streambuf@DU?$char_traits@D@std@@@std@@MEAAHXZ 0000000180013380 f i node_snap7_client.obj
 0001:00012390       ??_E?$basic_stringstream@DU?$char_traits@D@std@@V?$allocator@D@2@@std@@UEAAPEAXI@Z 0000000180013390 f i * CIL library *:* CIL module *
 0001:00012390       ??_G?$basic_stringstream@DU?$char_traits@D@std@@V?$allocator@D@2@@std@@UEAAPEAXI@Z 0000000180013390 f i node_snap7_client.obj
 0001:000123e0       ??_G?$basic_stringbuf@DU?$char_traits@D@std@@V?$allocator@D@2@@std@@UEAAPEAXI@Z 00000001800133e0 f i node_snap7_client.obj
 0001:000123e0       ??_E?$basic_stringbuf@DU?$char_traits@D@std@@V?$allocator@D@2@@std@@UEAAPEAXI@Z 00000001800133e0 f i * CIL library *:* CIL module *
 0001:00012470       ??_E?$basic_iostream@DU?$char_traits@D@std@@@std@@UEAAPEAXI@Z 0000000180013470 f i * CIL library *:* CIL module *
 0001:00012470       ??_G?$basic_iostream@DU?$char_traits@D@std@@@std@@UEAAPEAXI@Z 0000000180013470 f i node_snap7_client.obj
 0001:000124b0       ??_E?$basic_ostream@DU?$char_traits@D@std@@@std@@UEAAPEAXI@Z 00000001800134b0 f i * CIL library *:* CIL module *
 0001:000124b0       ??_G?$basic_ostream@DU?$char_traits@D@std@@@std@@UEAAPEAXI@Z 00000001800134b0 f i node_snap7_client.obj
 0001:00012520       ??_G?$basic_istream@DU?$char_traits@D@std@@@std@@UEAAPEAXI@Z 0000000180013520 f i node_snap7_client.obj
 0001:00012520       ??_E?$basic_istream@DU?$char_traits@D@std@@@std@@UEAAPEAXI@Z 0000000180013520 f i * CIL library *:* CIL module *
 0001:00012590       ??_G?$basic_streambuf@DU?$char_traits@D@std@@@std@@UEAAPEAXI@Z 0000000180013590 f i node_snap7_client.obj
 0001:00012590       ??_E?$basic_streambuf@DU?$char_traits@D@std@@@std@@UEAAPEAXI@Z 0000000180013590 f i * CIL library *:* CIL module *
 0001:00012610       ??_Glocale@std@@QEAAPEAXI@Z 0000000180013610 f i node_snap7_client.obj
 0001:00012670       ??_E?$basic_ios@DU?$char_traits@D@std@@@std@@UEAAPEAXI@Z 0000000180013670 f i * CIL library *:* CIL module *
 0001:00012670       ??_G?$basic_ios@DU?$char_traits@D@std@@@std@@UEAAPEAXI@Z 0000000180013670 f i node_snap7_client.obj
 0001:000126b0       ??_D?$basic_iostream@DU?$char_traits@D@std@@@std@@QEAAXXZ 00000001800136b0 f i node_snap7_client.obj
 0001:00012740       ??0sentry@?$basic_ostream@DU?$char_traits@D@std@@@std@@QEAA@AEAV12@@Z 0000000180013740 f i node_snap7_client.obj
 0001:000127c0       ?do_put@?$num_put@DV?$ostreambuf_iterator@DU?$char_traits@D@std@@@std@@@std@@MEBA?AV?$ostreambuf_iterator@DU?$char_traits@D@std@@@2@V32@AEAVios_base@2@DPEBX@Z 00000001800137c0 f i node_snap7_client.obj
 0001:00012860       ?do_put@?$num_put@DV?$ostreambuf_iterator@DU?$char_traits@D@std@@@std@@@std@@MEBA?AV?$ostreambuf_iterator@DU?$char_traits@D@std@@@2@V32@AEAVios_base@2@DO@Z 0000000180013860 f i node_snap7_client.obj
 0001:00012ad0       ?do_put@?$num_put@DV?$ostreambuf_iterator@DU?$char_traits@D@std@@@std@@@std@@MEBA?AV?$ostreambuf_iterator@DU?$char_traits@D@std@@@2@V32@AEAVios_base@2@DN@Z 0000000180013ad0 f i node_snap7_client.obj
 0001:00012d40       ?do_put@?$num_put@DV?$ostreambuf_iterator@DU?$char_traits@D@std@@@std@@@std@@MEBA?AV?$ostreambuf_iterator@DU?$char_traits@D@std@@@2@V32@AEAVios_base@2@D_K@Z 0000000180013d40 f i node_snap7_client.obj
 0001:00012e40       ?do_put@?$num_put@DV?$ostreambuf_iterator@DU?$char_traits@D@std@@@std@@@std@@MEBA?AV?$ostreambuf_iterator@DU?$char_traits@D@std@@@2@V32@AEAVios_base@2@D_J@Z 0000000180013e40 f i node_snap7_client.obj
 0001:00012f40       ?do_put@?$num_put@DV?$ostreambuf_iterator@DU?$char_traits@D@std@@@std@@@std@@MEBA?AV?$ostreambuf_iterator@DU?$char_traits@D@std@@@2@V32@AEAVios_base@2@DK@Z 0000000180013f40 f i node_snap7_client.obj
 0001:00013040       ?do_put@?$num_put@DV?$ostreambuf_iterator@DU?$char_traits@D@std@@@std@@@std@@MEBA?AV?$ostreambuf_iterator@DU?$char_traits@D@std@@@2@V32@AEAVios_base@2@DJ@Z 0000000180014040 f i node_snap7_client.obj
 0001:00013140       ?do_put@?$num_put@DV?$ostreambuf_iterator@DU?$char_traits@D@std@@@std@@@std@@MEBA?AV?$ostreambuf_iterator@DU?$char_traits@D@std@@@2@V32@AEAVios_base@2@D_N@Z 0000000180014140 f i node_snap7_client.obj
 0001:00013600       ?_Tidy@?$basic_string@DU?$char_traits@D@std@@V?$allocator@D@2@@std@@QEAAX_N_K@Z 0000000180014600 f i node_snap7_client.obj
 0001:000136b0       ?assign@?$basic_string@DU?$char_traits@D@std@@V?$allocator@D@2@@std@@QEAAAEAV12@_KD@Z 00000001800146b0 f i node_snap7_client.obj
 0001:000137b0       ?assign@?$basic_string@DU?$char_traits@D@std@@V?$allocator@D@2@@std@@QEAAAEAV12@PEBD_K@Z 00000001800147b0 f i node_snap7_client.obj
 0001:000138e0       ?assign@?$basic_string@DU?$char_traits@D@std@@V?$allocator@D@2@@std@@QEAAAEAV12@AEBV12@_K1@Z 00000001800148e0 f i node_snap7_client.obj
 0001:00013a10       ?append@?$basic_string@DU?$char_traits@D@std@@V?$allocator@D@2@@std@@QEAAAEAV12@PEBD_K@Z 0000000180014a10 f i node_snap7_client.obj
 0001:00013b60       ?append@?$basic_string@DU?$char_traits@D@std@@V?$allocator@D@2@@std@@QEAAAEAV12@AEBV12@_K1@Z 0000000180014b60 f i node_snap7_client.obj
 0001:00013c90       ?_Assign_rv@?$basic_string@DU?$char_traits@D@std@@V?$allocator@D@2@@std@@QEAAX$$QEAV12@@Z 0000000180014c90 f i node_snap7_client.obj
 0001:00013d10       ?_Tidy@?$basic_stringbuf@DU?$char_traits@D@std@@V?$allocator@D@2@@std@@IEAAXXZ 0000000180014d10 f i node_snap7_client.obj
 0001:00013dd0       ?str@?$basic_stringbuf@DU?$char_traits@D@std@@V?$allocator@D@2@@std@@QEBA?AV?$basic_string@DU?$char_traits@D@std@@V?$allocator@D@2@@2@XZ 0000000180014dd0 f i node_snap7_client.obj
 0001:00013f60       ?allocate@?$allocator@D@std@@QEAAPEAD_K@Z 0000000180014f60 f i node_snap7_client.obj
 0001:00013fc0       ?deallocate@?$allocator@D@std@@QEAAXPEAD_K@Z 0000000180014fc0 f i node_snap7_client.obj
 0001:00014020       ??0?$basic_iostream@DU?$char_traits@D@std@@@std@@QEAA@PEAV?$basic_streambuf@DU?$char_traits@D@std@@@1@@Z 0000000180015020 f i node_snap7_client.obj
 0001:000140b0       ?_Pnavail@?$basic_streambuf@DU?$char_traits@D@std@@@std@@IEBA_JXZ 00000001800150b0 f i node_snap7_client.obj
 0001:000140d0       ?_Gnavail@?$basic_streambuf@DU?$char_traits@D@std@@@std@@IEBA_JXZ 00000001800150d0 f i node_snap7_client.obj
 0001:000140f0       ??_G?$num_put@DV?$ostreambuf_iterator@DU?$char_traits@D@std@@@std@@@std@@MEAAPEAXI@Z 00000001800150f0 f i node_snap7_client.obj
 0001:000140f0       ??_E?$num_put@DV?$ostreambuf_iterator@DU?$char_traits@D@std@@@std@@@std@@MEAAPEAXI@Z 00000001800150f0 f i * CIL library *:* CIL module *
 0001:00014120       ?do_truename@?$numpunct@D@std@@MEBA?AV?$basic_string@DU?$char_traits@D@std@@V?$allocator@D@2@@2@XZ 0000000180015120 f i node_snap7_client.obj
 0001:00014170       ?do_falsename@?$numpunct@D@std@@MEBA?AV?$basic_string@DU?$char_traits@D@std@@V?$allocator@D@2@@2@XZ 0000000180015170 f i node_snap7_client.obj
 0001:000141c0       ?do_grouping@?$numpunct@D@std@@MEBA?AV?$basic_string@DU?$char_traits@D@std@@V?$allocator@D@2@@2@XZ 00000001800151c0 f i node_snap7_client.obj
 0001:00014210       ?do_thousands_sep@?$numpunct@D@std@@MEBADXZ 0000000180015210 f i node_snap7_client.obj
 0001:00014220       ?do_decimal_point@?$numpunct@D@std@@MEBADXZ 0000000180015220 f i node_snap7_client.obj
 0001:00014230       ?_Iput@?$num_put@DV?$ostreambuf_iterator@DU?$char_traits@D@std@@@std@@@std@@AEBA?AV?$ostreambuf_iterator@DU?$char_traits@D@std@@@2@V32@AEAVios_base@2@DPEAD_K@Z 0000000180015230 f i node_snap7_client.obj
 0001:00014910       ?_Fput@?$num_put@DV?$ostreambuf_iterator@DU?$char_traits@D@std@@@std@@@std@@AEBA?AV?$ostreambuf_iterator@DU?$char_traits@D@std@@@2@V32@AEAVios_base@2@DPEBD_K@Z 0000000180015910 f i node_snap7_client.obj
 0001:00015170       ?erase@?$basic_string@DU?$char_traits@D@std@@V?$allocator@D@2@@std@@QEAAAEAV12@_K0@Z 0000000180016170 f i node_snap7_client.obj
 0001:00015240       ?append@?$basic_string@DU?$char_traits@D@std@@V?$allocator@D@2@@std@@QEAAAEAV12@_KD@Z 0000000180016240 f i node_snap7_client.obj
 0001:00015350       ?assign@?$basic_string@DU?$char_traits@D@std@@V?$allocator@D@2@@std@@QEAAAEAV12@$$QEAV12@@Z 0000000180016350 f i node_snap7_client.obj
 0001:00015400       ?flush@?$basic_ostream@DU?$char_traits@D@std@@@std@@QEAAAEAV12@XZ 0000000180016400 f i node_snap7_client.obj
 0001:00015520       ??0?$basic_streambuf@DU?$char_traits@D@std@@@std@@IEAA@XZ 0000000180016520 f i node_snap7_client.obj
 0001:000155c0       ??_E?$numpunct@D@std@@MEAAPEAXI@Z 00000001800165c0 f i * CIL library *:* CIL module *
 0001:000155c0       ??_G?$numpunct@D@std@@MEAAPEAXI@Z 00000001800165c0 f i node_snap7_client.obj
 0001:00015620       ?_Copy@?$basic_string@DU?$char_traits@D@std@@V?$allocator@D@2@@std@@QEAAX_K0@Z 0000000180016620 f i node_snap7_client.obj
 0001:000157a0       ?insert@?$basic_string@DU?$char_traits@D@std@@V?$allocator@D@2@@std@@QEAAAEAV12@_K0D@Z 00000001800167a0 f i node_snap7_client.obj
 0001:00015910       ?init@?$basic_ios@DU?$char_traits@D@std@@@std@@IEAAXPEAV?$basic_streambuf@DU?$char_traits@D@std@@@2@_N@Z 0000000180016910 f i node_snap7_client.obj
 0001:000159b0       ?widen@?$basic_ios@DU?$char_traits@D@std@@@std@@QEBADD@Z 00000001800169b0 f i node_snap7_client.obj
 0001:00015a30       ??$use_facet@V?$ctype@D@std@@@std@@YAAEBV?$ctype@D@0@AEBVlocale@0@@Z 0000000180016a30 f i node_snap7_client.obj
 0001:00015b60       ??$_Immortalize@V_Iostream_error_category@std@@@std@@YAAEAV_Iostream_error_category@0@XZ 0000000180016b60 f i node_snap7_client.obj
 0001:00015be0       ??$New@VInteger@v8@@I@Nan@@YA?AV?$Local@VInteger@v8@@@v8@@I@Z 0000000180016be0 f i node_snap7_client.obj
 0001:00015c60       ??$Unwrap@VS7Client@node_snap7@@@ObjectWrap@Nan@@SAPEAVS7Client@node_snap7@@V?$Local@VObject@v8@@@v8@@@Z 0000000180016c60 f i node_snap7_client.obj
 0001:00015ce0       ??$?6U?$char_traits@D@std@@@std@@YAAEAV?$basic_ostream@DU?$char_traits@D@std@@@0@AEAV10@PEBD@Z 0000000180016ce0 f i node_snap7_client.obj
 0001:00015f60       ??$use_facet@V?$num_put@DV?$ostreambuf_iterator@DU?$char_traits@D@std@@@std@@@std@@@std@@YAAEBV?$num_put@DV?$ostreambuf_iterator@DU?$char_traits@D@std@@@std@@@0@AEBVlocale@0@@Z 0000000180016f60 f i node_snap7_client.obj
 0001:00016090       ??$use_facet@V?$numpunct@D@std@@@std@@YAAEBV?$numpunct@D@0@AEBVlocale@0@@Z 0000000180017090 f i node_snap7_client.obj
 0001:000161c0       ?_Getcat@?$numpunct@D@std@@SA_KPEAPEBVfacet@locale@2@PEBV42@@Z 00000001800171c0 f i node_snap7_client.obj
 0001:00016280       ?_Getcat@?$num_put@DV?$ostreambuf_iterator@DU?$char_traits@D@std@@@std@@@std@@SA_KPEAPEBVfacet@locale@2@PEBV42@@Z 0000000180017280 f i node_snap7_client.obj
 0001:00016330       ?_Init@?$numpunct@D@std@@IEAAXAEBV_Locinfo@2@_N@Z 0000000180017330 f i node_snap7_client.obj
 0001:000164b0       ?New@?$IntegerFactory@VInteger@v8@@@imp@Nan@@SA?AV?$Local@VInteger@v8@@@v8@@H@Z 00000001800174b0 f i node_snap7_client.obj
 0001:00016528       ??_E?$basic_ostream@DU?$char_traits@D@std@@@std@@$4PPPPPPPM@A@EAAPEAXI@Z 0000000180017528 f i node_snap7_client.obj
 0001:00016534       ??_E?$basic_stringstream@DU?$char_traits@D@std@@V?$allocator@D@2@@std@@$4PPPPPPPM@A@EAAPEAXI@Z 0000000180017534 f i node_snap7_client.obj
 0001:00016540       ??_E?$basic_istream@DU?$char_traits@D@std@@@std@@$4PPPPPPPM@A@EAAPEAXI@Z 0000000180017540 f i node_snap7_client.obj
 0001:0001654c       ??_E?$basic_iostream@DU?$char_traits@D@std@@@std@@$4PPPPPPPM@A@EAAPEAXI@Z 000000018001754c f i node_snap7_client.obj
 0001:00016560       ?ConnectTo@TS7Client@@QEAAHPEBDHH@Z 0000000180017560 f   snap7.obj
 0001:000165c0       ?PlcStatus@TS7Client@@QEAAHXZ 00000001800175c0 f   snap7.obj
 0001:00016690       DllMain                    0000000180017690 f   snap7:snap7_libmain.obj
 0001:000166b0       Cli_Create                 00000001800176b0 f   snap7:snap7_libmain.obj
 0001:00016710       Cli_Destroy                0000000180017710 f   snap7:snap7_libmain.obj
 0001:00016710       Par_Destroy                0000000180017710 f   snap7:snap7_libmain.obj
 0001:00016740       Cli_SetConnectionParams    0000000180017740 f   snap7:snap7_libmain.obj
 0001:00016780       Cli_SetConnectionType      0000000180017780 f   snap7:snap7_libmain.obj
 0001:000167a0       Cli_ConnectTo              00000001800177a0 f   snap7:snap7_libmain.obj
 0001:00016800       Cli_Connect                0000000180017800 f   snap7:snap7_libmain.obj
 0001:00016810       Cli_Disconnect             0000000180017810 f   snap7:snap7_libmain.obj
 0001:00016870       Cli_GetParam               0000000180017870 f   snap7:snap7_libmain.obj
 0001:00016880       Cli_SetParam               0000000180017880 f   snap7:snap7_libmain.obj
 0001:00016890       Cli_SetAsCallback          0000000180017890 f   snap7:snap7_libmain.obj
 0001:000168b0       Cli_ReadArea               00000001800178b0 f   snap7:snap7_libmain.obj
 0001:000168c0       Cli_WriteArea              00000001800178c0 f   snap7:snap7_libmain.obj
 0001:000168d0       Cli_ReadMultiVars          00000001800178d0 f   snap7:snap7_libmain.obj
 0001:00016950       Cli_WriteMultiVars         0000000180017950 f   snap7:snap7_libmain.obj
 0001:000169d0       Cli_DBRead                 00000001800179d0 f   snap7:snap7_libmain.obj
 0001:000169e0       Cli_DBWrite                00000001800179e0 f   snap7:snap7_libmain.obj
 0001:000169f0       Cli_MBRead                 00000001800179f0 f   snap7:snap7_libmain.obj
 0001:00016a00       Cli_MBWrite                0000000180017a00 f   snap7:snap7_libmain.obj
 0001:00016a10       Cli_EBRead                 0000000180017a10 f   snap7:snap7_libmain.obj
 0001:00016a20       Cli_EBWrite                0000000180017a20 f   snap7:snap7_libmain.obj
 0001:00016a30       Cli_ABRead                 0000000180017a30 f   snap7:snap7_libmain.obj
 0001:00016a40       Cli_ABWrite                0000000180017a40 f   snap7:snap7_libmain.obj
 0001:00016a50       Cli_TMRead                 0000000180017a50 f   snap7:snap7_libmain.obj
 0001:00016a60       Cli_TMWrite                0000000180017a60 f   snap7:snap7_libmain.obj
 0001:00016a70       Cli_CTRead                 0000000180017a70 f   snap7:snap7_libmain.obj
 0001:00016a80       Cli_CTWrite                0000000180017a80 f   snap7:snap7_libmain.obj
 0001:00016a90       Cli_ListBlocks             0000000180017a90 f   snap7:snap7_libmain.obj
 0001:00016b10       Cli_GetAgBlockInfo         0000000180017b10 f   snap7:snap7_libmain.obj
 0001:00016ba0       Cli_GetPgBlockInfo         0000000180017ba0 f   snap7:snap7_libmain.obj
 0001:00016bb0       Cli_ListBlocksOfType       0000000180017bb0 f   snap7:snap7_libmain.obj
 0001:00016bc0       Cli_Upload                 0000000180017bc0 f   snap7:snap7_libmain.obj
 0001:00016bd0       Cli_FullUpload             0000000180017bd0 f   snap7:snap7_libmain.obj
 0001:00016be0       Cli_Download               0000000180017be0 f   snap7:snap7_libmain.obj
 0001:00016bf0       Cli_Delete                 0000000180017bf0 f   snap7:snap7_libmain.obj
 0001:00016c70       Cli_DBGet                  0000000180017c70 f   snap7:snap7_libmain.obj
 0001:00016c80       Cli_DBFill                 0000000180017c80 f   snap7:snap7_libmain.obj
 0001:00016d00       Cli_GetPlcDateTime         0000000180017d00 f   snap7:snap7_libmain.obj
 0001:00016d80       Cli_SetPlcDateTime         0000000180017d80 f   snap7:snap7_libmain.obj
 0001:00016e00       Cli_SetPlcSystemDateTime   0000000180017e00 f   snap7:snap7_libmain.obj
 0001:00016e10       Cli_GetOrderCode           0000000180017e10 f   snap7:snap7_libmain.obj
 0001:00016e90       Cli_GetCpuInfo             0000000180017e90 f   snap7:snap7_libmain.obj
 0001:00016f10       Cli_GetCpInfo              0000000180017f10 f   snap7:snap7_libmain.obj
 0001:00016f90       Cli_ReadSZL                0000000180017f90 f   snap7:snap7_libmain.obj
 0001:00016fa0       Cli_ReadSZLList            0000000180017fa0 f   snap7:snap7_libmain.obj
 0001:00017030       Cli_PlcHotStart            0000000180018030 f   snap7:snap7_libmain.obj
 0001:000170a0       Cli_PlcColdStart           00000001800180a0 f   snap7:snap7_libmain.obj
 0001:00017110       Cli_PlcStop                0000000180018110 f   snap7:snap7_libmain.obj
 0001:00017180       Cli_CopyRamToRom           0000000180018180 f   snap7:snap7_libmain.obj
 0001:00017190       Cli_AsCompress             0000000180018190 f   snap7:snap7_libmain.obj
 0001:00017190       Cli_Compress               0000000180018190 f   snap7:snap7_libmain.obj
 0001:000171a0       Cli_GetPlcStatus           00000001800181a0 f   snap7:snap7_libmain.obj
 0001:00017220       Cli_GetProtection          0000000180018220 f   snap7:snap7_libmain.obj
 0001:000172a0       Cli_SetSessionPassword     00000001800182a0 f   snap7:snap7_libmain.obj
 0001:000172b0       Cli_ClearSessionPassword   00000001800182b0 f   snap7:snap7_libmain.obj
 0001:00017320       Cli_IsoExchangeBuffer      0000000180018320 f   snap7:snap7_libmain.obj
 0001:00017390       Cli_GetExecTime            0000000180018390 f   snap7:snap7_libmain.obj
 0001:000173b0       Cli_GetLastError           00000001800183b0 f   snap7:snap7_libmain.obj
 0001:000173b0       Par_GetLastError           00000001800183b0 f   snap7:snap7_libmain.obj
 0001:000173d0       Cli_GetPduLength           00000001800183d0 f   snap7:snap7_libmain.obj
 0001:000173f0       Cli_ErrorText              00000001800183f0 f   snap7:snap7_libmain.obj
 0001:000174d0       Cli_GetConnected           00000001800184d0 f   snap7:snap7_libmain.obj
 0001:000174f0       Cli_AsReadArea             00000001800184f0 f   snap7:snap7_libmain.obj
 0001:00017500       Cli_AsWriteArea            0000000180018500 f   snap7:snap7_libmain.obj
 0001:00017510       Cli_AsDBRead               0000000180018510 f   snap7:snap7_libmain.obj
 0001:00017520       Cli_AsDBWrite              0000000180018520 f   snap7:snap7_libmain.obj
 0001:00017560       Cli_AsMBRead               0000000180018560 f   snap7:snap7_libmain.obj
 0001:00017570       Cli_AsMBWrite              0000000180018570 f   snap7:snap7_libmain.obj
 0001:000175b0       Cli_AsEBRead               00000001800185b0 f   snap7:snap7_libmain.obj
 0001:000175c0       Cli_AsEBWrite              00000001800185c0 f   snap7:snap7_libmain.obj
 0001:00017600       Cli_AsABRead               0000000180018600 f   snap7:snap7_libmain.obj
 0001:00017610       Cli_AsABWrite              0000000180018610 f   snap7:snap7_libmain.obj
 0001:00017650       Cli_AsTMRead               0000000180018650 f   snap7:snap7_libmain.obj
 0001:00017660       Cli_AsTMWrite              0000000180018660 f   snap7:snap7_libmain.obj
 0001:000176a0       Cli_AsCTRead               00000001800186a0 f   snap7:snap7_libmain.obj
 0001:000176b0       Cli_AsCTWrite              00000001800186b0 f   snap7:snap7_libmain.obj
 0001:000176f0       Cli_AsListBlocksOfType     00000001800186f0 f   snap7:snap7_libmain.obj
 0001:00017770       Cli_AsReadSZL              0000000180018770 f   snap7:snap7_libmain.obj
 0001:00017780       Cli_AsReadSZLList          0000000180018780 f   snap7:snap7_libmain.obj
 0001:00017810       Cli_AsUpload               0000000180018810 f   snap7:snap7_libmain.obj
 0001:00017820       Cli_AsFullUpload           0000000180018820 f   snap7:snap7_libmain.obj
 0001:00017830       Cli_AsDownload             0000000180018830 f   snap7:snap7_libmain.obj
 0001:00017840       Cli_AsCopyRamToRom         0000000180018840 f   snap7:snap7_libmain.obj
 0001:00017850       Cli_AsDBGet                0000000180018850 f   snap7:snap7_libmain.obj
 0001:00017860       Cli_AsDBFill               0000000180018860 f   snap7:snap7_libmain.obj
 0001:000178e0       Cli_CheckAsCompletion      00000001800188e0 f   snap7:snap7_libmain.obj
 0001:00017930       Cli_WaitAsCompletion       0000000180018930 f   snap7:snap7_libmain.obj
 0001:00017940       Srv_Create                 0000000180018940 f   snap7:snap7_libmain.obj
 0001:00017960       Srv_Destroy                0000000180018960 f   snap7:snap7_libmain.obj
 0001:00017990       Srv_GetParam               0000000180018990 f   snap7:snap7_libmain.obj
 0001:000179f0       Srv_SetParam               00000001800189f0 f   snap7:snap7_libmain.obj
 0001:00017a00       Srv_StartTo                0000000180018a00 f   snap7:snap7_libmain.obj
 0001:00017a50       Srv_Start                  0000000180018a50 f   snap7:snap7_libmain.obj
 0001:00017a60       Srv_Stop                   0000000180018a60 f   snap7:snap7_libmain.obj
 0001:00017a80       Srv_RegisterArea           0000000180018a80 f   snap7:snap7_libmain.obj
 0001:00017ab0       Srv_UnregisterArea         0000000180018ab0 f   snap7:snap7_libmain.obj
 0001:00017ae0       Srv_LockArea               0000000180018ae0 f   snap7:snap7_libmain.obj
 0001:00017af0       Srv_UnlockArea             0000000180018af0 f   snap7:snap7_libmain.obj
 0001:00017b00       Srv_GetStatus              0000000180018b00 f   snap7:snap7_libmain.obj
 0001:00017b30       Srv_SetCpuStatus           0000000180018b30 f   snap7:snap7_libmain.obj
 0001:00017b50       Srv_ErrorText              0000000180018b50 f   snap7:snap7_libmain.obj
 0001:00017c30       Srv_EventText              0000000180018c30 f   snap7:snap7_libmain.obj
 0001:00017d10       Srv_PickEvent              0000000180018d10 f   snap7:snap7_libmain.obj
 0001:00017d50       Srv_ClearEvents            0000000180018d50 f   snap7:snap7_libmain.obj
 0001:00017d90       Srv_GetMask                0000000180018d90 f   snap7:snap7_libmain.obj
 0001:00017dd0       Srv_SetMask                0000000180018dd0 f   snap7:snap7_libmain.obj
 0001:00017e00       Srv_SetEventsCallback      0000000180018e00 f   snap7:snap7_libmain.obj
 0001:00017e20       Srv_SetReadEventsCallback  0000000180018e20 f   snap7:snap7_libmain.obj
 0001:00017e40       Srv_SetRWAreaCallback      0000000180018e40 f   snap7:snap7_libmain.obj
 0001:00017e70       Par_Create                 0000000180018e70 f   snap7:snap7_libmain.obj
 0001:00017ea0       Par_GetParam               0000000180018ea0 f   snap7:snap7_libmain.obj
 0001:00017eb0       Par_SetParam               0000000180018eb0 f   snap7:snap7_libmain.obj
 0001:00017ec0       Par_StartTo                0000000180018ec0 f   snap7:snap7_libmain.obj
 0001:00017f30       Par_Start                  0000000180018f30 f   snap7:snap7_libmain.obj
 0001:00017f40       Par_Stop                   0000000180018f40 f   snap7:snap7_libmain.obj
 0001:00017f50       Par_BSend                  0000000180018f50 f   snap7:snap7_libmain.obj
 0001:00017f80       Par_AsBSend                0000000180018f80 f   snap7:snap7_libmain.obj
 0001:00017f90       Par_CheckAsBSendCompletion 0000000180018f90 f   snap7:snap7_libmain.obj
 0001:00017fe0       Par_WaitAsBSendCompletion  0000000180018fe0 f   snap7:snap7_libmain.obj
 0001:00017ff0       Par_SetSendCallback        0000000180018ff0 f   snap7:snap7_libmain.obj
 0001:00018010       Par_BRecv                  0000000180019010 f   snap7:snap7_libmain.obj
 0001:00018020       Par_CheckAsBRecvCompletion 0000000180019020 f   snap7:snap7_libmain.obj
 0001:00018050       Par_SetRecvCallback        0000000180019050 f   snap7:snap7_libmain.obj
 0001:00018070       Par_GetTimes               0000000180019070 f   snap7:snap7_libmain.obj
 0001:00018090       Par_GetStats               0000000180019090 f   snap7:snap7_libmain.obj
 0001:000180d0       Par_GetStatus              00000001800190d0 f   snap7:snap7_libmain.obj
 0001:00018150       Par_ErrorText              0000000180019150 f   snap7:snap7_libmain.obj
 0001:00018230       ??_ETConnListenerThread@@UEAAPEAXI@Z 0000000180019230 f i * CIL library *:* CIL module *
 0001:00018230       ??_ETMsgListenerThread@@UEAAPEAXI@Z 0000000180019230 f i * CIL library *:* CIL module *
 0001:00018230       ??_GTMsgListenerThread@@UEAAPEAXI@Z 0000000180019230 f i snap7:snap_tcpsrvr.obj
 0001:00018230       ??_GTPartnerThread@@UEAAPEAXI@Z 0000000180019230 f i snap7:s7_partner.obj
 0001:00018230       ??_ETPartnerThread@@UEAAPEAXI@Z 0000000180019230 f i * CIL library *:* CIL module *
 0001:00018230       ??_GTConnListenerThread@@UEAAPEAXI@Z 0000000180019230 f i snap7:s7_partner.obj
 0001:000182a0       ?ServersManager_GetServer@@YAHIAEAPEAVTConnectionServer@@@Z 00000001800192a0 f   snap7:s7_partner.obj
 0001:00018340       ??1TServersManager@@QEAA@XZ 0000000180019340 f   snap7:s7_partner.obj
 0001:00018430       ?GetServer@TServersManager@@QEAAHIAEAPEAVTConnectionServer@@@Z 0000000180019430 f   snap7:s7_partner.obj
 0001:000185d0       ?RemovePartner@TServersManager@@QEAAXPEAVTConnectionServer@@PEAVTSnap7Partner@@@Z 00000001800195d0 f   snap7:s7_partner.obj
 0001:000186d0       ?Execute@TConnListenerThread@@UEAAXXZ 00000001800196d0 f   snap7:s7_partner.obj
 0001:00018780       ?Start@TConnectionServer@@IEAAHXZ 0000000180019780 f   snap7:s7_partner.obj
 0001:000188c0       ?Stop@TConnectionServer@@QEAAXXZ 00000001800198c0 f   snap7:s7_partner.obj
 0001:00018960       ?RegisterPartner@TConnectionServer@@QEAAHPEAVTSnap7Partner@@@Z 0000000180019960 f   snap7:s7_partner.obj
 0001:00018a30       ?Incoming@TConnectionServer@@IEAAX_K@Z 0000000180019a30 f   snap7:s7_partner.obj
 0001:00018b30       ?Execute@TPartnerThread@@MEAAXXZ 0000000180019b30 f   snap7:s7_partner.obj
 0001:00018df0       ??0TSnap7Partner@@QEAA@_N@Z 0000000180019df0 f   snap7:s7_partner.obj
 0001:00018f60       ??_GTSnap7Partner@@UEAAPEAXI@Z 0000000180019f60 f i snap7:s7_partner.obj
 0001:00018f60       ??_ETSnap7Partner@@UEAAPEAXI@Z 0000000180019f60 f i * CIL library *:* CIL module *
 0001:00018fa0       ??1TSnap7Partner@@UEAA@XZ  0000000180019fa0 f   snap7:s7_partner.obj
 0001:00019040       ?Start@TSnap7Partner@@QEAAHXZ 000000018001a040 f   snap7:s7_partner.obj
 0001:00019170       ?Stop@TSnap7Partner@@QEAAHXZ 000000018001a170 f   snap7:s7_partner.obj
 0001:00019250       ?GetParam@TSnap7Partner@@QEAAHHPEAX@Z 000000018001a250 f   snap7:s7_partner.obj
 0001:00019360       ?SetParam@TSnap7Partner@@QEAAHHPEAX@Z 000000018001a360 f   snap7:s7_partner.obj
 0001:00019470       ?PerformFunctionNegotiate@TSnap7Partner@@IEAA_NXZ 000000018001a470 f   snap7:s7_partner.obj
 0001:000195a0       ?CloseWorker@TSnap7Partner@@AEAAXXZ 000000018001a5a0 f   snap7:s7_partner.obj
 0001:00019670       ?BlockSend@TSnap7Partner@@AEAA_NXZ 000000018001a670 f   snap7:s7_partner.obj
 0001:000199d0       ?PickData@TSnap7Partner@@AEAA_NXZ 000000018001a9d0 f   snap7:s7_partner.obj
 0001:00019b80       ?BlockRecv@TSnap7Partner@@AEAA_NXZ 000000018001ab80 f   snap7:s7_partner.obj
 0001:00019d10       ?ConnectionConfirm@TSnap7Partner@@AEAA_NXZ 000000018001ad10 f   snap7:s7_partner.obj
 0001:00019da0       ?Execute@TSnap7Partner@@MEAA_NXZ 000000018001ada0 f   snap7:s7_partner.obj
 0001:00019ff0       ?AsBSend@TSnap7Partner@@QEAAHIPEAXH@Z 000000018001aff0 f   snap7:s7_partner.obj
 0001:0001a0c0       ?WaitAsBSendCompletion@TSnap7Partner@@QEAAHI@Z 000000018001b0c0 f   snap7:s7_partner.obj
 0001:0001a140       ?BRecv@TSnap7Partner@@QEAAHAEAIPEAXAEAHI@Z 000000018001b140 f   snap7:s7_partner.obj
 0001:0001a230       ?CheckAsBRecvCompletion@TSnap7Partner@@QEAA_NAEAHAEAIPEAX0@Z 000000018001b230 f   snap7:s7_partner.obj
 0001:0001a2d0       ??_GTClientThread@@UEAAPEAXI@Z 000000018001b2d0 f i snap7:s7_client.obj
 0001:0001a2d0       ??_ETClientThread@@UEAAPEAXI@Z 000000018001b2d0 f i * CIL library *:* CIL module *
 0001:0001a340       ??_ETSnap7Client@@UEAAPEAXI@Z 000000018001b340 f i * CIL library *:* CIL module *
 0001:0001a340       ??_GTSnap7Client@@UEAAPEAXI@Z 000000018001b340 f i snap7:s7_client.obj
 0001:0001a380       ??1TSnap7Client@@UEAA@XZ   000000018001b380 f   snap7:s7_client.obj
 0001:0001a470       ?CloseThread@TSnap7Client@@AEAAXXZ 000000018001b470 f   snap7:s7_client.obj
 0001:0001a550       ?OpenThread@TSnap7Client@@AEAAXXZ 000000018001b550 f   snap7:s7_client.obj
 0001:0001a5d0       ?DoCompletion@TSnap7Client@@IEAAXXZ 000000018001b5d0 f   snap7:s7_client.obj
 0001:0001a610       ?AsReadArea@TSnap7Client@@QEAAHHHHHHPEAX@Z 000000018001b610 f   snap7:s7_client.obj
 0001:0001a6b0       ?AsWriteArea@TSnap7Client@@QEAAHHHHHHPEAX@Z 000000018001b6b0 f   snap7:s7_client.obj
 0001:0001a7c0       ?AsReadSZL@TSnap7Client@@QEAAHHHPEAUTS7SZL@@AEAH@Z 000000018001b7c0 f   snap7:s7_client.obj
 0001:0001a860       ?AsUpload@TSnap7Client@@QEAAHHHPEAXAEAH@Z 000000018001b860 f   snap7:s7_client.obj
 0001:0001a900       ?AsFullUpload@TSnap7Client@@QEAAHHHPEAXAEAH@Z 000000018001b900 f   snap7:s7_client.obj
 0001:0001a9a0       ?AsDownload@TSnap7Client@@QEAAHHPEAXH@Z 000000018001b9a0 f   snap7:s7_client.obj
 0001:0001aa80       ?AsCopyRamToRom@TSnap7Client@@QEAAHH@Z 000000018001ba80 f   snap7:s7_client.obj
 0001:0001ab10       ?AsDBRead@TSnap7Client@@QEAAHHHHPEAX@Z 000000018001bb10 f   snap7:s7_client.obj
 0001:0001abb0       ?AsMBRead@TSnap7Client@@QEAAHHHPEAX@Z 000000018001bbb0 f   snap7:s7_client.obj
 0001:0001ac40       ?AsEBRead@TSnap7Client@@QEAAHHHPEAX@Z 000000018001bc40 f   snap7:s7_client.obj
 0001:0001acd0       ?AsABRead@TSnap7Client@@QEAAHHHPEAX@Z 000000018001bcd0 f   snap7:s7_client.obj
 0001:0001ad60       ?AsTMRead@TSnap7Client@@QEAAHHHPEAX@Z 000000018001bd60 f   snap7:s7_client.obj
 0001:0001adf0       ?AsCTRead@TSnap7Client@@QEAAHHHPEAX@Z 000000018001bdf0 f   snap7:s7_client.obj
 0001:0001ae80       ?AsDBGet@TSnap7Client@@QEAAHHPEAXAEAH@Z 000000018001be80 f   snap7:s7_client.obj
 0001:0001af30       ?StartAsyncJob@TSnap7Client@@AEAAXXZ 000000018001bf30 f   snap7:s7_client.obj
 0001:0001b000       ?WaitAsCompletion@TSnap7Client@@QEAAHK@Z 000000018001c000 f   snap7:s7_client.obj
 0001:0001b0a0       ?Execute@TClientThread@@UEAAXXZ 000000018001c0a0 f   snap7:s7_client.obj
 0001:0001b110       ??0TSnap7MicroClient@@QEAA@XZ 000000018001c110 f   snap7:s7_micro_client.obj
 0001:0001b1a0       ??_GTSnap7MicroClient@@UEAAPEAXI@Z 000000018001c1a0 f i snap7:s7_micro_client.obj
 0001:0001b1a0       ??_ETSnap7MicroClient@@UEAAPEAXI@Z 000000018001c1a0 f i * CIL library *:* CIL module *
 0001:0001b1f0       ?opReadArea@TSnap7MicroClient@@AEAAHXZ 000000018001c1f0 f   snap7:s7_micro_client.obj
 0001:0001b570       ?opWriteArea@TSnap7MicroClient@@AEAAHXZ 000000018001c570 f   snap7:s7_micro_client.obj
 0001:0001b9a0       ?opReadMultiVars@TSnap7MicroClient@@AEAAHXZ 000000018001c9a0 f   snap7:s7_micro_client.obj
 0001:0001bd30       ?opWriteMultiVars@TSnap7MicroClient@@AEAAHXZ 000000018001cd30 f   snap7:s7_micro_client.obj
 0001:0001c240       ?opListBlocks@TSnap7MicroClient@@AEAAHXZ 000000018001d240 f   snap7:s7_micro_client.obj
 0001:0001c4d0       ?opListBlocksOfType@TSnap7MicroClient@@AEAAHXZ 000000018001d4d0 f   snap7:s7_micro_client.obj
 0001:0001c840       ?FillTime@TSnap7MicroClient@@AEAAXGPEAD@Z 000000018001d840 f   snap7:s7_micro_client.obj
 0001:0001c8a0       ?opAgBlockInfo@TSnap7MicroClient@@AEAAHXZ 000000018001d8a0 f   snap7:s7_micro_client.obj
 0001:0001cbf0       ?opDBGet@TSnap7MicroClient@@AEAAHXZ 000000018001dbf0 f   snap7:s7_micro_client.obj
 0001:0001cce0       ?opDBFill@TSnap7MicroClient@@AEAAHXZ 000000018001dce0 f   snap7:s7_micro_client.obj
 0001:0001cdb0       ?opUpload@TSnap7MicroClient@@AEAAHXZ 000000018001ddb0 f   snap7:s7_micro_client.obj
 0001:0001d410       ?opDownload@TSnap7MicroClient@@AEAAHXZ 000000018001e410 f   snap7:s7_micro_client.obj
 0001:0001dc40       ?opDelete@TSnap7MicroClient@@AEAAHXZ 000000018001ec40 f   snap7:s7_micro_client.obj
 0001:0001de50       ?opReadSZL@TSnap7MicroClient@@AEAAHXZ 000000018001ee50 f   snap7:s7_micro_client.obj
 0001:0001e260       ?opReadSZLList@TSnap7MicroClient@@AEAAHXZ 000000018001f260 f   snap7:s7_micro_client.obj
 0001:0001e350       ?opGetDateTime@TSnap7MicroClient@@AEAAHXZ 000000018001f350 f   snap7:s7_micro_client.obj
 0001:0001e5a0       ?opSetDateTime@TSnap7MicroClient@@AEAAHXZ 000000018001f5a0 f   snap7:s7_micro_client.obj
 0001:0001e7d0       ?opGetOrderCode@TSnap7MicroClient@@AEAAHXZ 000000018001f7d0 f   snap7:s7_micro_client.obj
 0001:0001e870       ?opGetCpuInfo@TSnap7MicroClient@@AEAAHXZ 000000018001f870 f   snap7:s7_micro_client.obj
 0001:0001e950       ?opGetCpInfo@TSnap7MicroClient@@AEAAHXZ 000000018001f950 f   snap7:s7_micro_client.obj
 0001:0001e9f0       ?opGetPlcStatus@TSnap7MicroClient@@AEAAHXZ 000000018001f9f0 f   snap7:s7_micro_client.obj
 0001:0001ea70       ?opPlcStop@TSnap7MicroClient@@AEAAHXZ 000000018001fa70 f   snap7:s7_micro_client.obj
 0001:0001eb90       ?opPlcHotStart@TSnap7MicroClient@@AEAAHXZ 000000018001fb90 f   snap7:s7_micro_client.obj
 0001:0001ecc0       ?opPlcColdStart@TSnap7MicroClient@@AEAAHXZ 000000018001fcc0 f   snap7:s7_micro_client.obj
 0001:0001ee10       ?opCopyRamToRom@TSnap7MicroClient@@AEAAHXZ 000000018001fe10 f   snap7:s7_micro_client.obj
 0001:0001ef60       ?opCompress@TSnap7MicroClient@@AEAAHXZ 000000018001ff60 f   snap7:s7_micro_client.obj
 0001:0001f090       ?opGetProtection@TSnap7MicroClient@@AEAAHXZ 0000000180020090 f   snap7:s7_micro_client.obj
 0001:0001f150       ?opSetPassword@TSnap7MicroClient@@AEAAHXZ 0000000180020150 f   snap7:s7_micro_client.obj
 0001:0001f350       ?opClearPassword@TSnap7MicroClient@@AEAAHXZ 0000000180020350 f   snap7:s7_micro_client.obj
 0001:0001f470       ?CpuError@TSnap7MicroClient@@AEAAHH@Z 0000000180020470 f   snap7:s7_micro_client.obj
 0001:0001f510       ?DataSizeByte@TSnap7MicroClient@@IEAAHH@Z 0000000180020510 f   snap7:s7_micro_client.obj
 0001:0001f580       ?PerformOperation@TSnap7MicroClient@@IEAAHXZ 0000000180020580 f   snap7:s7_micro_client.obj
 0001:0001f7f0       ?Connect@TSnap7MicroClient@@QEAAHXZ 00000001800207f0 f   snap7:s7_micro_client.obj
 0001:0001f880       ?GetParam@TSnap7MicroClient@@QEAAHHPEAX@Z 0000000180020880 f   snap7:s7_micro_client.obj
 0001:0001f930       ?SetParam@TSnap7MicroClient@@QEAAHHPEAX@Z 0000000180020930 f   snap7:s7_micro_client.obj
 0001:0001fa00       ?ReadArea@TSnap7MicroClient@@QEAAHHHHHHPEAX@Z 0000000180020a00 f   snap7:s7_micro_client.obj
 0001:0001fa90       ?WriteArea@TSnap7MicroClient@@QEAAHHHHHHPEAX@Z 0000000180020a90 f   snap7:s7_micro_client.obj
 0001:0001fb20       ?DBRead@TSnap7MicroClient@@QEAAHHHHPEAX@Z 0000000180020b20 f   snap7:s7_micro_client.obj
 0001:0001fbb0       ?DBWrite@TSnap7MicroClient@@QEAAHHHHPEAX@Z 0000000180020bb0 f   snap7:s7_micro_client.obj
 0001:0001fc40       ?MBRead@TSnap7MicroClient@@QEAAHHHPEAX@Z 0000000180020c40 f   snap7:s7_micro_client.obj
 0001:0001fcd0       ?MBWrite@TSnap7MicroClient@@QEAAHHHPEAX@Z 0000000180020cd0 f   snap7:s7_micro_client.obj
 0001:0001fd60       ?EBRead@TSnap7MicroClient@@QEAAHHHPEAX@Z 0000000180020d60 f   snap7:s7_micro_client.obj
 0001:0001fdf0       ?EBWrite@TSnap7MicroClient@@QEAAHHHPEAX@Z 0000000180020df0 f   snap7:s7_micro_client.obj
 0001:0001fe80       ?ABRead@TSnap7MicroClient@@QEAAHHHPEAX@Z 0000000180020e80 f   snap7:s7_micro_client.obj
 0001:0001ff10       ?ABWrite@TSnap7MicroClient@@QEAAHHHPEAX@Z 0000000180020f10 f   snap7:s7_micro_client.obj
 0001:0001ffa0       ?TMRead@TSnap7MicroClient@@QEAAHHHPEAX@Z 0000000180020fa0 f   snap7:s7_micro_client.obj
 0001:00020030       ?TMWrite@TSnap7MicroClient@@QEAAHHHPEAX@Z 0000000180021030 f   snap7:s7_micro_client.obj
 0001:000200c0       ?CTRead@TSnap7MicroClient@@QEAAHHHPEAX@Z 00000001800210c0 f   snap7:s7_micro_client.obj
 0001:00020150       ?CTWrite@TSnap7MicroClient@@QEAAHHHPEAX@Z 0000000180021150 f   snap7:s7_micro_client.obj
 0001:000201e0       ?GetPgBlockInfo@TSnap7MicroClient@@QEAAHPEAXPEAUTS7BlockInfo@@H@Z 00000001800211e0 f   snap7:s7_micro_client.obj
 0001:000203b0       ?ListBlocksOfType@TSnap7MicroClient@@QEAAHHPEAY0CAAA@GAEAH@Z 00000001800213b0 f   snap7:s7_micro_client.obj
 0001:00020450       ?Upload@TSnap7MicroClient@@QEAAHHHPEAXAEAH@Z 0000000180021450 f   snap7:s7_micro_client.obj
 0001:00020510       ?FullUpload@TSnap7MicroClient@@QEAAHHHPEAXAEAH@Z 0000000180021510 f   snap7:s7_micro_client.obj
 0001:000205d0       ?Download@TSnap7MicroClient@@QEAAHHPEAXH@Z 00000001800215d0 f   snap7:s7_micro_client.obj
 0001:00020670       ?DBGet@TSnap7MicroClient@@QEAAHHPEAXAEAH@Z 0000000180021670 f   snap7:s7_micro_client.obj
 0001:00020710       ?SetPlcSystemDateTime@TSnap7MicroClient@@QEAAHXZ 0000000180021710 f   snap7:s7_micro_client.obj
 0001:00020790       ?ReadSZL@TSnap7MicroClient@@QEAAHHHPEAUTS7SZL@@AEAH@Z 0000000180021790 f   snap7:s7_micro_client.obj
 0001:00020820       ?CopyRamToRom@TSnap7MicroClient@@QEAAHH@Z 0000000180021820 f   snap7:s7_micro_client.obj
 0001:000208b0       ?Compress@TSnap7MicroClient@@QEAAHH@Z 00000001800218b0 f   snap7:s7_micro_client.obj
 0001:00020940       ?SetSessionPassword@TSnap7MicroClient@@QEAAHPEAD@Z 0000000180021940 f   snap7:s7_micro_client.obj
 0001:000209f0       ?NumToString@@YA?AV?$basic_string@DU?$char_traits@D@std@@V?$allocator@D@2@@std@@HHI@Z 00000001800219f0 f   snap7:s7_text.obj
 0001:00020b40       ?IntToString@@YA?AV?$basic_string@DU?$char_traits@D@std@@V?$allocator@D@2@@std@@H@Z 0000000180021b40 f   snap7:s7_text.obj
 0001:00020b70       ?TimeToString@@YA?AV?$basic_string@DU?$char_traits@D@std@@V?$allocator@D@2@@std@@_J@Z 0000000180021b70 f   snap7:s7_text.obj
 0001:00020d90       ?IpAddressToString@@YA?AV?$basic_string@DU?$char_traits@D@std@@V?$allocator@D@2@@std@@H@Z 0000000180021d90 f   snap7:s7_text.obj
 0001:00022130       ?ErrCliText@@YA?AV?$basic_string@DU?$char_traits@D@std@@V?$allocator@D@2@@std@@H@Z 0000000180023130 f   snap7:s7_text.obj
 0001:000222a0       ?ErrSrvText@@YA?AV?$basic_string@DU?$char_traits@D@std@@V?$allocator@D@2@@std@@H@Z 00000001800232a0 f   snap7:s7_text.obj
 0001:00022410       ?ErrParText@@YA?AV?$basic_string@DU?$char_traits@D@std@@V?$allocator@D@2@@std@@H@Z 0000000180023410 f   snap7:s7_text.obj
 0001:00024d70       ?EvtSrvText@@YA?AV?$basic_string@DU?$char_traits@D@std@@V?$allocator@D@2@@std@@AEAUTSrvEvent@@@Z 0000000180025d70 f   snap7:s7_text.obj
 0001:00025330       ??4?$basic_string@DU?$char_traits@D@std@@V?$allocator@D@2@@std@@QEAAAEAV01@$$QEAV01@@Z 0000000180026330 f i snap7:s7_text.obj
 0001:000253f0       ??$?HDU?$char_traits@D@std@@V?$allocator@D@1@@std@@YA?AV?$basic_string@DU?$char_traits@D@std@@V?$allocator@D@2@@0@PEBD$$QEAV10@@Z 00000001800263f0 f i snap7:s7_text.obj
 0001:00025470       ??$?HDU?$char_traits@D@std@@V?$allocator@D@1@@std@@YA?AV?$basic_string@DU?$char_traits@D@std@@V?$allocator@D@2@@0@PEBDAEBV10@@Z 0000000180026470 f i snap7:s7_text.obj
 0001:000254f0       ??$?HDU?$char_traits@D@std@@V?$allocator@D@1@@std@@YA?AV?$basic_string@DU?$char_traits@D@std@@V?$allocator@D@2@@0@$$QEAV10@PEBD@Z 00000001800264f0 f i snap7:s7_text.obj
 0001:00025570       ??$?HDU?$char_traits@D@std@@V?$allocator@D@1@@std@@YA?AV?$basic_string@DU?$char_traits@D@std@@V?$allocator@D@2@@0@AEBV10@PEBD@Z 0000000180026570 f i snap7:s7_text.obj
 0001:00025630       ??$?HDU?$char_traits@D@std@@V?$allocator@D@1@@std@@YA?AV?$basic_string@DU?$char_traits@D@std@@V?$allocator@D@2@@0@$$QEAV10@0@Z 0000000180026630 f i snap7:s7_text.obj
 0001:000256f0       ??$?HDU?$char_traits@D@std@@V?$allocator@D@1@@std@@YA?AV?$basic_string@DU?$char_traits@D@std@@V?$allocator@D@2@@0@$$QEAV10@AEBV10@@Z 00000001800266f0 f i snap7:s7_text.obj
 0001:00025760       ?reserve@?$basic_string@DU?$char_traits@D@std@@V?$allocator@D@2@@std@@QEAAX_K@Z 0000000180026760 f i snap7:s7_text.obj
 0001:00025810       ?insert@?$basic_string@DU?$char_traits@D@std@@V?$allocator@D@2@@std@@QEAAAEAV12@_KPEBD0@Z 0000000180026810 f i snap7:s7_text.obj
 0001:00025990       ?insert@?$basic_string@DU?$char_traits@D@std@@V?$allocator@D@2@@std@@QEAAAEAV12@_KAEBV12@00@Z 0000000180026990 f i snap7:s7_text.obj
 0001:00025b30       ??_ETS7Worker@@UEAAPEAXI@Z 0000000180026b30 f i * CIL library *:* CIL module *
 0001:00025b30       ??_GTS7Worker@@UEAAPEAXI@Z 0000000180026b30 f i snap7:s7_server.obj
 0001:00025b70       ?Execute@TMsgSocket@@UEAA_NXZ 0000000180026b70 f   snap7:snap_msgsock.obj
 0001:00025b70       ?ExecuteSend@TIsoTcpWorker@@MEAA_NXZ 0000000180026b70 f   snap7:s7_server.obj
 0001:00025b70       __acrt_uninitialize_command_line 0000000180026b70 f   libucrt:argv_data.obj
 0001:00025b80       ?ExecuteRecv@TIsoTcpWorker@@MEAA_NXZ 0000000180026b80 f   snap7:s7_server.obj
 0001:00025d10       ?Execute@TIsoTcpWorker@@UEAA_NXZ 0000000180026d10 f   snap7:s7_server.obj
 0001:00025d60       ??0TS7Worker@@QEAA@XZ      0000000180026d60 f   snap7:s7_server.obj
 0001:00025de0       ?ExecuteRecv@TS7Worker@@MEAA_NXZ 0000000180026de0 f   snap7:s7_server.obj
 0001:00025e00       ?FillTime@TS7Worker@@AEAAXPEAUTS7Time@@@Z 0000000180026e00 f   snap7:s7_server.obj
 0001:00025f20       ?IsoPerformCommand@TS7Worker@@MEAA_NAEAH@Z 0000000180026f20 f   snap7:s7_server.obj
 0001:00025ff0       ?PerformPDURequest@TS7Worker@@IEAA_NAEAH@Z 0000000180026ff0 f   snap7:s7_server.obj
 0001:000261d0       ?PerformPDUUsrData@TS7Worker@@IEAA_NAEAH@Z 00000001800271d0 f   snap7:s7_server.obj
 0001:00026320       ?GetArea@TS7Worker@@IEAAPEAUTS7Area@@EG@Z 0000000180027320 f   snap7:s7_server.obj
 0001:00026430       ?ReadArea@TS7Worker@@IEAAGPEAUTResFunReadItem@@PEAUTReqFunReadItem@@AEAHAEAUTEv@@@Z 0000000180027430 f   snap7:s7_server.obj
 0001:00026910       ?PerformFunctionRead@TS7Worker@@IEAA_NXZ 0000000180027910 f   snap7:s7_server.obj
 0001:00026bd0       ?WriteArea@TS7Worker@@IEAAEPEAUTReqFunWriteDataItem@@PEAUTReqFunWriteItem@@AEAUTEv@@@Z 0000000180027bd0 f   snap7:s7_server.obj
 0001:00026ef0       ?PerformFunctionWrite@TS7Worker@@IEAA_NXZ 0000000180027ef0 f   snap7:s7_server.obj
 0001:00027230       ?PerformFunctionNegotiate@TS7Worker@@IEAA_NXZ 0000000180028230 f   snap7:s7_server.obj
 0001:000273a0       ?PerformFunctionControl@TS7Worker@@IEAA_NE@Z 00000001800283a0 f   snap7:s7_server.obj
 0001:00027500       ?PerformFunctionUpload@TS7Worker@@IEAA_NXZ 0000000180028500 f   snap7:s7_server.obj
 0001:000275a0       ?PerformFunctionDownload@TS7Worker@@IEAA_NXZ 00000001800285a0 f   snap7:s7_server.obj
 0001:00027640       ?BLK_ListAll@TS7Worker@@IEAAXAEAUTCB@@@Z 0000000180028640 f   snap7:s7_server.obj
 0001:000277b0       ?BLK_ListBoT@TS7Worker@@IEAAXE_NAEAUTCB@@@Z 00000001800287b0 f   snap7:s7_server.obj
 0001:00027a60       ?BLK_DoBlockInfo_GetBlkInfo@TS7Worker@@IEAAXPEAUTS7Area@@PEAUTResDataBlockInfo@@AEAUTCB@@@Z 0000000180028a60 f   snap7:s7_server.obj
 0001:00027bd0       ?BLK_GetBlkInfo@TS7Worker@@IEAAXAEAUTCB@@@Z 0000000180028bd0 f   snap7:s7_server.obj
 0001:00027d70       ?PerformGroupBlockInfo@TS7Worker@@IEAA_NXZ 0000000180028d70 f   snap7:s7_server.obj
 0001:00027e30       ?SZLNotAvailable@TS7Worker@@IEAAXXZ 0000000180028e30 f   snap7:s7_server.obj
 0001:00027ea0       ?SZLData@TS7Worker@@IEAAXPEAXH@Z 0000000180028ea0 f   snap7:s7_server.obj
 0001:00027f40       ?SZL_ID131_IDX003@TS7Worker@@IEAAXXZ 0000000180028f40 f   snap7:s7_server.obj
 0001:00027ff0       ?PerformGroupSZL@TS7Worker@@IEAA_NXZ 0000000180028ff0 f   snap7:s7_server.obj
 0001:00029a50       ?PerformGroupSecurity@TS7Worker@@IEAA_NXZ 000000018002aa50 f   snap7:s7_server.obj
 0001:00029ba0       ?PerformGetClock@TS7Worker@@IEAA_NXZ 000000018002aba0 f   snap7:s7_server.obj
 0001:00029ce0       ?PerformSetClock@TS7Worker@@IEAA_NXZ 000000018002ace0 f   snap7:s7_server.obj
 0001:00029e00       ??0TSnap7Server@@QEAA@XZ   000000018002ae00 f   snap7:s7_server.obj
 0001:00029eb0       ??_ETSnap7Server@@UEAAPEAXI@Z 000000018002aeb0 f i * CIL library *:* CIL module *
 0001:00029eb0       ??_GTSnap7Server@@UEAAPEAXI@Z 000000018002aeb0 f i snap7:s7_server.obj
 0001:00029f30       ?CreateWorkerSocket@TSnap7Server@@MEAAPEAVTMsgSocket@@_K@Z 000000018002af30 f   snap7:s7_server.obj
 0001:00029fc0       ?FindDB@TSnap7Server@@IEAAPEAUTS7Area@@G@Z 000000018002afc0 f   snap7:s7_server.obj
 0001:0002a000       ?RegisterDB@TSnap7Server@@IEAAHGPEAXG@Z 000000018002b000 f   snap7:s7_server.obj
 0001:0002a120       ?DisposeAll@TSnap7Server@@AEAAXXZ 000000018002b120 f   snap7:s7_server.obj
 0001:0002a210       ?RegisterSys@TSnap7Server@@IEAAHHPEAXG@Z 000000018002b210 f   snap7:s7_server.obj
 0001:0002a2d0       ?UnregisterDB@TSnap7Server@@IEAAHG@Z 000000018002b2d0 f   snap7:s7_server.obj
 0001:0002a390       ?UnregisterSys@TSnap7Server@@IEAAHH@Z 000000018002b390 f   snap7:s7_server.obj
 0001:0002a3f0       ?SetParam@TSnap7Server@@QEAAHHPEAX@Z 000000018002b3f0 f   snap7:s7_server.obj
 0001:0002a490       ?LockArea@TSnap7Server@@QEAAHHG@Z 000000018002b490 f   snap7:s7_server.obj
 0001:0002a530       ?UnlockArea@TSnap7Server@@QEAAHHG@Z 000000018002b530 f   snap7:s7_server.obj
 0001:0002a5d0       ?DoReadEvent@TSnap7Server@@IEAAXHIGGGGG@Z 000000018002b5d0 f   snap7:s7_server.obj
 0001:0002a6c0       ?DoReadArea@TSnap7Server@@IEAA_NHHHHHHPEAX@Z 000000018002b6c0 f   snap7:s7_server.obj
 0001:0002a7b0       ?DoWriteArea@TSnap7Server@@IEAA_NHHHHHHPEAX@Z 000000018002b7b0 f   snap7:s7_server.obj
 0001:0002a8a0       ??_ETIsoTcpSocket@@UEAAPEAXI@Z 000000018002b8a0 f i * CIL library *:* CIL module *
 0001:0002a8a0       ??_GTIsoTcpSocket@@UEAAPEAXI@Z 000000018002b8a0 f i snap7:s7_isotcp.obj
 0001:0002a8e0       ?BuildControlPDU@TIsoTcpSocket@@MEAAHXZ 000000018002b8e0 f   snap7:s7_isotcp.obj
 0001:0002a9f0       ?isoConnect@TIsoTcpSocket@@QEAAHXZ 000000018002b9f0 f   snap7:s7_isotcp.obj
 0001:0002ab90       ?isoSendBuffer@TIsoTcpSocket@@QEAAHPEAXH@Z 000000018002bb90 f   snap7:s7_isotcp.obj
 0001:0002ac70       ?isoRecvBuffer@TIsoTcpSocket@@QEAAHPEAXAEAH@Z 000000018002bc70 f   snap7:s7_isotcp.obj
 0001:0002ad00       ?isoDisconnect@TIsoTcpSocket@@QEAAH_N@Z 000000018002bd00 f   snap7:s7_isotcp.obj
 0001:0002ad80       ?isoRecvFragment@TIsoTcpSocket@@AEAAHPEAXHAEAHAEA_N@Z 000000018002bd80 f   snap7:s7_isotcp.obj
 0001:0002aef0       ?isoRecvPDU@TIsoTcpSocket@@QEAAHPEAUTIsoDataPDU@@@Z 000000018002bef0 f   snap7:s7_isotcp.obj
 0001:0002aff0       ?Execute@TEcoTcpWorker@@UEAA_NXZ 000000018002bff0 f i snap7:snap_tcpsrvr.obj
 0001:0002b0f0       ??_GTMsgWorkerThread@@UEAAPEAXI@Z 000000018002c0f0 f i snap7:snap_tcpsrvr.obj
 0001:0002b0f0       ??_ETMsgWorkerThread@@UEAAPEAXI@Z 000000018002c0f0 f i * CIL library *:* CIL module *
 0001:0002b160       ?Execute@TMsgWorkerThread@@UEAAXXZ 000000018002c160 f   snap7:snap_tcpsrvr.obj
 0001:0002b2b0       ?Execute@TMsgListenerThread@@UEAAXXZ 000000018002c2b0 f   snap7:snap_tcpsrvr.obj
 0001:0002b360       ??0TCustomMsgServer@@QEAA@XZ 000000018002c360 f   snap7:snap_tcpsrvr.obj
 0001:0002b4a0       ??_GTCustomMsgServer@@UEAAPEAXI@Z 000000018002c4a0 f i snap7:snap_tcpsrvr.obj
 0001:0002b4a0       ??_ETCustomMsgServer@@UEAAPEAXI@Z 000000018002c4a0 f i * CIL library *:* CIL module *
 0001:0002b4e0       ??1TCustomMsgServer@@UEAA@XZ 000000018002c4e0 f   snap7:snap_tcpsrvr.obj
 0001:0002b590       ?StartListener@TCustomMsgServer@@AEAAHXZ 000000018002c590 f   snap7:snap_tcpsrvr.obj
 0001:0002b6e0       ?TerminateAll@TCustomMsgServer@@MEAAXXZ 000000018002c6e0 f   snap7:snap_tcpsrvr.obj
 0001:0002b790       ?KillAll@TCustomMsgServer@@IEAAXXZ 000000018002c790 f   snap7:snap_tcpsrvr.obj
 0001:0002b8b0       ?CanAccept@TCustomMsgServer@@MEAA_N_K@Z 000000018002c8b0 f   snap7:snap_tcpsrvr.obj
 0001:0002b8d0       ?CreateWorkerSocket@TCustomMsgServer@@MEAAPEAVTMsgSocket@@_K@Z 000000018002c8d0 f   snap7:snap_tcpsrvr.obj
 0001:0002b960       ??_ETMsgSocket@@UEAAPEAXI@Z 000000018002c960 f i * CIL library *:* CIL module *
 0001:0002b960       ??_GTEcoTcpWorker@@UEAAPEAXI@Z 000000018002c960 f i snap7:snap_tcpsrvr.obj
 0001:0002b960       ??_GTMsgSocket@@UEAAPEAXI@Z 000000018002c960 f i snap7:snap_msgsock.obj
 0001:0002b960       ??_ETEcoTcpWorker@@UEAAPEAXI@Z 000000018002c960 f i * CIL library *:* CIL module *
 0001:0002b9a0       ?DoEvent@TCustomMsgServer@@MEAAXHIGGGGG@Z 000000018002c9a0 f   snap7:snap_tcpsrvr.obj
 0001:0002bb00       ?Incoming@TCustomMsgServer@@MEAAX_K@Z 000000018002cb00 f   snap7:snap_tcpsrvr.obj
 0001:0002bd10       ?Start@TCustomMsgServer@@QEAAHXZ 000000018002cd10 f   snap7:snap_tcpsrvr.obj
 0001:0002bdd0       ?Stop@TCustomMsgServer@@QEAAXXZ 000000018002cdd0 f   snap7:snap_tcpsrvr.obj
 0001:0002bec0       ?PickEvent@TCustomMsgServer@@QEAA_NPEAX@Z 000000018002cec0 f   snap7:snap_tcpsrvr.obj
 0001:0002bf30       ??0TMsgSocket@@QEAA@XZ     000000018002cf30 f   snap7:snap_msgsock.obj
 0001:0002bfd0       ??1TMsgSocket@@UEAA@XZ     000000018002cfd0 f   snap7:snap_msgsock.obj
 0001:0002c040       ?GetLocal@TMsgSocket@@AEAAXXZ 000000018002d040 f   snap7:snap_msgsock.obj
 0001:0002c0c0       ?GetRemote@TMsgSocket@@AEAAXXZ 000000018002d0c0 f   snap7:snap_msgsock.obj
 0001:0002c140       ?Purge@TMsgSocket@@IEAAXXZ 000000018002d140 f   snap7:snap_msgsock.obj
 0001:0002c1b0       ?CreateSocket@TMsgSocket@@IEAAXXZ 000000018002d1b0 f   snap7:snap_msgsock.obj
 0001:0002c230       ?WaitForData@TMsgSocket@@IEAAHHH@Z 000000018002d230 f   snap7:snap_msgsock.obj
 0001:0002c360       ?SetSocketOptions@TMsgSocket@@AEAAXXZ 000000018002d360 f   snap7:snap_msgsock.obj
 0001:0002c3f0       ?CanWrite@TMsgSocket@@AEAA_NH@Z 000000018002d3f0 f   snap7:snap_msgsock.obj
 0001:0002c4b0       ?CanRead@TMsgSocket@@QEAA_NH@Z 000000018002d4b0 f   snap7:snap_msgsock.obj
 0001:0002c570       ?SckConnect@TMsgSocket@@QEAAHXZ 000000018002d570 f   snap7:snap_msgsock.obj
 0001:0002c670       ?SckDisconnect@TMsgSocket@@QEAAXXZ 000000018002d670 f   snap7:snap_msgsock.obj
 0001:0002c6c0       ?ForceClose@TMsgSocket@@QEAAXXZ 000000018002d6c0 f   snap7:snap_msgsock.obj
 0001:0002c710       ?SckBind@TMsgSocket@@QEAAHXZ 000000018002d710 f   snap7:snap_msgsock.obj
 0001:0002c810       ?SendPacket@TMsgSocket@@QEAAHPEAXH@Z 000000018002d810 f   snap7:snap_msgsock.obj
 0001:0002c8a0       ?RecvPacket@TMsgSocket@@QEAAHPEAXH@Z 000000018002d8a0 f   snap7:snap_msgsock.obj
 0001:0002c930       ?IcmpInit@@YA_NXZ          000000018002d930 f   snap7:snap_msgsock.obj
 0001:0002ca80       ?InitPacket@TRawSocketPinger@@AEAAXXZ 000000018002da80 f   snap7:snap_msgsock.obj
 0001:0002cb50       ?CanRead@TRawSocketPinger@@AEAA_NH@Z 000000018002db50 f   snap7:snap_msgsock.obj
 0001:0002cbf0       ?Ping@TRawSocketPinger@@QEAA_NIH@Z 000000018002dbf0 f   snap7:snap_msgsock.obj
 0001:0002cd00       ?RawPing@TPinger@@AEAA_NIH@Z 000000018002dd00 f   snap7:snap_msgsock.obj
 0001:0002cda0       ?WinPing@TPinger@@AEAA_NIH@Z 000000018002dda0 f   snap7:snap_msgsock.obj
 0001:0002ce90       ??0SocketsLayer@@QEAA@XZ   000000018002de90 f   snap7:snap_msgsock.obj
 0001:0002cf20       ??0TSnap7Peer@@QEAA@XZ     000000018002df20 f   snap7:s7_peer.obj
 0001:0002cfa0       ??_ETSnap7Peer@@UEAAPEAXI@Z 000000018002dfa0 f i * CIL library *:* CIL module *
 0001:0002cfa0       ??_GTSnap7Peer@@UEAAPEAXI@Z 000000018002dfa0 f i snap7:s7_peer.obj
 0001:0002cff0       ??1TSnap7Peer@@UEAA@XZ     000000018002dff0 f   snap7:s7_peer.obj
 0001:0002d010       ?NegotiatePDULength@TSnap7Peer@@IEAAHXZ 000000018002e010 f   snap7:s7_peer.obj
 0001:0002d190       ?PeerConnect@TSnap7Peer@@QEAAHXZ 000000018002e190 f   snap7:s7_peer.obj
 0001:0002d200       ?ThreadProc@@YAKPEAX@Z     000000018002e200 f   snap7:snap_threads.obj
 0001:0002d250       ??_ETSnapThread@@UEAAPEAXI@Z 000000018002e250 f i * CIL library *:* CIL module *
 0001:0002d250       ??_GTSnapThread@@UEAAPEAXI@Z 000000018002e250 f i snap7:snap_threads.obj
 0001:0002d2bb       __imp_load_node_module_register 000000018002e2bb f   node:node.exe
 0001:0002d2c7       __tailMerge_node_exe       000000018002e2c7 f i node:node.exe
 0001:0002d340       __imp_load_uv_mutex_unlock 000000018002e340 f   node:node.exe
 0001:0002d34c       __imp_load_uv_queue_work   000000018002e34c f   node:node.exe
 0001:0002d358       __imp_load_?Global@Context@v8@@QEAA?AV?$Local@VObject@v8@@@2@XZ 000000018002e358 f   node:node.exe
 0001:0002d364       __imp_load_?Value@External@v8@@QEBAPEAXXZ 000000018002e364 f   node:node.exe
 0001:0002d370       __imp_load_?New@External@v8@@SA?AV?$Local@VExternal@v8@@@2@PEAVIsolate@2@PEAX@Z 000000018002e370 f   node:node.exe
 0001:0002d37c       __imp_load_?NewFromUnsigned@Integer@v8@@SA?AV?$Local@VInteger@v8@@@2@PEAVIsolate@2@I@Z 000000018002e37c f   node:node.exe
 0001:0002d388       __imp_load_?New@Integer@v8@@SA?AV?$Local@VInteger@v8@@@2@PEAVIsolate@2@H@Z 000000018002e388 f   node:node.exe
 0001:0002d394       __imp_load_?New@Signature@v8@@SA?AV?$Local@VSignature@v8@@@2@PEAVIsolate@2@V?$Local@VFunctionTemplate@v8@@@2@@Z 000000018002e394 f   node:node.exe
 0001:0002d3a0       __imp_load_?ThrowException@Isolate@v8@@QEAA?AV?$Local@VValue@v8@@@2@V32@@Z 000000018002e3a0 f   node:node.exe
 0001:0002d3ac       __imp_load_?GetCurrentContext@Isolate@v8@@QEAA?AV?$Local@VContext@v8@@@2@XZ 000000018002e3ac f   node:node.exe
 0001:0002d3b8       __imp_load_?GetCurrent@Isolate@v8@@SAPEAV12@XZ 000000018002e3b8 f   node:node.exe
 0001:0002d3c4       __imp_load_?CreateHandle@HandleScope@v8@@KAPEAPEAVObject@internal@2@PEAVIsolate@42@PEAV342@@Z 000000018002e3c4 f   node:node.exe
 0001:0002d3d0       __imp_load_?CreateHandle@HandleScope@v8@@CAPEAPEAVObject@internal@2@PEAVHeapObject@42@PEAV342@@Z 000000018002e3d0 f   node:node.exe
 0001:0002d3dc       __imp_load_??1HandleScope@v8@@QEAA@XZ 000000018002e3dc f   node:node.exe
 0001:0002d3e8       __imp_load_??0HandleScope@v8@@QEAA@PEAVIsolate@1@@Z 000000018002e3e8 f   node:node.exe
 0001:0002d3f4       __imp_load_?Set@Template@v8@@QEAAXV?$Local@VName@v8@@@2@V?$Local@VData@v8@@@2@W4PropertyAttribute@2@@Z 000000018002e3f4 f   node:node.exe
 0001:0002d400       __imp_load_?Error@Exception@v8@@SA?AV?$Local@VValue@v8@@@2@V?$Local@VString@v8@@@2@@Z 000000018002e400 f   node:node.exe
 0001:0002d40c       __imp_load_?TypeError@Exception@v8@@SA?AV?$Local@VValue@v8@@@2@V?$Local@VString@v8@@@2@@Z 000000018002e40c f   node:node.exe
 0001:0002d418       __imp_load_?New@Array@v8@@SA?AV?$Local@VArray@v8@@@2@PEAVIsolate@2@H@Z 000000018002e418 f   node:node.exe
 0001:0002d424       __imp_load_?Length@Array@v8@@QEBAIXZ 000000018002e424 f   node:node.exe
 0001:0002d430       __imp_load_?New@Date@v8@@SA?AV?$MaybeLocal@VValue@v8@@@2@V?$Local@VContext@v8@@@2@N@Z 000000018002e430 f   node:node.exe
 0001:0002d43c       __imp_load_?SetClassName@FunctionTemplate@v8@@QEAAXV?$Local@VString@v8@@@2@@Z 000000018002e43c f   node:node.exe
 0001:0002d448       __imp_load_?PrototypeTemplate@FunctionTemplate@v8@@QEAA?AV?$Local@VObjectTemplate@v8@@@2@XZ 000000018002e448 f   node:node.exe
 0001:0002d454       __imp_load_?InstanceTemplate@FunctionTemplate@v8@@QEAA?AV?$Local@VObjectTemplate@v8@@@2@XZ 000000018002e454 f   node:node.exe
 0001:0002d460       __imp_load_?GetFunction@FunctionTemplate@v8@@QEAA?AV?$Local@VFunction@v8@@@2@XZ 000000018002e460 f   node:node.exe
 0001:0002d46c       __imp_load_?New@FunctionTemplate@v8@@SA?AV?$Local@VFunctionTemplate@v8@@@2@PEAVIsolate@2@P6AXAEBV?$FunctionCallbackInfo@VValue@v8@@@2@@ZV?$Local@VValue@v8@@@2@V?$Local@VSignature@v8@@@2@H@Z 000000018002e46c f   node:node.exe
 0001:0002d478       __imp_load_?ToLocalEmpty@V8@v8@@CAXXZ 000000018002e478 f   node:node.exe
 0001:0002d484       __imp_load_?FromJustIsNothing@V8@v8@@CAXXZ 000000018002e484 f   node:node.exe
 0001:0002d490       __imp_load_?ClearWeak@V8@v8@@CAPEAXPEAPEAVObject@internal@2@@Z 000000018002e490 f   node:node.exe
 0001:0002d49c       __imp_load_?MakeWeak@V8@v8@@CAXPEAPEAVObject@internal@2@PEAXP6AXAEBV?$WeakCallbackInfo@X@2@@ZW4WeakCallbackType@2@@Z 000000018002e49c f   node:node.exe
 0001:0002d4a8       __imp_load_?DisposeGlobal@V8@v8@@CAXPEAPEAVObject@internal@2@@Z 000000018002e4a8 f   node:node.exe
 0001:0002d4b4       __imp_load_?GlobalizeReference@V8@v8@@CAPEAPEAVObject@internal@2@PEAVIsolate@42@PEAPEAV342@@Z 000000018002e4b4 f   node:node.exe
 0001:0002d4c0       __imp_load_?Int32Value@Value@v8@@QEBAHXZ 000000018002e4c0 f   node:node.exe
 0001:0002d4cc       __imp_load_?Uint32Value@Value@v8@@QEBAIXZ 000000018002e4cc f   node:node.exe
 0001:0002d4d8       __imp_load_?NumberValue@Value@v8@@QEBANXZ 000000018002e4d8 f   node:node.exe
 0001:0002d4e4       __imp_load_?ToInteger@Value@v8@@QEBA?AV?$MaybeLocal@VInteger@v8@@@2@V?$Local@VContext@v8@@@2@@Z 000000018002e4e4 f   node:node.exe
 0001:0002d4f0       __imp_load_?IsDate@Value@v8@@QEBA_NXZ 000000018002e4f0 f   node:node.exe
 0001:0002d4fc       __imp_load_?IsUint32@Value@v8@@QEBA_NXZ 000000018002e4fc f   node:node.exe
 0001:0002d508       __imp_load_?IsInt32@Value@v8@@QEBA_NXZ 000000018002e508 f   node:node.exe
 0001:0002d514       __imp_load_?IsObject@Value@v8@@QEBA_NXZ 000000018002e514 f   node:node.exe
 0001:0002d520       __imp_load_?IsArray@Value@v8@@QEBA_NXZ 000000018002e520 f   node:node.exe
 0001:0002d52c       __imp_load_?IsFunction@Value@v8@@QEBA_NXZ 000000018002e52c f   node:node.exe
 0001:0002d538       __imp_load_?Escape@EscapableHandleScope@v8@@AEAAPEAPEAVObject@internal@2@PEAPEAV342@@Z 000000018002e538 f   node:node.exe
 0001:0002d544       __imp_load_??0EscapableHandleScope@v8@@QEAA@PEAVIsolate@1@@Z 000000018002e544 f   node:node.exe
 0001:0002d550       __imp_load_?NewFromUtf8@String@v8@@SA?AV?$MaybeLocal@VString@v8@@@2@PEAVIsolate@2@PEBDW4NewStringType@2@H@Z 000000018002e550 f   node:node.exe
 0001:0002d55c       __imp_load_?WriteUtf8@String@v8@@QEBAHPEADHPEAHH@Z 000000018002e55c f   node:node.exe
 0001:0002d568       __imp_load_?Length@String@v8@@QEBAHXZ 000000018002e568 f   node:node.exe
 0001:0002d574       __imp_load_?New@Number@v8@@SA?AV?$Local@VNumber@v8@@@2@PEAVIsolate@2@N@Z 000000018002e574 f   node:node.exe
 0001:0002d580       __imp_load_?SlowGetAlignedPointerFromInternalField@Object@v8@@AEAAPEAXH@Z 000000018002e580 f   node:node.exe
 0001:0002d58c       __imp_load_?SlowGetInternalField@Object@v8@@AEAA?AV?$Local@VValue@v8@@@2@H@Z 000000018002e58c f   node:node.exe
 0001:0002d598       __imp_load_?New@Object@v8@@SA?AV?$Local@VObject@v8@@@2@PEAVIsolate@2@@Z 000000018002e598 f   node:node.exe
 0001:0002d5a4       __imp_load_?SetAlignedPointerInInternalField@Object@v8@@QEAAXHPEAX@Z 000000018002e5a4 f   node:node.exe
 0001:0002d5b0       __imp_load_?SetInternalField@Object@v8@@QEAAXHV?$Local@VValue@v8@@@2@@Z 000000018002e5b0 f   node:node.exe
 0001:0002d5bc       __imp_load_?InternalFieldCount@Object@v8@@QEAAHXZ 000000018002e5bc f   node:node.exe
 0001:0002d5c8       __imp_load_?Has@Object@v8@@QEAA?AV?$Maybe@_N@2@V?$Local@VContext@v8@@@2@V?$Local@VValue@v8@@@2@@Z 000000018002e5c8 f   node:node.exe
 0001:0002d5d4       __imp_load_?Get@Object@v8@@QEAA?AV?$MaybeLocal@VValue@v8@@@2@V?$Local@VContext@v8@@@2@V?$Local@VValue@v8@@@2@@Z 000000018002e5d4 f   node:node.exe
 0001:0002d5e0       __imp_load_?Get@Object@v8@@QEAA?AV?$Local@VValue@v8@@@2@I@Z 000000018002e5e0 f   node:node.exe
 0001:0002d5ec       __imp_load_?Get@Object@v8@@QEAA?AV?$MaybeLocal@VValue@v8@@@2@V?$Local@VContext@v8@@@2@I@Z 000000018002e5ec f   node:node.exe
 0001:0002d5f8       __imp_load_?Set@Object@v8@@QEAA?AV?$Maybe@_N@2@V?$Local@VContext@v8@@@2@V?$Local@VValue@v8@@@2@1@Z 000000018002e5f8 f   node:node.exe
 0001:0002d604       __imp_load_?Set@Object@v8@@QEAA?AV?$Maybe@_N@2@V?$Local@VContext@v8@@@2@IV?$Local@VValue@v8@@@2@@Z 000000018002e604 f   node:node.exe
 0001:0002d610       __imp_load_?NewInstance@Function@v8@@QEBA?AV?$Local@VObject@v8@@@2@XZ 000000018002e610 f   node:node.exe
 0001:0002d61c       __imp_load_?SetInternalFieldCount@ObjectTemplate@v8@@QEAAXH@Z 000000018002e61c f   node:node.exe
 0001:0002d628       __imp_load_?NewInstance@ObjectTemplate@v8@@QEAA?AV?$MaybeLocal@VObject@v8@@@2@V?$Local@VContext@v8@@@2@@Z 000000018002e628 f   node:node.exe
 0001:0002d634       __imp_load_?New@ObjectTemplate@v8@@SA?AV?$Local@VObjectTemplate@v8@@@2@PEAVIsolate@2@V?$Local@VFunctionTemplate@v8@@@2@@Z 000000018002e634 f   node:node.exe
 0001:0002d640       __imp_load_uv_mutex_lock   000000018002e640 f   node:node.exe
 0001:0002d64c       __imp_load_?HasInstance@Buffer@node@@YA_NV?$Local@VValue@v8@@@v8@@@Z 000000018002e64c f   node:node.exe
 0001:0002d658       __imp_load_?New@Buffer@node@@YA?AV?$MaybeLocal@VObject@v8@@@v8@@PEAVIsolate@4@PEAD_KP6AX1PEAX@Z3@Z 000000018002e658 f   node:node.exe
 0001:0002d664       __imp_load_?Data@Buffer@node@@YAPEADV?$Local@VObject@v8@@@v8@@@Z 000000018002e664 f   node:node.exe
 0001:0002d670       __imp_load_?Length@Buffer@node@@YA_KV?$Local@VObject@v8@@@v8@@@Z 000000018002e670 f   node:node.exe
 0001:0002d67c       __imp_load_?MakeCallback@node@@YA?AV?$Local@VValue@v8@@@v8@@PEAVIsolate@3@V?$Local@VObject@v8@@@3@V?$Local@VFunction@v8@@@3@HPEAV23@@Z 000000018002e67c f   node:node.exe
 0001:0002d688       __imp_load_uv_mutex_destroy 000000018002e688 f   node:node.exe
 0001:0002d694       __imp_load_uv_mutex_init   000000018002e694 f   node:node.exe
 0001:0002d6a0       __imp_load_uv_default_loop 000000018002e6a0 f   node:node.exe
 0001:0002d6ac       __imp_load_?ToObject@Value@v8@@QEBA?AV?$Local@VObject@v8@@@2@XZ 000000018002e6ac f   node:node.exe
 0001:0002d6b8       __imp_load_?ToString@Value@v8@@QEBA?AV?$Local@VString@v8@@@2@XZ 000000018002e6b8 f   node:node.exe
 0001:0002d6c4       ??0_Init_locks@std@@QEAA@XZ 000000018002e6c4 f   libcpmt:xlock.obj
 0001:0002d710       ??0_Lockit@std@@QEAA@H@Z   000000018002e710 f   libcpmt:xlock.obj
 0001:0002d74c       ??1_Init_locks@std@@QEAA@XZ 000000018002e74c f   libcpmt:xlock.obj
 0001:0002d790       ??1_Lockit@std@@QEAA@XZ    000000018002e790 f   libcpmt:xlock.obj
 0001:0002d7c4       ??4?$_Yarn@D@std@@QEAAAEAV01@PEBD@Z 000000018002e7c4 f i libcpmt:locale0.obj
 0001:0002d83c       ??_G_Fac_node@std@@QEAAPEAXI@Z 000000018002e83c f i libcpmt:locale0.obj
 0001:0002d8c8       ??_E_Locimp@locale@std@@MEAAPEAXI@Z 000000018002e8c8 f i libcpmt:locale0.obj
 0001:0002d8c8       ??_G_Locimp@locale@std@@MEAAPEAXI@Z 000000018002e8c8 f i libcpmt:locale0.obj
 0001:0002d934       ?_Facet_Register@std@@YAXPEAV_Facet_base@1@@Z 000000018002e934 f   libcpmt:locale0.obj
 0001:0002d96c       ?_Getgloballocale@locale@std@@CAPEAV_Locimp@12@XZ 000000018002e96c f   libcpmt:locale0.obj
 0001:0002d974       ?_Init@locale@std@@CAPEAV_Locimp@12@_N@Z 000000018002e974 f   libcpmt:locale0.obj
 0001:0002da30       ?_Locimp_dtor@_Locimp@locale@std@@CAXPEAV123@@Z 000000018002ea30 f   libcpmt:locale0.obj
 0001:0002dad8       ?_Locinfo_ctor@_Locinfo@std@@SAXPEAV12@PEBD@Z 000000018002ead8 f   libcpmt:locale0.obj
 0001:0002db44       ?_Locinfo_dtor@_Locinfo@std@@SAXPEAV12@@Z 000000018002eb44 f   libcpmt:locale0.obj
 0001:0002db68       ?_New_Locimp@_Locimp@locale@std@@CAPEAV123@_N@Z 000000018002eb68 f   libcpmt:locale0.obj
 0001:0002dbd8       ?_Setgloballocale@locale@std@@CAXPEAX@Z 000000018002ebd8 f   libcpmt:locale0.obj
 0001:0002dc0c       _Deletegloballocale        000000018002ec0c f   libcpmt:locale0.obj
 0001:0002dc94       ??0bad_alloc@std@@QEAA@AEBV01@@Z 000000018002ec94 f i libcpmt:xthrow.obj
 0001:0002dcd4       ??0bad_alloc@std@@QEAA@XZ  000000018002ecd4 f i libcpmt:xthrow.obj
 0001:0002dcf4       ??0exception@std@@QEAA@AEBV01@@Z 000000018002ecf4 f i libcpmt:xthrow.obj
 0001:0002dd2c       ??0length_error@std@@QEAA@AEBV01@@Z 000000018002ed2c f i libcpmt:xthrow.obj
 0001:0002dd6c       ??0length_error@std@@QEAA@PEBD@Z 000000018002ed6c f i libcpmt:xthrow.obj
 0001:0002ddb8       ??0logic_error@std@@QEAA@AEBV01@@Z 000000018002edb8 f i libcpmt:xthrow.obj
 0001:0002ddf8       ??0out_of_range@std@@QEAA@AEBV01@@Z 000000018002edf8 f i libcpmt:xthrow.obj
 0001:0002de38       ??0out_of_range@std@@QEAA@PEBD@Z 000000018002ee38 f i libcpmt:xthrow.obj
 0001:0002de84       ??_Gbad_exception@std@@UEAAPEAXI@Z 000000018002ee84 f i libvcruntime:frame.obj
 0001:0002de84       ??_Glength_error@std@@UEAAPEAXI@Z 000000018002ee84 f i libcpmt:xthrow.obj
 0001:0002de84       ??_Gexception@std@@UEAAPEAXI@Z 000000018002ee84 f i libcpmt:xthrow.obj
 0001:0002de84       ??_Eexception@std@@UEAAPEAXI@Z 000000018002ee84 f i libcpmt:xthrow.obj
 0001:0002de84       ??_Elength_error@std@@UEAAPEAXI@Z 000000018002ee84 f i libcpmt:xthrow.obj
 0001:0002de84       ??_Elogic_error@std@@UEAAPEAXI@Z 000000018002ee84 f i libcpmt:xthrow.obj
 0001:0002de84       ??_Ebad_alloc@std@@UEAAPEAXI@Z 000000018002ee84 f i libcpmt:xthrow.obj
 0001:0002de84       ??_Gbad_alloc@std@@UEAAPEAXI@Z 000000018002ee84 f i libcpmt:xthrow.obj
 0001:0002de84       ??_Ebad_array_new_length@std@@UEAAPEAXI@Z 000000018002ee84 f i LIBCMT:throw_bad_alloc.obj
 0001:0002de84       ??_Glogic_error@std@@UEAAPEAXI@Z 000000018002ee84 f i libcpmt:xthrow.obj
 0001:0002de84       ??_Gout_of_range@std@@UEAAPEAXI@Z 000000018002ee84 f i libcpmt:xthrow.obj
 0001:0002de84       ??_Eout_of_range@std@@UEAAPEAXI@Z 000000018002ee84 f i libcpmt:xthrow.obj
 0001:0002de84       ??_Ebad_exception@std@@UEAAPEAXI@Z 000000018002ee84 f i libvcruntime:frame.obj
 0001:0002de84       ??_Gbad_array_new_length@std@@UEAAPEAXI@Z 000000018002ee84 f i LIBCMT:throw_bad_alloc.obj
 0001:0002dec8       ?_Xbad_alloc@std@@YAXXZ    000000018002eec8 f   libcpmt:xthrow.obj
 0001:0002dec8       ?__scrt_throw_std_bad_alloc@@YAXXZ 000000018002eec8 f   LIBCMT:throw_bad_alloc.obj
 0001:0002dee8       ?_Xlength_error@std@@YAXPEBD@Z 000000018002eee8 f   libcpmt:xthrow.obj
 0001:0002df0c       ?_Xout_of_range@std@@YAXPEBD@Z 000000018002ef0c f   libcpmt:xthrow.obj
 0001:0002df30       ?what@exception@std@@UEBAPEBDXZ 000000018002ef30 f i libcpmt:xthrow.obj
 0001:0002df44       ?_Ios_base_dtor@ios_base@std@@CAXPEAV12@@Z 000000018002ef44 f   libcpmt:ios.obj
 0001:0002df88       ?_Tidy@ios_base@std@@AEAAXXZ 000000018002ef88 f i libcpmt:ios.obj
 0001:0002e018       ?_Syserror_map@std@@YAPEBDH@Z 000000018002f018 f   libcpmt:syserror.obj
 0001:0002e040       _Getctype                  000000018002f040 f   libcpmt:_tolower.obj
 0001:0002e100       _Tolower                   000000018002f100 f   libcpmt:_tolower.obj
 0001:0002e228       _Getcvt                    000000018002f228 f   libcpmt:xwctomb.obj
 0001:0002e2b8       _Toupper                   000000018002f2b8 f   libcpmt:_toupper.obj
 0001:0002e3f0       _Mtxdst                    000000018002f3f0 f   libcpmt:xmtx.obj
 0001:0002e3f8       _Mtxinit                   000000018002f3f8 f   libcpmt:xmtx.obj
 0001:0002e408       _Mtxlock                   000000018002f408 f   libcpmt:xmtx.obj
 0001:0002e410       _Mtxunlock                 000000018002f410 f   libcpmt:xmtx.obj
 0001:0002e418       ?_Atexit@@YAXP6AXXZ@Z      000000018002f418 f   libcpmt:iosptrs.obj
 0001:0002e458       __crtLCMapStringA          000000018002f458 f   libcpmt:StlLCMapStringA.obj
 0001:0002ec14       __crtInitializeCriticalSectionEx 000000018002fc14 f   libcpmt:winapisupp.obj
 0001:0002ec74       GetTableIndexFromLocaleName 000000018002fc74 f   libcpmt:winapinls.obj
 0001:0002ed00       __crtDownlevelLocaleNameToLCID 000000018002fd00 f   libcpmt:winapinls.obj
 0001:0002ed34       __crtLCMapStringEx         000000018002fd34 f   libcpmt:winapinls.obj
 0001:0002edf0       __wcsnicmp_ascii           000000018002fdf0 f   libcpmt:winapinls.obj
 0001:0002ee60       __security_check_cookie    000000018002fe60 f   LIBCMT:_amdsecgs_.obj
 0001:0002efcc       _Init_thread_footer        000000018002ffcc f   LIBCMT:thread_safe_statics.obj
 0001:0002f02c       _Init_thread_header        000000018003002c f   LIBCMT:thread_safe_statics.obj
 0001:0002f094       _Init_thread_notify        0000000180030094 f   LIBCMT:thread_safe_statics.obj
 0001:0002f0f0       _Init_thread_wait          00000001800300f0 f   LIBCMT:thread_safe_statics.obj
 0001:0002f188       ??2@YAPEAX_K@Z             0000000180030188 f   LIBCMT:new_scalar.obj
 0001:0002f1c4       __scrt_acquire_startup_lock 00000001800301c4 f   LIBCMT:utility.obj
 0001:0002f200       __scrt_dllmain_after_initialize_c 0000000180030200 f   LIBCMT:utility.obj
 0001:0002f234       __scrt_dllmain_before_initialize_c 0000000180030234 f   LIBCMT:utility.obj
 0001:0002f24c       __scrt_dllmain_crt_thread_attach 000000018003024c f   LIBCMT:utility.obj
 0001:0002f274       __scrt_dllmain_crt_thread_detach 0000000180030274 f   LIBCMT:utility.obj
 0001:0002f28c       __scrt_dllmain_exception_filter 000000018003028c f   LIBCMT:utility.obj
 0001:0002f2f0       __scrt_dllmain_uninitialize_c 00000001800302f0 f   LIBCMT:utility.obj
 0001:0002f320       __scrt_dllmain_uninitialize_critical 0000000180030320 f   LIBCMT:utility.obj
 0001:0002f334       __scrt_initialize_crt      0000000180030334 f   LIBCMT:utility.obj
 0001:0002f380       __scrt_initialize_onexit_tables 0000000180030380 f   LIBCMT:utility.obj
 0001:0002f44c       __scrt_is_nonwritable_in_current_image 000000018003044c f   LIBCMT:utility.obj
 0001:0002f4e8       __scrt_release_startup_lock 00000001800304e8 f   LIBCMT:utility.obj
 0001:0002f50c       __scrt_uninitialize_crt    000000018003050c f   LIBCMT:utility.obj
 0001:0002f538       _onexit                    0000000180030538 f   LIBCMT:utility.obj
 0001:0002f588       atexit                     0000000180030588 f   LIBCMT:utility.obj
 0001:0002f5a0       ??3@YAXPEAX@Z              00000001800305a0 f   LIBCMT:delete_scalar.obj
 0001:0002f5a8       ??3@YAXPEAX_K@Z            00000001800305a8 f   LIBCMT:delete_scalar_size.obj
 0001:0002f5a8       ??_V@YAXPEAX@Z             00000001800305a8 f   LIBCMT:delete_array.obj
 0001:0002f5b0       ??_U@YAPEAX_K@Z            00000001800305b0 f   LIBCMT:new_array.obj
 0001:0002f904       _DllMainCRTStartup         0000000180030904 f   LIBCMT:dll_dllmain.obj
 0001:0002f944       _guard_check_icall         0000000180030944 f i LIBCMT:checkcfg.obj
 0001:0002f94c       ??_Gtype_info@@UEAAPEAXI@Z 000000018003094c f i LIBCMT:std_type_info_static.obj
 0001:0002f94c       ??_Etype_info@@UEAAPEAXI@Z 000000018003094c f i LIBCMT:std_type_info_static.obj
 0001:0002f978       __GSHandlerCheck           0000000180030978 f   LIBCMT:_gshandler_.obj
 0001:0002f998       __GSHandlerCheckCommon     0000000180030998 f   LIBCMT:_gshandler_.obj
 0001:0002f9f4       __GSHandlerCheck_EH        00000001800309f4 f   LIBCMT:gshandlereh.obj
 0001:0002fa90       __chkstk                   0000000180030a90 f   LIBCMT:_chkstk_.obj
 0001:0002fa90       _alloca_probe              0000000180030a90 f   LIBCMT:_chkstk_.obj
 0001:0002fae4       __raise_securityfailure    0000000180030ae4 f   LIBCMT:gs_report.obj
 0001:0002fb18       __report_gsfailure         0000000180030b18 f   LIBCMT:gs_report.obj
 0001:0002fbec       __report_rangecheckfailure 0000000180030bec f   LIBCMT:gs_report.obj
 0001:0002fc00       __report_securityfailure   0000000180030c00 f   LIBCMT:gs_report.obj
 0001:0002fd80       __crt_debugger_hook        0000000180030d80 f   LIBCMT:utility_desktop.obj
 0001:0002fd88       __scrt_fastfail            0000000180030d88 f   LIBCMT:utility_desktop.obj
 0001:0002fed0       ??0bad_array_new_length@std@@QEAA@AEBV01@@Z 0000000180030ed0 f i LIBCMT:throw_bad_alloc.obj
 0001:0002ff10       ??0bad_array_new_length@std@@QEAA@XZ 0000000180030f10 f i LIBCMT:throw_bad_alloc.obj
 0001:0002ff30       ?__scrt_throw_std_bad_array_new_length@@YAXXZ 0000000180030f30 f   LIBCMT:throw_bad_alloc.obj
 0001:0002ff50       __isa_available_init       0000000180030f50 f   LIBCMT:_cpu_disp_.obj
 0001:00030118       _get_startup_argv_mode     0000000180031118 f   LIBCMT:argv_mode.obj
 0001:00030120       __scrt_is_ucrt_dll_in_use  0000000180031120 f   LIBCMT:ucrt_detection.obj
 0001:0003012c       __security_init_cookie     000000018003112c f   LIBCMT:gs_support.obj
 0001:000301d8       ?__scrt_initialize_type_info@@YAXXZ 00000001800311d8 f   LIBCMT:tncleanup.obj
 0001:000301e8       ?__scrt_uninitialize_type_info@@YAXXZ 00000001800311e8 f   LIBCMT:tncleanup.obj
 0001:000301f4       __local_stdio_scanf_options 00000001800311f4 f i LIBCMT:default_local_stdio_options.obj
 0001:000301fc       __scrt_initialize_default_local_stdio_options 00000001800311fc f   LIBCMT:default_local_stdio_options.obj
 0001:00030218       __scrt_get_dyn_tls_init_callback 0000000180031218 f   LIBCMT:dyn_tls_init.obj
 0001:00030220       _RTC_Initialize            0000000180031220 f   LIBCMT:_initsect_.obj
 0001:0003026c       _RTC_Terminate             000000018003126c f   LIBCMT:_initsect_.obj
 0001:000302d0       memcpy                     00000001800312d0 f   libvcruntime:memcpy.obj
 0001:000302d0       memmove                    00000001800312d0 f   libvcruntime:memcpy.obj
 0001:00030708       _purecall                  0000000180031708 f   libvcruntime:purevirt.obj
 0001:00030744       __DestructExceptionObject  0000000180031744 f   libvcruntime:frame.obj
 0001:000307cc       ??0bad_exception@std@@QEAA@AEBV01@@Z 00000001800317cc f i libvcruntime:frame.obj
 0001:0003080c       ??0bad_exception@std@@QEAA@XZ 000000018003180c f i libvcruntime:frame.obj
 0001:0003082c       ??1length_error@std@@UEAA@XZ 000000018003182c f i libcpmt:xthrow.obj
 0001:0003082c       ??1bad_exception@std@@UEAA@XZ 000000018003182c f i libvcruntime:frame.obj
 0001:0003082c       ??1bad_array_new_length@std@@UEAA@XZ 000000018003182c f i LIBCMT:throw_bad_alloc.obj
 0001:0003082c       ??1out_of_range@std@@UEAA@XZ 000000018003182c f i libcpmt:xthrow.obj
 0001:0003082c       ??1bad_alloc@std@@UEAA@XZ  000000018003182c f i libcpmt:xthrow.obj
 0001:0003119c       ?_CallMemberFunction0@@YAXPEAXP6AX0@Z@Z 000000018003219c f i libvcruntime:frame.obj
 0001:000311a0       ?_CallMemberFunction1@@YAXPEAXP6AX0@Z0@Z 00000001800321a0 f i libvcruntime:frame.obj
 0001:000311ac       ?_CallMemberFunction2@@YAXPEAXP6AX0@Z0H@Z 00000001800321ac f i libvcruntime:frame.obj
 0001:000311bc       __AdjustPointer            00000001800321bc f   libvcruntime:frame.obj
 0001:000311e0       __BuildCatchObject         00000001800321e0 f   libvcruntime:frame.obj
 0001:000312a4       __BuildCatchObjectHelper   00000001800322a4 f   libvcruntime:frame.obj
 0001:00031484       __CxxCallCatchBlock        0000000180032484 f   libvcruntime:frame.obj
 0001:00031670       __FrameUnwindFilter        0000000180032670 f   libvcruntime:frame.obj
 0001:000316bc       __FrameUnwindToState       00000001800326bc f   libvcruntime:frame.obj
 0001:00031850       __InternalCxxFrameHandler  0000000180032850 f   libvcruntime:frame.obj
 0001:00031aa8       __TypeMatch                0000000180032aa8 f   libvcruntime:frame.obj
 0001:00031be8       __std_terminate            0000000180032be8 f   libvcruntime:frame.obj
 0001:00031bf4       ?_ExecutionInCatch@@YAHPEAU_xDISPATCHER_CONTEXT@@PEBU_s_FuncInfo@@@Z 0000000180032bf4 f   libvcruntime:trnsctrl.obj
 0001:00031c68       ?_GetEstablisherFrame@@YAPEA_KPEA_KPEAU_xDISPATCHER_CONTEXT@@PEBU_s_FuncInfo@@0@Z 0000000180032c68 f   libvcruntime:trnsctrl.obj
 0001:00031d34       ?_GetRangeOfTrysToCheck@@YAPEBU_s_TryBlockMapEntry@@PEA_KPEBU_s_FuncInfo@@HHPEAI2PEAU_xDISPATCHER_CONTEXT@@@Z 0000000180032d34 f   libvcruntime:trnsctrl.obj
 0001:00031e60       ?__FrameUnwindToEmptyState@@YAXPEA_KPEAU_xDISPATCHER_CONTEXT@@PEBU_s_FuncInfo@@@Z 0000000180032e60 f   libvcruntime:trnsctrl.obj
 0001:00031ef4       ?__SehTransFilter@@YAHPEAU_EXCEPTION_POINTERS@@PEAUEHExceptionRecord@@PEA_KPEAU_CONTEXT@@PEAU_xDISPATCHER_CONTEXT@@PEBU_s_FuncInfo@@PEAH@Z 0000000180032ef4 f   libvcruntime:trnsctrl.obj
 0001:00031f8c       _CallSETranslator          0000000180032f8c f   libvcruntime:trnsctrl.obj
 0001:00031fe4       _CreateFrameInfo           0000000180032fe4 f   libvcruntime:trnsctrl.obj
 0001:00032020       _FindAndUnlinkFrame        0000000180033020 f   libvcruntime:trnsctrl.obj
 0001:00032078       _GetImageBase              0000000180033078 f   libvcruntime:trnsctrl.obj
 0001:0003208c       _GetThrowImageBase         000000018003308c f   libvcruntime:trnsctrl.obj
 0001:000320a0       _IsExceptionObjectToBeDestroyed 00000001800330a0 f   libvcruntime:trnsctrl.obj
 0001:000320d0       _SetImageBase              00000001800330d0 f   libvcruntime:trnsctrl.obj
 0001:000320e8       _SetThrowImageBase         00000001800330e8 f   libvcruntime:trnsctrl.obj
 0001:00032100       _UnwindNestedFrames        0000000180033100 f   libvcruntime:trnsctrl.obj
 0001:00032224       __CxxFrameHandler3         0000000180033224 f   libvcruntime:trnsctrl.obj
 0001:000322a4       __std_exception_copy       00000001800332a4 f   libvcruntime:std_exception.obj
 0001:00032334       __std_exception_destroy    0000000180033334 f   libvcruntime:std_exception.obj
 0001:0003235c       _CxxThrowException         000000018003335c f   libvcruntime:throw.obj
 0001:00032450       memset                     0000000180033450 f   libvcruntime:memset.obj
 0001:00032600       memcmp                     0000000180033600 f   libvcruntime:memcmp.obj
 0001:00032890       __vcrt_FlsAlloc            0000000180033890 f   libvcruntime:winapi_downlevel.obj
 0001:000328e4       __vcrt_FlsFree             00000001800338e4 f   libvcruntime:winapi_downlevel.obj
 0001:00032938       __vcrt_FlsGetValue         0000000180033938 f   libvcruntime:winapi_downlevel.obj
 0001:0003298c       __vcrt_FlsSetValue         000000018003398c f   libvcruntime:winapi_downlevel.obj
 0001:000329f4       __vcrt_InitializeCriticalSectionEx 00000001800339f4 f   libvcruntime:winapi_downlevel.obj
 0001:00032a6c       __vcrt_initialize_winapi_thunks 0000000180033a6c f   libvcruntime:winapi_downlevel.obj
 0001:00032ab8       __vcrt_uninitialize_winapi_thunks 0000000180033ab8 f   libvcruntime:winapi_downlevel.obj
 0001:00032af8       __vcrt_initialize          0000000180033af8 f   libvcruntime:initialization.obj
 0001:00032b2c       __vcrt_thread_attach       0000000180033b2c f   libvcruntime:initialization.obj
 0001:00032b40       __vcrt_thread_detach       0000000180033b40 f   libvcruntime:initialization.obj
 0001:00032b54       __vcrt_uninitialize        0000000180033b54 f   libvcruntime:initialization.obj
 0001:00032b74       __vcrt_uninitialize_critical 0000000180033b74 f   libvcruntime:initialization.obj
 0001:00032b84       __C_specific_handler       0000000180033b84 f   libvcruntime:_chandler_.obj
 0001:00032d80       __std_type_info_compare    0000000180033d80 f   libvcruntime:std_type_info.obj
 0001:00032da8       __std_type_info_destroy_list 0000000180033da8 f   libvcruntime:std_type_info.obj
 0001:00032dd4       __vcrt_initialize_pure_virtual_call_handler 0000000180033dd4 f   libvcruntime:purevirt_data.obj
 0001:00032df8       __vcrt_freefls             0000000180033df8 f   libvcruntime:per_thread_data.obj
 0001:00032e18       __vcrt_freeptd             0000000180033e18 f   libvcruntime:per_thread_data.obj
 0001:00032e68       __vcrt_getptd              0000000180033e68 f   libvcruntime:per_thread_data.obj
 0001:00032e84       __vcrt_getptd_noexit       0000000180033e84 f   libvcruntime:per_thread_data.obj
 0001:00032f3c       __vcrt_initialize_ptd      0000000180033f3c f   libvcruntime:per_thread_data.obj
 0001:00032f7c       __vcrt_uninitialize_ptd    0000000180033f7c f   libvcruntime:per_thread_data.obj
 0001:00032fa0       ?__GetCurrentState@@YAHPEA_KPEAU_xDISPATCHER_CONTEXT@@PEBU_s_FuncInfo@@@Z 0000000180033fa0 f   libvcruntime:ehstate.obj
 0001:00032fc8       ?__GetUnwindTryBlock@@YAHPEA_KPEAU_xDISPATCHER_CONTEXT@@PEBU_s_FuncInfo@@@Z 0000000180033fc8 f   libvcruntime:ehstate.obj
 0001:00032ff4       ?__SetState@@YAXPEA_KPEAU_xDISPATCHER_CONTEXT@@PEBU_s_FuncInfo@@H@Z 0000000180033ff4 f   libvcruntime:ehstate.obj
 0001:00033000       ?__SetUnwindTryBlock@@YAXPEA_KPEAU_xDISPATCHER_CONTEXT@@PEBU_s_FuncInfo@@H@Z 0000000180034000 f   libvcruntime:ehstate.obj
 0001:0003303c       ?__StateFromControlPc@@YAHPEBU_s_FuncInfo@@PEAU_xDISPATCHER_CONTEXT@@@Z 000000018003403c f   libvcruntime:ehstate.obj
 0001:00033044       ?__StateFromIp@@YAHPEBU_s_FuncInfo@@PEAU_xDISPATCHER_CONTEXT@@_J@Z 0000000180034044 f   libvcruntime:ehstate.obj
 0001:000330c0       _CallSettingFrame          00000001800340c0 f   libvcruntime:handlers.obj
 0001:00033110       _local_unwind              0000000180034110 f   libvcruntime:_jmpuwind_.obj
 0001:00033140       _NLG_Notify                0000000180034140 f   libvcruntime:_jmpuwind_.obj
 0001:00033160       __NLG_Dispatch2            0000000180034160 f   libvcruntime:_jmpuwind_.obj
 0001:00033170       __NLG_Return2              0000000180034170 f   libvcruntime:_jmpuwind_.obj
 0001:00033174       __vcrt_initialize_locks    0000000180034174 f   libvcruntime:locks.obj
 0001:000331bc       __vcrt_uninitialize_locks  00000001800341bc f   libvcruntime:locks.obj
 0001:000331f4       abort                      00000001800341f4 f   libucrt:abort.obj
 0001:0003324c       calloc                     000000018003424c f   libucrt:calloc.obj
 0001:00033254       __acrt_call_reportfault    0000000180034254 f   libucrt:invalid_parameter.obj
 0001:000333b0       __acrt_initialize_invalid_parameter_handler 00000001800343b0 f   libucrt:invalid_parameter.obj
 0001:000333b8       _invalid_parameter         00000001800343b8 f   libucrt:invalid_parameter.obj
 0001:00033460       _invalid_parameter_noinfo  0000000180034460 f   libucrt:invalid_parameter.obj
 0001:00033480       _invalid_parameter_noinfo_noreturn 0000000180034480 f   libucrt:invalid_parameter.obj
 0001:000334b0       _invoke_watson             00000001800344b0 f   libucrt:invalid_parameter.obj
 0001:000334f8       ??$__crt_time_is_leap_year@_J@@YA_N_J@Z 00000001800344f8 f i libucrt:mktime.obj
 0001:000338cc       _mktime64                  00000001800348cc f   libucrt:mktime.obj
 0001:000338d4       strcspn                    00000001800348d4 f   libucrt:strcspn.obj
 0001:00033974       ??$?RV<lambda_7b91131dde12e1c3dfc74ff76b3f2eac>@@AEAV<lambda_dd75445284c072d0bd3768540cc698fa>@@V<lambda_16bc4ecb55b4718497c16bceaea2ceaf>@@@?$__crt_seh_guarded_call@H@@QEAAH$$QEAV<lambda_7b91131dde12e1c3dfc74ff76b3f2eac>@@AEAV<lambda_dd75445284c072d0bd3768540cc698fa>@@$$QEAV<lambda_16bc4ecb55b4718497c16bceaea2ceaf>@@@Z 0000000180034974 f i libucrt:output.obj
 0001:00033b5c       ??$ensure_buffer_is_big_enough@D@formatting_buffer@__crt_stdio_output@@QEAA_N_K@Z 0000000180034b5c f i libucrt:output.obj
 0001:00033c08       ??$is_wide_character_specifier@D@__crt_stdio_output@@YA_N_KDW4length_modifier@0@@Z 0000000180034c08 f i libucrt:output.obj
 0001:00033c38       ??$is_wide_character_specifier@_W@__crt_stdio_output@@YA_N_K_WW4length_modifier@0@@Z 0000000180034c38 f i libucrt:output.obj
 0001:00033c7c       ??$type_case_integer_parse_into_buffer@I@?$output_processor@_WV?$stream_output_adapter@_W@__crt_stdio_output@@V?$standard_base@_WV?$stream_output_adapter@_W@__crt_stdio_output@@@2@@__crt_stdio_output@@AEAAXII_N@Z 0000000180034c7c f i libucrt:output.obj
 0001:00033c7c       ??$type_case_integer_parse_into_buffer@I@?$output_processor@DV?$string_output_adapter@D@__crt_stdio_output@@V?$format_validation_base@DV?$string_output_adapter@D@__crt_stdio_output@@@2@@__crt_stdio_output@@AEAAXII_N@Z 0000000180034c7c f i libucrt:output.obj
 0001:00033c7c       ??$type_case_integer_parse_into_buffer@I@?$output_processor@_WV?$string_output_adapter@_W@__crt_stdio_output@@V?$standard_base@_WV?$string_output_adapter@_W@__crt_stdio_output@@@2@@__crt_stdio_output@@AEAAXII_N@Z 0000000180034c7c f i libucrt:output.obj
 0001:00033d18       ??$type_case_integer_parse_into_buffer@_K@?$output_processor@DV?$string_output_adapter@D@__crt_stdio_output@@V?$format_validation_base@DV?$string_output_adapter@D@__crt_stdio_output@@@2@@__crt_stdio_output@@AEAAX_KI_N@Z 0000000180034d18 f i libucrt:output.obj
 0001:00033d18       ??$type_case_integer_parse_into_buffer@_K@?$output_processor@_WV?$stream_output_adapter@_W@__crt_stdio_output@@V?$standard_base@_WV?$stream_output_adapter@_W@__crt_stdio_output@@@2@@__crt_stdio_output@@AEAAX_KI_N@Z 0000000180034d18 f i libucrt:output.obj
 0001:00033d18       ??$type_case_integer_parse_into_buffer@_K@?$output_processor@_WV?$string_output_adapter@_W@__crt_stdio_output@@V?$standard_base@_WV?$string_output_adapter@_W@__crt_stdio_output@@@2@@__crt_stdio_output@@AEAAX_KI_N@Z 0000000180034d18 f i libucrt:output.obj
 0001:00033db4       ??$write_multiple_characters@V?$stream_output_adapter@_W@__crt_stdio_output@@D@__crt_stdio_output@@YAXAEBV?$stream_output_adapter@_W@0@DHQEAH@Z 0000000180034db4 f i libucrt:output.obj
 0001:00033e44       ??$write_multiple_characters@V?$string_output_adapter@D@__crt_stdio_output@@D@__crt_stdio_output@@YAXAEBV?$string_output_adapter@D@0@DHQEAH@Z 0000000180034e44 f i libucrt:output.obj
 0001:00033ea0       ??$write_multiple_characters@V?$string_output_adapter@_W@__crt_stdio_output@@D@__crt_stdio_output@@YAXAEBV?$string_output_adapter@_W@0@DHQEAH@Z 0000000180034ea0 f i libucrt:output.obj
 0001:00033f10       ??0?$output_processor@DV?$string_output_adapter@D@__crt_stdio_output@@V?$format_validation_base@DV?$string_output_adapter@D@__crt_stdio_output@@@2@@__crt_stdio_output@@QEAA@AEBV?$string_output_adapter@D@1@_KQEBDQEAU__crt_locale_pointers@@QEAD@Z 0000000180034f10 f i libucrt:output.obj
 0001:00033f8c       ??0?$output_processor@_WV?$string_output_adapter@_W@__crt_stdio_output@@V?$standard_base@_WV?$string_output_adapter@_W@__crt_stdio_output@@@2@@__crt_stdio_output@@QEAA@AEBV?$string_output_adapter@_W@1@_KQEB_WQEAU__crt_locale_pointers@@QEAD@Z 0000000180034f8c f i libucrt:output.obj
 0001:00033f8c       ??0?$output_processor@_WV?$stream_output_adapter@_W@__crt_stdio_output@@V?$standard_base@_WV?$stream_output_adapter@_W@__crt_stdio_output@@@2@@__crt_stdio_output@@QEAA@AEBV?$stream_output_adapter@_W@1@_KQEB_WQEAU__crt_locale_pointers@@QEAD@Z 0000000180034f8c f i libucrt:output.obj
 0001:0003400c       ??0_LocaleUpdate@@QEAA@QEAU__crt_locale_pointers@@@Z 000000018003500c f i libucrt:output.obj
 0001:0003418c       ?force_decimal_point@__crt_stdio_output@@YAXPEADQEAU__crt_locale_pointers@@@Z 000000018003518c f i libucrt:output.obj
 0001:000341fc       ?parse_int_from_format_string@?$output_processor@DV?$string_output_adapter@D@__crt_stdio_output@@V?$format_validation_base@DV?$string_output_adapter@D@__crt_stdio_output@@@2@@__crt_stdio_output@@AEAA_NQEAH@Z 00000001800351fc f i libucrt:output.obj
 0001:00034280       ?parse_int_from_format_string@?$output_processor@_WV?$string_output_adapter@_W@__crt_stdio_output@@V?$standard_base@_WV?$string_output_adapter@_W@__crt_stdio_output@@@2@@__crt_stdio_output@@AEAA_NQEAH@Z 0000000180035280 f i libucrt:output.obj
 0001:00034280       ?parse_int_from_format_string@?$output_processor@_WV?$stream_output_adapter@_W@__crt_stdio_output@@V?$standard_base@_WV?$stream_output_adapter@_W@__crt_stdio_output@@@2@@__crt_stdio_output@@AEAA_NQEAH@Z 0000000180035280 f i libucrt:output.obj
 0001:00034300       ?process@?$output_processor@DV?$string_output_adapter@D@__crt_stdio_output@@V?$format_validation_base@DV?$string_output_adapter@D@__crt_stdio_output@@@2@@__crt_stdio_output@@QEAAHXZ 0000000180035300 f i libucrt:output.obj
 0001:00034514       ?process@?$output_processor@_WV?$stream_output_adapter@_W@__crt_stdio_output@@V?$standard_base@_WV?$stream_output_adapter@_W@__crt_stdio_output@@@2@@__crt_stdio_output@@QEAAHXZ 0000000180035514 f i libucrt:output.obj
 0001:0003478c       ?process@?$output_processor@_WV?$string_output_adapter@_W@__crt_stdio_output@@V?$standard_base@_WV?$string_output_adapter@_W@__crt_stdio_output@@@2@@__crt_stdio_output@@QEAAHXZ 000000018003578c f i libucrt:output.obj
 0001:00034a08       ?state_case_normal@?$output_processor@DV?$string_output_adapter@D@__crt_stdio_output@@V?$format_validation_base@DV?$string_output_adapter@D@__crt_stdio_output@@@2@@__crt_stdio_output@@AEAA_NXZ 0000000180035a08 f i libucrt:output.obj
 0001:00034a7c       ?state_case_normal_tchar@?$output_processor@DV?$string_output_adapter@D@__crt_stdio_output@@V?$format_validation_base@DV?$string_output_adapter@D@__crt_stdio_output@@@2@@__crt_stdio_output@@AEAA_ND@Z 0000000180035a7c f i libucrt:output.obj
 0001:00034b14       ?state_case_size@?$output_processor@DV?$string_output_adapter@D@__crt_stdio_output@@V?$format_validation_base@DV?$string_output_adapter@D@__crt_stdio_output@@@2@@__crt_stdio_output@@AEAA_NXZ 0000000180035b14 f i libucrt:output.obj
 0001:00034c90       ?state_case_size@?$output_processor@_WV?$stream_output_adapter@_W@__crt_stdio_output@@V?$standard_base@_WV?$stream_output_adapter@_W@__crt_stdio_output@@@2@@__crt_stdio_output@@AEAA_NXZ 0000000180035c90 f i libucrt:output.obj
 0001:00034e34       ?state_case_size@?$output_processor@_WV?$string_output_adapter@_W@__crt_stdio_output@@V?$standard_base@_WV?$string_output_adapter@_W@__crt_stdio_output@@@2@@__crt_stdio_output@@AEAA_NXZ 0000000180035e34 f i libucrt:output.obj
 0001:00034fd8       ?state_case_type@?$output_processor@DV?$string_output_adapter@D@__crt_stdio_output@@V?$format_validation_base@DV?$string_output_adapter@D@__crt_stdio_output@@@2@@__crt_stdio_output@@AEAA_NXZ 0000000180035fd8 f i libucrt:output.obj
 0001:00035254       ?state_case_type@?$output_processor@_WV?$stream_output_adapter@_W@__crt_stdio_output@@V?$standard_base@_WV?$stream_output_adapter@_W@__crt_stdio_output@@@2@@__crt_stdio_output@@AEAA_NXZ 0000000180036254 f i libucrt:output.obj
 0001:00035520       ?state_case_type@?$output_processor@_WV?$string_output_adapter@_W@__crt_stdio_output@@V?$standard_base@_WV?$string_output_adapter@_W@__crt_stdio_output@@@2@@__crt_stdio_output@@AEAA_NXZ 0000000180036520 f i libucrt:output.obj
 0001:000357ec       ?type_case_Z@?$output_processor@DV?$string_output_adapter@D@__crt_stdio_output@@V?$format_validation_base@DV?$string_output_adapter@D@__crt_stdio_output@@@2@@__crt_stdio_output@@AEAA_NXZ 00000001800367ec f i libucrt:output.obj
 0001:0003586c       ?type_case_Z@?$output_processor@_WV?$stream_output_adapter@_W@__crt_stdio_output@@V?$standard_base@_WV?$stream_output_adapter@_W@__crt_stdio_output@@@2@@__crt_stdio_output@@AEAA_NXZ 000000018003686c f i libucrt:output.obj
 0001:0003586c       ?type_case_Z@?$output_processor@_WV?$string_output_adapter@_W@__crt_stdio_output@@V?$standard_base@_WV?$string_output_adapter@_W@__crt_stdio_output@@@2@@__crt_stdio_output@@AEAA_NXZ 000000018003686c f i libucrt:output.obj
 0001:000358ec       ?type_case_a@?$output_processor@DV?$string_output_adapter@D@__crt_stdio_output@@V?$format_validation_base@DV?$string_output_adapter@D@__crt_stdio_output@@@2@@__crt_stdio_output@@AEAA_NXZ 00000001800368ec f i libucrt:output.obj
 0001:00035b08       ?type_case_a@?$output_processor@_WV?$stream_output_adapter@_W@__crt_stdio_output@@V?$standard_base@_WV?$stream_output_adapter@_W@__crt_stdio_output@@@2@@__crt_stdio_output@@AEAA_NXZ 0000000180036b08 f i libucrt:output.obj
 0001:00035b08       ?type_case_a@?$output_processor@_WV?$string_output_adapter@_W@__crt_stdio_output@@V?$standard_base@_WV?$string_output_adapter@_W@__crt_stdio_output@@@2@@__crt_stdio_output@@AEAA_NXZ 0000000180036b08 f i libucrt:output.obj
 0001:00035d4c       ?type_case_c_tchar@?$output_processor@DV?$string_output_adapter@D@__crt_stdio_output@@V?$format_validation_base@DV?$string_output_adapter@D@__crt_stdio_output@@@2@@__crt_stdio_output@@AEAA_ND@Z 0000000180036d4c f i libucrt:output.obj
 0001:00035e00       ?type_case_c_tchar@?$output_processor@_WV?$string_output_adapter@_W@__crt_stdio_output@@V?$standard_base@_WV?$string_output_adapter@_W@__crt_stdio_output@@@2@@__crt_stdio_output@@AEAA_N_W@Z 0000000180036e00 f i libucrt:output.obj
 0001:00035e00       ?type_case_c_tchar@?$output_processor@_WV?$stream_output_adapter@_W@__crt_stdio_output@@V?$standard_base@_WV?$stream_output_adapter@_W@__crt_stdio_output@@@2@@__crt_stdio_output@@AEAA_N_W@Z 0000000180036e00 f i libucrt:output.obj
 0001:00035ea8       ?type_case_integer@?$output_processor@_WV?$string_output_adapter@_W@__crt_stdio_output@@V?$standard_base@_WV?$string_output_adapter@_W@__crt_stdio_output@@@2@@__crt_stdio_output@@AEAA_NI_N@Z 0000000180036ea8 f i libucrt:output.obj
 0001:00035ea8       ?type_case_integer@?$output_processor@_WV?$stream_output_adapter@_W@__crt_stdio_output@@V?$standard_base@_WV?$stream_output_adapter@_W@__crt_stdio_output@@@2@@__crt_stdio_output@@AEAA_NI_N@Z 0000000180036ea8 f i libucrt:output.obj
 0001:00035ea8       ?type_case_integer@?$output_processor@DV?$string_output_adapter@D@__crt_stdio_output@@V?$format_validation_base@DV?$string_output_adapter@D@__crt_stdio_output@@@2@@__crt_stdio_output@@AEAA_NI_N@Z 0000000180036ea8 f i libucrt:output.obj
 0001:00036048       ?type_case_n@?$output_processor@DV?$string_output_adapter@D@__crt_stdio_output@@V?$format_validation_base@DV?$string_output_adapter@D@__crt_stdio_output@@@2@@__crt_stdio_output@@AEAA_NXZ 0000000180037048 f i libucrt:output.obj
 0001:00036048       ?type_case_n@?$output_processor@_WV?$string_output_adapter@_W@__crt_stdio_output@@V?$standard_base@_WV?$string_output_adapter@_W@__crt_stdio_output@@@2@@__crt_stdio_output@@AEAA_NXZ 0000000180037048 f i libucrt:output.obj
 0001:00036048       ?type_case_n@?$output_processor@_WV?$stream_output_adapter@_W@__crt_stdio_output@@V?$standard_base@_WV?$stream_output_adapter@_W@__crt_stdio_output@@@2@@__crt_stdio_output@@AEAA_NXZ 0000000180037048 f i libucrt:output.obj
 0001:00036124       ?type_case_s@?$output_processor@DV?$string_output_adapter@D@__crt_stdio_output@@V?$format_validation_base@DV?$string_output_adapter@D@__crt_stdio_output@@@2@@__crt_stdio_output@@AEAA_NXZ 0000000180037124 f i libucrt:output.obj
 0001:000361b4       ?type_case_s@?$output_processor@_WV?$stream_output_adapter@_W@__crt_stdio_output@@V?$standard_base@_WV?$stream_output_adapter@_W@__crt_stdio_output@@@2@@__crt_stdio_output@@AEAA_NXZ 00000001800371b4 f i libucrt:output.obj
 0001:000361b4       ?type_case_s@?$output_processor@_WV?$string_output_adapter@_W@__crt_stdio_output@@V?$standard_base@_WV?$string_output_adapter@_W@__crt_stdio_output@@@2@@__crt_stdio_output@@AEAA_NXZ 00000001800371b4 f i libucrt:output.obj
 0001:0003627c       ?write_stored_string_tchar@?$output_processor@DV?$string_output_adapter@D@__crt_stdio_output@@V?$format_validation_base@DV?$string_output_adapter@D@__crt_stdio_output@@@2@@__crt_stdio_output@@AEAA_ND@Z 000000018003727c f i libucrt:output.obj
 0001:00036354       ?write_stored_string_tchar@?$output_processor@_WV?$stream_output_adapter@_W@__crt_stdio_output@@V?$standard_base@_WV?$stream_output_adapter@_W@__crt_stdio_output@@@2@@__crt_stdio_output@@AEAA_N_W@Z 0000000180037354 f i libucrt:output.obj
 0001:00036440       ?write_stored_string_tchar@?$output_processor@_WV?$string_output_adapter@_W@__crt_stdio_output@@V?$standard_base@_WV?$string_output_adapter@_W@__crt_stdio_output@@@2@@__crt_stdio_output@@AEAA_N_W@Z 0000000180037440 f i libucrt:output.obj
 0001:00036530       ?write_string@?$stream_output_adapter@_W@__crt_stdio_output@@QEBAXQEB_WHQEAH1@Z 0000000180037530 f i libucrt:output.obj
 0001:0003663c       ?write_string@?$string_output_adapter@D@__crt_stdio_output@@QEBAXQEBDHQEAH1@Z 000000018003763c f i libucrt:output.obj
 0001:000366f8       ?write_string@?$string_output_adapter@_W@__crt_stdio_output@@QEBAXQEB_WHQEAH1@Z 00000001800376f8 f i libucrt:output.obj
 0001:000367b8       __stdio_common_vfwprintf   00000001800377b8 f   libucrt:output.obj
 0001:00036844       __stdio_common_vsprintf_s  0000000180037844 f   libucrt:output.obj
 0001:000368a8       __stdio_common_vswprintf   00000001800378a8 f   libucrt:output.obj
 0001:00036ae0       localeconv                 0000000180037ae0 f   libucrt:localeconv.obj
 0001:00036e30       _localtime64               0000000180037e30 f   libucrt:localtime.obj
 0001:00036e78       _localtime64_s             0000000180037e78 f   libucrt:localtime.obj
 0001:00036e80       free                       0000000180037e80 f   libucrt:free.obj
 0001:00036e88       frexp                      0000000180037e88 f   libucrt:frexp.obj
 0001:00037968       ??$ftprintf@PEAU_iobuf@@PEB_WAEBQEB_WAEBQEB_WAEBI@?$__crt_char_traits@_W@@SAH$$QEAPEAU_iobuf@@$$QEAPEB_WAEBQEB_W2AEBI@Z 0000000180038968 f i libucrt:assert.obj
 0001:00037990       _wassert                   0000000180038990 f   libucrt:assert.obj
 0001:00037a14       fwprintf                   0000000180038a14 f i libucrt:assert.obj
 0001:00037a58       swprintf                   0000000180038a58 f i libucrt:assert.obj
 0001:00037aac       malloc                     0000000180038aac f   libucrt:malloc.obj
 0001:00037ab4       __ascii_stricmp            0000000180038ab4 f   libucrt:stricmp.obj
 0001:00037af0       _stricmp                   0000000180038af0 f   libucrt:stricmp.obj
 0001:00037b38       _stricmp_l                 0000000180038b38 f   libucrt:stricmp.obj
 0001:00037c00       strncpy                    0000000180038c00 f   libucrt:strncpy.obj
 0001:00037d64       _Strftime_l                0000000180038d64 f   libucrt:strftime.obj
 0001:00037f0c       strftime                   0000000180038f0c f   libucrt:strftime.obj
 0001:00037fc0       _time64                    0000000180038fc0 f   libucrt:time.obj
 0001:00038000       __acrt_initialize_locks    0000000180039000 f   libucrt:locks.obj
 0001:00038048       __acrt_lock                0000000180039048 f   libucrt:locks.obj
 0001:00038064       __acrt_uninitialize_locks  0000000180039064 f   libucrt:locks.obj
 0001:0003809c       __acrt_unlock              000000018003909c f   libucrt:locks.obj
 0001:000380b8       _lock_locales              00000001800390b8 f   libucrt:locks.obj
 0001:000380c8       _unlock_locales            00000001800390c8 f   libucrt:locks.obj
 0001:000381c0       setlocale                  00000001800391c0 f   libucrt:setlocale.obj
 0001:0003838c       _calloc_base               000000018003938c f   libucrt:calloc_base.obj
 0001:00038404       __pctype_func              0000000180039404 f   libucrt:ctype.obj
 0001:00038434       isdigit                    0000000180039434 f i libucrt:_ctype.obj
 0001:000384a8       islower                    00000001800394a8 f i libucrt:_ctype.obj
 0001:0003851c       isupper                    000000018003951c f i libucrt:_ctype.obj
 0001:00038590       _wcsdup                    0000000180039590 f   libucrt:wcsdup.obj
 0001:00038614       ___lc_codepage_func        0000000180039614 f   libucrt:initctype.obj
 0001:00038644       ___lc_locale_name_func     0000000180039644 f   libucrt:initctype.obj
 0001:00038678       ___mb_cur_max_func         0000000180039678 f   libucrt:initctype.obj
 0001:000386a8       __acrt_locale_initialize_ctype 00000001800396a8 f   libucrt:initctype.obj
 0001:00038c7c       __acrt_errno_from_os_error 0000000180039c7c f   libucrt:errno.obj
 0001:00038cc4       __acrt_errno_map_os_error  0000000180039cc4 f   libucrt:errno.obj
 0001:00038d14       __doserrno                 0000000180039d14 f   libucrt:errno.obj
 0001:00038d34       _errno                     0000000180039d34 f   libucrt:errno.obj
 0001:00038dcc       _ismbblead                 0000000180039dcc f   libucrt:ismbbyte.obj
 0001:00038de0       _malloc_base               0000000180039de0 f   libucrt:malloc_base.obj
 0001:00038e40       _realloc_base              0000000180039e40 f   libucrt:realloc_base.obj
 0001:00038ec4       ??$make_c_string_character_source@DPEAPEAD@__crt_strtox@@YA?AV?$c_string_character_source@D@0@QEBDQEAPEAD@Z 0000000180039ec4 f i libucrt:strtod.obj
 0001:00038ec4       ??$make_c_string_character_source@_W$$T@__crt_strtox@@YA?AV?$c_string_character_source@_W@0@QEB_W$$T@Z 0000000180039ec4 f i libucrt:atox.obj
 0001:00038ec4       ??$make_c_string_character_source@D$$T@__crt_strtox@@YA?AV?$c_string_character_source@D@0@QEBD$$T@Z 0000000180039ec4 f i libucrt:atox.obj
 0001:00038ec4       ??$make_c_string_character_source@_WPEAPEA_W@__crt_strtox@@YA?AV?$c_string_character_source@_W@0@QEB_WQEAPEA_W@Z 0000000180039ec4 f i libucrt:strtod.obj
 0001:00038ee0       ?divide@__crt_strtox@@YA_KAEAUbig_integer@1@AEBU21@@Z 0000000180039ee0 f i libucrt:strtod.obj
 0001:000393b0       pow                        000000018003a3b0 f   libucrt:pow.obj
 0001:0003aa50       powf                       000000018003ba50 f   libucrt:powf.obj
 0001:0003b918       __strncnt                  000000018003c918 f   libucrt:strncnt.obj
 0001:0003b930       _free_base                 000000018003c930 f   libucrt:free_base.obj
 0001:0003b970       ??$__crt_time_is_leap_year@H@@YA_NH@Z 000000018003c970 f i libucrt:wcsftime.obj
 0001:0003d118       _Wcsftime_l                000000018003e118 f   libucrt:wcsftime.obj
 0001:0003d30c       _tolower_l                 000000018003e30c f   libucrt:tolower_toupper.obj
 0001:0003d44c       tolower                    000000018003e44c f   libucrt:tolower_toupper.obj
 0001:0003d478       wcscpy_s                   000000018003e478 f   libucrt:wcscpy_s.obj
 0001:0003d4e0       strnlen                    000000018003e4e0 f   libucrt:strnlen.obj
 0001:0003d63c       wcsnlen                    000000018003e63c f   libucrt:strnlen.obj
 0001:0003d82c       __acrt_initialize_new_handler 000000018003e82c f   libucrt:new_handler.obj
 0001:0003d834       _callnewh                  000000018003e834 f   libucrt:new_handler.obj
 0001:0003d874       _query_new_handler         000000018003e874 f   libucrt:new_handler.obj
 0001:0003d8a8       _seh_filter_dll            000000018003e8a8 f   libucrt:exception_filter.obj
 0001:0003d8bc       _seh_filter_exe            000000018003e8bc f   libucrt:exception_filter.obj
 0001:0003dc7c       __acrt_initialize_thread_local_exit_callback 000000018003ec7c f   libucrt:exit.obj
 0001:0003dc84       _cexit                     000000018003ec84 f   libucrt:exit.obj
 0001:0003dc94       _exit                      000000018003ec94 f   libucrt:exit.obj
 0001:0003dca0       _is_c_termination_complete 000000018003eca0 f   libucrt:exit.obj
 0001:0003de64       __acrt_allocate_buffer_for_argv 000000018003ee64 f   libucrt:argv_parsing.obj
 0001:0003dec8       _configure_narrow_argv     000000018003eec8 f   libucrt:argv_parsing.obj
 0001:0003e340       __dcrt_get_or_create_narrow_environment_nolock 000000018003f340 f   libucrt:environment_initialization.obj
 0001:0003e348       __dcrt_uninitialize_environments_nolock 000000018003f348 f   libucrt:environment_initialization.obj
 0001:0003e380       _initialize_narrow_environment 000000018003f380 f   libucrt:environment_initialization.obj
 0001:0003e388       ??$?RV<lambda_b8c45f8f788dd370798f47cfe8ac3a86>@@AEAV<lambda_4e60a939b0d047cfe11ddc22648dfba9>@@V<lambda_332c3edc96d0294ec56c57d38c1cdfd5>@@@?$__crt_seh_guarded_call@H@@QEAAH$$QEAV<lambda_b8c45f8f788dd370798f47cfe8ac3a86>@@AEAV<lambda_4e60a939b0d047cfe11ddc22648dfba9>@@$$QEAV<lambda_332c3edc96d0294ec56c57d38c1cdfd5>@@@Z 000000018003f388 f i libucrt:onexit.obj
 0001:0003e3c4       ??$?RV<lambda_e24bbb7b643b32fcea6fa61b31d4c984>@@AEAV<lambda_275893d493268fdec8709772e3fcec0e>@@V<lambda_9d71df4d7cf3f480f8d633942495c3b0>@@@?$__crt_seh_guarded_call@H@@QEAAH$$QEAV<lambda_e24bbb7b643b32fcea6fa61b31d4c984>@@AEAV<lambda_275893d493268fdec8709772e3fcec0e>@@$$QEAV<lambda_9d71df4d7cf3f480f8d633942495c3b0>@@@Z 000000018003f3c4 f i libucrt:onexit.obj
 0001:0003e740       _crt_atexit                000000018003f740 f   libucrt:onexit.obj
 0001:0003e750       _execute_onexit_table      000000018003f750 f   libucrt:onexit.obj
 0001:0003e78c       _initialize_onexit_table   000000018003f78c f   libucrt:onexit.obj
 0001:0003e7cc       _register_onexit_function  000000018003f7cc f   libucrt:onexit.obj
 0001:0003e948       __acrt_initialize          000000018003f948 f   libucrt:initialization.obj
 0001:0003e95c       __acrt_thread_attach       000000018003f95c f   libucrt:initialization.obj
 0001:0003e970       __acrt_thread_detach       000000018003f970 f   libucrt:initialization.obj
 0001:0003e980       __acrt_uninitialize        000000018003f980 f   libucrt:initialization.obj
 0001:0003e994       __acrt_uninitialize_critical 000000018003f994 f   libucrt:initialization.obj
 0001:0003e9a4       _initterm                  000000018003f9a4 f   libucrt:initterm.obj
 0001:0003ea1c       _initterm_e                000000018003fa1c f   libucrt:initterm.obj
 0001:0003ea68       terminate                  000000018003fa68 f   libucrt:terminate.obj
 0001:0003ec4c       itoa                       000000018003fc4c f   libucrt:xtoa.obj
 0001:0003ec4c       _itoa                      000000018003fc4c f   libucrt:xtoa.obj
 0001:0003ec7c       _itow_s                    000000018003fc7c f   libucrt:xtoa.obj
 0001:0003ec9c       strcpy_s                   000000018003fc9c f   libucrt:strcpy_s.obj
 0001:0003ecfc       ??$is_overflow_condition@K@__crt_strtox@@YA_NIK@Z 000000018003fcfc f i libucrt:atox.obj
 0001:0003ed28       ??$parse_integer@KV?$c_string_character_source@D@__crt_strtox@@@__crt_strtox@@YAKQEAU__crt_locale_pointers@@V?$c_string_character_source@D@0@H_N@Z 000000018003fd28 f i libucrt:atox.obj
 0001:0003f03c       ??$parse_integer@KV?$c_string_character_source@_W@__crt_strtox@@@__crt_strtox@@YAKQEAU__crt_locale_pointers@@V?$c_string_character_source@_W@0@H_N@Z 000000018004003c f i libucrt:atox.obj
 0001:0003f710       _wtol                      0000000180040710 f   libucrt:atox.obj
 0001:0003f73c       atol                       000000018004073c f   libucrt:atox.obj
 0001:0003f768       ??$?RV<lambda_c36588078e9f5dfd39652860aa6b3aaf>@@AEAV<lambda_ec61778202f4f5fc7e7711acc23c3bca>@@V<lambda_dc9d2797ccde5d239b4a0efae8ebd7db>@@@?$__crt_seh_guarded_call@P6AXH@Z@@QEAAP6AXH@Z$$QEAV<lambda_c36588078e9f5dfd39652860aa6b3aaf>@@AEAV<lambda_ec61778202f4f5fc7e7711acc23c3bca>@@$$QEAV<lambda_dc9d2797ccde5d239b4a0efae8ebd7db>@@@Z 0000000180040768 f i libucrt:signal.obj
 0001:0003f7b0       __acrt_get_sigabrt_handler 00000001800407b0 f   libucrt:signal.obj
 0001:0003f7e0       __acrt_initialize_signal_handlers 00000001800407e0 f   libucrt:signal.obj
 0001:0003f800       raise                      0000000180040800 f   libucrt:signal.obj
 0001:0003fa9c       ??$?RV<lambda_46352004c1216016012b18bd6f87e700>@@AEAV<lambda_3bd07e1a1191394380780325891bf33f>@@V<lambda_334532d3f185bcaa59b5be82d7d22bff>@@@?$__crt_seh_guarded_call@X@@QEAAX$$QEAV<lambda_46352004c1216016012b18bd6f87e700>@@AEAV<lambda_3bd07e1a1191394380780325891bf33f>@@$$QEAV<lambda_334532d3f185bcaa59b5be82d7d22bff>@@@Z 0000000180040a9c f i libucrt:per_thread_data.obj
 0001:0003fafc       ??$?RV<lambda_5e887d1dcbef67a5eb4283622ba103bf>@@AEAV<lambda_4466841279450cc726390878d4a41900>@@V<lambda_341c25c0346d94847f1f3c463c57e077>@@@?$__crt_seh_guarded_call@X@@QEAAX$$QEAV<lambda_5e887d1dcbef67a5eb4283622ba103bf>@@AEAV<lambda_4466841279450cc726390878d4a41900>@@$$QEAV<lambda_341c25c0346d94847f1f3c463c57e077>@@@Z 0000000180040afc f i libucrt:per_thread_data.obj
 0001:0003fb44       ??$?RV<lambda_72d1df2b273a38828b1ce30cbf4cdab5>@@AEAV<lambda_876a65b173b8412d3a47c70a915b0cf4>@@V<lambda_41932305e351933ebe8f8be3ed8bb5dc>@@@?$__crt_seh_guarded_call@X@@QEAAX$$QEAV<lambda_72d1df2b273a38828b1ce30cbf4cdab5>@@AEAV<lambda_876a65b173b8412d3a47c70a915b0cf4>@@$$QEAV<lambda_41932305e351933ebe8f8be3ed8bb5dc>@@@Z 0000000180040b44 f i libucrt:per_thread_data.obj
 0001:0003fb84       ??$?RV<lambda_fb3a7dec4e47f37f22dae91bb15c9095>@@AEAV<lambda_698284760c8add0bfb0756c19673e34b>@@V<lambda_dfb8eca1e75fef3034a8fb18dd509707>@@@?$__crt_seh_guarded_call@X@@QEAAX$$QEAV<lambda_fb3a7dec4e47f37f22dae91bb15c9095>@@AEAV<lambda_698284760c8add0bfb0756c19673e34b>@@$$QEAV<lambda_dfb8eca1e75fef3034a8fb18dd509707>@@@Z 0000000180040b84 f i libucrt:per_thread_data.obj
 0001:0003fe14       __acrt_freeptd             0000000180040e14 f   libucrt:per_thread_data.obj
 0001:0003fe58       __acrt_getptd              0000000180040e58 f   libucrt:per_thread_data.obj
 0001:0003feec       __acrt_getptd_noexit       0000000180040eec f   libucrt:per_thread_data.obj
 0001:0003ff8c       __acrt_initialize_ptd      0000000180040f8c f   libucrt:per_thread_data.obj
 0001:0003ffc8       __acrt_uninitialize_ptd    0000000180040fc8 f   libucrt:per_thread_data.obj
 0001:0003ffec       __acrt_initialize_timeset  0000000180040fec f   libucrt:timeset.obj
 0001:0004001c       __daylight                 000000018004101c f   libucrt:timeset.obj
 0001:00040024       __dstbias                  0000000180041024 f   libucrt:timeset.obj
 0001:0004002c       __timezone                 000000018004102c f   libucrt:timeset.obj
 0001:00040034       __tzname                   0000000180041034 f   libucrt:timeset.obj
 0001:0004003c       _get_daylight              000000018004103c f   libucrt:timeset.obj
 0001:0004006c       _get_dstbias               000000018004106c f   libucrt:timeset.obj
 0001:0004009c       _get_timezone              000000018004109c f   libucrt:timeset.obj
 0001:00040344       __getgmtimebuf             0000000180041344 f   libucrt:gmtime.obj
 0001:00040390       _gmtime64_s                0000000180041390 f   libucrt:gmtime.obj
 0001:00040dd4       __tzset                    0000000180041dd4 f   libucrt:tzset.obj
 0001:00040e10       _isindst                   0000000180041e10 f   libucrt:tzset.obj
 0001:00040e40       strtol                     0000000180041e40 f   libucrt:strtox.obj
 0001:00040e70       wcstol                     0000000180041e70 f   libucrt:strtox.obj
 0001:00040ea0       _mbtowc_l                  0000000180041ea0 f   libucrt:mbtowc.obj
 0001:00040fe8       mbtowc                     0000000180041fe8 f   libucrt:mbtowc.obj
 0001:00040ff0       _wctomb_s_l                0000000180041ff0 f   libucrt:wctomb.obj
 0001:00041174       wctomb_s                   0000000180042174 f   libucrt:wctomb.obj
 0001:00041188       __acrt_update_locale_info  0000000180042188 f   libucrt:locale_update.obj
 0001:000411bc       __acrt_update_multibyte_info 00000001800421bc f   libucrt:locale_update.obj
 0001:000411f0       ?__acrt_fp_classify@@YA?AW4__acrt_fp_class@@AEBN@Z 00000001800421f0 f i libucrt:cvt.obj
 0001:00041c28       __acrt_fp_format           0000000180042c28 f   libucrt:cvt.obj
 0001:00041e6c       _fputwc_nolock             0000000180042e6c f   libucrt:fputwc.obj
 0001:00041fe8       _fileno                    0000000180042fe8 f   libucrt:fileno.obj
 0001:00042010       __acrt_initialize_stdio    0000000180043010 f   libucrt:_file.obj
 0001:00042130       __acrt_iob_func            0000000180043130 f   libucrt:_file.obj
 0001:00042144       __acrt_uninitialize_stdio  0000000180043144 f   libucrt:_file.obj
 0001:000421a0       _lock_file                 00000001800431a0 f   libucrt:_file.obj
 0001:000421ac       _unlock_file               00000001800431ac f   libucrt:_file.obj
 0001:000421b8       _fputc_nolock              00000001800431b8 f   libucrt:fputc.obj
 0001:000421d0       _get_printf_count_output   00000001800431d0 f   libucrt:printf_count_output.obj
 0001:000421e8       __acrt_stdio_begin_temporary_buffering_nolock 00000001800431e8 f   libucrt:_sftbuf.obj
 0001:000422b8       __acrt_stdio_end_temporary_buffering_nolock 00000001800432b8 f   libucrt:_sftbuf.obj
 0001:000422f4       ??$?RV<lambda_5df02c53a8f32f81fd64e5bbb78039f1>@@AEAV<lambda_2af78c5f5901b1372d98f9ab3177dfa6>@@AEAV<lambda_f51fe5fd7c79a33db34fc9310f277369>@@@?$__crt_seh_guarded_call@X@@QEAAX$$QEAV<lambda_5df02c53a8f32f81fd64e5bbb78039f1>@@AEAV<lambda_2af78c5f5901b1372d98f9ab3177dfa6>@@AEAV<lambda_f51fe5fd7c79a33db34fc9310f277369>@@@Z 00000001800432f4 f i libucrt:wsetlocale.obj
 0001:00042320       ??$?RV<lambda_d67e8342c384adda8f857579ab50b2ae>@@AEAV<lambda_30712929f77e709619002f448b6a9510>@@V<lambda_4525336fd7e478d965fb7ca7a337cad8>@@@?$__crt_seh_guarded_call@X@@QEAAX$$QEAV<lambda_d67e8342c384adda8f857579ab50b2ae>@@AEAV<lambda_30712929f77e709619002f448b6a9510>@@$$QEAV<lambda_4525336fd7e478d965fb7ca7a337cad8>@@@Z 0000000180043320 f i libucrt:wsetlocale.obj
 0001:000424ec       __acrt_copy_locale_name    00000001800434ec f   libucrt:wsetlocale.obj
 0001:00042570       __acrt_set_locale_changed  0000000180043570 f   libucrt:wsetlocale.obj
 0001:0004257c       __acrt_uninitialize_locale 000000018004357c f   libucrt:wsetlocale.obj
 0001:000425c4       __lc_lctowcs               00000001800435c4 f   libucrt:wsetlocale.obj
 0001:00042668       __lc_wcstolc               0000000180043668 f   libucrt:wsetlocale.obj
 0001:000428e0       _expandlocale              00000001800438e0 f   libucrt:wsetlocale.obj
 0001:00042cdc       _wcscats                   0000000180043cdc f   libucrt:wsetlocale.obj
 0001:00042d44       _wsetlocale                0000000180043d44 f   libucrt:wsetlocale.obj
 0001:00043778       __acrt_initialize_lowio    0000000180044778 f   libucrt:ioinit.obj
 0001:000437b4       __acrt_uninitialize_lowio  00000001800447b4 f   libucrt:ioinit.obj
 0001:000437f4       _dsign                     00000001800447f4 f   libucrt:nan.obj
 0001:0004380c       _errcode                   000000018004480c f   libucrt:fpexcept.obj
 0001:00043850       _except1                   0000000180044850 f   libucrt:fpexcept.obj
 0001:00043944       _handle_exc                0000000180044944 f   libucrt:fpexcept.obj
 0001:00043bac       _raise_exc                 0000000180044bac f   libucrt:fpexcept.obj
 0001:00043bd4       _raise_exc_ex              0000000180044bd4 f   libucrt:fpexcept.obj
 0001:00043edc       _raise_excf                0000000180044edc f   libucrt:fpexcept.obj
 0001:00043f08       _set_errno_from_matherr    0000000180044f08 f   libucrt:fpexcept.obj
 0001:00043f38       _umatherr                  0000000180044f38 f   libucrt:fpexcept.obj
 0001:0004400c       _decomp                    000000018004500c f   libucrt:util.obj
 0001:00044140       _sptype                    0000000180045140 f   libucrt:util.obj
 0001:000441b4       _clrfp                     00000001800451b4 f   libucrt:fpctrl.obj
 0001:000441d4       _ctrlfp                    00000001800451d4 f   libucrt:fpctrl.obj
 0001:00044250       _set_statfp                0000000180045250 f   libucrt:fpctrl.obj
 0001:00044270       _statfp                    0000000180045270 f   libucrt:fpctrl.obj
 0001:00044284       _query_app_type            0000000180045284 f   libucrt:report_runtime_error.obj
 0001:0004428c       _set_error_mode            000000018004528c f   libucrt:set_error_mode.obj
 0001:000442cc       wcscat_s                   00000001800452cc f   libucrt:wcscat_s.obj
 0001:0004434c       wcsncat_s                  000000018004534c f   libucrt:wcsncat_s.obj
 0001:00044474       __acrt_show_wide_message_box 0000000180045474 f   libucrt:crtmbox.obj
 0001:00044590       __acrt_stdio_flush_nolock  0000000180045590 f   libucrt:fflush.obj
 0001:00044608       _fflush_nolock             0000000180045608 f   libucrt:fflush.obj
 0001:00044654       _flushall                  0000000180045654 f   libucrt:fflush.obj
 0001:00044744       fflush                     0000000180045744 f   libucrt:fflush.obj
 0001:00044788       ??$?RV<lambda_7a5ef57ff966f610505f1d28a3d40618>@@AEAV<lambda_b721fa326cdb32351d23dfa67958c160>@@V<lambda_5e0fb27672408a07956fe59e48ccb2aa>@@@?$__crt_seh_guarded_call@H@@QEAAH$$QEAV<lambda_7a5ef57ff966f610505f1d28a3d40618>@@AEAV<lambda_b721fa326cdb32351d23dfa67958c160>@@$$QEAV<lambda_5e0fb27672408a07956fe59e48ccb2aa>@@@Z 0000000180045788 f i libucrt:setvbuf.obj
 0001:000448b8       setvbuf                    00000001800458b8 f   libucrt:setvbuf.obj
 0001:0004499c       ??$?RV<lambda_630b2aca97f6d20d5b5ea6529ea6b6af>@@AEAV<lambda_af91936f1d075d609f72d9d8cba980af>@@V<lambda_e82fa975f615b5c7c7b0e4d178fdae67>@@@?$__crt_seh_guarded_call@H@@QEAAH$$QEAV<lambda_630b2aca97f6d20d5b5ea6529ea6b6af>@@AEAV<lambda_af91936f1d075d609f72d9d8cba980af>@@$$QEAV<lambda_e82fa975f615b5c7c7b0e4d178fdae67>@@@Z 000000018004599c f i libucrt:winapi_thunks.obj
 0001:00044bd4       __acrt_CompareStringEx     0000000180045bd4 f   libucrt:winapi_thunks.obj
 0001:00044cc4       __acrt_EnumSystemLocalesEx 0000000180045cc4 f   libucrt:winapi_thunks.obj
 0001:00044d6c       __acrt_FlsAlloc            0000000180045d6c f   libucrt:winapi_thunks.obj
 0001:00044dc4       __acrt_FlsFree             0000000180045dc4 f   libucrt:winapi_thunks.obj
 0001:00044e1c       __acrt_FlsGetValue         0000000180045e1c f   libucrt:winapi_thunks.obj
 0001:00044e74       __acrt_FlsSetValue         0000000180045e74 f   libucrt:winapi_thunks.obj
 0001:00044edc       __acrt_GetDateFormatEx     0000000180045edc f   libucrt:winapi_thunks.obj
 0001:00044fa8       __acrt_GetLocaleInfoEx     0000000180045fa8 f   libucrt:winapi_thunks.obj
 0001:00045040       __acrt_GetSystemTimePreciseAsFileTime 0000000180046040 f   libucrt:winapi_thunks.obj
 0001:00045098       __acrt_GetTimeFormatEx     0000000180046098 f   libucrt:winapi_thunks.obj
 0001:00045154       __acrt_GetUserDefaultLocaleName 0000000180046154 f   libucrt:winapi_thunks.obj
 0001:000451c8       __acrt_InitializeCriticalSectionEx 00000001800461c8 f   libucrt:winapi_thunks.obj
 0001:00045240       __acrt_IsValidLocaleName   0000000180046240 f   libucrt:winapi_thunks.obj
 0001:000452a8       __acrt_LCIDToLocaleName    00000001800462a8 f   libucrt:winapi_thunks.obj
 0001:00045334       __acrt_LCMapStringEx       0000000180046334 f   libucrt:winapi_thunks.obj
 0001:00045424       __acrt_LocaleNameToLCID    0000000180046424 f   libucrt:winapi_thunks.obj
 0001:0004548c       __acrt_MessageBoxW         000000018004648c f   libucrt:winapi_thunks.obj
 0001:00045514       __acrt_can_show_message_box 0000000180046514 f   libucrt:winapi_thunks.obj
 0001:00045570       __acrt_can_use_vista_locale_apis 0000000180046570 f   libucrt:winapi_thunks.obj
 0001:000455a0       __acrt_get_parent_window   00000001800465a0 f   libucrt:winapi_thunks.obj
 0001:00045630       __acrt_initialize_winapi_thunks 0000000180046630 f   libucrt:winapi_thunks.obj
 0001:00045668       __acrt_is_interactive      0000000180046668 f   libucrt:winapi_thunks.obj
 0001:0004573c       __acrt_is_packaged_app     000000018004673c f   libucrt:winapi_thunks.obj
 0001:000457c4       __acrt_uninitialize_winapi_thunks 00000001800467c4 f   libucrt:winapi_thunks.obj
 0001:000459e4       _mbstowcs_s_l              00000001800469e4 f   libucrt:mbstowcs.obj
 0001:00045b14       mbstowcs_s                 0000000180046b14 f   libucrt:mbstowcs.obj
 0001:00045e68       _wcstombs_s_l              0000000180046e68 f   libucrt:wcstombs.obj
 0001:00045f54       _query_new_mode            0000000180046f54 f   libucrt:new_mode.obj
 0001:00045f5c       __acrt_initialize_heap     0000000180046f5c f   libucrt:heap_handle.obj
 0001:00045f78       __acrt_uninitialize_heap   0000000180046f78 f   libucrt:heap_handle.obj
 0001:00045f84       _isctype_l                 0000000180046f84 f   libucrt:isctype.obj
 0001:00046234       __acrt_GetLocaleInfoA      0000000180047234 f   libucrt:getlocaleinfoa.obj
 0001:000463fc       __acrt_GetStringTypeA      00000001800473fc f   libucrt:getstringtypea.obj
 0001:0004690c       __acrt_LCMapStringA        000000018004790c f   libucrt:lcmapstringa.obj
 0001:000469a4       iswctype                   00000001800479a4 f   libucrt:iswctype.obj
 0001:00046a20       __acrt_initialize_fma3     0000000180047a20 f   libucrt:fma3_available.obj
 0001:00046a90       _pow_special               0000000180047a90 f   libucrt:pow_special.obj
 0001:00046bb4       _powf_special              0000000180047bb4 f   libucrt:pow_special.obj
 0001:00046d40       _wcsicmp                   0000000180047d40 f   libucrt:wcsicmp.obj
 0001:00046dc8       _wcsicmp_l                 0000000180047dc8 f   libucrt:wcsicmp.obj
 0001:00046eb8       _isleadbyte_l              0000000180047eb8 f i libucrt:_wctype.obj
 0001:000473d4       ?expand_if_necessary@?$argument_list@D@?A0xca0879c4@@AEAAHXZ 00000001800483d4 f i libucrt:argv_wildcards.obj
 0001:0004749c       __acrt_expand_narrow_argv_wildcards 000000018004849c f   libucrt:argv_wildcards.obj
 0001:000474a4       ??$?RV<lambda_99476a1ad63dd22509b5d3e65b0ffc95>@@AEAV<lambda_ad1ced32f4ac17aa236e5ef05d6b3b7c>@@V<lambda_f7424dd8d45958661754dc4f2697e9c3>@@@?$__crt_seh_guarded_call@X@@QEAAX$$QEAV<lambda_99476a1ad63dd22509b5d3e65b0ffc95>@@AEAV<lambda_ad1ced32f4ac17aa236e5ef05d6b3b7c>@@$$QEAV<lambda_f7424dd8d45958661754dc4f2697e9c3>@@@Z 00000001800484a4 f i libucrt:mbctype.obj
 0001:00047ba0       __acrt_initialize_multibyte 0000000180048ba0 f   libucrt:mbctype.obj
 0001:00047bc8       __acrt_update_thread_multibyte_data 0000000180048bc8 f   libucrt:mbctype.obj
 0001:00047c88       _setmbcp_nolock            0000000180048c88 f   libucrt:mbctype.obj
 0001:00047f30       __acrt_initialize_command_line 0000000180048f30 f   libucrt:argv_data.obj
 0001:00047f58       __dcrt_get_narrow_environment_from_os 0000000180048f58 f   libucrt:get_environment_from_os.obj
 0001:00048438       __dcrt_set_variable_in_narrow_environment_nolock 0000000180049438 f   libucrt:setenv.obj
 0001:00048440       _recalloc                  0000000180049440 f   libucrt:recalloc.obj
 0001:00048448       _recalloc_base             0000000180049448 f   libucrt:recalloc.obj
 0001:000484e0       __acrt_execute_initializers 00000001800494e0 f   libucrt:shared_initialization.obj
 0001:00048574       __acrt_execute_uninitializers 0000000180049574 f   libucrt:shared_initialization.obj
 0001:000485c4       __acrt_has_user_matherr    00000001800495c4 f   libucrt:matherr.obj
 0001:000485e4       __acrt_initialize_user_matherr 00000001800495e4 f   libucrt:matherr.obj
 0001:000485ec       __acrt_invoke_user_matherr 00000001800495ec f   libucrt:matherr.obj
 0001:00048634       __acrt_add_locale_ref      0000000180049634 f   libucrt:locale_refcounting.obj
 0001:000486c0       __acrt_free_locale         00000001800496c0 f   libucrt:locale_refcounting.obj
 0001:00048838       __acrt_locale_add_lc_time_reference 0000000180049838 f   libucrt:locale_refcounting.obj
 0001:00048860       __acrt_locale_free_lc_time_if_unreferenced 0000000180049860 f   libucrt:locale_refcounting.obj
 0001:00048898       __acrt_locale_release_lc_time_reference 0000000180049898 f   libucrt:locale_refcounting.obj
 0001:000488c0       __acrt_release_locale_ref  00000001800498c0 f   libucrt:locale_refcounting.obj
 0001:00048968       __acrt_update_thread_locale_data 0000000180049968 f   libucrt:locale_refcounting.obj
 0001:000489d8       _updatetlocinfoEx_nolock   00000001800499d8 f   libucrt:locale_refcounting.obj
 0001:00048bc8       getenv_s                   0000000180049bc8 f   libucrt:getenv.obj
 0001:00048bd0       strncpy_s                  0000000180049bd0 f   libucrt:strncpy_s.obj
 0001:00048ca4       __acrt_fp_strflt_to_string 0000000180049ca4 f   libucrt:_fptostr.obj
 0001:00048d64       __acrt_fltout              0000000180049d64 f   libucrt:cfout.obj
 0001:0004a368       __acrt_stdio_flush_and_write_narrow_nolock 000000018004b368 f   libucrt:_flsbuf.obj
 0001:0004a450       __acrt_stdio_flush_and_write_wide_nolock 000000018004b450 f   libucrt:_flsbuf.obj
 0001:0004a53c       _fcloseall                 000000018004b53c f   libucrt:closeall.obj
 0001:0004a5f0       __acrt_stdio_free_buffer_nolock 000000018004b5f0 f   libucrt:_freebuf.obj
 0001:0004a630       _isatty                    000000018004b630 f   libucrt:isatty.obj
 0001:0004a690       __acrt_locale_free_monetary 000000018004b690 f   libucrt:initmon.obj
 0001:0004a79c       __acrt_locale_initialize_monetary 000000018004b79c f   libucrt:initmon.obj
 0001:0004acd4       __acrt_locale_free_numeric 000000018004bcd4 f   libucrt:initnum.obj
 0001:0004ad40       __acrt_locale_initialize_numeric 000000018004bd40 f   libucrt:initnum.obj
 0001:0004b3c4       __acrt_locale_free_time    000000018004c3c4 f   libucrt:inittime.obj
 0001:0004b4cc       __acrt_locale_initialize_time 000000018004c4cc f   libucrt:inittime.obj
 0001:0004b560       wcsncpy_s                  000000018004c560 f   libucrt:wcsncpy_s.obj
 0001:0004b644       wcscspn                    000000018004c644 f   libucrt:wcscspn.obj
 0001:0004b684       wcsncmp                    000000018004c684 f   libucrt:wcsncmp.obj
 0001:0004b6b0       wcspbrk                    000000018004c6b0 f   libucrt:wcspbrk.obj
 0001:0004bf54       __acrt_get_qualified_locale 000000018004cf54 f   libucrt:get_qualified_locale.obj
 0001:0004c940       __acrt_get_qualified_locale_downlevel 000000018004d940 f   libucrt:getqloc_downlevel.obj
 0001:0004cbd0       __acrt_lowio_create_handle_array 000000018004dbd0 f   libucrt:osfinfo.obj
 0001:0004cc68       __acrt_lowio_destroy_handle_array 000000018004dc68 f   libucrt:osfinfo.obj
 0001:0004ccb8       __acrt_lowio_ensure_fh_exists 000000018004dcb8 f   libucrt:osfinfo.obj
 0001:0004cd70       __acrt_lowio_lock_fh       000000018004dd70 f   libucrt:osfinfo.obj
 0001:0004cd94       __acrt_lowio_unlock_fh     000000018004dd94 f   libucrt:osfinfo.obj
 0001:0004cdb8       _free_osfhnd               000000018004ddb8 f   libucrt:osfinfo.obj
 0001:0004ce74       _get_osfhandle             000000018004de74 f   libucrt:osfinfo.obj
 0001:0004cf00       _get_fpsr                  000000018004df00 f   libucrt:fpsr.obj
 0001:0004cf10       _set_fpsr                  000000018004df10 f   libucrt:fpsr.obj
 0001:0004cf1a       _fclrf                     000000018004df1a f   libucrt:fpsr.obj
 0001:0004cf2e       _frnd                      000000018004df2e f   libucrt:fpsr.obj
 0001:0004cf50       ??$?RV<lambda_b521505b218e5242e90febf6bfebc422>@@AEAV<lambda_6978c1fb23f02e42e1d9e99668cc68aa>@@V<lambda_314360699dd331753a4119843814e9a7>@@@?$__crt_seh_guarded_call@H@@QEAAH$$QEAV<lambda_b521505b218e5242e90febf6bfebc422>@@AEAV<lambda_6978c1fb23f02e42e1d9e99668cc68aa>@@$$QEAV<lambda_314360699dd331753a4119843814e9a7>@@@Z 000000018004df50 f i libucrt:commit.obj
 0001:0004cfdc       _commit                    000000018004dfdc f   libucrt:commit.obj
 0001:0004d610       _write                     000000018004e610 f   libucrt:write.obj
 0001:0004d6fc       _write_nolock              000000018004e6fc f   libucrt:write.obj
 0001:0004daa8       __acrt_DownlevelLCIDToLocaleName 000000018004eaa8 f   libucrt:lcidtoname_downlevel.obj
 0001:0004db8c       __acrt_DownlevelLocaleNameToLCID 000000018004eb8c f   libucrt:lcidtoname_downlevel.obj
 0001:0004dbc0       _getfpcontrolword          000000018004ebc0 f   libucrt:_fenvutils.obj
 0001:0004dbd8       _getfpstatusword           000000018004ebd8 f   libucrt:_fenvutils.obj
 0001:0004dbec       _setfpcontrolword          000000018004ebec f   libucrt:_fenvutils.obj
 0001:0004dbf8       _setfpstatusword           000000018004ebf8 f   libucrt:_fenvutils.obj
 0001:0004dd6c       _handle_error              000000018004ed6c f   libucrt:libm_error.obj
 0001:0004de94       _handle_errorf             000000018004ee94 f   libucrt:libm_error.obj
 0001:0004dfc8       _handle_nan                000000018004efc8 f   libucrt:libm_error.obj
 0001:0004dfe4       _handle_nanf               000000018004efe4 f   libucrt:libm_error.obj
 0001:0004dff4       _towlower_l                000000018004eff4 f   libucrt:towlower.obj
 0001:0004e190       qsort                      000000018004f190 f   libucrt:qsort.obj
 0001:0004e4c4       strpbrk                    000000018004f4c4 f   libucrt:strpbrk.obj
 0001:0004e564       _mbsdec                    000000018004f564 f   libucrt:mbsdec.obj
 0001:0004e56c       _mbsdec_l                  000000018004f56c f   libucrt:mbsdec.obj
 0001:0004e61c       _strnicoll                 000000018004f61c f   libucrt:strnicol.obj
 0001:0004e634       _strnicoll_l               000000018004f634 f   libucrt:strnicol.obj
 0001:0004e734       _msize                     000000018004f734 f   libucrt:msize.obj
 0001:0004e770       fegetenv                   000000018004f770 f   libucrt:fegetenv.obj
 0001:0004e790       fesetenv                   000000018004f790 f   libucrt:fesetenv.obj
 0001:0004e7dc       feholdexcept               000000018004f7dc f   libucrt:feholdexcept.obj
 0001:0004e82c       ceil                       000000018004f82c f   libucrt:ceil.obj
 0001:0004e8f0       log10                      000000018004f8f0 f   libucrt:log10.obj
 0001:0004f028       _lseeki64                  0000000180050028 f   libucrt:lseek.obj
 0001:0004f030       _lseeki64_nolock           0000000180050030 f   libucrt:lseek.obj
 0001:0004f038       __acrt_stdio_allocate_buffer_nolock 0000000180050038 f   libucrt:_getbuf.obj
 0001:0004f09c       _fclose_nolock             000000018005009c f   libucrt:fclose.obj
 0001:0004f120       fclose                     0000000180050120 f   libucrt:fclose.obj
 0001:0004f18c       _wcsnicmp                  000000018005018c f   libucrt:wcsnicmp.obj
 0001:0004f228       _wcsnicmp_l                0000000180050228 f   libucrt:wcsnicmp.obj
 0001:0004f340       wcscmp                     0000000180050340 f   libucrt:wcscmp.obj
 0001:0004f378       _putwch_nolock             0000000180050378 f   libucrt:putwch.obj
 0001:0004f3d4       _clearfp                   00000001800503d4 f   libucrt:ieee.obj
 0001:0004f428       _controlfp                 0000000180050428 f   libucrt:ieee.obj
 0001:0004f434       _statusfp                  0000000180050434 f   libucrt:ieee.obj
 0001:0004f714       __acrt_LCMapStringW        0000000180050714 f   libucrt:lcmapstringw.obj
 0001:0004f79c       __ascii_strnicmp           000000018005079c f   libucrt:strnicmp.obj
 0001:0004f7e4       _strnicmp                  00000001800507e4 f   libucrt:strnicmp.obj
 0001:0004f834       _strnicmp_l                0000000180050834 f   libucrt:strnicmp.obj
 0001:0004fca4       __acrt_CompareStringA      0000000180050ca4 f   libucrt:comparestringa.obj
 0001:0004fd30       _log10_special             0000000180050d30 f   libucrt:log_special.obj
 0001:0004fde8       ??$?RV<lambda_bfedae4ebbf01fab1bb6dcc6a9e276e0>@@AEAV<lambda_2fe9b910cf3cbf4a0ab98a02ba45b3ec>@@V<lambda_237c231691f317818eb88cc1d5d642d6>@@@?$__crt_seh_guarded_call@H@@QEAAH$$QEAV<lambda_bfedae4ebbf01fab1bb6dcc6a9e276e0>@@AEAV<lambda_2fe9b910cf3cbf4a0ab98a02ba45b3ec>@@$$QEAV<lambda_237c231691f317818eb88cc1d5d642d6>@@@Z 0000000180050de8 f i libucrt:close.obj
 0001:0004fe5c       _close                     0000000180050e5c f   libucrt:close.obj
 0001:0004ff00       _close_nolock              0000000180050f00 f   libucrt:close.obj
 0001:0004ffbc       ?__acrt_stdio_free_stream@@YAXV__crt_stdio_stream@@@Z 0000000180050fbc f   libucrt:stream.obj
 0001:00050000       __dcrt_lowio_initialize_console_output 0000000180051000 f   libucrt:initcon.obj
 0001:0005003c       __dcrt_terminate_console_output 000000018005103c f   libucrt:initcon.obj
 0001:0005005c       IsProcessorFeaturePresent  000000018005105c f   kernel32:KERNEL32.dll
 0001:00050062       RtlUnwindEx                0000000180051062 f   kernel32:KERNEL32.dll
 0001:00050068       ?DloadAcquireSectionWriteAccess@@YAXXZ 0000000180051068 f i DelayImp:delayhlp.obj
 0001:00050124       ?DloadGetSRWLockFunctionPointers@@YAEXZ 0000000180051124 f i DelayImp:delayhlp.obj
 0001:000501c0       ?DloadMakePermanentImageCommit@@YAXPEAX_K@Z 00000001800511c0 f i DelayImp:delayhlp.obj
 0001:00050258       ?DloadObtainSection@@YAPEAXPEAK0@Z 0000000180051258 f i DelayImp:delayhlp.obj
 0001:000502f0       ?DloadProtectSection@@YAXKPEAK@Z 00000001800512f0 f i DelayImp:delayhlp.obj
 0001:00050380       ?DloadReleaseSectionWriteAccess@@YAXXZ 0000000180051380 f i DelayImp:delayhlp.obj
 0001:00050424       __delayLoadHelper2         0000000180051424 f   DelayImp:delayhlp.obj
 0001:00050720       _FindPESection             0000000180051720 f   LIBCMT:pesect.obj
 0001:00050770       _IsNonwritableInCurrentImage 0000000180051770 f   LIBCMT:pesect.obj
 0001:000507c0       _ValidateImageBase         00000001800517c0 f   LIBCMT:pesect.obj
 0001:000507f0       strrchr                    00000001800517f0 f   libvcruntime:strrchr.obj
 0001:00050930       strchr                     0000000180051930 f   libvcruntime:strchr.obj
 0001:000509bc       wcschr                     00000001800519bc f   libvcruntime:wcschr.obj
 0001:00050a60       _guard_dispatch_icall_nop  0000000180051a60 f   LIBCMT:_guard_dispatch_.obj
 0001:000518c0       ??__F_Static@?1???$_Immortalize@V_Iostream_error_category@std@@@std@@YAAEAV_Iostream_error_category@0@XZ@YAXXZ 00000001800528c0 f i node_snap7_client.obj
 0002:00000000       __imp_GetModuleHandleA     0000000180053000     kernel32:KERNEL32.dll
 0002:00000008       __imp_EnterCriticalSection 0000000180053008     kernel32:KERNEL32.dll
 0002:00000010       __imp_LeaveCriticalSection 0000000180053010     kernel32:KERNEL32.dll
 0002:00000018       __imp_InitializeCriticalSection 0000000180053018     kernel32:KERNEL32.dll
 0002:00000020       __imp_WaitForSingleObject  0000000180053020     kernel32:KERNEL32.dll
 0002:00000028       __imp_SetEvent             0000000180053028     kernel32:KERNEL32.dll
 0002:00000030       __imp_CloseHandle          0000000180053030     kernel32:KERNEL32.dll
 0002:00000038       __imp_ResetEvent           0000000180053038     kernel32:KERNEL32.dll
 0002:00000040       __imp_DeleteCriticalSection 0000000180053040     kernel32:KERNEL32.dll
 0002:00000048       __imp_CreateEventA         0000000180053048     kernel32:KERNEL32.dll
 0002:00000050       __imp_GetSystemDirectoryA  0000000180053050     kernel32:KERNEL32.dll
 0002:00000058       __imp_LoadLibraryA         0000000180053058     kernel32:KERNEL32.dll
 0002:00000060       __imp_GetProcAddress       0000000180053060     kernel32:KERNEL32.dll
 0002:00000068       __imp_FreeLibrary          0000000180053068     kernel32:KERNEL32.dll
 0002:00000070       __imp_Sleep                0000000180053070     kernel32:KERNEL32.dll
 0002:00000078       __imp_ExitThread           0000000180053078     kernel32:KERNEL32.dll
 0002:00000080       __imp_TerminateThread      0000000180053080     kernel32:KERNEL32.dll
 0002:00000088       __imp_CreateThread         0000000180053088     kernel32:KERNEL32.dll
 0002:00000090       __imp_WideCharToMultiByte  0000000180053090     kernel32:KERNEL32.dll
 0002:00000098       __imp_EncodePointer        0000000180053098     kernel32:KERNEL32.dll
 0002:000000a0       __imp_DecodePointer        00000001800530a0     kernel32:KERNEL32.dll
 0002:000000a8       __imp_MultiByteToWideChar  00000001800530a8     kernel32:KERNEL32.dll
 0002:000000b0       __imp_SetLastError         00000001800530b0     kernel32:KERNEL32.dll
 0002:000000b8       __imp_InitializeCriticalSectionAndSpinCount 00000001800530b8     kernel32:KERNEL32.dll
 0002:000000c0       __imp_CreateEventW         00000001800530c0     kernel32:KERNEL32.dll
 0002:000000c8       __imp_TlsAlloc             00000001800530c8     kernel32:KERNEL32.dll
 0002:000000d0       __imp_TlsGetValue          00000001800530d0     kernel32:KERNEL32.dll
 0002:000000d8       __imp_TlsSetValue          00000001800530d8     kernel32:KERNEL32.dll
 0002:000000e0       __imp_TlsFree              00000001800530e0     kernel32:KERNEL32.dll
 0002:000000e8       __imp_GetSystemTimeAsFileTime 00000001800530e8     kernel32:KERNEL32.dll
 0002:000000f0       __imp_GetModuleHandleW     00000001800530f0     kernel32:KERNEL32.dll
 0002:000000f8       __imp_CompareStringW       00000001800530f8     kernel32:KERNEL32.dll
 0002:00000100       __imp_LCMapStringW         0000000180053100     kernel32:KERNEL32.dll
 0002:00000108       __imp_GetLocaleInfoW       0000000180053108     kernel32:KERNEL32.dll
 0002:00000110       __imp_GetStringTypeW       0000000180053110     kernel32:KERNEL32.dll
 0002:00000118       __imp_GetCPInfo            0000000180053118     kernel32:KERNEL32.dll
 0002:00000120       __imp_WaitForSingleObjectEx 0000000180053120     kernel32:KERNEL32.dll
 0002:00000128       __imp_RtlCaptureContext    0000000180053128     kernel32:KERNEL32.dll
 0002:00000130       __imp_RtlLookupFunctionEntry 0000000180053130     kernel32:KERNEL32.dll
 0002:00000138       __imp_RtlVirtualUnwind     0000000180053138     kernel32:KERNEL32.dll
 0002:00000140       __imp_UnhandledExceptionFilter 0000000180053140     kernel32:KERNEL32.dll
 0002:00000148       __imp_SetUnhandledExceptionFilter 0000000180053148     kernel32:KERNEL32.dll
 0002:00000150       __imp_GetCurrentProcess    0000000180053150     kernel32:KERNEL32.dll
 0002:00000158       __imp_TerminateProcess     0000000180053158     kernel32:KERNEL32.dll
 0002:00000160       __imp_IsProcessorFeaturePresent 0000000180053160     kernel32:KERNEL32.dll
 0002:00000168       __imp_IsDebuggerPresent    0000000180053168     kernel32:KERNEL32.dll
 0002:00000170       __imp_GetStartupInfoW      0000000180053170     kernel32:KERNEL32.dll
 0002:00000178       __imp_QueryPerformanceCounter 0000000180053178     kernel32:KERNEL32.dll
 0002:00000180       __imp_GetCurrentProcessId  0000000180053180     kernel32:KERNEL32.dll
 0002:00000188       __imp_GetCurrentThreadId   0000000180053188     kernel32:KERNEL32.dll
 0002:00000190       __imp_InitializeSListHead  0000000180053190     kernel32:KERNEL32.dll
 0002:00000198       __imp_RtlPcToFileHeader    0000000180053198     kernel32:KERNEL32.dll
 0002:000001a0       __imp_RaiseException       00000001800531a0     kernel32:KERNEL32.dll
 0002:000001a8       __imp_RtlUnwindEx          00000001800531a8     kernel32:KERNEL32.dll
 0002:000001b0       __imp_GetLastError         00000001800531b0     kernel32:KERNEL32.dll
 0002:000001b8       __imp_LoadLibraryExW       00000001800531b8     kernel32:KERNEL32.dll
 0002:000001c0       __imp_InterlockedFlushSList 00000001800531c0     kernel32:KERNEL32.dll
 0002:000001c8       __imp_GetStdHandle         00000001800531c8     kernel32:KERNEL32.dll
 0002:000001d0       __imp_GetFileType          00000001800531d0     kernel32:KERNEL32.dll
 0002:000001d8       __imp_GetModuleFileNameA   00000001800531d8     kernel32:KERNEL32.dll
 0002:000001e0       __imp_GetModuleFileNameW   00000001800531e0     kernel32:KERNEL32.dll
 0002:000001e8       __imp_GetModuleHandleExW   00000001800531e8     kernel32:KERNEL32.dll
 0002:000001f0       __imp_WriteConsoleW        00000001800531f0     kernel32:KERNEL32.dll
 0002:000001f8       __imp_HeapAlloc            00000001800531f8     kernel32:KERNEL32.dll
 0002:00000200       __imp_HeapReAlloc          0000000180053200     kernel32:KERNEL32.dll
 0002:00000208       __imp_HeapFree             0000000180053208     kernel32:KERNEL32.dll
 0002:00000210       __imp_ExitProcess          0000000180053210     kernel32:KERNEL32.dll
 0002:00000218       __imp_GetTimeZoneInformation 0000000180053218     kernel32:KERNEL32.dll
 0002:00000220       __imp_GetACP               0000000180053220     kernel32:KERNEL32.dll
 0002:00000228       __imp_WriteFile            0000000180053228     kernel32:KERNEL32.dll
 0002:00000230       __imp_OutputDebugStringW   0000000180053230     kernel32:KERNEL32.dll
 0002:00000238       __imp_GetDateFormatW       0000000180053238     kernel32:KERNEL32.dll
 0002:00000240       __imp_GetTimeFormatW       0000000180053240     kernel32:KERNEL32.dll
 0002:00000248       __imp_IsValidLocale        0000000180053248     kernel32:KERNEL32.dll
 0002:00000250       __imp_GetUserDefaultLCID   0000000180053250     kernel32:KERNEL32.dll
 0002:00000258       __imp_EnumSystemLocalesW   0000000180053258     kernel32:KERNEL32.dll
 0002:00000260       __imp_GetProcessHeap       0000000180053260     kernel32:KERNEL32.dll
 0002:00000268       __imp_FindClose            0000000180053268     kernel32:KERNEL32.dll
 0002:00000270       __imp_FindFirstFileExA     0000000180053270     kernel32:KERNEL32.dll
 0002:00000278       __imp_FindNextFileA        0000000180053278     kernel32:KERNEL32.dll
 0002:00000280       __imp_IsValidCodePage      0000000180053280     kernel32:KERNEL32.dll
 0002:00000288       __imp_GetOEMCP             0000000180053288     kernel32:KERNEL32.dll
 0002:00000290       __imp_GetCommandLineA      0000000180053290     kernel32:KERNEL32.dll
 0002:00000298       __imp_GetCommandLineW      0000000180053298     kernel32:KERNEL32.dll
 0002:000002a0       __imp_GetEnvironmentStringsW 00000001800532a0     kernel32:KERNEL32.dll
 0002:000002a8       __imp_FreeEnvironmentStringsW 00000001800532a8     kernel32:KERNEL32.dll
 0002:000002b0       __imp_SetEnvironmentVariableA 00000001800532b0     kernel32:KERNEL32.dll
 0002:000002b8       __imp_SetStdHandle         00000001800532b8     kernel32:KERNEL32.dll
 0002:000002c0       __imp_FlushFileBuffers     00000001800532c0     kernel32:KERNEL32.dll
 0002:000002c8       __imp_GetConsoleCP         00000001800532c8     kernel32:KERNEL32.dll
 0002:000002d0       __imp_GetConsoleMode       00000001800532d0     kernel32:KERNEL32.dll
 0002:000002d8       __imp_HeapSize             00000001800532d8     kernel32:KERNEL32.dll
 0002:000002e0       __imp_SetFilePointerEx     00000001800532e0     kernel32:KERNEL32.dll
 0002:000002e8       __imp_CreateFileW          00000001800532e8     kernel32:KERNEL32.dll
 0002:000002f0       __imp_VirtualQuery         00000001800532f0     kernel32:KERNEL32.dll
 0002:000002f8       __imp_VirtualProtect       00000001800532f8     kernel32:KERNEL32.dll
 0002:00000300       __imp_GetSystemInfo        0000000180053300     kernel32:KERNEL32.dll
 0002:00000308       __imp_LoadLibraryExA       0000000180053308     kernel32:KERNEL32.dll
 0002:00000310       \177KERNEL32_NULL_THUNK_DATA 0000000180053310     kernel32:KERNEL32.dll
 0002:00000318       __imp_timeGetTime          0000000180053318     winmm:WINMM.dll
 0002:00000320       __imp_timeBeginPeriod      0000000180053320     winmm:WINMM.dll
 0002:00000328       __imp_timeEndPeriod        0000000180053328     winmm:WINMM.dll
 0002:00000330       \177WINMM_NULL_THUNK_DATA  0000000180053330     winmm:WINMM.dll
 0002:00000338       __imp_socket               0000000180053338     ws2_32:WS2_32.dll
 0002:00000340       __imp_send                 0000000180053340     ws2_32:WS2_32.dll
 0002:00000348       __imp_getsockname          0000000180053348     ws2_32:WS2_32.dll
 0002:00000350       __imp_getpeername          0000000180053350     ws2_32:WS2_32.dll
 0002:00000358       __imp_WSAStartup           0000000180053358     ws2_32:WS2_32.dll
 0002:00000360       __imp_listen               0000000180053360     ws2_32:WS2_32.dll
 0002:00000368       __imp_connect              0000000180053368     ws2_32:WS2_32.dll
 0002:00000370       __imp_select               0000000180053370     ws2_32:WS2_32.dll
 0002:00000378       __imp_closesocket          0000000180053378     ws2_32:WS2_32.dll
 0002:00000380       __imp_bind                 0000000180053380     ws2_32:WS2_32.dll
 0002:00000388       __imp_accept               0000000180053388     ws2_32:WS2_32.dll
 0002:00000390       __imp_WSACleanup           0000000180053390     ws2_32:WS2_32.dll
 0002:00000398       __imp_recv                 0000000180053398     ws2_32:WS2_32.dll
 0002:000003a0       __imp_htons                00000001800533a0     ws2_32:WS2_32.dll
 0002:000003a8       __imp_ioctlsocket          00000001800533a8     ws2_32:WS2_32.dll
 0002:000003b0       __imp_shutdown             00000001800533b0     ws2_32:WS2_32.dll
 0002:000003b8       __imp_WSAGetLastError      00000001800533b8     ws2_32:WS2_32.dll
 0002:000003c0       __imp_inet_addr            00000001800533c0     ws2_32:WS2_32.dll
 0002:000003c8       __imp_inet_ntoa            00000001800533c8     ws2_32:WS2_32.dll
 0002:000003d0       __imp_setsockopt           00000001800533d0     ws2_32:WS2_32.dll
 0002:000003d8       \177WS2_32_NULL_THUNK_DATA 00000001800533d8     ws2_32:WS2_32.dll
 0002:000003e0       __guard_check_icall_fptr   00000001800533e0     LIBCMT:guard_support.obj
 0002:000003e8       __guard_dispatch_icall_fptr 00000001800533e8     LIBCMT:guard_support.obj
 0002:000003f0       __xc_a                     00000001800533f0     LIBCMT:initializers.obj
 0002:00000420       _register_node_snap7_      0000000180053420     node_snap7.obj
 0002:00000438       __xc_z                     0000000180053438     LIBCMT:initializers.obj
 0002:00000440       __xi_a                     0000000180053440     LIBCMT:initializers.obj
 0002:00000458       __acrt_timeset_initializer 0000000180053458     libucrt:timeset_initializer.obj
 0002:00000460       __acrt_stdio_initializer   0000000180053460     libucrt:stdio_initializer.obj
 0002:00000468       __acrt_tran_fma3_initializer 0000000180053468     libucrt:fma3_initializer.obj
 0002:00000470       __acrt_multibyte_initializer 0000000180053470     libucrt:multibyte_initializer.obj
 0002:00000478       __xi_z                     0000000180053478     LIBCMT:initializers.obj
 0002:00000480       __xl_a                     0000000180053480     LIBCMT:tlssup.obj
 0002:00000488       __xl_z                     0000000180053488     LIBCMT:tlssup.obj
 0002:00000490       __xp_a                     0000000180053490     LIBCMT:initializers.obj
 0002:00000498       __acrt_locale_terminator   0000000180053498     libucrt:locale_initializer.obj
 0002:000004a0       __dcrt_console_output_terminator 00000001800534a0     libucrt:console_output_initializer.obj
 0002:000004a8       __acrt_stdio_terminator    00000001800534a8     libucrt:stdio_initializer.obj
 0002:000004b0       __xp_z                     00000001800534b0     LIBCMT:initializers.obj
 0002:000004b8       __xt_a                     00000001800534b8     LIBCMT:initializers.obj
 0002:000004c0       __xt_z                     00000001800534c0     LIBCMT:initializers.obj
 0002:000004d0       __sz_node_exe              00000001800534d0     node:node.exe
 0002:000005b0       ??_7_Facet_base@std@@6B@   00000001800535b0     libcpmt:locale0.obj
 0002:000005d0       ??_7_Locimp@locale@std@@6B@ 00000001800535d0     libcpmt:locale0.obj
 0002:000005e8       ??_C@_01NBENCBCI@?$CK?$AA@ 00000001800535e8     libcpmt:locale0.obj
 0002:000005ec       ??_C@_01GFHCPBMG@C?$AA@    00000001800535ec     libcpmt:locale0.obj
 0002:000005f8       ??_7exception@std@@6B@     00000001800535f8     libcpmt:xthrow.obj
 0002:00000608       ??_C@_0BC@EOODALEL@Unknown?5exception?$AA@ 0000000180053608     libcpmt:xthrow.obj
 0002:00000628       ??_7bad_alloc@std@@6B@     0000000180053628     libcpmt:xthrow.obj
 0002:00000638       ??_C@_0P@GHFPNOJB@bad?5allocation?$AA@ 0000000180053638     libcpmt:xthrow.obj
 0002:00000650       ??_7logic_error@std@@6B@   0000000180053650     libcpmt:xthrow.obj
 0002:00000668       ??_7length_error@std@@6B@  0000000180053668     libcpmt:xthrow.obj
 0002:00000680       ??_7out_of_range@std@@6B@  0000000180053680     libcpmt:xthrow.obj
 0002:00000698       ??_7runtime_error@std@@6B@ 0000000180053698     libcpmt:xthrow.obj
 0002:000006a8       ?_BADOFF@std@@3_JB         00000001800536a8     libcpmt:ios.obj
 0002:00000de0       ??_C@_0BN@LKKBCCDB@address?5family?5not?5supported?$AA@ 0000000180053de0     libcpmt:syserror.obj
 0002:00000e00       ??_C@_0P@LDMLAFHI@address?5in?5use?$AA@ 0000000180053e00     libcpmt:syserror.obj
 0002:00000e10       ??_C@_0BG@DHPCNBJB@address?5not?5available?$AA@ 0000000180053e10     libcpmt:syserror.obj
 0002:00000e28       ??_C@_0BC@DFIBIBIL@already?5connected?$AA@ 0000000180053e28     libcpmt:syserror.obj
 0002:00000e40       ??_C@_0BH@CAKOHOMI@argument?5list?5too?5long?$AA@ 0000000180053e40     libcpmt:syserror.obj
 0002:00000e58       ??_C@_0BH@CGIMPKIM@argument?5out?5of?5domain?$AA@ 0000000180053e58     libcpmt:syserror.obj
 0002:00000e70       ??_C@_0M@KGHGGJGL@bad?5address?$AA@ 0000000180053e70     libcpmt:syserror.obj
 0002:00000e80       ??_C@_0BE@MPJPGCEO@bad?5file?5descriptor?$AA@ 0000000180053e80     libcpmt:syserror.obj
 0002:00000e98       ??_C@_0M@PMMIEFCP@bad?5message?$AA@ 0000000180053e98     libcpmt:syserror.obj
 0002:00000ea8       ??_C@_0M@KPHOFDBE@broken?5pipe?$AA@ 0000000180053ea8     libcpmt:syserror.obj
 0002:00000eb8       ??_C@_0BD@MGNDDEGM@connection?5aborted?$AA@ 0000000180053eb8     libcpmt:syserror.obj
 0002:00000ed0       ??_C@_0BP@KAIHPOGN@connection?5already?5in?5progress?$AA@ 0000000180053ed0     libcpmt:syserror.obj
 0002:00000ef0       ??_C@_0BD@PJLIIJEL@connection?5refused?$AA@ 0000000180053ef0     libcpmt:syserror.obj
 0002:00000f08       ??_C@_0BB@IECNJNOI@connection?5reset?$AA@ 0000000180053f08     libcpmt:syserror.obj
 0002:00000f20       ??_C@_0BC@PPHBOELF@cross?5device?5link?$AA@ 0000000180053f20     libcpmt:syserror.obj
 0002:00000f38       ??_C@_0BN@KDMIFEIP@destination?5address?5required?$AA@ 0000000180053f38     libcpmt:syserror.obj
 0002:00000f58       ??_C@_0BI@NGCEHDD@device?5or?5resource?5busy?$AA@ 0000000180053f58     libcpmt:syserror.obj
 0002:00000f70       ??_C@_0BE@JIDOCPHM@directory?5not?5empty?$AA@ 0000000180053f70     libcpmt:syserror.obj
 0002:00000f88       ??_C@_0BI@BNCLIGPB@executable?5format?5error?$AA@ 0000000180053f88     libcpmt:syserror.obj
 0002:00000fa0       ??_C@_0M@MIDIAGJP@file?5exists?$AA@ 0000000180053fa0     libcpmt:syserror.obj
 0002:00000fb0       ??_C@_0P@DNAJLBJK@file?5too?5large?$AA@ 0000000180053fb0     libcpmt:syserror.obj
 0002:00000fc0       ??_C@_0BC@EJHOMAAK@filename?5too?5long?$AA@ 0000000180053fc0     libcpmt:syserror.obj
 0002:00000fd8       ??_C@_0BH@KEFGLDAF@function?5not?5supported?$AA@ 0000000180053fd8     libcpmt:syserror.obj
 0002:00000ff0       ??_C@_0BB@DHFDFGDM@host?5unreachable?$AA@ 0000000180053ff0     libcpmt:syserror.obj
 0002:00001008       ??_C@_0BD@JPHBMONG@identifier?5removed?$AA@ 0000000180054008     libcpmt:syserror.obj
 0002:00001020       ??_C@_0BG@CDNPAGJK@illegal?5byte?5sequence?$AA@ 0000000180054020     libcpmt:syserror.obj
 0002:00001038       ??_C@_0CD@BNPLBMNA@inappropriate?5io?5control?5operati@ 0000000180054038     libcpmt:syserror.obj
 0002:00001060       ??_C@_0M@EGEKIIMP@interrupted?$AA@ 0000000180054060     libcpmt:syserror.obj
 0002:00001070       ??_C@_0BB@FCMFBGOM@invalid?5argument?$AA@ 0000000180054070     libcpmt:syserror.obj
 0002:00001088       ??_C@_0N@OHAFKDEK@invalid?5seek?$AA@ 0000000180054088     libcpmt:syserror.obj
 0002:00001098       ??_C@_08GLNPIFBN@io?5error?$AA@ 0000000180054098     libcpmt:syserror.obj
 0002:000010a8       ??_C@_0P@FLLDBIDK@is?5a?5directory?$AA@ 00000001800540a8     libcpmt:syserror.obj
 0002:000010b8       ??_C@_0N@IFLPBIOP@message?5size?$AA@ 00000001800540b8     libcpmt:syserror.obj
 0002:000010c8       ??_C@_0N@KIIEAAIO@network?5down?$AA@ 00000001800540c8     libcpmt:syserror.obj
 0002:000010d8       ??_C@_0O@FNPDBHEE@network?5reset?$AA@ 00000001800540d8     libcpmt:syserror.obj
 0002:000010e8       ??_C@_0BE@IFNCKGE@network?5unreachable?$AA@ 00000001800540e8     libcpmt:syserror.obj
 0002:00001100       ??_C@_0BA@PFFCAOFK@no?5buffer?5space?$AA@ 0000000180054100     libcpmt:syserror.obj
 0002:00001110       ??_C@_0BB@IEPBLJHK@no?5child?5process?$AA@ 0000000180054110     libcpmt:syserror.obj
 0002:00001128       ??_C@_07PLECNNKG@no?5link?$AA@ 0000000180054128     libcpmt:syserror.obj
 0002:00001130       ??_C@_0BC@NJECKMKE@no?5lock?5available?$AA@ 0000000180054130     libcpmt:syserror.obj
 0002:00001148       ??_C@_0BF@PBGGPKKE@no?5message?5available?$AA@ 0000000180054148     libcpmt:syserror.obj
 0002:00001160       ??_C@_0L@EDOLMPAK@no?5message?$AA@ 0000000180054160     libcpmt:syserror.obj
 0002:00001170       ??_C@_0BD@EAMBFIDF@no?5protocol?5option?$AA@ 0000000180054170     libcpmt:syserror.obj
 0002:00001188       ??_C@_0BD@IJDJKDEA@no?5space?5on?5device?$AA@ 0000000180054188     libcpmt:syserror.obj
 0002:000011a0       ??_C@_0BE@MKFDAFMP@no?5stream?5resources?$AA@ 00000001800541a0     libcpmt:syserror.obj
 0002:000011b8       ??_C@_0BK@IMCPHCBI@no?5such?5device?5or?5address?$AA@ 00000001800541b8     libcpmt:syserror.obj
 0002:000011d8       ??_C@_0P@FDINDDOK@no?5such?5device?$AA@ 00000001800541d8     libcpmt:syserror.obj
 0002:000011e8       ??_C@_0BK@NDOCBPGE@no?5such?5file?5or?5directory?$AA@ 00000001800541e8     libcpmt:syserror.obj
 0002:00001208       ??_C@_0BA@ENLPPKBN@no?5such?5process?$AA@ 0000000180054208     libcpmt:syserror.obj
 0002:00001218       ??_C@_0BA@DOCPFFJG@not?5a?5directory?$AA@ 0000000180054218     libcpmt:syserror.obj
 0002:00001228       ??_C@_0N@POEIPGGF@not?5a?5socket?$AA@ 0000000180054228     libcpmt:syserror.obj
 0002:00001238       ??_C@_0N@LGAPMMPI@not?5a?5stream?$AA@ 0000000180054238     libcpmt:syserror.obj
 0002:00001248       ??_C@_0O@GLMIBBEG@not?5connected?$AA@ 0000000180054248     libcpmt:syserror.obj
 0002:00001258       ??_C@_0BC@ENOOLCNF@not?5enough?5memory?$AA@ 0000000180054258     libcpmt:syserror.obj
 0002:00001270       ??_C@_0O@NHEDABJP@not?5supported?$AA@ 0000000180054270     libcpmt:syserror.obj
 0002:00001280       ??_C@_0BD@MOLBPMEA@operation?5canceled?$AA@ 0000000180054280     libcpmt:syserror.obj
 0002:00001298       ??_C@_0BG@KDKHOPCO@operation?5in?5progress?$AA@ 0000000180054298     libcpmt:syserror.obj
 0002:000012b0       ??_C@_0BI@OHIEJAAB@operation?5not?5permitted?$AA@ 00000001800542b0     libcpmt:syserror.obj
 0002:000012c8       ??_C@_0BI@LNEGIFLN@operation?5not?5supported?$AA@ 00000001800542c8     libcpmt:syserror.obj
 0002:000012e0       ??_C@_0BG@OEMDKMEE@operation?5would?5block?$AA@ 00000001800542e0     libcpmt:syserror.obj
 0002:000012f8       ??_C@_0L@BLPOFLNJ@owner?5dead?$AA@ 00000001800542f8     libcpmt:syserror.obj
 0002:00001308       ??_C@_0BC@CIJDGCDI@permission?5denied?$AA@ 0000000180054308     libcpmt:syserror.obj
 0002:00001320       ??_C@_0P@FNPOCJBE@protocol?5error?$AA@ 0000000180054320     libcpmt:syserror.obj
 0002:00001330       ??_C@_0BH@JPPPLHJB@protocol?5not?5supported?$AA@ 0000000180054330     libcpmt:syserror.obj
 0002:00001348       ??_C@_0BG@EICBIHDP@read?5only?5file?5system?$AA@ 0000000180054348     libcpmt:syserror.obj
 0002:00001360       ??_C@_0BO@BJBOMOEJ@resource?5deadlock?5would?5occur?$AA@ 0000000180054360     libcpmt:syserror.obj
 0002:00001380       ??_C@_0BP@LKNGHENJ@resource?5unavailable?5try?5again?$AA@ 0000000180054380     libcpmt:syserror.obj
 0002:000013a0       ??_C@_0BE@GOIPJJHG@result?5out?5of?5range?$AA@ 00000001800543a0     libcpmt:syserror.obj
 0002:000013b8       ??_C@_0BG@MPLKFPAE@state?5not?5recoverable?$AA@ 00000001800543b8     libcpmt:syserror.obj
 0002:000013d0       ??_C@_0P@DIIFGFCG@stream?5timeout?$AA@ 00000001800543d0     libcpmt:syserror.obj
 0002:000013e0       ??_C@_0P@IPFDMIFL@text?5file?5busy?$AA@ 00000001800543e0     libcpmt:syserror.obj
 0002:000013f0       ??_C@_09KJPPMAOI@timed?5out?$AA@ 00000001800543f0     libcpmt:syserror.obj
 0002:00001400       ??_C@_0BO@HACHBEKI@too?5many?5files?5open?5in?5system?$AA@ 0000000180054400     libcpmt:syserror.obj
 0002:00001420       ??_C@_0BE@GHAFMPAH@too?5many?5files?5open?$AA@ 0000000180054420     libcpmt:syserror.obj
 0002:00001438       ??_C@_0P@HCOMKFCC@too?5many?5links?$AA@ 0000000180054438     libcpmt:syserror.obj
 0002:00001448       ??_C@_0BO@EFGOJEF@too?5many?5symbolic?5link?5levels?$AA@ 0000000180054448     libcpmt:syserror.obj
 0002:00001468       ??_C@_0BA@KGKGOOJA@value?5too?5large?$AA@ 0000000180054468     libcpmt:syserror.obj
 0002:00001478       ??_C@_0BE@MIEJDDNH@wrong?5protocol?5type?$AA@ 0000000180054478     libcpmt:syserror.obj
 0002:00001490       ??_C@_0O@BFJCFAAK@unknown?5error?$AA@ 0000000180054490     libcpmt:syserror.obj
 0002:000014d0       ??_7?$ctype@D@std@@6B@     00000001800544d0     libcpmt:locale.obj
 0002:00001530       ??_7?$num_put@DV?$ostreambuf_iterator@DU?$char_traits@D@std@@@std@@@std@@6B@ 0000000180054530     libcpmt:locale.obj
 0002:00001590       ??_7?$numpunct@D@std@@6B@  0000000180054590     libcpmt:locale.obj
 0002:000015d0       ??_C@_1BK@MGMFAEKH@?$AAk?$AAe?$AAr?$AAn?$AAe?$AAl?$AA3?$AA2?$AA?4?$AAd?$AAl?$AAl?$AA?$AA@ 00000001800545d0     libcpmt:winapisupp.obj
 0002:000015f0       ??_C@_08KNHFBNJ@FlsAlloc?$AA@ 00000001800545f0     libcpmt:winapisupp.obj
 0002:00001600       ??_C@_07PEJMOBNF@FlsFree?$AA@ 0000000180054600     libcpmt:winapisupp.obj
 0002:00001608       ??_C@_0M@GDNOONDI@FlsGetValue?$AA@ 0000000180054608     libcpmt:winapisupp.obj
 0002:00001618       ??_C@_0M@JCPCPOEF@FlsSetValue?$AA@ 0000000180054618     libcpmt:winapisupp.obj
 0002:00001628       ??_C@_0BM@HCFOFFN@InitializeCriticalSectionEx?$AA@ 0000000180054628     libcpmt:winapisupp.obj
 0002:00001648       ??_C@_0BE@GPLMMCMH@InitOnceExecuteOnce?$AA@ 0000000180054648     libcpmt:winapisupp.obj
 0002:00001660       ??_C@_0P@DLHPPCNH@CreateEventExW?$AA@ 0000000180054660     libcpmt:winapisupp.obj
 0002:00001670       ??_C@_0BB@MEFPJLHN@CreateSemaphoreW?$AA@ 0000000180054670     libcpmt:winapisupp.obj
 0002:00001688       ??_C@_0BD@KIEEOEEH@CreateSemaphoreExW?$AA@ 0000000180054688     libcpmt:winapisupp.obj
 0002:000016a0       ??_C@_0BG@OGFAJCKC@CreateThreadpoolTimer?$AA@ 00000001800546a0     libcpmt:winapisupp.obj
 0002:000016b8       ??_C@_0BD@LPLEMMDI@SetThreadpoolTimer?$AA@ 00000001800546b8     libcpmt:winapisupp.obj
 0002:000016d0       ??_C@_0CA@FMNJENH@WaitForThreadpoolTimerCallbacks?$AA@ 00000001800546d0     libcpmt:winapisupp.obj
 0002:000016f0       ??_C@_0BF@DCFCCNOC@CloseThreadpoolTimer?$AA@ 00000001800546f0     libcpmt:winapisupp.obj
 0002:00001708       ??_C@_0BF@FLABGKKM@CreateThreadpoolWait?$AA@ 0000000180054708     libcpmt:winapisupp.obj
 0002:00001720       ??_C@_0BC@MGCOHNA@SetThreadpoolWait?$AA@ 0000000180054720     libcpmt:winapisupp.obj
 0002:00001738       ??_C@_0BE@OCIOMIMP@CloseThreadpoolWait?$AA@ 0000000180054738     libcpmt:winapisupp.obj
 0002:00001750       ??_C@_0BJ@LKGHFHBO@FlushProcessWriteBuffers?$AA@ 0000000180054750     libcpmt:winapisupp.obj
 0002:00001770       ??_C@_0BP@KALKKPMO@FreeLibraryWhenCallbackReturns?$AA@ 0000000180054770     libcpmt:winapisupp.obj
 0002:00001790       ??_C@_0BK@DFNBACLA@GetCurrentProcessorNumber?$AA@ 0000000180054790     libcpmt:winapisupp.obj
 0002:000017b0       ??_C@_0BE@FKKLLFLM@CreateSymbolicLinkW?$AA@ 00000001800547b0     libcpmt:winapisupp.obj
 0002:000017c8       ??_C@_0BE@JOGNEJCI@GetCurrentPackageId?$AA@ 00000001800547c8     libcpmt:winapisupp.obj
 0002:000017e0       ??_C@_0P@CDHHOHKP@GetTickCount64?$AA@ 00000001800547e0     libcpmt:winapisupp.obj
 0002:000017f0       ??_C@_0BN@NEEHBBPO@GetFileInformationByHandleEx?$AA@ 00000001800547f0     libcpmt:winapisupp.obj
 0002:00001810       ??_C@_0BL@KBBHGKCM@SetFileInformationByHandle?$AA@ 0000000180054810     libcpmt:winapisupp.obj
 0002:00001830       ??_C@_0BP@FPNJPEJC@GetSystemTimePreciseAsFileTime?$AA@ 0000000180054830     libcpmt:winapisupp.obj
 0002:00001850       ??_C@_0BM@HLJJNPAH@InitializeConditionVariable?$AA@ 0000000180054850     libcpmt:winapisupp.obj
 0002:00001870       ??_C@_0BG@BFNILBLN@WakeConditionVariable?$AA@ 0000000180054870     libcpmt:winapisupp.obj
 0002:00001888       ??_C@_0BJ@PGPPEPCC@WakeAllConditionVariable?$AA@ 0000000180054888     libcpmt:winapisupp.obj
 0002:000018a8       ??_C@_0BJ@JEBJOJFJ@SleepConditionVariableCS?$AA@ 00000001800548a8     libcpmt:winapisupp.obj
 0002:000018c8       ??_C@_0BC@MMLHEBPB@InitializeSRWLock?$AA@ 00000001800548c8     libcpmt:winapisupp.obj
 0002:000018e0       ??_C@_0BI@OMNLIJDB@AcquireSRWLockExclusive?$AA@ 00000001800548e0     libcpmt:winapisupp.obj
 0002:000018f8       ??_C@_0BL@OGHFEMNA@TryAcquireSRWLockExclusive?$AA@ 00000001800548f8     libcpmt:winapisupp.obj
 0002:00001918       ??_C@_0BI@HMIEPCNJ@ReleaseSRWLockExclusive?$AA@ 0000000180054918     libcpmt:winapisupp.obj
 0002:00001930       ??_C@_0BK@LGACAGIC@SleepConditionVariableSRW?$AA@ 0000000180054930     libcpmt:winapisupp.obj
 0002:00001950       ??_C@_0BF@GGPHFPJA@CreateThreadpoolWork?$AA@ 0000000180054950     libcpmt:winapisupp.obj
 0002:00001968       ??_C@_0BF@NHDAIMMO@SubmitThreadpoolWork?$AA@ 0000000180054968     libcpmt:winapisupp.obj
 0002:00001980       ??_C@_0BE@NPHIPNPD@CloseThreadpoolWork?$AA@ 0000000180054980     libcpmt:winapisupp.obj
 0002:00001998       ??_C@_0BA@IHGNDAEB@CompareStringEx?$AA@ 0000000180054998     libcpmt:winapisupp.obj
 0002:000019a8       ??_C@_0BA@ONOKGCMP@GetLocaleInfoEx?$AA@ 00000001800549a8     libcpmt:winapisupp.obj
 0002:000019b8       ??_C@_0O@KKBNKAPF@LCMapStringEx?$AA@ 00000001800549b8     libcpmt:winapisupp.obj
 0002:000019c8       ??_C@_11LOCGONAA@?$AA?$AA@ 00000001800549c8     libcpmt:wlocale.obj
 0002:000019cc       ??_C@_13IMODFHAA@?$AA?9?$AA?$AA@ 00000001800549cc     libcpmt:wlocale.obj
 0002:000019d0       ??_C@_01JOAMLHOP@?9?$AA@   00000001800549d0     libcpmt:wlocale.obj
 0002:000019e0       __xmm@80000000000000008000000000000000 00000001800549e0     libcpmt:wlocale.obj
 0002:00001a90       ??_C@_1M@JKFFICHJ@?$AAe?$AAs?$AA?9?$AAv?$AAe?$AA?$AA@ 0000000180054a90     libcpmt:winapinls.obj
 0002:00001aa0       ??_C@_1M@PNMLOJDF@?$AAe?$AAt?$AA?9?$AAe?$AAe?$AA?$AA@ 0000000180054aa0     libcpmt:winapinls.obj
 0002:00001ab0       ??_C@_1M@GHHLIKEI@?$AAe?$AAu?$AA?9?$AAe?$AAs?$AA?$AA@ 0000000180054ab0     libcpmt:winapinls.obj
 0002:00001ac0       ??_C@_1M@PBNONODE@?$AAf?$AAa?$AA?9?$AAi?$AAr?$AA?$AA@ 0000000180054ac0     libcpmt:winapinls.obj
 0002:00001ad0       ??_C@_1M@JEEHPMIL@?$AAf?$AAi?$AA?9?$AAf?$AAi?$AA?$AA@ 0000000180054ad0     libcpmt:winapinls.obj
 0002:00001ae0       ??_C@_1M@LMDCNDBA@?$AAf?$AAo?$AA?9?$AAf?$AAo?$AA?$AA@ 0000000180054ae0     libcpmt:winapinls.obj
 0002:00001af0       ??_C@_1M@JKEOHLDK@?$AAf?$AAr?$AA?9?$AAb?$AAe?$AA?$AA@ 0000000180054af0     libcpmt:winapinls.obj
 0002:00001b00       ??_C@_1M@NOHADPMI@?$AAf?$AAr?$AA?9?$AAc?$AAa?$AA?$AA@ 0000000180054b00     libcpmt:winapinls.obj
 0002:00001b10       ??_C@_1M@KDHIHAEC@?$AAf?$AAr?$AA?9?$AAc?$AAh?$AA?$AA@ 0000000180054b10     libcpmt:winapinls.obj
 0002:00001b20       ??_C@_1M@MMBBFGAK@?$AAf?$AAr?$AA?9?$AAf?$AAr?$AA?$AA@ 0000000180054b20     libcpmt:winapinls.obj
 0002:00001b30       ??_C@_1M@PAFNENNF@?$AAf?$AAr?$AA?9?$AAl?$AAu?$AA?$AA@ 0000000180054b30     libcpmt:winapinls.obj
 0002:00001b40       ??_C@_1M@EOHDJGDD@?$AAf?$AAr?$AA?9?$AAm?$AAc?$AA?$AA@ 0000000180054b40     libcpmt:winapinls.obj
 0002:00001b50       ??_C@_1M@FAPLLOPF@?$AAg?$AAl?$AA?9?$AAe?$AAs?$AA?$AA@ 0000000180054b50     libcpmt:winapinls.obj
 0002:00001b60       ??_C@_1M@FOPBFLOO@?$AAg?$AAu?$AA?9?$AAi?$AAn?$AA?$AA@ 0000000180054b60     libcpmt:winapinls.obj
 0002:00001b70       ??_C@_1M@KBMCINPM@?$AAh?$AAe?$AA?9?$AAi?$AAl?$AA?$AA@ 0000000180054b70     libcpmt:winapinls.obj
 0002:00001b80       ??_C@_1M@BBPHKFPJ@?$AAh?$AAi?$AA?9?$AAi?$AAn?$AA?$AA@ 0000000180054b80     libcpmt:winapinls.obj
 0002:00001b90       ??_C@_1M@PMBNDPHD@?$AAh?$AAr?$AA?9?$AAb?$AAa?$AA?$AA@ 0000000180054b90     libcpmt:winapinls.obj
 0002:00001ba0       ??_C@_1M@BPCKOEGE@?$AAh?$AAr?$AA?9?$AAh?$AAr?$AA?$AA@ 0000000180054ba0     libcpmt:winapinls.obj
 0002:00001bb0       ??_C@_1M@GACBMHKE@?$AAh?$AAu?$AA?9?$AAh?$AAu?$AA?$AA@ 0000000180054bb0     libcpmt:winapinls.obj
 0002:00001bc0       ??_C@_1M@MILPAJJC@?$AAh?$AAy?$AA?9?$AAa?$AAm?$AA?$AA@ 0000000180054bc0     libcpmt:winapinls.obj
 0002:00001bd0       ??_C@_1M@BABBICEC@?$AAi?$AAd?$AA?9?$AAi?$AAd?$AA?$AA@ 0000000180054bd0     libcpmt:winapinls.obj
 0002:00001be0       ??_C@_1M@BIKNHHPF@?$AAi?$AAs?$AA?9?$AAi?$AAs?$AA?$AA@ 0000000180054be0     libcpmt:winapinls.obj
 0002:00001bf0       ??_C@_1M@NMPCJPHE@?$AAi?$AAt?$AA?9?$AAc?$AAh?$AA?$AA@ 0000000180054bf0     libcpmt:winapinls.obj
 0002:00001c00       ??_C@_1M@GHKGFEDF@?$AAi?$AAt?$AA?9?$AAi?$AAt?$AA?$AA@ 0000000180054c00     libcpmt:winapinls.obj
 0002:00001c10       ??_C@_1M@NIEJCJJA@?$AAj?$AAa?$AA?9?$AAj?$AAp?$AA?$AA@ 0000000180054c10     libcpmt:winapinls.obj
 0002:00001c20       ??_C@_1M@JILFNBIM@?$AAk?$AAa?$AA?9?$AAg?$AAe?$AA?$AA@ 0000000180054c20     libcpmt:winapinls.obj
 0002:00001c30       ??_C@_1M@PACPMGPH@?$AAk?$AAk?$AA?9?$AAk?$AAz?$AA?$AA@ 0000000180054c30     libcpmt:winapinls.obj
 0002:00001c40       ??_C@_1M@IELFGMHA@?$AAk?$AAn?$AA?9?$AAi?$AAn?$AA?$AA@ 0000000180054c40     libcpmt:winapinls.obj
 0002:00001c50       ??_C@_1M@DMHAEOGC@?$AAk?$AAo?$AA?9?$AAk?$AAr?$AA?$AA@ 0000000180054c50     libcpmt:winapinls.obj
 0002:00001c60       ??_C@_1O@IBBJHCH@?$AAk?$AAo?$AAk?$AA?9?$AAi?$AAn?$AA?$AA@ 0000000180054c60     libcpmt:winapinls.obj
 0002:00001c70       ??_C@_1M@HBAHBIGA@?$AAk?$AAy?$AA?9?$AAk?$AAg?$AA?$AA@ 0000000180054c70     libcpmt:winapinls.obj
 0002:00001c80       ??_C@_1M@KPMILCJG@?$AAl?$AAt?$AA?9?$AAl?$AAt?$AA?$AA@ 0000000180054c80     libcpmt:winapinls.obj
 0002:00001c90       ??_C@_1M@BDEKKCA@?$AAl?$AAv?$AA?9?$AAl?$AAv?$AA?$AA@ 0000000180054c90     libcpmt:winapinls.obj
 0002:00001ca0       ??_C@_1M@ELCKCCJJ@?$AAm?$AAi?$AA?9?$AAn?$AAz?$AA?$AA@ 0000000180054ca0     libcpmt:winapinls.obj
 0002:00001cb0       ??_C@_1M@CBOOLAPA@?$AAm?$AAk?$AA?9?$AAm?$AAk?$AA?$AA@ 0000000180054cb0     libcpmt:winapinls.obj
 0002:00001cc0       ??_C@_1M@GPHNBJKN@?$AAm?$AAl?$AA?9?$AAi?$AAn?$AA?$AA@ 0000000180054cc0     libcpmt:winapinls.obj
 0002:00001cd0       ??_C@_1M@PABJILIG@?$AAm?$AAn?$AA?9?$AAm?$AAn?$AA?$AA@ 0000000180054cd0     libcpmt:winapinls.obj
 0002:00001ce0       ??_C@_1M@FGBKKIPG@?$AAm?$AAr?$AA?9?$AAi?$AAn?$AA?$AA@ 0000000180054ce0     libcpmt:winapinls.obj
 0002:00001cf0       ??_C@_1M@NDBPDDAL@?$AAm?$AAs?$AA?9?$AAb?$AAn?$AA?$AA@ 0000000180054cf0     libcpmt:winapinls.obj
 0002:00001d00       ??_C@_1M@OPIHOOPI@?$AAm?$AAs?$AA?9?$AAm?$AAy?$AA?$AA@ 0000000180054d00     libcpmt:winapinls.obj
 0002:00001d10       ??_C@_1M@PPDBCNFM@?$AAm?$AAt?$AA?9?$AAm?$AAt?$AA?$AA@ 0000000180054d10     libcpmt:winapinls.obj
 0002:00001d20       ??_C@_1M@KDJDKMDD@?$AAn?$AAb?$AA?9?$AAn?$AAo?$AA?$AA@ 0000000180054d20     libcpmt:winapinls.obj
 0002:00001d30       ??_C@_1M@KFCFLMJP@?$AAn?$AAl?$AA?9?$AAb?$AAe?$AA?$AA@ 0000000180054d30     libcpmt:winapinls.obj
 0002:00001d40       ??_C@_1M@KPOPDDGO@?$AAn?$AAl?$AA?9?$AAn?$AAl?$AA?$AA@ 0000000180054d40     libcpmt:winapinls.obj
 0002:00001d50       ??_C@_1M@LJKPEMLN@?$AAn?$AAn?$AA?9?$AAn?$AAo?$AA?$AA@ 0000000180054d50     libcpmt:winapinls.obj
 0002:00001d60       ??_C@_1M@BDGHHBFL@?$AAn?$AAs?$AA?9?$AAz?$AAa?$AA?$AA@ 0000000180054d60     libcpmt:winapinls.obj
 0002:00001d70       ??_C@_1M@IDEHOAP@?$AAp?$AAa?$AA?9?$AAi?$AAn?$AA?$AA@ 0000000180054d70     libcpmt:winapinls.obj
 0002:00001d80       ??_C@_1M@HDBKGOGH@?$AAp?$AAl?$AA?9?$AAp?$AAl?$AA?$AA@ 0000000180054d80     libcpmt:winapinls.obj
 0002:00001d90       ??_C@_1M@LJLLCMEH@?$AAp?$AAt?$AA?9?$AAb?$AAr?$AA?$AA@ 0000000180054d90     libcpmt:winapinls.obj
 0002:00001da0       ??_C@_1M@NCMONAAL@?$AAp?$AAt?$AA?9?$AAp?$AAt?$AA?$AA@ 0000000180054da0     libcpmt:winapinls.obj
 0002:00001db0       ??_C@_1O@EAKMAJDN@?$AAq?$AAu?$AAz?$AA?9?$AAb?$AAo?$AA?$AA@ 0000000180054db0     libcpmt:winapinls.obj
 0002:00001dc0       ??_C@_1O@BHHPIGDN@?$AAq?$AAu?$AAz?$AA?9?$AAe?$AAc?$AA?$AA@ 0000000180054dc0     libcpmt:winapinls.obj
 0002:00001dd0       ??_C@_1O@GBAPEKMJ@?$AAq?$AAu?$AAz?$AA?9?$AAp?$AAe?$AA?$AA@ 0000000180054dd0     libcpmt:winapinls.obj
 0002:00001de0       ??_C@_1M@CLGLEFBO@?$AAr?$AAo?$AA?9?$AAr?$AAo?$AA?$AA@ 0000000180054de0     libcpmt:winapinls.obj
 0002:00001df0       ??_C@_1M@CEEDODME@?$AAr?$AAu?$AA?9?$AAr?$AAu?$AA?$AA@ 0000000180054df0     libcpmt:winapinls.obj
 0002:00001e00       ??_C@_1M@HPKKKMPP@?$AAs?$AAa?$AA?9?$AAi?$AAn?$AA?$AA@ 0000000180054e00     libcpmt:winapinls.obj
 0002:00001e10       ??_C@_1M@BKMAIGOJ@?$AAs?$AAe?$AA?9?$AAf?$AAi?$AA?$AA@ 0000000180054e10     libcpmt:winapinls.obj
 0002:00001e20       ??_C@_1M@NDPIFLFI@?$AAs?$AAe?$AA?9?$AAn?$AAo?$AA?$AA@ 0000000180054e20     libcpmt:winapinls.obj
 0002:00001e30       ??_C@_1M@DANKKHJ@?$AAs?$AAe?$AA?9?$AAs?$AAe?$AA?$AA@ 0000000180054e30     libcpmt:winapinls.obj
 0002:00001e40       ??_C@_1M@PNBLONPJ@?$AAs?$AAk?$AA?9?$AAs?$AAk?$AA?$AA@ 0000000180054e40     libcpmt:winapinls.obj
 0002:00001e50       ??_C@_1M@LFMODOAL@?$AAs?$AAl?$AA?9?$AAs?$AAi?$AA?$AA@ 0000000180054e50     libcpmt:winapinls.obj
 0002:00001e60       ??_C@_1O@DFKOMPG@?$AAs?$AAm?$AAa?$AA?9?$AAn?$AAo?$AA?$AA@ 0000000180054e60     libcpmt:winapinls.obj
 0002:00001e70       ??_C@_1O@NDKPBNNH@?$AAs?$AAm?$AAa?$AA?9?$AAs?$AAe?$AA?$AA@ 0000000180054e70     libcpmt:winapinls.obj
 0002:00001e80       ??_C@_1O@PLLKBHAB@?$AAs?$AAm?$AAj?$AA?9?$AAn?$AAo?$AA?$AA@ 0000000180054e80     libcpmt:winapinls.obj
 0002:00001e90       ??_C@_1O@CLEPOGCA@?$AAs?$AAm?$AAj?$AA?9?$AAs?$AAe?$AA?$AA@ 0000000180054e90     libcpmt:winapinls.obj
 0002:00001ea0       ??_C@_1O@DLGJGKMK@?$AAs?$AAm?$AAn?$AA?9?$AAf?$AAi?$AA?$AA@ 0000000180054ea0     libcpmt:winapinls.obj
 0002:00001eb0       ??_C@_1O@OJDJGAJC@?$AAs?$AAm?$AAs?$AA?9?$AAf?$AAi?$AA?$AA@ 0000000180054eb0     libcpmt:winapinls.obj
 0002:00001ec0       ??_C@_1M@BOFOGHPB@?$AAs?$AAq?$AA?9?$AAa?$AAl?$AA?$AA@ 0000000180054ec0     libcpmt:winapinls.obj
 0002:00001ed0       ??_C@_1BG@LJBBIPGB@?$AAs?$AAr?$AA?9?$AAb?$AAa?$AA?9?$AAc?$AAy?$AAr?$AAl?$AA?$AA@ 0000000180054ed0     libcpmt:winapinls.obj
 0002:00001ee8       ??_C@_1BG@JLBENFOE@?$AAs?$AAr?$AA?9?$AAb?$AAa?$AA?9?$AAl?$AAa?$AAt?$AAn?$AA?$AA@ 0000000180054ee8     libcpmt:winapinls.obj
 0002:00001f00       ??_C@_1BG@KODPNHE@?$AAs?$AAr?$AA?9?$AAs?$AAp?$AA?9?$AAc?$AAy?$AAr?$AAl?$AA?$AA@ 0000000180054f00     libcpmt:winapinls.obj
 0002:00001f18       ??_C@_1BG@CIOGKHPB@?$AAs?$AAr?$AA?9?$AAs?$AAp?$AA?9?$AAl?$AAa?$AAt?$AAn?$AA?$AA@ 0000000180054f18     libcpmt:winapinls.obj
 0002:00001f30       ??_C@_1M@NGFJLMAC@?$AAs?$AAv?$AA?9?$AAf?$AAi?$AA?$AA@ 0000000180054f30     libcpmt:winapinls.obj
 0002:00001f40       ??_C@_1M@MPJEJAJC@?$AAs?$AAv?$AA?9?$AAs?$AAe?$AA?$AA@ 0000000180054f40     libcpmt:winapinls.obj
 0002:00001f50       ??_C@_1M@MPNDHLFK@?$AAs?$AAw?$AA?9?$AAk?$AAe?$AA?$AA@ 0000000180054f50     libcpmt:winapinls.obj
 0002:00001f60       ??_C@_1O@KOHBJJI@?$AAs?$AAy?$AAr?$AA?9?$AAs?$AAy?$AA?$AA@ 0000000180054f60     libcpmt:winapinls.obj
 0002:00001f70       ??_C@_1M@LDCEFHA@?$AAt?$AAa?$AA?9?$AAi?$AAn?$AA?$AA@ 0000000180054f70     libcpmt:winapinls.obj
 0002:00001f80       ??_C@_1M@CNJOFAK@?$AAt?$AAe?$AA?9?$AAi?$AAn?$AA?$AA@ 0000000180054f80     libcpmt:winapinls.obj
 0002:00001f90       ??_C@_1M@GNAECACD@?$AAt?$AAh?$AA?9?$AAt?$AAh?$AA?$AA@ 0000000180054f90     libcpmt:winapinls.obj
 0002:00001fa0       ??_C@_1M@CHBIHOJO@?$AAt?$AAn?$AA?9?$AAz?$AAa?$AA?$AA@ 0000000180054fa0     libcpmt:winapinls.obj
 0002:00001fb0       ??_C@_1M@GCCMIGPJ@?$AAt?$AAr?$AA?9?$AAt?$AAr?$AA?$AA@ 0000000180054fb0     libcpmt:winapinls.obj
 0002:00001fc0       ??_C@_1M@CELMCNBK@?$AAt?$AAt?$AA?9?$AAr?$AAu?$AA?$AA@ 0000000180054fc0     libcpmt:winapinls.obj
 0002:00001fd0       ??_C@_1M@KLMCELGA@?$AAu?$AAk?$AA?9?$AAu?$AAa?$AA?$AA@ 0000000180054fd0     libcpmt:winapinls.obj
 0002:00001fe0       ??_C@_1M@EPAJJAJF@?$AAu?$AAr?$AA?9?$AAp?$AAk?$AA?$AA@ 0000000180054fe0     libcpmt:winapinls.obj
 0002:00001ff0       ??_C@_1BG@GEGPMCDJ@?$AAu?$AAz?$AA?9?$AAu?$AAz?$AA?9?$AAc?$AAy?$AAr?$AAl?$AA?$AA@ 0000000180054ff0     libcpmt:winapinls.obj
 0002:00002008       ??_C@_1BG@EGGKJILM@?$AAu?$AAz?$AA?9?$AAu?$AAz?$AA?9?$AAl?$AAa?$AAt?$AAn?$AA?$AA@ 0000000180055008     libcpmt:winapinls.obj
 0002:00002020       ??_C@_1M@GFOCLFF@?$AAv?$AAi?$AA?9?$AAv?$AAn?$AA?$AA@ 0000000180055020     libcpmt:winapinls.obj
 0002:00002030       ??_C@_1M@CPAMEDFI@?$AAx?$AAh?$AA?9?$AAz?$AAa?$AA?$AA@ 0000000180055030     libcpmt:winapinls.obj
 0002:00002040       ??_C@_1O@EBKIFIGN@?$AAz?$AAh?$AA?9?$AAc?$AAh?$AAs?$AA?$AA@ 0000000180055040     libcpmt:winapinls.obj
 0002:00002050       ??_C@_1O@NMHPGANE@?$AAz?$AAh?$AA?9?$AAc?$AAh?$AAt?$AA?$AA@ 0000000180055050     libcpmt:winapinls.obj
 0002:00002060       ??_C@_1M@LPINJOMC@?$AAz?$AAh?$AA?9?$AAc?$AAn?$AA?$AA@ 0000000180055060     libcpmt:winapinls.obj
 0002:00002070       ??_C@_1M@OCJEJODD@?$AAz?$AAh?$AA?9?$AAh?$AAk?$AA?$AA@ 0000000180055070     libcpmt:winapinls.obj
 0002:00002080       ??_C@_1M@DNDLJINH@?$AAz?$AAh?$AA?9?$AAm?$AAo?$AA?$AA@ 0000000180055080     libcpmt:winapinls.obj
 0002:00002090       ??_C@_1M@MBFDNDND@?$AAz?$AAh?$AA?9?$AAs?$AAg?$AA?$AA@ 0000000180055090     libcpmt:winapinls.obj
 0002:000020a0       ??_C@_1M@IMEPLEPE@?$AAz?$AAh?$AA?9?$AAt?$AAw?$AA?$AA@ 00000001800550a0     libcpmt:winapinls.obj
 0002:000020b0       ??_C@_1M@BBGHNHJP@?$AAz?$AAu?$AA?9?$AAz?$AAa?$AA?$AA@ 00000001800550b0     libcpmt:winapinls.obj
 0002:00003d40       ??_C@_15EMKDOKLE@?$AAa?$AAr?$AA?$AA@ 0000000180056d40     libcpmt:winapinls.obj
 0002:00003d48       ??_C@_15KNPADPLH@?$AAb?$AAg?$AA?$AA@ 0000000180056d48     libcpmt:winapinls.obj
 0002:00003d50       ??_C@_15EDMHLDMO@?$AAc?$AAa?$AA?$AA@ 0000000180056d50     libcpmt:winapinls.obj
 0002:00003d58       ??_C@_1O@BPEAJADD@?$AAz?$AAh?$AA?9?$AAC?$AAH?$AAS?$AA?$AA@ 0000000180056d58     libcpmt:winapinls.obj
 0002:00003d68       ??_C@_15LJNHCMNK@?$AAc?$AAs?$AA?$AA@ 0000000180056d68     libcpmt:winapinls.obj
 0002:00003d70       ??_C@_15FOMCIDHG@?$AAd?$AAa?$AA?$AA@ 0000000180056d70     libcpmt:winapinls.obj
 0002:00003d78       ??_C@_15NBKABECB@?$AAd?$AAe?$AA?$AA@ 0000000180056d78     libcpmt:winapinls.obj
 0002:00003d80       ??_C@_15GHPEIIAO@?$AAe?$AAl?$AA?$AA@ 0000000180056d80     libcpmt:winapinls.obj
 0002:00003d88       ??_C@_15MNPNEAIF@?$AAe?$AAn?$AA?$AA@ 0000000180056d88     libcpmt:winapinls.obj
 0002:00003d90       ??_C@_15GPIOMPMH@?$AAe?$AAs?$AA?$AA@ 0000000180056d90     libcpmt:winapinls.obj
 0002:00003d98       ??_C@_15NGLOAKJC@?$AAf?$AAi?$AA?$AA@ 0000000180056d98     libcpmt:winapinls.obj
 0002:00003da0       ??_C@_15FBKGNKAM@?$AAf?$AAr?$AA?$AA@ 0000000180056da0     libcpmt:winapinls.obj
 0002:00003da8       ??_C@_15KGGCNEFK@?$AAh?$AAe?$AA?$AA@ 0000000180056da8     libcpmt:winapinls.obj
 0002:00003db0       ??_C@_15PGHLIDMF@?$AAh?$AAu?$AA?$AA@ 0000000180056db0     libcpmt:winapinls.obj
 0002:00003db8       ??_C@_15BIEMAPLM@?$AAi?$AAs?$AA?$AA@ 0000000180056db8     libcpmt:winapinls.obj
 0002:00003dc0       ??_C@_15IFJLDHAF@?$AAi?$AAt?$AA?$AA@ 0000000180056dc0     libcpmt:winapinls.obj
 0002:00003dc8       ??_C@_15GEMIOCAG@?$AAj?$AAa?$AA?$AA@ 0000000180056dc8     libcpmt:winapinls.obj
 0002:00003dd0       ??_C@_15EPELEGJA@?$AAk?$AAo?$AA?$AA@ 0000000180056dd0     libcpmt:winapinls.obj
 0002:00003dd8       ??_C@_15NDDHIMN@?$AAn?$AAl?$AA?$AA@ 0000000180056dd8     libcpmt:winapinls.obj
 0002:00003de0       ??_C@_15BPIGNHCD@?$AAn?$AAo?$AA?$AA@ 0000000180056de0     libcpmt:winapinls.obj
 0002:00003de8       ??_C@_15DEOPBLCG@?$AAp?$AAl?$AA?$AA@ 0000000180056de8     libcpmt:winapinls.obj
 0002:00003df0       ??_C@_15KBECGEFG@?$AAp?$AAt?$AA?$AA@ 0000000180056df0     libcpmt:winapinls.obj
 0002:00003df8       ??_C@_15GLJCBFMD@?$AAr?$AAo?$AA?$AA@ 0000000180056df8     libcpmt:winapinls.obj
 0002:00003e00       ??_C@_15FEDGKCDI@?$AAr?$AAu?$AA?$AA@ 0000000180056e00     libcpmt:winapinls.obj
 0002:00003e08       ??_C@_15GLKMLLHM@?$AAh?$AAr?$AA?$AA@ 0000000180056e08     libcpmt:winapinls.obj
 0002:00003e10       ??_C@_15CPKMFBDB@?$AAs?$AAk?$AA?$AA@ 0000000180056e10     libcpmt:winapinls.obj
 0002:00003e18       ??_C@_15BAAIOGMK@?$AAs?$AAq?$AA?$AA@ 0000000180056e18     libcpmt:winapinls.obj
 0002:00003e20       ??_C@_15INNPNOHD@?$AAs?$AAv?$AA?$AA@ 0000000180056e20     libcpmt:winapinls.obj
 0002:00003e28       ??_C@_15CABMMOGH@?$AAt?$AAh?$AA?$AA@ 0000000180056e28     libcpmt:winapinls.obj
 0002:00003e30       ??_C@_15BPLIHJJM@?$AAt?$AAr?$AA?$AA@ 0000000180056e30     libcpmt:winapinls.obj
 0002:00003e38       ??_C@_15NEOEKKDJ@?$AAu?$AAr?$AA?$AA@ 0000000180056e38     libcpmt:winapinls.obj
 0002:00003e40       ??_C@_15NFICGAJK@?$AAi?$AAd?$AA?$AA@ 0000000180056e40     libcpmt:winapinls.obj
 0002:00003e48       ??_C@_15PJPFLCCM@?$AAu?$AAk?$AA?$AA@ 0000000180056e48     libcpmt:winapinls.obj
 0002:00003e50       ??_C@_15HPJPHDM@?$AAb?$AAe?$AA?$AA@ 0000000180056e50     libcpmt:winapinls.obj
 0002:00003e58       ??_C@_15LCHLGJII@?$AAs?$AAl?$AA?$AA@ 0000000180056e58     libcpmt:winapinls.obj
 0002:00003e60       ??_C@_15PCFJPHHO@?$AAe?$AAt?$AA?$AA@ 0000000180056e60     libcpmt:winapinls.obj
 0002:00003e68       ??_C@_15HPFPGODN@?$AAl?$AAv?$AA?$AA@ 0000000180056e68     libcpmt:winapinls.obj
 0002:00003e70       ??_C@_15NFFGKGLG@?$AAl?$AAt?$AA?$AA@ 0000000180056e70     libcpmt:winapinls.obj
 0002:00003e78       ??_C@_15BDAKCCHN@?$AAf?$AAa?$AA?$AA@ 0000000180056e78     libcpmt:winapinls.obj
 0002:00003e80       ??_C@_15NFGIAIAJ@?$AAv?$AAi?$AA?$AA@ 0000000180056e80     libcpmt:winapinls.obj
 0002:00003e88       ??_C@_15LMKNDMHN@?$AAh?$AAy?$AA?$AA@ 0000000180056e88     libcpmt:winapinls.obj
 0002:00003e90       ??_C@_15IJBHMCFL@?$AAa?$AAz?$AA?$AA@ 0000000180056e90     libcpmt:winapinls.obj
 0002:00003e98       ??_C@_15EKOFJABL@?$AAe?$AAu?$AA?$AA@ 0000000180056e98     libcpmt:winapinls.obj
 0002:00003ea0       ??_C@_15BGHADCNK@?$AAm?$AAk?$AA?$AA@ 0000000180056ea0     libcpmt:winapinls.obj
 0002:00003ea8       ??_C@_15JDNICKHM@?$AAa?$AAf?$AA?$AA@ 0000000180056ea8     libcpmt:winapinls.obj
 0002:00003eb0       ??_C@_15KPJEDBKD@?$AAk?$AAa?$AA?$AA@ 0000000180056eb0     libcpmt:winapinls.obj
 0002:00003eb8       ??_C@_15PDNFFFEO@?$AAf?$AAo?$AA?$AA@ 0000000180056eb8     libcpmt:winapinls.obj
 0002:00003ec0       ??_C@_15OMLEGLOC@?$AAh?$AAi?$AA?$AA@ 0000000180056ec0     libcpmt:winapinls.obj
 0002:00003ec8       ??_C@_15IDNNENKK@?$AAm?$AAs?$AA?$AA@ 0000000180056ec8     libcpmt:winapinls.obj
 0002:00003ed0       ??_C@_15MACJNBMH@?$AAk?$AAk?$AA?$AA@ 0000000180056ed0     libcpmt:winapinls.obj
 0002:00003ed8       ??_C@_15DKDJEOND@?$AAk?$AAy?$AA?$AA@ 0000000180056ed8     libcpmt:winapinls.obj
 0002:00003ee0       ??_C@_15DFGDLJBG@?$AAs?$AAw?$AA?$AA@ 0000000180056ee0     libcpmt:winapinls.obj
 0002:00003ee8       ??_C@_15BBFAICNG@?$AAu?$AAz?$AA?$AA@ 0000000180056ee8     libcpmt:winapinls.obj
 0002:00003ef0       ??_C@_15DKNDCGEA@?$AAt?$AAt?$AA?$AA@ 0000000180056ef0     libcpmt:winapinls.obj
 0002:00003ef8       ??_C@_15MGIFMDPL@?$AAp?$AAa?$AA?$AA@ 0000000180056ef8     libcpmt:winapinls.obj
 0002:00003f00       ??_C@_15HCNDBBA@?$AAg?$AAu?$AA?$AA@ 0000000180056f00     libcpmt:winapinls.obj
 0002:00003f08       ??_C@_15FNBEIBON@?$AAt?$AAa?$AA?$AA@ 0000000180056f08     libcpmt:winapinls.obj
 0002:00003f10       ??_C@_15NCHGBGLK@?$AAt?$AAe?$AA?$AA@ 0000000180056f10     libcpmt:winapinls.obj
 0002:00003f18       ??_C@_15PHPHCBPF@?$AAk?$AAn?$AA?$AA@ 0000000180056f18     libcpmt:winapinls.obj
 0002:00003f20       ??_C@_15DLGBCKMP@?$AAm?$AAr?$AA?$AA@ 0000000180056f20     libcpmt:winapinls.obj
 0002:00003f28       ??_C@_15EABBLBFF@?$AAs?$AAa?$AA?$AA@ 0000000180056f28     libcpmt:winapinls.obj
 0002:00003f30       ??_C@_15CBKOMCOI@?$AAm?$AAn?$AA?$AA@ 0000000180056f30     libcpmt:winapinls.obj
 0002:00003f38       ??_C@_15CKDMCJAF@?$AAg?$AAl?$AA?$AA@ 0000000180056f38     libcpmt:winapinls.obj
 0002:00003f40       ??_C@_17CNJFBPG@?$AAk?$AAo?$AAk?$AA?$AA@ 0000000180056f40     libcpmt:winapinls.obj
 0002:00003f48       ??_C@_17FFBJICPL@?$AAs?$AAy?$AAr?$AA?$AA@ 0000000180056f48     libcpmt:winapinls.obj
 0002:00003f50       ??_C@_17KPNDCPAF@?$AAd?$AAi?$AAv?$AA?$AA@ 0000000180056f50     libcpmt:winapinls.obj
 0002:00003f58       ??_C@_1M@OKAHONE@?$AAa?$AAr?$AA?9?$AAS?$AAA?$AA?$AA@ 0000000180056f58     libcpmt:winapinls.obj
 0002:00003f68       ??_C@_1M@FFFIGIGK@?$AAb?$AAg?$AA?9?$AAB?$AAG?$AA?$AA@ 0000000180056f68     libcpmt:winapinls.obj
 0002:00003f78       ??_C@_1M@BJNKEDC@?$AAc?$AAa?$AA?9?$AAE?$AAS?$AA?$AA@ 0000000180056f78     libcpmt:winapinls.obj
 0002:00003f88       ??_C@_1M@CLNBBOPM@?$AAz?$AAh?$AA?9?$AAT?$AAW?$AA?$AA@ 0000000180056f88     libcpmt:winapinls.obj
 0002:00003f98       ??_C@_1M@IJJHFJHA@?$AAc?$AAs?$AA?9?$AAC?$AAZ?$AA?$AA@ 0000000180056f98     libcpmt:winapinls.obj
 0002:00003fa8       ??_C@_1M@CLPEOBGI@?$AAd?$AAa?$AA?9?$AAD?$AAK?$AA?$AA@ 0000000180056fa8     libcpmt:winapinls.obj
 0002:00003fb8       ??_C@_1M@MCMADGCB@?$AAd?$AAe?$AA?9?$AAD?$AAE?$AA?$AA@ 0000000180056fb8     libcpmt:winapinls.obj
 0002:00003fc8       ??_C@_1M@OOCKEMAM@?$AAe?$AAl?$AA?9?$AAG?$AAR?$AA?$AA@ 0000000180056fc8     libcpmt:winapinls.obj
 0002:00003fd8       ??_C@_1M@BMHNFIME@?$AAe?$AAn?$AA?9?$AAU?$AAS?$AA?$AA@ 0000000180056fd8     libcpmt:winapinls.obj
 0002:00003fe8       ??_C@_1M@DDNJFGID@?$AAf?$AAi?$AA?9?$AAF?$AAI?$AA?$AA@ 0000000180056fe8     libcpmt:winapinls.obj
 0002:00003ff8       ??_C@_1M@GLIPPMAC@?$AAf?$AAr?$AA?9?$AAF?$AAR?$AA?$AA@ 0000000180056ff8     libcpmt:winapinls.obj
 0002:00004008       ??_C@_1M@GFMCHPE@?$AAh?$AAe?$AA?9?$AAI?$AAL?$AA?$AA@ 0000000180057008     libcpmt:winapinls.obj
 0002:00004018       ??_C@_1M@MHLPGNKM@?$AAh?$AAu?$AA?9?$AAH?$AAU?$AA?$AA@ 0000000180057018     libcpmt:winapinls.obj
 0002:00004028       ??_C@_1M@LPDDNNPN@?$AAi?$AAs?$AA?9?$AAI?$AAS?$AA?$AA@ 0000000180057028     libcpmt:winapinls.obj
 0002:00004038       ??_C@_1M@MADIPODN@?$AAi?$AAt?$AA?9?$AAI?$AAT?$AA?$AA@ 0000000180057038     libcpmt:winapinls.obj
 0002:00004048       ??_C@_1M@HPNHIDJI@?$AAj?$AAa?$AA?9?$AAJ?$AAP?$AA?$AA@ 0000000180057048     libcpmt:winapinls.obj
 0002:00004058       ??_C@_1M@JLOOOEGK@?$AAk?$AAo?$AA?9?$AAK?$AAR?$AA?$AA@ 0000000180057058     libcpmt:winapinls.obj
 0002:00004068       ??_C@_1M@IHBJJGG@?$AAn?$AAl?$AA?9?$AAN?$AAL?$AA?$AA@ 0000000180057068     libcpmt:winapinls.obj
 0002:00004078       ??_C@_1M@EANAGDL@?$AAn?$AAb?$AA?9?$AAN?$AAO?$AA?$AA@ 0000000180057078     libcpmt:winapinls.obj
 0002:00004088       ??_C@_1M@NEIEMEGP@?$AAp?$AAl?$AA?9?$AAP?$AAL?$AA?$AA@ 0000000180057088     libcpmt:winapinls.obj
 0002:00004098       ??_C@_1M@BOCFIGEP@?$AAp?$AAt?$AA?9?$AAB?$AAR?$AA?$AA@ 0000000180057098     libcpmt:winapinls.obj
 0002:000040a8       ??_C@_1M@IMPFOPBG@?$AAr?$AAo?$AA?9?$AAR?$AAO?$AA?$AA@ 00000001800570a8     libcpmt:winapinls.obj
 0002:000040b8       ??_C@_1M@IDNNEJMM@?$AAr?$AAu?$AA?9?$AAR?$AAU?$AA?$AA@ 00000001800570b8     libcpmt:winapinls.obj
 0002:000040c8       ??_C@_1M@LILEEOGM@?$AAh?$AAr?$AA?9?$AAH?$AAR?$AA?$AA@ 00000001800570c8     libcpmt:winapinls.obj
 0002:000040d8       ??_C@_1M@FKIFEHPB@?$AAs?$AAk?$AA?9?$AAS?$AAK?$AA?$AA@ 00000001800570d8     libcpmt:winapinls.obj
 0002:000040e8       ??_C@_1M@LJMAMNPJ@?$AAs?$AAq?$AA?9?$AAA?$AAL?$AA?$AA@ 00000001800570e8     libcpmt:winapinls.obj
 0002:000040f8       ??_C@_1M@GIAKDKJK@?$AAs?$AAv?$AA?9?$AAS?$AAE?$AA?$AA@ 00000001800570f8     libcpmt:winapinls.obj
 0002:00004108       ??_C@_1M@MKJKIKCL@?$AAt?$AAh?$AA?9?$AAT?$AAH?$AA?$AA@ 0000000180057108     libcpmt:winapinls.obj
 0002:00004118       ??_C@_1M@MFLCCMPB@?$AAt?$AAr?$AA?9?$AAT?$AAR?$AA?$AA@ 0000000180057118     libcpmt:winapinls.obj
 0002:00004128       ??_C@_1M@OIJHDKJN@?$AAu?$AAr?$AA?9?$AAP?$AAK?$AA?$AA@ 0000000180057128     libcpmt:winapinls.obj
 0002:00004138       ??_C@_1M@LHIPCIEK@?$AAi?$AAd?$AA?9?$AAI?$AAD?$AA?$AA@ 0000000180057138     libcpmt:winapinls.obj
 0002:00004148       ??_C@_1M@MFMOBGI@?$AAu?$AAk?$AA?9?$AAU?$AAA?$AA?$AA@ 0000000180057148     libcpmt:winapinls.obj
 0002:00004158       ??_C@_1M@OBGLJIPL@?$AAb?$AAe?$AA?9?$AAB?$AAY?$AA?$AA@ 0000000180057158     libcpmt:winapinls.obj
 0002:00004168       ??_C@_1M@BCFAJEAD@?$AAs?$AAl?$AA?9?$AAS?$AAI?$AA?$AA@ 0000000180057168     libcpmt:winapinls.obj
 0002:00004178       ??_C@_1M@FKFFEDDN@?$AAe?$AAt?$AA?9?$AAE?$AAE?$AA?$AA@ 0000000180057178     libcpmt:winapinls.obj
 0002:00004188       ??_C@_1M@KGKKAACI@?$AAl?$AAv?$AA?9?$AAL?$AAV?$AA?$AA@ 0000000180057188     libcpmt:winapinls.obj
 0002:00004198       ??_C@_1M@IFGBIJO@?$AAl?$AAt?$AA?9?$AAL?$AAT?$AA?$AA@ 0000000180057198     libcpmt:winapinls.obj
 0002:000041a8       ??_C@_1M@FGEAHEDM@?$AAf?$AAa?$AA?9?$AAI?$AAR?$AA?$AA@ 00000001800571a8     libcpmt:winapinls.obj
 0002:000041b8       ??_C@_1M@KBMAIBFN@?$AAv?$AAi?$AA?9?$AAV?$AAN?$AA?$AA@ 00000001800571b8     libcpmt:winapinls.obj
 0002:000041c8       ??_C@_1M@GPCBKDJK@?$AAh?$AAy?$AA?9?$AAA?$AAM?$AA?$AA@ 00000001800571c8     libcpmt:winapinls.obj
 0002:000041d8       ??_C@_1BG@BECMDDJB@?$AAa?$AAz?$AA?9?$AAA?$AAZ?$AA?9?$AAL?$AAa?$AAt?$AAn?$AA?$AA@ 00000001800571d8     libcpmt:winapinls.obj
 0002:000041f0       ??_C@_1M@MAOFCAEA@?$AAe?$AAu?$AA?9?$AAE?$AAS?$AA?$AA@ 00000001800571f0     libcpmt:winapinls.obj
 0002:00004200       ??_C@_1M@IGHABKPI@?$AAm?$AAk?$AA?9?$AAM?$AAK?$AA?$AA@ 0000000180057200     libcpmt:winapinls.obj
 0002:00004210       ??_C@_1M@IAIGNEJG@?$AAt?$AAn?$AA?9?$AAZ?$AAA?$AA?$AA@ 0000000180057210     libcpmt:winapinls.obj
 0002:00004220       ??_C@_1M@IIJCOJFA@?$AAx?$AAh?$AA?9?$AAZ?$AAA?$AA?$AA@ 0000000180057220     libcpmt:winapinls.obj
 0002:00004230       ??_C@_1M@LGPJHNJH@?$AAz?$AAu?$AA?9?$AAZ?$AAA?$AA?$AA@ 0000000180057230     libcpmt:winapinls.obj
 0002:00004240       ??_C@_1M@HOKAOIO@?$AAa?$AAf?$AA?9?$AAZ?$AAA?$AA?$AA@ 0000000180057240     libcpmt:winapinls.obj
 0002:00004250       ??_C@_1M@DPCLHLIE@?$AAk?$AAa?$AA?9?$AAG?$AAE?$AA?$AA@ 0000000180057250     libcpmt:winapinls.obj
 0002:00004260       ??_C@_1M@BLKMHJBI@?$AAf?$AAo?$AA?9?$AAF?$AAO?$AA?$AA@ 0000000180057260     libcpmt:winapinls.obj
 0002:00004270       ??_C@_1M@LGGJAPPB@?$AAh?$AAi?$AA?9?$AAI?$AAN?$AA?$AA@ 0000000180057270     libcpmt:winapinls.obj
 0002:00004280       ??_C@_1M@FIKPIHFE@?$AAm?$AAt?$AA?9?$AAM?$AAT?$AA?$AA@ 0000000180057280     libcpmt:winapinls.obj
 0002:00004290       ??_C@_1M@HEGGPBFA@?$AAs?$AAe?$AA?9?$AAN?$AAO?$AA?$AA@ 0000000180057290     libcpmt:winapinls.obj
 0002:000042a0       ??_C@_1M@EIBJEEPA@?$AAm?$AAs?$AA?9?$AAM?$AAY?$AA?$AA@ 00000001800572a0     libcpmt:winapinls.obj
 0002:000042b0       ??_C@_1M@FHLBGMPP@?$AAk?$AAk?$AA?9?$AAK?$AAZ?$AA?$AA@ 00000001800572b0     libcpmt:winapinls.obj
 0002:000042c0       ??_C@_1M@NGJJLCGI@?$AAk?$AAy?$AA?9?$AAK?$AAG?$AA?$AA@ 00000001800572c0     libcpmt:winapinls.obj
 0002:000042d0       ??_C@_1M@GIENNBFC@?$AAs?$AAw?$AA?9?$AAK?$AAE?$AA?$AA@ 00000001800572d0     libcpmt:winapinls.obj
 0002:000042e0       ??_C@_1BG@NDGMJIMJ@?$AAu?$AAz?$AA?9?$AAU?$AAZ?$AA?9?$AAL?$AAa?$AAt?$AAn?$AA?$AA@ 00000001800572e0     libcpmt:winapinls.obj
 0002:000042f8       ??_C@_1M@IDCCIHBC@?$AAt?$AAt?$AA?9?$AAR?$AAU?$AA?$AA@ 00000001800572f8     libcpmt:winapinls.obj
 0002:00004308       ??_C@_1M@LOICPMOJ@?$AAb?$AAn?$AA?9?$AAI?$AAN?$AA?$AA@ 0000000180057308     libcpmt:winapinls.obj
 0002:00004318       ??_C@_1M@KPKKNEAH@?$AAp?$AAa?$AA?9?$AAI?$AAN?$AA?$AA@ 0000000180057318     libcpmt:winapinls.obj
 0002:00004328       ??_C@_1M@PJGPPBOG@?$AAg?$AAu?$AA?9?$AAI?$AAN?$AA?$AA@ 0000000180057328     libcpmt:winapinls.obj
 0002:00004338       ??_C@_1M@KMKMOPHI@?$AAt?$AAa?$AA?9?$AAI?$AAN?$AA?$AA@ 0000000180057338     libcpmt:winapinls.obj
 0002:00004348       ??_C@_1M@KFEHEPAC@?$AAt?$AAe?$AA?9?$AAI?$AAN?$AA?$AA@ 0000000180057348     libcpmt:winapinls.obj
 0002:00004358       ??_C@_1M@CDCLMGHI@?$AAk?$AAn?$AA?9?$AAI?$AAN?$AA?$AA@ 0000000180057358     libcpmt:winapinls.obj
 0002:00004368       ??_C@_1M@MIODLDKF@?$AAm?$AAl?$AA?9?$AAI?$AAN?$AA?$AA@ 0000000180057368     libcpmt:winapinls.obj
 0002:00004378       ??_C@_1M@PBIEACPO@?$AAm?$AAr?$AA?9?$AAI?$AAN?$AA?$AA@ 0000000180057378     libcpmt:winapinls.obj
 0002:00004388       ??_C@_1M@NIDEAGPH@?$AAs?$AAa?$AA?9?$AAI?$AAN?$AA?$AA@ 0000000180057388     libcpmt:winapinls.obj
 0002:00004398       ??_C@_1M@FHIHCBIO@?$AAm?$AAn?$AA?9?$AAM?$AAN?$AA?$AA@ 0000000180057398     libcpmt:winapinls.obj
 0002:000043a8       ??_C@_1M@JAIJPENP@?$AAc?$AAy?$AA?9?$AAG?$AAB?$AA?$AA@ 00000001800573a8     libcpmt:winapinls.obj
 0002:000043b8       ??_C@_1M@PHGFBEPN@?$AAg?$AAl?$AA?9?$AAE?$AAS?$AA?$AA@ 00000001800573b8     libcpmt:winapinls.obj
 0002:000043c8       ??_C@_1O@KPIPDNCP@?$AAk?$AAo?$AAk?$AA?9?$AAI?$AAN?$AA?$AA@ 00000001800573c8     libcpmt:winapinls.obj
 0002:000043d8       ??_C@_1O@KNHJLDJA@?$AAs?$AAy?$AAr?$AA?9?$AAS?$AAY?$AA?$AA@ 00000001800573d8     libcpmt:winapinls.obj
 0002:000043e8       ??_C@_1O@MKEKBLAH@?$AAd?$AAi?$AAv?$AA?9?$AAM?$AAV?$AA?$AA@ 00000001800573e8     libcpmt:winapinls.obj
 0002:000043f8       ??_C@_1O@OHDCKDDF@?$AAq?$AAu?$AAz?$AA?9?$AAB?$AAO?$AA?$AA@ 00000001800573f8     libcpmt:winapinls.obj
 0002:00004408       ??_C@_1M@LEPJNLFD@?$AAn?$AAs?$AA?9?$AAZ?$AAA?$AA?$AA@ 0000000180057408     libcpmt:winapinls.obj
 0002:00004418       ??_C@_1M@OMLEIIJB@?$AAm?$AAi?$AA?9?$AAN?$AAZ?$AA?$AA@ 0000000180057418     libcpmt:winapinls.obj
 0002:00004428       ??_C@_1M@PMPEAILG@?$AAa?$AAr?$AA?9?$AAI?$AAQ?$AA?$AA@ 0000000180057428     libcpmt:winapinls.obj
 0002:00004438       ??_C@_1M@BIBDDEMK@?$AAz?$AAh?$AA?9?$AAC?$AAN?$AA?$AA@ 0000000180057438     libcpmt:winapinls.obj
 0002:00004448       ??_C@_1M@CNKPNOEE@?$AAd?$AAe?$AA?9?$AAC?$AAH?$AA?$AA@ 0000000180057448     libcpmt:winapinls.obj
 0002:00004458       ??_C@_1M@LKMGMLKO@?$AAe?$AAn?$AA?9?$AAG?$AAB?$AA?$AA@ 0000000180057458     libcpmt:winapinls.obj
 0002:00004468       ??_C@_1M@PGKJFFGL@?$AAe?$AAs?$AA?9?$AAM?$AAX?$AA?$AA@ 0000000180057468     libcpmt:winapinls.obj
 0002:00004478       ??_C@_1M@DNNANBDC@?$AAf?$AAr?$AA?9?$AAB?$AAE?$AA?$AA@ 0000000180057478     libcpmt:winapinls.obj
 0002:00004488       ??_C@_1M@HLGMDFHM@?$AAi?$AAt?$AA?9?$AAC?$AAH?$AA?$AA@ 0000000180057488     libcpmt:winapinls.obj
 0002:00004498       ??_C@_1M@CLLBGJH@?$AAn?$AAl?$AA?9?$AAB?$AAE?$AA?$AA@ 0000000180057498     libcpmt:winapinls.obj
 0002:000044a8       ??_C@_1M@BODBOGLF@?$AAn?$AAn?$AA?9?$AAN?$AAO?$AA?$AA@ 00000001800574a8     libcpmt:winapinls.obj
 0002:000044b8       ??_C@_1M@HFFAHKAD@?$AAp?$AAt?$AA?9?$AAP?$AAT?$AA?$AA@ 00000001800574b8     libcpmt:winapinls.obj
 0002:000044c8       ??_C@_1BG@LNOAKHIE@?$AAs?$AAr?$AA?9?$AAS?$AAP?$AA?9?$AAL?$AAa?$AAt?$AAn?$AA?$AA@ 00000001800574c8     libcpmt:winapinls.obj
 0002:000044e0       ??_C@_1M@HBMHBGAK@?$AAs?$AAv?$AA?9?$AAF?$AAI?$AA?$AA@ 00000001800574e0     libcpmt:winapinls.obj
 0002:000044f0       ??_C@_1BG@DGCJGJBE@?$AAa?$AAz?$AA?9?$AAA?$AAZ?$AA?9?$AAC?$AAy?$AAr?$AAl?$AA?$AA@ 00000001800574f0     libcpmt:winapinls.obj
 0002:00004508       ??_C@_1M@KEJDAAHB@?$AAs?$AAe?$AA?9?$AAS?$AAE?$AA?$AA@ 0000000180057508     libcpmt:winapinls.obj
 0002:00004518       ??_C@_1M@HEIBJJAD@?$AAm?$AAs?$AA?9?$AAB?$AAN?$AA?$AA@ 0000000180057518     libcpmt:winapinls.obj
 0002:00004528       ??_C@_1BG@PBGJMCEM@?$AAu?$AAz?$AA?9?$AAU?$AAZ?$AA?9?$AAC?$AAy?$AAr?$AAl?$AA?$AA@ 0000000180057528     libcpmt:winapinls.obj
 0002:00004540       ??_C@_1O@LAOBCMDF@?$AAq?$AAu?$AAz?$AA?9?$AAE?$AAC?$AA?$AA@ 0000000180057540     libcpmt:winapinls.obj
 0002:00004550       ??_C@_1M@POEEMAIO@?$AAa?$AAr?$AA?9?$AAE?$AAG?$AA?$AA@ 0000000180057550     libcpmt:winapinls.obj
 0002:00004560       ??_C@_1M@EFAKDEDL@?$AAz?$AAh?$AA?9?$AAH?$AAK?$AA?$AA@ 0000000180057560     libcpmt:winapinls.obj
 0002:00004570       ??_C@_1M@HKKIJHGI@?$AAd?$AAe?$AA?9?$AAA?$AAT?$AA?$AA@ 0000000180057570     libcpmt:winapinls.obj
 0002:00004580       ??_C@_1M@KBFBEHJF@?$AAe?$AAn?$AA?9?$AAA?$AAU?$AA?$AA@ 0000000180057580     libcpmt:winapinls.obj
 0002:00004590       ??_C@_1M@MNPLFAAH@?$AAe?$AAs?$AA?9?$AAE?$AAS?$AA?$AA@ 0000000180057590     libcpmt:winapinls.obj
 0002:000045a0       ??_C@_1M@HJOOJFMA@?$AAf?$AAr?$AA?9?$AAC?$AAA?$AA?$AA@ 00000001800575a0     libcpmt:winapinls.obj
 0002:000045b0       ??_C@_1BG@JPOFPNAB@?$AAs?$AAr?$AA?9?$AAS?$AAP?$AA?9?$AAC?$AAy?$AAr?$AAl?$AA?$AA@ 00000001800575b0     libcpmt:winapinls.obj
 0002:000045c8       ??_C@_1M@LNFOCMOB@?$AAs?$AAe?$AA?9?$AAF?$AAI?$AA?$AA@ 00000001800575c8     libcpmt:winapinls.obj
 0002:000045d8       ??_C@_1O@MGJBOAMB@?$AAq?$AAu?$AAz?$AA?9?$AAP?$AAE?$AA?$AA@ 00000001800575d8     libcpmt:winapinls.obj
 0002:000045e8       ??_C@_1M@GJINLBOK@?$AAa?$AAr?$AA?9?$AAL?$AAY?$AA?$AA@ 00000001800575e8     libcpmt:winapinls.obj
 0002:000045f8       ??_C@_1M@GGMNHJNL@?$AAz?$AAh?$AA?9?$AAS?$AAG?$AA?$AA@ 00000001800575f8     libcpmt:winapinls.obj
 0002:00004608       ??_C@_1M@HOIKODND@?$AAd?$AAe?$AA?9?$AAL?$AAU?$AA?$AA@ 0000000180057608     libcpmt:winapinls.obj
 0002:00004618       ??_C@_1M@DDOCCGFG@?$AAe?$AAn?$AA?9?$AAC?$AAA?$AA?$AA@ 0000000180057618     libcpmt:winapinls.obj
 0002:00004628       ??_C@_1M@BNOEMJLF@?$AAe?$AAs?$AA?9?$AAG?$AAT?$AA?$AA@ 0000000180057628     libcpmt:winapinls.obj
 0002:00004638       ??_C@_1M@EOGNKEK@?$AAf?$AAr?$AA?9?$AAC?$AAH?$AA?$AA@ 0000000180057638     libcpmt:winapinls.obj
 0002:00004648       ??_C@_1M@FLIDJFHL@?$AAh?$AAr?$AA?9?$AAB?$AAA?$AA?$AA@ 0000000180057648     libcpmt:winapinls.obj
 0002:00004658       ??_C@_1O@FMCELNAJ@?$AAs?$AAm?$AAj?$AA?9?$AAN?$AAO?$AA?$AA@ 0000000180057658     libcpmt:winapinls.obj
 0002:00004668       ??_C@_1M@JHGLJMGJ@?$AAa?$AAr?$AA?9?$AAD?$AAZ?$AA?$AA@ 0000000180057668     libcpmt:winapinls.obj
 0002:00004678       ??_C@_1M@JKKFDCNP@?$AAz?$AAh?$AA?9?$AAM?$AAO?$AA?$AA@ 0000000180057678     libcpmt:winapinls.obj
 0002:00004688       ??_C@_1M@GEEFALPE@?$AAd?$AAe?$AA?9?$AAL?$AAI?$AA?$AA@ 0000000180057688     libcpmt:winapinls.obj
 0002:00004698       ??_C@_1M@IGEOFBG@?$AAe?$AAn?$AA?9?$AAN?$AAZ?$AA?$AA@ 0000000180057698     libcpmt:winapinls.obj
 0002:000046a8       ??_C@_1M@KDBONEHP@?$AAe?$AAs?$AA?9?$AAC?$AAR?$AA?$AA@ 00000001800576a8     libcpmt:winapinls.obj
 0002:000046b8       ??_C@_1M@FHMDOHNN@?$AAf?$AAr?$AA?9?$AAL?$AAU?$AA?$AA@ 00000001800576b8     libcpmt:winapinls.obj
 0002:000046c8       ??_C@_1BG@NFKKMAFG@?$AAb?$AAs?$AA?9?$AAB?$AAA?$AA?9?$AAL?$AAa?$AAt?$AAn?$AA?$AA@ 00000001800576c8     libcpmt:winapinls.obj
 0002:000046e0       ??_C@_1O@IMNBEMCI@?$AAs?$AAm?$AAj?$AA?9?$AAS?$AAE?$AA?$AA@ 00000001800576e0     libcpmt:winapinls.obj
 0002:000046f0       ??_C@_1M@DHHMBNDP@?$AAa?$AAr?$AA?9?$AAM?$AAA?$AA?$AA@ 00000001800576f0     libcpmt:winapinls.obj
 0002:00004700       ??_C@_1M@BNBLJCGH@?$AAe?$AAn?$AA?9?$AAI?$AAE?$AA?$AA@ 0000000180057700     libcpmt:winapinls.obj
 0002:00004710       ??_C@_1M@GEPAFMDL@?$AAe?$AAs?$AA?9?$AAP?$AAA?$AA?$AA@ 0000000180057710     libcpmt:winapinls.obj
 0002:00004720       ??_C@_1M@OJONDMDL@?$AAf?$AAr?$AA?9?$AAM?$AAC?$AA?$AA@ 0000000180057720     libcpmt:winapinls.obj
 0002:00004730       ??_C@_1BG@OBCNFJB@?$AAs?$AAr?$AA?9?$AAB?$AAA?$AA?9?$AAL?$AAa?$AAt?$AAn?$AA?$AA@ 0000000180057730     libcpmt:winapinls.obj
 0002:00004748       ??_C@_1O@KEMEEGPO@?$AAs?$AAm?$AAa?$AA?9?$AAN?$AAO?$AA?$AA@ 0000000180057748     libcpmt:winapinls.obj
 0002:00004758       ??_C@_1M@ELMGFODK@?$AAa?$AAr?$AA?9?$AAT?$AAN?$AA?$AA@ 0000000180057758     libcpmt:winapinls.obj
 0002:00004768       ??_C@_1M@BHDLHFAF@?$AAe?$AAn?$AA?9?$AAZ?$AAA?$AA?$AA@ 0000000180057768     libcpmt:winapinls.obj
 0002:00004778       ??_C@_1M@BMGIGLIF@?$AAe?$AAs?$AA?9?$AAD?$AAO?$AA?$AA@ 0000000180057778     libcpmt:winapinls.obj
 0002:00004788       ??_C@_1BG@CMBHIPBE@?$AAs?$AAr?$AA?9?$AAB?$AAA?$AA?9?$AAC?$AAy?$AAr?$AAl?$AA?$AA@ 0000000180057788     libcpmt:winapinls.obj
 0002:000047a0       ??_C@_1O@HEDBLHNP@?$AAs?$AAm?$AAa?$AA?9?$AAS?$AAE?$AA?$AA@ 00000001800577a0     libcpmt:winapinls.obj
 0002:000047b0       ??_C@_1M@DAGCADIM@?$AAa?$AAr?$AA?9?$AAO?$AAM?$AA?$AA@ 00000001800577b0     libcpmt:winapinls.obj
 0002:000047c0       ??_C@_1M@FODLMICG@?$AAe?$AAn?$AA?9?$AAJ?$AAM?$AA?$AA@ 00000001800577c0     libcpmt:winapinls.obj
 0002:000047d0       ??_C@_1M@DNMLCIHB@?$AAe?$AAs?$AA?9?$AAV?$AAE?$AA?$AA@ 00000001800577d0     libcpmt:winapinls.obj
 0002:000047e0       ??_C@_1O@EOKHMKJK@?$AAs?$AAm?$AAs?$AA?9?$AAF?$AAI?$AA?$AA@ 00000001800577e0     libcpmt:winapinls.obj
 0002:000047f0       ??_C@_1M@CAFJMKOF@?$AAa?$AAr?$AA?9?$AAY?$AAE?$AA?$AA@ 00000001800577f0     libcpmt:winapinls.obj
 0002:00004800       ??_C@_1M@CBFHIJLI@?$AAe?$AAn?$AA?9?$AAC?$AAB?$AA?$AA@ 0000000180057800     libcpmt:winapinls.obj
 0002:00004810       ??_C@_1M@BGNFLDN@?$AAe?$AAs?$AA?9?$AAC?$AAO?$AA?$AA@ 0000000180057810     libcpmt:winapinls.obj
 0002:00004820       ??_C@_1O@JMPHMAMC@?$AAs?$AAm?$AAn?$AA?9?$AAF?$AAI?$AA?$AA@ 0000000180057820     libcpmt:winapinls.obj
 0002:00004830       ??_C@_1M@JLANABKE@?$AAa?$AAr?$AA?9?$AAS?$AAY?$AA?$AA@ 0000000180057830     libcpmt:winapinls.obj
 0002:00004840       ??_C@_1M@HPKGCFGN@?$AAe?$AAn?$AA?9?$AAB?$AAZ?$AA?$AA@ 0000000180057840     libcpmt:winapinls.obj
 0002:00004850       ??_C@_1M@OLJCMLGM@?$AAe?$AAs?$AA?9?$AAP?$AAE?$AA?$AA@ 0000000180057850     libcpmt:winapinls.obj
 0002:00004860       ??_C@_1M@MKKGFKLE@?$AAa?$AAr?$AA?9?$AAJ?$AAO?$AA?$AA@ 0000000180057860     libcpmt:winapinls.obj
 0002:00004870       ??_C@_1M@EKPGLDNI@?$AAe?$AAn?$AA?9?$AAT?$AAT?$AA?$AA@ 0000000180057870     libcpmt:winapinls.obj
 0002:00004880       ??_C@_1M@OONGHFHE@?$AAe?$AAs?$AA?9?$AAA?$AAR?$AA?$AA@ 0000000180057880     libcpmt:winapinls.obj
 0002:00004890       ??_C@_1M@OOJFGBHE@?$AAa?$AAr?$AA?9?$AAL?$AAB?$AA?$AA@ 0000000180057890     libcpmt:winapinls.obj
 0002:000048a0       ??_C@_1M@GCEJHNEG@?$AAe?$AAn?$AA?9?$AAZ?$AAW?$AA?$AA@ 00000001800578a0     libcpmt:winapinls.obj
 0002:000048b0       ??_C@_1M@JNOCAHJI@?$AAe?$AAs?$AA?9?$AAE?$AAC?$AA?$AA@ 00000001800578b0     libcpmt:winapinls.obj
 0002:000048c0       ??_C@_1M@JEFHPGGB@?$AAa?$AAr?$AA?9?$AAK?$AAW?$AA?$AA@ 00000001800578c0     libcpmt:winapinls.obj
 0002:000048d0       ??_C@_1M@MLKIBJOJ@?$AAe?$AAn?$AA?9?$AAP?$AAH?$AA?$AA@ 00000001800578d0     libcpmt:winapinls.obj
 0002:000048e0       ??_C@_1M@BDNIPEND@?$AAe?$AAs?$AA?9?$AAC?$AAL?$AA?$AA@ 00000001800578e0     libcpmt:winapinls.obj
 0002:000048f0       ??_C@_1M@MPNMEKBD@?$AAa?$AAr?$AA?9?$AAA?$AAE?$AA?$AA@ 00000001800578f0     libcpmt:winapinls.obj
 0002:00004900       ??_C@_1M@KBJALCPI@?$AAe?$AAs?$AA?9?$AAU?$AAY?$AA?$AA@ 0000000180057900     libcpmt:winapinls.obj
 0002:00004910       ??_C@_1M@LLCCOAGA@?$AAa?$AAr?$AA?9?$AAB?$AAH?$AA?$AA@ 0000000180057910     libcpmt:winapinls.obj
 0002:00004920       ??_C@_1M@PBFNCDEL@?$AAe?$AAs?$AA?9?$AAP?$AAY?$AA?$AA@ 0000000180057920     libcpmt:winapinls.obj
 0002:00004930       ??_C@_1M@EDGINPNP@?$AAa?$AAr?$AA?9?$AAQ?$AAA?$AA?$AA@ 0000000180057930     libcpmt:winapinls.obj
 0002:00004940       ??_C@_1M@MKDBIIJI@?$AAe?$AAs?$AA?9?$AAB?$AAO?$AA?$AA@ 0000000180057940     libcpmt:winapinls.obj
 0002:00004950       ??_C@_1M@CPKKEBLD@?$AAe?$AAs?$AA?9?$AAS?$AAV?$AA?$AA@ 0000000180057950     libcpmt:winapinls.obj
 0002:00004960       ??_C@_1M@NDBGMMJL@?$AAe?$AAs?$AA?9?$AAH?$AAN?$AA?$AA@ 0000000180057960     libcpmt:winapinls.obj
 0002:00004970       ??_C@_1M@JIJIBHDP@?$AAe?$AAs?$AA?9?$AAN?$AAI?$AA?$AA@ 0000000180057970     libcpmt:winapinls.obj
 0002:00004980       ??_C@_1M@CGFMKEEK@?$AAe?$AAs?$AA?9?$AAP?$AAR?$AA?$AA@ 0000000180057980     libcpmt:winapinls.obj
 0002:00004990       ??_C@_1O@ICJHKIIK@?$AAz?$AAh?$AA?9?$AAC?$AAH?$AAT?$AA?$AA@ 0000000180057990     libcpmt:winapinls.obj
 0002:000049a0       ??_C@_15CLNEJCE@?$AAs?$AAr?$AA?$AA@ 00000001800579a0     libcpmt:winapinls.obj
 0002:000049a8       ??_C@_1M@KAHEKEIG@?$AAa?$AAf?$AA?9?$AAz?$AAa?$AA?$AA@ 00000001800579a8     libcpmt:winapinls.obj
 0002:000049b8       ??_C@_1M@GIECOABL@?$AAa?$AAr?$AA?9?$AAa?$AAe?$AA?$AA@ 00000001800579b8     libcpmt:winapinls.obj
 0002:000049c8       ??_C@_1M@BMLMEKGI@?$AAa?$AAr?$AA?9?$AAb?$AAh?$AA?$AA@ 00000001800579c8     libcpmt:winapinls.obj
 0002:000049d8       ??_C@_1M@DAPFDGGB@?$AAa?$AAr?$AA?9?$AAd?$AAz?$AA?$AA@ 00000001800579d8     libcpmt:winapinls.obj
 0002:000049e8       ??_C@_1M@FJNKGKIG@?$AAa?$AAr?$AA?9?$AAe?$AAg?$AA?$AA@ 00000001800579e8     libcpmt:winapinls.obj
 0002:000049f8       ??_C@_1M@FLGKKCLO@?$AAa?$AAr?$AA?9?$AAi?$AAq?$AA?$AA@ 00000001800579f8     libcpmt:winapinls.obj
 0002:00004a08       ??_C@_1M@GNDIPALM@?$AAa?$AAr?$AA?9?$AAj?$AAo?$AA?$AA@ 0000000180057a08     libcpmt:winapinls.obj
 0002:00004a18       ??_C@_1M@DDMJFMGJ@?$AAa?$AAr?$AA?9?$AAk?$AAw?$AA?$AA@ 0000000180057a18     libcpmt:winapinls.obj
 0002:00004a28       ??_C@_1M@EJALMLHM@?$AAa?$AAr?$AA?9?$AAl?$AAb?$AA?$AA@ 0000000180057a28     libcpmt:winapinls.obj
 0002:00004a38       ??_C@_1M@MOBDBLOC@?$AAa?$AAr?$AA?9?$AAl?$AAy?$AA?$AA@ 0000000180057a38     libcpmt:winapinls.obj
 0002:00004a48       ??_C@_1M@JAOCLHDH@?$AAa?$AAr?$AA?9?$AAm?$AAa?$AA?$AA@ 0000000180057a48     libcpmt:winapinls.obj
 0002:00004a58       ??_C@_1M@JHPMKJIE@?$AAa?$AAr?$AA?9?$AAo?$AAm?$AA?$AA@ 0000000180057a58     libcpmt:winapinls.obj
 0002:00004a68       ??_C@_1M@OEPGHFNH@?$AAa?$AAr?$AA?9?$AAq?$AAa?$AA?$AA@ 0000000180057a68     libcpmt:winapinls.obj
 0002:00004a78       ??_C@_1M@KJDONENM@?$AAa?$AAr?$AA?9?$AAs?$AAa?$AA?$AA@ 0000000180057a78     libcpmt:winapinls.obj
 0002:00004a88       ??_C@_1M@DMJDKLKM@?$AAa?$AAr?$AA?9?$AAs?$AAy?$AA?$AA@ 0000000180057a88     libcpmt:winapinls.obj
 0002:00004a98       ??_C@_1M@OMFIPEDC@?$AAa?$AAr?$AA?9?$AAt?$AAn?$AA?$AA@ 0000000180057a98     libcpmt:winapinls.obj
 0002:00004aa8       ??_C@_1M@IHMHGAON@?$AAa?$AAr?$AA?9?$AAy?$AAe?$AA?$AA@ 0000000180057aa8     libcpmt:winapinls.obj
 0002:00004ab8       ??_C@_1BG@KDCPGJGB@?$AAa?$AAz?$AA?9?$AAa?$AAz?$AA?9?$AAc?$AAy?$AAr?$AAl?$AA?$AA@ 0000000180057ab8     libcpmt:winapinls.obj
 0002:00004ad0       ??_C@_1BG@IBCKDDOE@?$AAa?$AAz?$AA?9?$AAa?$AAz?$AA?9?$AAl?$AAa?$AAt?$AAn?$AA?$AA@ 0000000180057ad0     libcpmt:winapinls.obj
 0002:00004ae8       ??_C@_1M@EGPFDCPD@?$AAb?$AAe?$AA?9?$AAb?$AAy?$AA?$AA@ 0000000180057ae8     libcpmt:winapinls.obj
 0002:00004af8       ??_C@_1M@PCMGMCGC@?$AAb?$AAg?$AA?9?$AAb?$AAg?$AA?$AA@ 0000000180057af8     libcpmt:winapinls.obj
 0002:00004b08       ??_C@_1M@BJBMFGOB@?$AAb?$AAn?$AA?9?$AAi?$AAn?$AA?$AA@ 0000000180057b08     libcpmt:winapinls.obj
 0002:00004b18       ??_C@_1BG@EAKMMACD@?$AAb?$AAs?$AA?9?$AAb?$AAa?$AA?9?$AAl?$AAa?$AAt?$AAn?$AA?$AA@ 0000000180057b18     libcpmt:winapinls.obj
 0002:00004b30       ??_C@_1M@KGADAODK@?$AAc?$AAa?$AA?9?$AAe?$AAs?$AA?$AA@ 0000000180057b30     libcpmt:winapinls.obj
 0002:00004b40       ??_C@_1M@COAJPDHI@?$AAc?$AAs?$AA?9?$AAc?$AAz?$AA?$AA@ 0000000180057b40     libcpmt:winapinls.obj
 0002:00004b50       ??_C@_1M@DHBHFONH@?$AAc?$AAy?$AA?9?$AAg?$AAb?$AA?$AA@ 0000000180057b50     libcpmt:winapinls.obj
 0002:00004b60       ??_C@_1M@IMGKELGA@?$AAd?$AAa?$AA?9?$AAd?$AAk?$AA?$AA@ 0000000180057b60     libcpmt:winapinls.obj
 0002:00004b70       ??_C@_1M@NNDGDNGA@?$AAd?$AAe?$AA?9?$AAa?$AAt?$AA?$AA@ 0000000180057b70     libcpmt:winapinls.obj
 0002:00004b80       ??_C@_1M@IKDBHEEM@?$AAd?$AAe?$AA?9?$AAc?$AAh?$AA?$AA@ 0000000180057b80     libcpmt:winapinls.obj
 0002:00004b90       ??_C@_1M@GFFOJMCJ@?$AAd?$AAe?$AA?9?$AAd?$AAe?$AA?$AA@ 0000000180057b90     libcpmt:winapinls.obj
 0002:00004ba0       ??_C@_1M@MDNLKBPM@?$AAd?$AAe?$AA?9?$AAl?$AAi?$AA?$AA@ 0000000180057ba0     libcpmt:winapinls.obj
 0002:00004bb0       ??_C@_1M@NJBEEJNL@?$AAd?$AAe?$AA?9?$AAl?$AAu?$AA?$AA@ 0000000180057bb0     libcpmt:winapinls.obj
 0002:00004bc0       ??_C@_1O@GNNELBAP@?$AAd?$AAi?$AAv?$AA?9?$AAm?$AAv?$AA?$AA@ 0000000180057bc0     libcpmt:winapinls.obj
 0002:00004bd0       ??_C@_1M@EJLEOGAE@?$AAe?$AAl?$AA?9?$AAg?$AAr?$AA?$AA@ 0000000180057bd0     libcpmt:winapinls.obj
 0002:00004be0       ??_C@_1M@GMPONJN@?$AAe?$AAn?$AA?9?$AAa?$AAu?$AA?$AA@ 0000000180057be0     libcpmt:winapinls.obj
 0002:00004bf0       ??_C@_1M@NIDIIPGF@?$AAe?$AAn?$AA?9?$AAb?$AAz?$AA?$AA@ 0000000180057bf0     libcpmt:winapinls.obj
 0002:00004c00       ??_C@_1M@JEHMIMFO@?$AAe?$AAn?$AA?9?$AAc?$AAa?$AA?$AA@ 0000000180057c00     libcpmt:winapinls.obj
 0002:00004c10       ??_C@_1M@IGMJCDLA@?$AAe?$AAn?$AA?9?$AAc?$AAb?$AA?$AA@ 0000000180057c10     libcpmt:winapinls.obj
 0002:00004c20       ??_C@_1M@BNFIGBKG@?$AAe?$AAn?$AA?9?$AAg?$AAb?$AA?$AA@ 0000000180057c20     libcpmt:winapinls.obj
 0002:00004c30       ??_C@_1M@LKIFDIGP@?$AAe?$AAn?$AA?9?$AAi?$AAe?$AA?$AA@ 0000000180057c30     libcpmt:winapinls.obj
 0002:00004c40       ??_C@_1M@PJKFGCCO@?$AAe?$AAn?$AA?9?$AAj?$AAm?$AA?$AA@ 0000000180057c40     libcpmt:winapinls.obj
 0002:00004c50       ??_C@_1M@KPPKEPBO@?$AAe?$AAn?$AA?9?$AAn?$AAz?$AA?$AA@ 0000000180057c50     libcpmt:winapinls.obj
 0002:00004c60       ??_C@_1M@GMDGLDOB@?$AAe?$AAn?$AA?9?$AAp?$AAh?$AA?$AA@ 0000000180057c60     libcpmt:winapinls.obj
 0002:00004c70       ??_C@_1M@ONGIBJNA@?$AAe?$AAn?$AA?9?$AAt?$AAt?$AA?$AA@ 0000000180057c70     libcpmt:winapinls.obj
 0002:00004c80       ??_C@_1M@LLODPCMM@?$AAe?$AAn?$AA?9?$AAu?$AAs?$AA?$AA@ 0000000180057c80     libcpmt:winapinls.obj
 0002:00004c90       ??_C@_1M@LAKFNPAN@?$AAe?$AAn?$AA?9?$AAz?$AAa?$AA?$AA@ 0000000180057c90     libcpmt:winapinls.obj
 0002:00004ca0       ??_C@_1M@MFNHNHEO@?$AAe?$AAn?$AA?9?$AAz?$AAw?$AA?$AA@ 0000000180057ca0     libcpmt:winapinls.obj
 0002:00004cb0       ??_C@_1M@EJEINPHM@?$AAe?$AAs?$AA?9?$AAa?$AAr?$AA?$AA@ 0000000180057cb0     libcpmt:winapinls.obj
 0002:00004cc0       ??_C@_1M@GNKPCCJA@?$AAe?$AAs?$AA?9?$AAb?$AAo?$AA?$AA@ 0000000180057cc0     libcpmt:winapinls.obj
 0002:00004cd0       ??_C@_1M@LEEGFONL@?$AAe?$AAs?$AA?9?$AAc?$AAl?$AA?$AA@ 0000000180057cd0     libcpmt:winapinls.obj
 0002:00004ce0       ??_C@_1M@KGPDPBDF@?$AAe?$AAs?$AA?9?$AAc?$AAo?$AA?$AA@ 0000000180057ce0     libcpmt:winapinls.obj
 0002:00004cf0       ??_C@_1M@EIAHOHH@?$AAe?$AAs?$AA?9?$AAc?$AAr?$AA?$AA@ 0000000180057cf0     libcpmt:winapinls.obj
 0002:00004d00       ??_C@_1M@LLPGMBIN@?$AAe?$AAs?$AA?9?$AAd?$AAo?$AA?$AA@ 0000000180057d00     libcpmt:winapinls.obj
 0002:00004d10       ??_C@_1M@DKHMKNJA@?$AAe?$AAs?$AA?9?$AAe?$AAc?$AA?$AA@ 0000000180057d10     libcpmt:winapinls.obj
 0002:00004d20       ??_C@_1M@GKGFPKAP@?$AAe?$AAs?$AA?9?$AAe?$AAs?$AA?$AA@ 0000000180057d20     libcpmt:winapinls.obj
 0002:00004d30       ??_C@_1M@LKHKGDLN@?$AAe?$AAs?$AA?9?$AAg?$AAt?$AA?$AA@ 0000000180057d30     libcpmt:winapinls.obj
 0002:00004d40       ??_C@_1M@HEIIGGJD@?$AAe?$AAs?$AA?9?$AAh?$AAn?$AA?$AA@ 0000000180057d40     libcpmt:winapinls.obj
 0002:00004d50       ??_C@_1M@FBDHPPGD@?$AAe?$AAs?$AA?9?$AAm?$AAx?$AA?$AA@ 0000000180057d50     libcpmt:winapinls.obj
 0002:00004d60       ??_C@_1M@DPAGLNDH@?$AAe?$AAs?$AA?9?$AAn?$AAi?$AA?$AA@ 0000000180057d60     libcpmt:winapinls.obj
 0002:00004d70       ??_C@_1M@MDGOPGDD@?$AAe?$AAs?$AA?9?$AAp?$AAa?$AA?$AA@ 0000000180057d70     libcpmt:winapinls.obj
 0002:00004d80       ??_C@_1M@EMAMGBGE@?$AAe?$AAs?$AA?9?$AAp?$AAe?$AA?$AA@ 0000000180057d80     libcpmt:winapinls.obj
 0002:00004d90       ??_C@_1M@IBMCAOEC@?$AAe?$AAs?$AA?9?$AAp?$AAr?$AA?$AA@ 0000000180057d90     libcpmt:winapinls.obj
 0002:00004da0       ??_C@_1M@FGMDIJED@?$AAe?$AAs?$AA?9?$AAp?$AAy?$AA?$AA@ 0000000180057da0     libcpmt:winapinls.obj
 0002:00004db0       ??_C@_1M@IIDEOLLL@?$AAe?$AAs?$AA?9?$AAs?$AAv?$AA?$AA@ 0000000180057db0     libcpmt:winapinls.obj
 0002:00004dc0       ??_C@_1M@GAOBIPA@?$AAe?$AAs?$AA?9?$AAu?$AAy?$AA?$AA@ 0000000180057dc0     libcpmt:winapinls.obj
 0002:00004dd0       _pDefaultRawDllMain        0000000180057dd0     LIBCMT:dll_dllmain.obj
 0002:00004dd0       _pRawDllMain               0000000180057dd0     LIBCMT:dll_dllmain.obj
 0002:00004de0       ??_7type_info@@6B@         0000000180057de0     LIBCMT:std_type_info_static.obj
 0002:00004e00       ??_7bad_array_new_length@std@@6B@ 0000000180057e00     LIBCMT:throw_bad_alloc.obj
 0002:00004e10       ??_C@_0BF@KINCDENJ@bad?5array?5new?5length?$AA@ 0000000180057e10     LIBCMT:throw_bad_alloc.obj
 0002:00004e28       _pDestructExceptionObject  0000000180057e28     libvcruntime:frame.obj
 0002:00004e38       ??_7bad_exception@std@@6B@ 0000000180057e38     libvcruntime:frame.obj
 0002:00004e48       ??_C@_0O@DPKOEFFH@bad?5exception?$AA@ 0000000180057e48     libvcruntime:frame.obj
 0002:00004f60       ??_C@_1BC@DNHGCMLG@?$AAa?$AAd?$AAv?$AAa?$AAp?$AAi?$AA3?$AA2?$AA?$AA@ 0000000180057f60     libvcruntime:winapi_downlevel.obj
 0002:00004f78       ??_C@_1DM@KHCHBNEB@?$AAa?$AAp?$AAi?$AA?9?$AAm?$AAs?$AA?9?$AAw?$AAi?$AAn?$AA?9?$AAc?$AAo?$AAr?$AAe?$AA?9?$AAf?$AAi?$AAb?$AAe?$AAr?$AAs?$AA?9?$AAl?$AA1?$AA?9?$AA1?$AA?9?$AA1?$AA?$AA@ 0000000180057f78     libvcruntime:winapi_downlevel.obj
 0002:00004fb8       ??_C@_1DK@LPPGFMPP@?$AAa?$AAp?$AAi?$AA?9?$AAm?$AAs?$AA?9?$AAw?$AAi?$AAn?$AA?9?$AAc?$AAo?$AAr?$AAe?$AA?9?$AAs?$AAy?$AAn?$AAc?$AAh?$AA?9?$AAl?$AA1?$AA?9?$AA2?$AA?9?$AA0?$AA?$AA@ 0000000180057fb8     libvcruntime:winapi_downlevel.obj
 0002:00004ff8       ??_C@_1BC@GDMECMAK@?$AAk?$AAe?$AAr?$AAn?$AAe?$AAl?$AA3?$AA2?$AA?$AA@ 0000000180057ff8     libvcruntime:winapi_downlevel.obj
 0002:00005360       ??_C@_08EHJDFFNH@__based?$CI?$AA@ 0000000180058360     libvcruntime:undname.obj
 0002:00005370       ??_C@_07KOLFKCDI@__cdecl?$AA@ 0000000180058370     libvcruntime:undname.obj
 0002:00005378       ??_C@_08GHMPAG@__pascal?$AA@ 0000000180058378     libvcruntime:undname.obj
 0002:00005388       ??_C@_09IFJBGAPI@__stdcall?$AA@ 0000000180058388     libvcruntime:undname.obj
 0002:00005398       ??_C@_0L@NPHFGOKO@__thiscall?$AA@ 0000000180058398     libvcruntime:undname.obj
 0002:000053a8       ??_C@_0L@JMKHOMEK@__fastcall?$AA@ 00000001800583a8     libvcruntime:undname.obj
 0002:000053b8       ??_C@_0N@BCKKPABJ@__vectorcall?$AA@ 00000001800583b8     libvcruntime:undname.obj
 0002:000053c8       ??_C@_09HIJEGCPM@__clrcall?$AA@ 00000001800583c8     libvcruntime:undname.obj
 0002:000053d4       ??_C@_06GHPCKEAG@__eabi?$AA@ 00000001800583d4     libvcruntime:undname.obj
 0002:000053e0       ??_C@_07JOMMBBKO@__ptr64?$AA@ 00000001800583e0     libvcruntime:undname.obj
 0002:000053e8       ??_C@_0L@PILCLIHE@__restrict?$AA@ 00000001800583e8     libvcruntime:undname.obj
 0002:000053f8       ??_C@_0M@GFIIJFMG@__unaligned?$AA@ 00000001800583f8     libvcruntime:undname.obj
 0002:00005408       ??_C@_09DHDLOLLB@restrict?$CI?$AA@ 0000000180058408     libvcruntime:undname.obj
 0002:00005414       ??_C@_04NIHEBCM@?5new?$AA@ 0000000180058414     libvcruntime:undname.obj
 0002:00005420       ??_C@_07FPCDHGMM@?5delete?$AA@ 0000000180058420     libvcruntime:undname.obj
 0002:00005428       ??_C@_01NEMOKFLO@?$DN?$AA@ 0000000180058428     libvcruntime:undname.obj
 0002:0000542c       ??_C@_02GPIOPFAK@?$DO?$DO?$AA@ 000000018005842c     libvcruntime:undname.obj
 0002:00005430       ??_C@_02FODMEDOG@?$DM?$DM?$AA@ 0000000180058430     libvcruntime:undname.obj
 0002:00005434       ??_C@_01DCLJPIOD@?$CB?$AA@ 0000000180058434     libvcruntime:undname.obj
 0002:00005438       ??_C@_02EGOFBIJA@?$DN?$DN?$AA@ 0000000180058438     libvcruntime:undname.obj
 0002:0000543c       ??_C@_02FDNJECIE@?$CB?$DN?$AA@ 000000018005843c     libvcruntime:undname.obj
 0002:00005440       ??_C@_02GPECMEKF@?$FL?$FN?$AA@ 0000000180058440     libvcruntime:undname.obj
 0002:00005448       ??_C@_08LHJFAFGD@operator?$AA@ 0000000180058448     libvcruntime:undname.obj
 0002:00005454       ??_C@_02HBOOOICD@?9?$DO?$AA@ 0000000180058454     libvcruntime:undname.obj
 0002:00005458       ??_C@_02ECNGHCIF@?$CL?$CL?$AA@ 0000000180058458     libvcruntime:undname.obj
 0002:0000545c       ??_C@_02BAABKJLB@?9?9?$AA@ 000000018005845c     libvcruntime:undname.obj
 0002:00005460       ??_C@_01MIFGBAGJ@?$CL?$AA@ 0000000180058460     libvcruntime:undname.obj
 0002:00005464       ??_C@_01HNPIGOCE@?$CG?$AA@ 0000000180058464     libvcruntime:undname.obj
 0002:00005468       ??_C@_03MNHNFDLC@?9?$DO?$CK?$AA@ 0000000180058468     libvcruntime:undname.obj
 0002:0000546c       ??_C@_01KMDKNFGN@?1?$AA@   000000018005846c     libvcruntime:undname.obj
 0002:00005470       ??_C@_01FGNFDNOH@?$CF?$AA@ 0000000180058470     libvcruntime:undname.obj
 0002:00005474       ??_C@_01MNNFJEPP@?$DM?$AA@ 0000000180058474     libvcruntime:undname.obj
 0002:00005478       ??_C@_02EHCHHCKH@?$DM?$DN?$AA@ 0000000180058478     libvcruntime:undname.obj
 0002:0000547c       ??_C@_01PPODPGHN@?$DO?$AA@ 000000018005847c     libvcruntime:undname.obj
 0002:00005480       ??_C@_02EEKDKGMJ@?$DO?$DN?$AA@ 0000000180058480     libvcruntime:undname.obj
 0002:00005484       ??_C@_01IHBHIGKO@?0?$AA@   0000000180058484     libvcruntime:undname.obj
 0002:00005488       ??_C@_02HCKGKOFO@?$CI?$CJ?$AA@ 0000000180058488     libvcruntime:undname.obj
 0002:0000548c       ??_C@_01PJKLJHI@?$HO?$AA@  000000018005848c     libvcruntime:undname.obj
 0002:00005490       ??_C@_01JKBOJNNK@?$FO?$AA@ 0000000180058490     libvcruntime:undname.obj
 0002:00005494       ??_C@_01DNKMNLPK@?$HM?$AA@ 0000000180058494     libvcruntime:undname.obj
 0002:00005498       ??_C@_02PPKAJPJL@?$CG?$CG?$AA@ 0000000180058498     libvcruntime:undname.obj
 0002:0000549c       ??_C@_02NONPIBCD@?$HM?$HM?$AA@ 000000018005849c     libvcruntime:undname.obj
 0002:000054a0       ??_C@_02FPIMKNGF@?$CK?$DN?$AA@ 00000001800584a0     libvcruntime:undname.obj
 0002:000054a4       ??_C@_02FOEOMHFC@?$CL?$DN?$AA@ 00000001800584a4     libvcruntime:undname.obj
 0002:000054a8       ??_C@_02FKMDLLOA@?9?$DN?$AA@ 00000001800584a8     libvcruntime:undname.obj
 0002:000054ac       ??_C@_02FJEHGPIO@?1?$DN?$AA@ 00000001800584ac     libvcruntime:undname.obj
 0002:000054b0       ??_C@_02FENAOKFI@?$CF?$DN?$AA@ 00000001800584b0     libvcruntime:undname.obj
 0002:000054b4       ??_C@_03IKFCCPFF@?$DO?$DO?$DN?$AA@ 00000001800584b4     libvcruntime:undname.obj
 0002:000054b8       ??_C@_03CDNPDDLA@?$DM?$DM?$DN?$AA@ 00000001800584b8     libvcruntime:undname.obj
 0002:000054bc       ??_C@_02FGJGFEAB@?$CG?$DN?$AA@ 00000001800584bc     libvcruntime:undname.obj
 0002:000054c0       ??_C@_02DHLNPPGH@?$HM?$DN?$AA@ 00000001800584c0     libvcruntime:undname.obj
 0002:000054c4       ??_C@_02MHEGNOJ@?$FO?$DN?$AA@ 00000001800584c4     libvcruntime:undname.obj
 0002:000054c8       ??_C@_09IFPLHPGF@?$GAvftable?8?$AA@ 00000001800584c8     libvcruntime:undname.obj
 0002:000054d8       ??_C@_09BLBHBJP@?$GAvbtable?8?$AA@ 00000001800584d8     libvcruntime:undname.obj
 0002:000054e8       ??_C@_07FEEIOKP@?$GAvcall?8?$AA@ 00000001800584e8     libvcruntime:undname.obj
 0002:000054f0       ??_C@_08LLFFHHDJ@?$GAtypeof?8?$AA@ 00000001800584f0     libvcruntime:undname.obj
 0002:00005500       ??_C@_0BF@KDPPACIK@?$GAlocal?5static?5guard?8?$AA@ 0000000180058500     libvcruntime:undname.obj
 0002:00005518       ??_C@_08OBABFOLI@?$GAstring?8?$AA@ 0000000180058518     libvcruntime:undname.obj
 0002:00005528       ??_C@_0BD@JDLKDPAB@?$GAvbase?5destructor?8?$AA@ 0000000180058528     libvcruntime:undname.obj
 0002:00005540       ??_C@_0BN@DEGPLNFK@?$GAvector?5deleting?5destructor?8?$AA@ 0000000180058540     libvcruntime:undname.obj
 0002:00005560       ??_C@_0BO@OBMKPJIG@?$GAdefault?5constructor?5closure?8?$AA@ 0000000180058560     libvcruntime:undname.obj
 0002:00005580       ??_C@_0BN@IMDCHIKM@?$GAscalar?5deleting?5destructor?8?$AA@ 0000000180058580     libvcruntime:undname.obj
 0002:000055a0       ??_C@_0BO@PFGOCPJJ@?$GAvector?5constructor?5iterator?8?$AA@ 00000001800585a0     libvcruntime:undname.obj
 0002:000055c0       ??_C@_0BN@LFPFMEDL@?$GAvector?5destructor?5iterator?8?$AA@ 00000001800585c0     libvcruntime:undname.obj
 0002:000055e0       ??_C@_0CE@IKBNEHA@?$GAvector?5vbase?5constructor?5iterat@ 00000001800585e0     libvcruntime:undname.obj
 0002:00005608       ??_C@_0BL@NILFHHPC@?$GAvirtual?5displacement?5map?8?$AA@ 0000000180058608     libvcruntime:undname.obj
 0002:00005628       ??_C@_0CB@JONCMFFK@?$GAeh?5vector?5constructor?5iterator?8@ 0000000180058628     libvcruntime:undname.obj
 0002:00005650       ??_C@_0CA@GCEOPDGL@?$GAeh?5vector?5destructor?5iterator?8?$AA@ 0000000180058650     libvcruntime:undname.obj
 0002:00005670       ??_C@_0CH@OOJPLCPH@?$GAeh?5vector?5vbase?5constructor?5ite@ 0000000180058670     libvcruntime:undname.obj
 0002:00005698       ??_C@_0BL@LLKPOHJI@?$GAcopy?5constructor?5closure?8?$AA@ 0000000180058698     libvcruntime:undname.obj
 0002:000056b8       ??_C@_0BA@KBCDOMBN@?$GAudt?5returning?8?$AA@ 00000001800586b8     libvcruntime:undname.obj
 0002:000056c8       ??_C@_03KLGMFNMG@?$GAEH?$AA@ 00000001800586c8     libvcruntime:undname.obj
 0002:000056cc       ??_C@_05KHLCHHI@?$GARTTI?$AA@ 00000001800586cc     libvcruntime:undname.obj
 0002:000056d8       ??_C@_0BA@KKLDJDLB@?$GAlocal?5vftable?8?$AA@ 00000001800586d8     libvcruntime:undname.obj
 0002:000056e8       ??_C@_0CE@IIHCMGGL@?$GAlocal?5vftable?5constructor?5closu@ 00000001800586e8     libvcruntime:undname.obj
 0002:0000570c       ??_C@_06FHBGPFGH@?5new?$FL?$FN?$AA@ 000000018005870c     libvcruntime:undname.obj
 0002:00005718       ??_C@_09LBNFPBCA@?5delete?$FL?$FN?$AA@ 0000000180058718     libvcruntime:undname.obj
 0002:00005728       ??_C@_0P@HJKNJFNN@?$GAomni?5callsig?8?$AA@ 0000000180058728     libvcruntime:undname.obj
 0002:00005738       ??_C@_0BL@CNOONJFP@?$GAplacement?5delete?5closure?8?$AA@ 0000000180058738     libvcruntime:undname.obj
 0002:00005758       ??_C@_0BN@CKNJLHMB@?$GAplacement?5delete?$FL?$FN?5closure?8?$AA@ 0000000180058758     libvcruntime:undname.obj
 0002:00005778       ??_C@_0CG@CFDHKGGD@?$GAmanaged?5vector?5constructor?5iter@ 0000000180058778     libvcruntime:undname.obj
 0002:000057a0       ??_C@_0CF@IMGKMJNO@?$GAmanaged?5vector?5destructor?5itera@ 00000001800587a0     libvcruntime:undname.obj
 0002:000057c8       ??_C@_0CG@HLDDJMAG@?$GAeh?5vector?5copy?5constructor?5iter@ 00000001800587c8     libvcruntime:undname.obj
 0002:000057f0       ??_C@_0CM@FCBBDIGB@?$GAeh?5vector?5vbase?5copy?5constructo@ 00000001800587f0     libvcruntime:undname.obj
 0002:00005820       ??_C@_0BL@CLIPGLGB@?$GAdynamic?5initializer?5for?5?8?$AA@ 0000000180058820     libvcruntime:undname.obj
 0002:00005840       ??_C@_0CB@PDBIFEP@?$GAdynamic?5atexit?5destructor?5for?5?8@ 0000000180058840     libvcruntime:undname.obj
 0002:00005868       ??_C@_0CD@CGAJBKEJ@?$GAvector?5copy?5constructor?5iterato@ 0000000180058868     libvcruntime:undname.obj
 0002:00005890       ??_C@_0CJ@GJELGAMM@?$GAvector?5vbase?5copy?5constructor?5i@ 0000000180058890     libvcruntime:undname.obj
 0002:000058c0       ??_C@_0CL@FGIJHLCE@?$GAmanaged?5vector?5copy?5constructor@ 00000001800588c0     libvcruntime:undname.obj
 0002:000058f0       ??_C@_0BM@PMGGMLDN@?$GAlocal?5static?5thread?5guard?8?$AA@ 00000001800588f0     libvcruntime:undname.obj
 0002:00005910       ??_C@_0N@BDNMDMOL@operator?5?$CC?$CC?5?$AA@ 0000000180058910     libvcruntime:undname.obj
 0002:00005920       ??_C@_0BC@DAFEJGAK@?5Type?5Descriptor?8?$AA@ 0000000180058920     libvcruntime:undname.obj
 0002:00005938       ??_C@_0BM@LDKODKLH@?5Base?5Class?5Descriptor?5at?5?$CI?$AA@ 0000000180058938     libvcruntime:undname.obj
 0002:00005958       ??_C@_0BD@LGICGFMM@?5Base?5Class?5Array?8?$AA@ 0000000180058958     libvcruntime:undname.obj
 0002:00005970       ??_C@_0BN@MECKDCOJ@?5Class?5Hierarchy?5Descriptor?8?$AA@ 0000000180058970     libvcruntime:undname.obj
 0002:00005990       ??_C@_0BK@CFCOFLF@?5Complete?5Object?5Locator?8?$AA@ 0000000180058990     libvcruntime:undname.obj
 0002:000059b0       standard_lookup_table      00000001800589b0     libucrt:output.obj
 0002:00005a10       format_validation_lookup_table 0000000180058a10     libucrt:output.obj
 0002:00005a6c       ??_C@_06OJHGLDPL@?$CInull?$CJ?$AA@ 0000000180058a6c     libucrt:output.obj
 0002:00005a78       ??_C@_1O@CEDCILHN@?$AA?$CI?$AAn?$AAu?$AAl?$AAl?$AA?$CJ?$AA?$AA@ 0000000180058a78     libucrt:output.obj
 0002:00005a88       __real@0000000000000000    0000000180058a88     libucrt:frexp.obj
 0002:00005a90       __real@3ff0000000000000    0000000180058a90     libucrt:frexp.obj
 0002:00005a98       __real@8000000000000000    0000000180058a98     libucrt:frexp.obj
 0002:00005aa0       ??_C@_1EK@MBDPDCGA@?$AAM?$AAi?$AAc?$AAr?$AAo?$AAs?$AAo?$AAf?$AAt?$AA?5?$AAV?$AAi?$AAs?$AAu?$AAa?$AAl?$AA?5?$AAC?$AA?$CL?$AA?$CL?$AA?5?$AAR?$AAu?$AAn?$AAt?$AAi?$AAm?$AAe?$AA?5?$AAL?$AAi?$AAb@ 0000000180058aa0     libucrt:assert.obj
 0002:00005af0       ??_C@_1FE@LHBLIKM@?$AAA?$AAs?$AAs?$AAe?$AAr?$AAt?$AAi?$AAo?$AAn?$AA?5?$AAf?$AAa?$AAi?$AAl?$AAe?$AAd?$AA?3?$AA?5?$AA?$CF?$AAT?$AAs?$AA?0?$AA?5?$AAf?$AAi?$AAl?$AAe?$AA?5?$AA?$CF?$AAT?$AAs?$AA?0@ 0000000180058af0     libucrt:assert.obj
 0002:00005b48       ??_C@_1CE@OJBNHDMO@?$AAA?$AAs?$AAs?$AAe?$AAr?$AAt?$AAi?$AAo?$AAn?$AA?5?$AAf?$AAa?$AAi?$AAl?$AAe?$AAd?$AA?$CB?$AA?$AA@ 0000000180058b48     libucrt:assert.obj
 0002:00005b70       ??_C@_1BE@PHKBBGE@?$AAP?$AAr?$AAo?$AAg?$AAr?$AAa?$AAm?$AA?3?$AA?5?$AA?$AA@ 0000000180058b70     libucrt:assert.obj
 0002:00005b88       ??_C@_1O@HEMHKNDC@?$AAF?$AAi?$AAl?$AAe?$AA?3?$AA?5?$AA?$AA@ 0000000180058b88     libucrt:assert.obj
 0002:00005b98       ??_C@_1O@KCAFKHJE@?$AAL?$AAi?$AAn?$AAe?$AA?3?$AA?5?$AA?$AA@ 0000000180058b98     libucrt:assert.obj
 0002:00005ba8       ??_C@_1BK@PEDCIPMA@?$AAE?$AAx?$AAp?$AAr?$AAe?$AAs?$AAs?$AAi?$AAo?$AAn?$AA?3?$AA?5?$AA?$AA@ 0000000180058ba8     libucrt:assert.obj
 0002:00005bd0       ??_C@_1OA@EGMLFBHJ@?$AAF?$AAo?$AAr?$AA?5?$AAi?$AAn?$AAf?$AAo?$AAr?$AAm?$AAa?$AAt?$AAi?$AAo?$AAn?$AA?5?$AAo?$AAn?$AA?5?$AAh?$AAo?$AAw?$AA?5?$AAy?$AAo?$AAu?$AAr?$AA?5?$AAp?$AAr?$AAo?$AAg@ 0000000180058bd0     libucrt:assert.obj
 0002:00005cb0       ??_C@_1HK@POCJMFGK@?$AA?$CI?$AAP?$AAr?$AAe?$AAs?$AAs?$AA?5?$AAR?$AAe?$AAt?$AAr?$AAy?$AA?5?$AAt?$AAo?$AA?5?$AAd?$AAe?$AAb?$AAu?$AAg?$AA?5?$AAt?$AAh?$AAe?$AA?5?$AAa?$AAp?$AAp?$AAl?$AAi?$AAc@ 0000000180058cb0     libucrt:assert.obj
 0002:00005d30       ??_C@_17LGKOMLJ@?$AA?4?$AA?4?$AA?4?$AA?$AA@ 0000000180058d30     libucrt:assert.obj
 0002:00005d38       ??_C@_13LBAGMAIH@?$AA?6?$AA?$AA@ 0000000180058d38     libucrt:assert.obj
 0002:00005d3c       ??_C@_15IABLJNFO@?$AA?6?$AA?6?$AA?$AA@ 0000000180058d3c     libucrt:assert.obj
 0002:00005d48       ??_C@_1CO@EAEJAADC@?$AA?$DM?$AAp?$AAr?$AAo?$AAg?$AAr?$AAa?$AAm?$AA?5?$AAn?$AAa?$AAm?$AAe?$AA?5?$AAu?$AAn?$AAk?$AAn?$AAo?$AAw?$AAn?$AA?$DO?$AA?$AA@ 0000000180058d48     libucrt:assert.obj
 0002:00005d80       __newctype                 0000000180058d80     libucrt:ctype.obj
 0002:00006080       __newclmap                 0000000180059080     libucrt:ctype.obj
 0002:00006200       __newcumap                 0000000180059200     libucrt:ctype.obj
 0002:00006380       _wctype                    0000000180059380     libucrt:ctype.obj
 0002:00006700       ?large_power_data@?1??multiply_by_power_of_ten@__crt_strtox@@YA_NAEAUbig_integer@2@I@Z@4QBIB 0000000180059700     libucrt:strtod.obj
 0002:00007010       ?large_power_indices@?1??multiply_by_power_of_ten@__crt_strtox@@YA_NAEAUbig_integer@2@I@Z@4QBUunpack_index@?1??12@YA_N0I@Z@B 000000018005a010     libucrt:strtod.obj
 0002:000070a8       ?small_powers_of_ten@?6??multiply_by_power_of_ten@__crt_strtox@@YA_NAEAUbig_integer@2@I@Z@4QBIB 000000018005a0a8     libucrt:strtod.obj
 0002:00008d78       ??_C@_1M@PBPMMENC@?$AAa?$AAm?$AA?1?$AAp?$AAm?$AA?$AA@ 000000018005bd78     libucrt:wcsftime.obj
 0002:00008d88       ??_C@_17BLFJJHMM@?$AAa?$AA?1?$AAp?$AA?$AA@ 000000018005bd88     libucrt:wcsftime.obj
 0002:00008d90       ??_C@_13HOIJIPNN@?$AA?5?$AA?$AA@ 000000018005bd90     libucrt:wcsftime.obj
 0002:00008d94       ??_C@_13CGOKJPIL@?$AA?1?$AA?$AA@ 000000018005bd94     libucrt:wcsftime.obj
 0002:00008d98       ??_C@_13EBCNDICG@?$AA?3?$AA?$AA@ 000000018005bd98     libucrt:wcsftime.obj
 0002:00008d9c       ??_C@_13KDLDGPGJ@?$AA?7?$AA?$AA@ 000000018005bd9c     libucrt:wcsftime.obj
 0002:00008da0       ??_C@_13KJIIAINM@?$AA?$CL?$AA?$AA@ 000000018005bda0     libucrt:wcsftime.obj
 0002:00008da4       ??_C@_13EJFHHPOP@?$AA?$CF?$AA?$AA@ 000000018005bda4     libucrt:wcsftime.obj
 0002:00008db0       __acrt_exception_action_table 000000018005bdb0     libucrt:exception_filter.obj
 0002:00008e70       __acrt_signal_action_table_count 000000018005be70     libucrt:exception_filter.obj
 0002:00008e78       __acrt_signal_action_first_fpe_index 000000018005be78     libucrt:exception_filter.obj
 0002:00008e80       __acrt_signal_action_fpe_count 000000018005be80     libucrt:exception_filter.obj
 0002:00008e88       ??_C@_1BI@BGOHAHKC@?$AAm?$AAs?$AAc?$AAo?$AAr?$AAe?$AAe?$AA?4?$AAd?$AAl?$AAl?$AA?$AA@ 000000018005be88     libucrt:exit.obj
 0002:00008ea0       ??_C@_0P@MIGLKIOC@CorExitProcess?$AA@ 000000018005bea0     libucrt:exit.obj
 0002:00008fa0       ??_C@_02CLFPBFFP@TZ?$AA@   000000018005bfa0     libucrt:tzset.obj
 0002:00008fa8       _days                      000000018005bfa8     libucrt:days.obj
 0002:00008fe0       _lpdays                    000000018005bfe0     libucrt:days.obj
 0002:00009014       ??_C@_03OEIAHPBN@INF?$AA@  000000018005c014     libucrt:cvt.obj
 0002:00009018       ??_C@_03OJHLLCGB@inf?$AA@  000000018005c018     libucrt:cvt.obj
 0002:0000901c       ??_C@_03LKNCIKJB@NAN?$AA@  000000018005c01c     libucrt:cvt.obj
 0002:00009020       ??_C@_03LHCJEHON@nan?$AA@  000000018005c020     libucrt:cvt.obj
 0002:00009028       ??_C@_09OFJJIMPC@NAN?$CISNAN?$CJ?$AA@ 000000018005c028     libucrt:cvt.obj
 0002:00009038       ??_C@_09IPFBKMDL@nan?$CIsnan?$CJ?$AA@ 000000018005c038     libucrt:cvt.obj
 0002:00009048       ??_C@_08IKHNHAJ@NAN?$CIIND?$CJ?$AA@ 000000018005c048     libucrt:cvt.obj
 0002:00009058       ??_C@_08OFCDMILK@nan?$CIind?$CJ?$AA@ 000000018005c058     libucrt:cvt.obj
 0002:00009064       ??_C@_05KLBDPFGC@e?$CL000?$AA@ 000000018005c064     libucrt:cvt.obj
 0002:00009070       __lc_category              000000018005c070     libucrt:wsetlocale.obj
 0002:00009100       ??_C@_1O@GIFLHMA@?$AAL?$AAC?$AA_?$AAA?$AAL?$AAL?$AA?$AA@ 000000018005c100     libucrt:wsetlocale.obj
 0002:00009110       ??_C@_1BG@PPOMIBNJ@?$AAL?$AAC?$AA_?$AAC?$AAO?$AAL?$AAL?$AAA?$AAT?$AAE?$AA?$AA@ 000000018005c110     libucrt:wsetlocale.obj
 0002:00009128       ??_C@_1BC@FFJGAPJM@?$AAL?$AAC?$AA_?$AAC?$AAT?$AAY?$AAP?$AAE?$AA?$AA@ 000000018005c128     libucrt:wsetlocale.obj
 0002:00009140       ??_C@_1BI@PCKFNJFB@?$AAL?$AAC?$AA_?$AAM?$AAO?$AAN?$AAE?$AAT?$AAA?$AAR?$AAY?$AA?$AA@ 000000018005c140     libucrt:wsetlocale.obj
 0002:00009158       ??_C@_1BG@ENIEDKID@?$AAL?$AAC?$AA_?$AAN?$AAU?$AAM?$AAE?$AAR?$AAI?$AAC?$AA?$AA@ 000000018005c158     libucrt:wsetlocale.obj
 0002:00009170       ??_C@_1BA@HAAOMIIG@?$AAL?$AAC?$AA_?$AAT?$AAI?$AAM?$AAE?$AA?$AA@ 000000018005c170     libucrt:wsetlocale.obj
 0002:00009200       ??_C@_15NBPDDFIP@?$AA?$DN?$AA?$DL?$AA?$AA@ 000000018005c200     libucrt:wsetlocale.obj
 0002:00009208       ??_C@_13PJJBFPED@?$AA?$DL?$AA?$AA@ 000000018005c208     libucrt:wsetlocale.obj
 0002:0000920c       ??_C@_13NMPKAAJP@?$AA?$DN?$AA?$AA@ 000000018005c20c     libucrt:wsetlocale.obj
 0002:00009210       ??_C@_13FHBKNHDA@?$AAC?$AA?$AA@ 000000018005c210     libucrt:wsetlocale.obj
 0002:00009218       ??_C@_17MBJJLFDM@?$AA_?$AA?4?$AA?0?$AA?$AA@ 000000018005c218     libucrt:wsetlocale.obj
 0002:00009220       ??_C@_13ENNFDPBH@?$AA_?$AA?$AA@ 000000018005c220     libucrt:wsetlocale.obj
 0002:00009224       ??_C@_13JOFGPIOO@?$AA?4?$AA?$AA@ 000000018005c224     libucrt:wsetlocale.obj
 0002:00009230       __lc_time_c                000000018005c230     libucrt:nlsdata.obj
 0002:000094f0       ??_C@_03KOEHGMDN@Sun?$AA@  000000018005c4f0     libucrt:nlsdata.obj
 0002:000094f4       ??_C@_03PDAGKDH@Mon?$AA@   000000018005c4f4     libucrt:nlsdata.obj
 0002:000094f8       ??_C@_03NAGEINEP@Tue?$AA@  000000018005c4f8     libucrt:nlsdata.obj
 0002:000094fc       ??_C@_03MHOMLAJA@Wed?$AA@  000000018005c4fc     libucrt:nlsdata.obj
 0002:00009500       ??_C@_03IOFIKPDN@Thu?$AA@  000000018005c500     libucrt:nlsdata.obj
 0002:00009504       ??_C@_03IDIOELNC@Fri?$AA@  000000018005c504     libucrt:nlsdata.obj
 0002:00009508       ??_C@_03FEFJNEK@Sat?$AA@   000000018005c508     libucrt:nlsdata.obj
 0002:0000950c       ??_C@_06OOPIFAJ@Sunday?$AA@ 000000018005c50c     libucrt:nlsdata.obj
 0002:00009514       ??_C@_06JLEDEDGH@Monday?$AA@ 000000018005c514     libucrt:nlsdata.obj
 0002:00009520       ??_C@_07BAAGCFCM@Tuesday?$AA@ 000000018005c520     libucrt:nlsdata.obj
 0002:00009528       ??_C@_09DLIGFAKA@Wednesday?$AA@ 000000018005c528     libucrt:nlsdata.obj
 0002:00009538       ??_C@_08HACCIKIA@Thursday?$AA@ 000000018005c538     libucrt:nlsdata.obj
 0002:00009544       ??_C@_06JECMNKMI@Friday?$AA@ 000000018005c544     libucrt:nlsdata.obj
 0002:00009550       ??_C@_08INBOOONO@Saturday?$AA@ 000000018005c550     libucrt:nlsdata.obj
 0002:0000955c       ??_C@_03JIHJHPIE@Jan?$AA@  000000018005c55c     libucrt:nlsdata.obj
 0002:00009560       ??_C@_03HJBDCHOM@Feb?$AA@  000000018005c560     libucrt:nlsdata.obj
 0002:00009564       ??_C@_03ODNJBKGA@Mar?$AA@  000000018005c564     libucrt:nlsdata.obj
 0002:00009568       ??_C@_03LEOLGMJP@Apr?$AA@  000000018005c568     libucrt:nlsdata.obj
 0002:0000956c       ??_C@_03CNMDKL@May?$AA@    000000018005c56c     libucrt:nlsdata.obj
 0002:00009570       ??_C@_03IDFGHECI@Jun?$AA@  000000018005c570     libucrt:nlsdata.obj
 0002:00009574       ??_C@_03LBGABGKK@Jul?$AA@  000000018005c574     libucrt:nlsdata.obj
 0002:00009578       ??_C@_03IFJFEIGA@Aug?$AA@  000000018005c578     libucrt:nlsdata.obj
 0002:0000957c       ??_C@_03GGCAPAJC@Sep?$AA@  000000018005c57c     libucrt:nlsdata.obj
 0002:00009580       ??_C@_03BMAOKBAD@Oct?$AA@  000000018005c580     libucrt:nlsdata.obj
 0002:00009584       ??_C@_03JPJOFNIA@Nov?$AA@  000000018005c584     libucrt:nlsdata.obj
 0002:00009588       ??_C@_03MKABNOCG@Dec?$AA@  000000018005c588     libucrt:nlsdata.obj
 0002:00009590       ??_C@_07CGJPFGJA@January?$AA@ 000000018005c590     libucrt:nlsdata.obj
 0002:00009598       ??_C@_08GNJGEPFN@February?$AA@ 000000018005c598     libucrt:nlsdata.obj
 0002:000095a4       ??_C@_05HPCKOFNC@March?$AA@ 000000018005c5a4     libucrt:nlsdata.obj
 0002:000095ac       ??_C@_05DMJDNLEJ@April?$AA@ 000000018005c5ac     libucrt:nlsdata.obj
 0002:000095b4       ??_C@_04CNLMGBGM@June?$AA@ 000000018005c5b4     libucrt:nlsdata.obj
 0002:000095bc       ??_C@_04MIEPOIFP@July?$AA@ 000000018005c5bc     libucrt:nlsdata.obj
 0002:000095c4       ??_C@_06LBBHFDDG@August?$AA@ 000000018005c5c4     libucrt:nlsdata.obj
 0002:000095d0       ??_C@_09BHHEALKD@September?$AA@ 000000018005c5d0     libucrt:nlsdata.obj
 0002:000095e0       ??_C@_07JJNFCEND@October?$AA@ 000000018005c5e0     libucrt:nlsdata.obj
 0002:000095e8       ??_C@_08HCHEGEOA@November?$AA@ 000000018005c5e8     libucrt:nlsdata.obj
 0002:000095f8       ??_C@_08EDHMEBNP@December?$AA@ 000000018005c5f8     libucrt:nlsdata.obj
 0002:00009604       ??_C@_02DEDBPAFC@AM?$AA@   000000018005c604     libucrt:nlsdata.obj
 0002:00009608       ??_C@_02CJNFDJBF@PM?$AA@   000000018005c608     libucrt:nlsdata.obj
 0002:00009610       ??_C@_08BPBNCDIB@MM?1dd?1yy?$AA@ 000000018005c610     libucrt:nlsdata.obj
 0002:00009620       ??_C@_0BE@CKGJFCPC@dddd?0?5MMMM?5dd?0?5yyyy?$AA@ 000000018005c620     libucrt:nlsdata.obj
 0002:00009638       ??_C@_08JCCMCCIL@HH?3mm?3ss?$AA@ 000000018005c638     libucrt:nlsdata.obj
 0002:00009648       ??_C@_17MBGCMIPB@?$AAS?$AAu?$AAn?$AA?$AA@ 000000018005c648     libucrt:nlsdata.obj
 0002:00009650       ??_C@_17KBOMKBF@?$AAM?$AAo?$AAn?$AA?$AA@ 000000018005c650     libucrt:nlsdata.obj
 0002:00009658       ??_C@_17BMKGEGOJ@?$AAT?$AAu?$AAe?$AA?$AA@ 000000018005c658     libucrt:nlsdata.obj
 0002:00009660       ??_C@_17CJEDCEPE@?$AAW?$AAe?$AAd?$AA?$AA@ 000000018005c660     libucrt:nlsdata.obj
 0002:00009668       ??_C@_17PDPHAADD@?$AAT?$AAh?$AAu?$AA?$AA@ 000000018005c668     libucrt:nlsdata.obj
 0002:00009670       ??_C@_17HFOLPPLP@?$AAF?$AAr?$AAi?$AA?$AA@ 000000018005c670     libucrt:nlsdata.obj
 0002:00009678       ??_C@_17GGIBDPIH@?$AAS?$AAa?$AAt?$AA?$AA@ 000000018005c678     libucrt:nlsdata.obj
 0002:00009680       ??_C@_1O@IHNHDHPB@?$AAS?$AAu?$AAn?$AAd?$AAa?$AAy?$AA?$AA@ 000000018005c680     libucrt:nlsdata.obj
 0002:00009690       ??_C@_1O@MMNBFLIA@?$AAM?$AAo?$AAn?$AAd?$AAa?$AAy?$AA?$AA@ 000000018005c690     libucrt:nlsdata.obj
 0002:000096a0       ??_C@_1BA@ENFBFFEK@?$AAT?$AAu?$AAe?$AAs?$AAd?$AAa?$AAy?$AA?$AA@ 000000018005c6a0     libucrt:nlsdata.obj
 0002:000096b0       ??_C@_1BE@EBOGMDOH@?$AAW?$AAe?$AAd?$AAn?$AAe?$AAs?$AAd?$AAa?$AAy?$AA?$AA@ 000000018005c6b0     libucrt:nlsdata.obj
 0002:000096c8       ??_C@_1BC@HHMNLIHE@?$AAT?$AAh?$AAu?$AAr?$AAs?$AAd?$AAa?$AAy?$AA?$AA@ 000000018005c6c8     libucrt:nlsdata.obj
 0002:000096e0       ??_C@_1O@PDICJHAG@?$AAF?$AAr?$AAi?$AAd?$AAa?$AAy?$AA?$AA@ 000000018005c6e0     libucrt:nlsdata.obj
 0002:000096f0       ??_C@_1BC@ENMNNPAJ@?$AAS?$AAa?$AAt?$AAu?$AAr?$AAd?$AAa?$AAy?$AA?$AA@ 000000018005c6f0     libucrt:nlsdata.obj
 0002:00009708       ??_C@_17DKNBKCHM@?$AAJ?$AAa?$AAn?$AA?$AA@ 000000018005c708     libucrt:nlsdata.obj
 0002:00009710       ??_C@_17LMDJEKJN@?$AAF?$AAe?$AAb?$AA?$AA@ 000000018005c710     libucrt:nlsdata.obj
 0002:00009718       ??_C@_17CKNLEDEC@?$AAM?$AAa?$AAr?$AA?$AA@ 000000018005c718     libucrt:nlsdata.obj
 0002:00009720       ??_C@_17LFPOIHDD@?$AAA?$AAp?$AAr?$AA?$AA@ 000000018005c720     libucrt:nlsdata.obj
 0002:00009728       ??_C@_17PNNKMEED@?$AAM?$AAa?$AAy?$AA?$AA@ 000000018005c728     libucrt:nlsdata.obj
 0002:00009730       ??_C@_17KCJGOCPB@?$AAJ?$AAu?$AAn?$AA?$AA@ 000000018005c730     libucrt:nlsdata.obj
 0002:00009738       ??_C@_17IJPCKHK@?$AAJ?$AAu?$AAl?$AA?$AA@ 000000018005c738     libucrt:nlsdata.obj
 0002:00009740       ??_C@_17ICPELBCN@?$AAA?$AAu?$AAg?$AA?$AA@ 000000018005c740     libucrt:nlsdata.obj
 0002:00009748       ??_C@_17HCHCOKMG@?$AAS?$AAe?$AAp?$AA?$AA@ 000000018005c748     libucrt:nlsdata.obj
 0002:00009750       ??_C@_17FNLKOI@?$AAO?$AAc?$AAt?$AA?$AA@ 000000018005c750     libucrt:nlsdata.obj
 0002:00009758       ??_C@_17BBDMLCIG@?$AAN?$AAo?$AAv?$AA?$AA@ 000000018005c758     libucrt:nlsdata.obj
 0002:00009760       ??_C@_17EGKACKIF@?$AAD?$AAe?$AAc?$AA?$AA@ 000000018005c760     libucrt:nlsdata.obj
 0002:00009768       ??_C@_1BA@EFMEIEBA@?$AAJ?$AAa?$AAn?$AAu?$AAa?$AAr?$AAy?$AA?$AA@ 000000018005c768     libucrt:nlsdata.obj
 0002:00009778       ??_C@_1BC@JGDDFFAM@?$AAF?$AAe?$AAb?$AAr?$AAu?$AAa?$AAr?$AAy?$AA?$AA@ 000000018005c778     libucrt:nlsdata.obj
 0002:00009790       ??_C@_1M@IKEENEDF@?$AAM?$AAa?$AAr?$AAc?$AAh?$AA?$AA@ 000000018005c790     libucrt:nlsdata.obj
 0002:000097a0       ??_C@_1M@GJNLMHFD@?$AAA?$AAp?$AAr?$AAi?$AAl?$AA?$AA@ 000000018005c7a0     libucrt:nlsdata.obj
 0002:000097b0       ??_C@_19EPFLPGAP@?$AAJ?$AAu?$AAn?$AAe?$AA?$AA@ 000000018005c7b0     libucrt:nlsdata.obj
 0002:000097c0       ??_C@_19BIFMLPCD@?$AAJ?$AAu?$AAl?$AAy?$AA?$AA@ 000000018005c7c0     libucrt:nlsdata.obj
 0002:000097d0       ??_C@_1O@PAHLKOAC@?$AAA?$AAu?$AAg?$AAu?$AAs?$AAt?$AA?$AA@ 000000018005c7d0     libucrt:nlsdata.obj
 0002:000097e0       ??_C@_1BE@DKAAMBJL@?$AAS?$AAe?$AAp?$AAt?$AAe?$AAm?$AAb?$AAe?$AAr?$AA?$AA@ 000000018005c7e0     libucrt:nlsdata.obj
 0002:000097f8       ??_C@_1BA@EPANDLNG@?$AAO?$AAc?$AAt?$AAo?$AAb?$AAe?$AAr?$AA?$AA@ 000000018005c7f8     libucrt:nlsdata.obj
 0002:00009808       ??_C@_1BC@BGLIFPF@?$AAN?$AAo?$AAv?$AAe?$AAm?$AAb?$AAe?$AAr?$AA?$AA@ 000000018005c808     libucrt:nlsdata.obj
 0002:00009820       ??_C@_1BC@FEMKIFH@?$AAD?$AAe?$AAc?$AAe?$AAm?$AAb?$AAe?$AAr?$AA?$AA@ 000000018005c820     libucrt:nlsdata.obj
 0002:00009834       ??_C@_15ODEHAHHF@?$AAA?$AAM?$AA?$AA@ 000000018005c834     libucrt:nlsdata.obj
 0002:0000983c       ??_C@_15CLMNNGEL@?$AAP?$AAM?$AA?$AA@ 000000018005c83c     libucrt:nlsdata.obj
 0002:00009848       ??_C@_1BC@IEBCMHCM@?$AAM?$AAM?$AA?1?$AAd?$AAd?$AA?1?$AAy?$AAy?$AA?$AA@ 000000018005c848     libucrt:nlsdata.obj
 0002:00009860       ??_C@_1CI@KNAKOEBC@?$AAd?$AAd?$AAd?$AAd?$AA?0?$AA?5?$AAM?$AAM?$AAM?$AAM?$AA?5?$AAd?$AAd?$AA?0?$AA?5?$AAy?$AAy?$AAy?$AAy?$AA?$AA@ 000000018005c860     libucrt:nlsdata.obj
 0002:00009888       ??_C@_1BC@GDGBMEMK@?$AAH?$AAH?$AA?3?$AAm?$AAm?$AA?3?$AAs?$AAs?$AA?$AA@ 000000018005c888     libucrt:nlsdata.obj
 0002:00009a70       ??_C@_03KHJOGHMM@exp?$AA@  000000018005ca70     libucrt:fpexcept.obj
 0002:00009a74       ??_C@_03JGHBODFD@pow?$AA@  000000018005ca74     libucrt:fpexcept.obj
 0002:00009a78       ??_C@_03MGHMBJCF@log?$AA@  000000018005ca78     libucrt:fpexcept.obj
 0002:00009a7c       ??_C@_05HGHHAHAP@log10?$AA@ 000000018005ca7c     libucrt:fpexcept.obj
 0002:00009a84       ??_C@_04COOMCNPB@sinh?$AA@ 000000018005ca84     libucrt:fpexcept.obj
 0002:00009a8c       ??_C@_04HPJJNFIM@cosh?$AA@ 000000018005ca8c     libucrt:fpexcept.obj
 0002:00009a94       ??_C@_04FJHINJAO@tanh?$AA@ 000000018005ca94     libucrt:fpexcept.obj
 0002:00009a9c       ??_C@_04FIHNOPOL@asin?$AA@ 000000018005ca9c     libucrt:fpexcept.obj
 0002:00009aa4       ??_C@_04PDIFKINK@acos?$AA@ 000000018005caa4     libucrt:fpexcept.obj
 0002:00009aac       ??_C@_04MLLJIGOK@atan?$AA@ 000000018005caac     libucrt:fpexcept.obj
 0002:00009ab4       ??_C@_05KNGEOGJB@atan2?$AA@ 000000018005cab4     libucrt:fpexcept.obj
 0002:00009abc       ??_C@_04EIAKFFMI@sqrt?$AA@ 000000018005cabc     libucrt:fpexcept.obj
 0002:00009ac4       ??_C@_03BLEJJJBH@sin?$AA@  000000018005cac4     libucrt:fpexcept.obj
 0002:00009ac8       ??_C@_03LALBNOCG@cos?$AA@  000000018005cac8     libucrt:fpexcept.obj
 0002:00009acc       ??_C@_03IIINPABG@tan?$AA@  000000018005cacc     libucrt:fpexcept.obj
 0002:00009ad0       ??_C@_04GFPJNGEK@ceil?$AA@ 000000018005cad0     libucrt:fpexcept.obj
 0002:00009ad8       ??_C@_05PBJFFIGL@floor?$AA@ 000000018005cad8     libucrt:fpexcept.obj
 0002:00009ae0       ??_C@_04ODHECPBC@fabs?$AA@ 000000018005cae0     libucrt:fpexcept.obj
 0002:00009ae8       ??_C@_04EHEDPDJG@modf?$AA@ 000000018005cae8     libucrt:fpexcept.obj
 0002:00009af0       ??_C@_05CEJMAHNP@ldexp?$AA@ 000000018005caf0     libucrt:fpexcept.obj
 0002:00009af8       ??_C@_05KBKMEMPO@_cabs?$AA@ 000000018005caf8     libucrt:fpexcept.obj
 0002:00009b00       ??_C@_06MEIMCGCF@_hypot?$AA@ 000000018005cb00     libucrt:fpexcept.obj
 0002:00009b08       ??_C@_04KEPJIHGP@fmod?$AA@ 000000018005cb08     libucrt:fpexcept.obj
 0002:00009b10       ??_C@_05GKKHEGJL@frexp?$AA@ 000000018005cb10     libucrt:fpexcept.obj
 0002:00009b18       ??_C@_03MJLDFKDL@_y0?$AA@  000000018005cb18     libucrt:fpexcept.obj
 0002:00009b1c       ??_C@_03NAKIGLHK@_y1?$AA@  000000018005cb1c     libucrt:fpexcept.obj
 0002:00009b20       ??_C@_03ONILCKOB@_yn?$AA@  000000018005cb20     libucrt:fpexcept.obj
 0002:00009b24       ??_C@_05JGDBENOH@_logb?$AA@ 000000018005cb24     libucrt:fpexcept.obj
 0002:00009b30       ??_C@_0L@KDOEJCKC@_nextafter?$AA@ 000000018005cb30     libucrt:fpexcept.obj
 0002:00009b40       _d_inf                     000000018005cb40     libucrt:util.obj
 0002:00009b48       _d_max                     000000018005cb48     libucrt:util.obj
 0002:00009bf0       ??_C@_1EG@CNNIPFIM@?$AAa?$AAp?$AAi?$AA?9?$AAm?$AAs?$AA?9?$AAw?$AAi?$AAn?$AA?9?$AAa?$AAp?$AAp?$AAm?$AAo?$AAd?$AAe?$AAl?$AA?9?$AAr?$AAu?$AAn?$AAt?$AAi?$AAm?$AAe?$AA?9?$AAl?$AA1?$AA?9?$AA1@ 000000018005cbf0     libucrt:winapi_thunks.obj
 0002:00009c40       ??_C@_1EA@JGEFHKEI@?$AAa?$AAp?$AAi?$AA?9?$AAm?$AAs?$AA?9?$AAw?$AAi?$AAn?$AA?9?$AAc?$AAo?$AAr?$AAe?$AA?9?$AAd?$AAa?$AAt?$AAe?$AAt?$AAi?$AAm?$AAe?$AA?9?$AAl?$AA1?$AA?9?$AA1?$AA?9?$AA1?$AA?$AA@ 000000018005cc40     libucrt:winapi_thunks.obj
 0002:00009c80       ??_C@_1DI@GCIAAENM@?$AAa?$AAp?$AAi?$AA?9?$AAm?$AAs?$AA?9?$AAw?$AAi?$AAn?$AA?9?$AAc?$AAo?$AAr?$AAe?$AA?9?$AAf?$AAi?$AAl?$AAe?$AA?9?$AAl?$AA2?$AA?9?$AA1?$AA?9?$AA1?$AA?$AA@ 000000018005cc80     libucrt:winapi_thunks.obj
 0002:00009cc0       ??_C@_1EI@MPIAOHOC@?$AAa?$AAp?$AAi?$AA?9?$AAm?$AAs?$AA?9?$AAw?$AAi?$AAn?$AA?9?$AAc?$AAo?$AAr?$AAe?$AA?9?$AAl?$AAo?$AAc?$AAa?$AAl?$AAi?$AAz?$AAa?$AAt?$AAi?$AAo?$AAn?$AA?9?$AAl?$AA1?$AA?9@ 000000018005ccc0     libucrt:winapi_thunks.obj
 0002:00009d10       ??_C@_1FK@FPHCKFIE@?$AAa?$AAp?$AAi?$AA?9?$AAm?$AAs?$AA?9?$AAw?$AAi?$AAn?$AA?9?$AAc?$AAo?$AAr?$AAe?$AA?9?$AAl?$AAo?$AAc?$AAa?$AAl?$AAi?$AAz?$AAa?$AAt?$AAi?$AAo?$AAn?$AA?9?$AAo?$AAb?$AAs@ 000000018005cd10     libucrt:winapi_thunks.obj
 0002:00009d70       ??_C@_1EM@DILCGIIO@?$AAa?$AAp?$AAi?$AA?9?$AAm?$AAs?$AA?9?$AAw?$AAi?$AAn?$AA?9?$AAc?$AAo?$AAr?$AAe?$AA?9?$AAp?$AAr?$AAo?$AAc?$AAe?$AAs?$AAs?$AAt?$AAh?$AAr?$AAe?$AAa?$AAd?$AAs?$AA?9?$AAl@ 000000018005cd70     libucrt:winapi_thunks.obj
 0002:00009dc0       ??_C@_1DM@LNCGDDPN@?$AAa?$AAp?$AAi?$AA?9?$AAm?$AAs?$AA?9?$AAw?$AAi?$AAn?$AA?9?$AAc?$AAo?$AAr?$AAe?$AA?9?$AAs?$AAt?$AAr?$AAi?$AAn?$AAg?$AA?9?$AAl?$AA1?$AA?9?$AA1?$AA?9?$AA0?$AA?$AA@ 000000018005cdc0     libucrt:winapi_thunks.obj
 0002:00009e00       ??_C@_1DO@FPAPJEMD@?$AAa?$AAp?$AAi?$AA?9?$AAm?$AAs?$AA?9?$AAw?$AAi?$AAn?$AA?9?$AAc?$AAo?$AAr?$AAe?$AA?9?$AAs?$AAy?$AAs?$AAi?$AAn?$AAf?$AAo?$AA?9?$AAl?$AA1?$AA?9?$AA2?$AA?9?$AA1?$AA?$AA@ 000000018005ce00     libucrt:winapi_thunks.obj
 0002:00009e40       ??_C@_1DK@NDHNAHIO@?$AAa?$AAp?$AAi?$AA?9?$AAm?$AAs?$AA?9?$AAw?$AAi?$AAn?$AA?9?$AAc?$AAo?$AAr?$AAe?$AA?9?$AAw?$AAi?$AAn?$AAr?$AAt?$AA?9?$AAl?$AA1?$AA?9?$AA1?$AA?9?$AA0?$AA?$AA@ 000000018005ce40     libucrt:winapi_thunks.obj
 0002:00009e80       ??_C@_1DM@KGHDGBCM@?$AAa?$AAp?$AAi?$AA?9?$AAm?$AAs?$AA?9?$AAw?$AAi?$AAn?$AA?9?$AAc?$AAo?$AAr?$AAe?$AA?9?$AAx?$AAs?$AAt?$AAa?$AAt?$AAe?$AA?9?$AAl?$AA2?$AA?9?$AA1?$AA?9?$AA0?$AA?$AA@ 000000018005ce80     libucrt:winapi_thunks.obj
 0002:00009ec0       ??_C@_1EO@IJIOEFOH@?$AAa?$AAp?$AAi?$AA?9?$AAm?$AAs?$AA?9?$AAw?$AAi?$AAn?$AA?9?$AAr?$AAt?$AAc?$AAo?$AAr?$AAe?$AA?9?$AAn?$AAt?$AAu?$AAs?$AAe?$AAr?$AA?9?$AAw?$AAi?$AAn?$AAd?$AAo?$AAw?$AA?9@ 000000018005cec0     libucrt:winapi_thunks.obj
 0002:00009f10       ??_C@_1FG@HHGEKANL@?$AAa?$AAp?$AAi?$AA?9?$AAm?$AAs?$AA?9?$AAw?$AAi?$AAn?$AA?9?$AAs?$AAe?$AAc?$AAu?$AAr?$AAi?$AAt?$AAy?$AA?9?$AAs?$AAy?$AAs?$AAt?$AAe?$AAm?$AAf?$AAu?$AAn?$AAc?$AAt?$AAi@ 000000018005cf10     libucrt:winapi_thunks.obj
 0002:00009f70       ??_C@_1FG@NCKKOLKO@?$AAe?$AAx?$AAt?$AA?9?$AAm?$AAs?$AA?9?$AAw?$AAi?$AAn?$AA?9?$AAk?$AAe?$AAr?$AAn?$AAe?$AAl?$AA3?$AA2?$AA?9?$AAp?$AAa?$AAc?$AAk?$AAa?$AAg?$AAe?$AA?9?$AAc?$AAu?$AAr?$AAr@ 000000018005cf70     libucrt:winapi_thunks.obj
 0002:00009fd0       ??_C@_1EG@DBIOJECG@?$AAe?$AAx?$AAt?$AA?9?$AAm?$AAs?$AA?9?$AAw?$AAi?$AAn?$AA?9?$AAn?$AAt?$AAu?$AAs?$AAe?$AAr?$AA?9?$AAd?$AAi?$AAa?$AAl?$AAo?$AAg?$AAb?$AAo?$AAx?$AA?9?$AAl?$AA1?$AA?9?$AA1@ 000000018005cfd0     libucrt:winapi_thunks.obj
 0002:0000a020       ??_C@_1EO@FIHMJCLF@?$AAe?$AAx?$AAt?$AA?9?$AAm?$AAs?$AA?9?$AAw?$AAi?$AAn?$AA?9?$AAn?$AAt?$AAu?$AAs?$AAe?$AAr?$AA?9?$AAw?$AAi?$AAn?$AAd?$AAo?$AAw?$AAs?$AAt?$AAa?$AAt?$AAi?$AAo?$AAn?$AA?9@ 000000018005d020     libucrt:winapi_thunks.obj
 0002:0000a070       ??_C@_1O@BCCLBEOE@?$AAu?$AAs?$AAe?$AAr?$AA3?$AA2?$AA?$AA@ 000000018005d070     libucrt:winapi_thunks.obj
 0002:0000a090       ??_C@_0BE@LJANKFHF@EnumSystemLocalesEx?$AA@ 000000018005d090     libucrt:winapi_thunks.obj
 0002:0000a0d0       ??_C@_0BA@HNOPNCHB@GetActiveWindow?$AA@ 000000018005d0d0     libucrt:winapi_thunks.obj
 0002:0000a0f0       ??_C@_0BA@EPCJIIPD@GetDateFormatEx?$AA@ 000000018005d0f0     libucrt:winapi_thunks.obj
 0002:0000a108       ??_C@_0BD@HHGDFDBJ@GetLastActivePopup?$AA@ 000000018005d108     libucrt:winapi_thunks.obj
 0002:0000a130       ??_C@_0BI@DFKBFLJE@GetProcessWindowStation?$AA@ 000000018005d130     libucrt:winapi_thunks.obj
 0002:0000a158       ??_C@_0BA@CIJJKCJJ@GetTimeFormatEx?$AA@ 000000018005d158     libucrt:winapi_thunks.obj
 0002:0000a170       ??_C@_0BJ@PBCCBIPI@GetUserDefaultLocaleName?$AA@ 000000018005d170     libucrt:winapi_thunks.obj
 0002:0000a198       ??_C@_0BK@DEKFELLI@GetUserObjectInformationW?$AA@ 000000018005d198     libucrt:winapi_thunks.obj
 0002:0000a1c8       ??_C@_0BC@CELBKLLA@IsValidLocaleName?$AA@ 000000018005d1c8     libucrt:winapi_thunks.obj
 0002:0000a1f0       ??_C@_0BB@CDHDDLLP@LCIDToLocaleName?$AA@ 000000018005d1f0     libucrt:winapi_thunks.obj
 0002:0000a210       ??_C@_0BB@HBDEELFH@LocaleNameToLCID?$AA@ 000000018005d210     libucrt:winapi_thunks.obj
 0002:0000a230       ??_C@_0M@CHKKJDAI@MessageBoxA?$AA@ 000000018005d230     libucrt:winapi_thunks.obj
 0002:0000a248       ??_C@_0M@DLDCCGNP@MessageBoxW?$AA@ 000000018005d248     libucrt:winapi_thunks.obj
 0002:0000a260       __log_256_lead             000000018005d260     libucrt:log_256_lead_tail_table.obj
 0002:0000aa70       __log_256_tail             000000018005da70     libucrt:log_256_lead_tail_table.obj
 0002:0000b280       __two_to_jby64_head_table  000000018005e280     libucrt:two_to_jby64_head_tail_table.obj
 0002:0000b480       __two_to_jby64_tail_table  000000018005e480     libucrt:two_to_jby64_head_tail_table.obj
 0002:0000b680       ??_C@_04MBFDLNIM@powf?$AA@ 000000018005e680     libucrt:pow_special.obj
 0002:0000b690       __two_to_jby64_table       000000018005e690     libucrt:two_to_jby64_table.obj
 0002:0000b890       __log_F_inv_qword          000000018005e890     libucrt:log_f_inv_qword_table.obj
 0002:0000c0c0       ??_C@_05DNEBIAHO@1?$CDINF?$AA@ 000000018005f0c0     libucrt:cfout.obj
 0002:0000c0c8       ??_C@_06IMKFLFPG@1?$CDQNAN?$AA@ 000000018005f0c8     libucrt:cfout.obj
 0002:0000c0d0       ??_C@_06PGGFOGJG@1?$CDSNAN?$AA@ 000000018005f0d0     libucrt:cfout.obj
 0002:0000c0d8       ??_C@_05PHHOCPM@1?$CDIND?$AA@ 000000018005f0d8     libucrt:cfout.obj
 0002:0000c0e0       __acrt_rg_language         000000018005f0e0     libucrt:get_qualified_locale.obj
 0002:0000c4f0       __acrt_rg_language_count   000000018005f4f0     libucrt:get_qualified_locale.obj
 0002:0000c500       __acrt_rg_country          000000018005f500     libucrt:get_qualified_locale.obj
 0002:0000c670       __acrt_rg_country_count    000000018005f670     libucrt:get_qualified_locale.obj
 0002:0000c678       ??_C@_1BC@LLOKLNP@?$AAa?$AAm?$AAe?$AAr?$AAi?$AAc?$AAa?$AAn?$AA?$AA@ 000000018005f678     libucrt:get_qualified_locale.obj
 0002:0000c690       ??_C@_1CC@HEIGCDGG@?$AAa?$AAm?$AAe?$AAr?$AAi?$AAc?$AAa?$AAn?$AA?5?$AAe?$AAn?$AAg?$AAl?$AAi?$AAs?$AAh?$AA?$AA@ 000000018005f690     libucrt:get_qualified_locale.obj
 0002:0000c6b8       ??_C@_1CC@IHCNOMIN@?$AAa?$AAm?$AAe?$AAr?$AAi?$AAc?$AAa?$AAn?$AA?9?$AAe?$AAn?$AAg?$AAl?$AAi?$AAs?$AAh?$AA?$AA@ 000000018005f6b8     libucrt:get_qualified_locale.obj
 0002:0000c6e0       ??_C@_1BG@GKAGPCGG@?$AAa?$AAu?$AAs?$AAt?$AAr?$AAa?$AAl?$AAi?$AAa?$AAn?$AA?$AA@ 000000018005f6e0     libucrt:get_qualified_locale.obj
 0002:0000c6f8       ??_C@_1BA@GMENCENF@?$AAb?$AAe?$AAl?$AAg?$AAi?$AAa?$AAn?$AA?$AA@ 000000018005f6f8     libucrt:get_qualified_locale.obj
 0002:0000c708       ??_C@_1BC@PJMIIAAN@?$AAc?$AAa?$AAn?$AAa?$AAd?$AAi?$AAa?$AAn?$AA?$AA@ 000000018005f708     libucrt:get_qualified_locale.obj
 0002:0000c720       ??_C@_17NOIMNFBF@?$AAc?$AAh?$AAh?$AA?$AA@ 000000018005f720     libucrt:get_qualified_locale.obj
 0002:0000c728       ??_C@_17GGDALCHA@?$AAc?$AAh?$AAi?$AA?$AA@ 000000018005f728     libucrt:get_qualified_locale.obj
 0002:0000c730       ??_C@_1BA@NPNJKIBL@?$AAc?$AAh?$AAi?$AAn?$AAe?$AAs?$AAe?$AA?$AA@ 000000018005f730     libucrt:get_qualified_locale.obj
 0002:0000c740       ??_C@_1CC@DINBAMMJ@?$AAc?$AAh?$AAi?$AAn?$AAe?$AAs?$AAe?$AA?9?$AAh?$AAo?$AAn?$AAg?$AAk?$AAo?$AAn?$AAg?$AA?$AA@ 000000018005f740     libucrt:get_qualified_locale.obj
 0002:0000c768       ??_C@_1CG@IOBJPACO@?$AAc?$AAh?$AAi?$AAn?$AAe?$AAs?$AAe?$AA?9?$AAs?$AAi?$AAm?$AAp?$AAl?$AAi?$AAf?$AAi?$AAe?$AAd?$AA?$AA@ 000000018005f768     libucrt:get_qualified_locale.obj
 0002:0000c790       ??_C@_1CE@GAJNDCKG@?$AAc?$AAh?$AAi?$AAn?$AAe?$AAs?$AAe?$AA?9?$AAs?$AAi?$AAn?$AAg?$AAa?$AAp?$AAo?$AAr?$AAe?$AA?$AA@ 000000018005f790     libucrt:get_qualified_locale.obj
 0002:0000c7b8       ??_C@_1CI@PAJPIOOD@?$AAc?$AAh?$AAi?$AAn?$AAe?$AAs?$AAe?$AA?9?$AAt?$AAr?$AAa?$AAd?$AAi?$AAt?$AAi?$AAo?$AAn?$AAa?$AAl?$AA?$AA@ 000000018005f7b8     libucrt:get_qualified_locale.obj
 0002:0000c7e0       ??_C@_1BM@NILJBMMD@?$AAd?$AAu?$AAt?$AAc?$AAh?$AA?9?$AAb?$AAe?$AAl?$AAg?$AAi?$AAa?$AAn?$AA?$AA@ 000000018005f7e0     libucrt:get_qualified_locale.obj
 0002:0000c800       ??_C@_1CC@OOJPJNEJ@?$AAe?$AAn?$AAg?$AAl?$AAi?$AAs?$AAh?$AA?9?$AAa?$AAm?$AAe?$AAr?$AAi?$AAc?$AAa?$AAn?$AA?$AA@ 000000018005f800     libucrt:get_qualified_locale.obj
 0002:0000c828       ??_C@_1BI@IOLFEEM@?$AAe?$AAn?$AAg?$AAl?$AAi?$AAs?$AAh?$AA?9?$AAa?$AAu?$AAs?$AA?$AA@ 000000018005f828     libucrt:get_qualified_locale.obj
 0002:0000c840       ??_C@_1BO@HFFNLENJ@?$AAe?$AAn?$AAg?$AAl?$AAi?$AAs?$AAh?$AA?9?$AAb?$AAe?$AAl?$AAi?$AAz?$AAe?$AA?$AA@ 000000018005f840     libucrt:get_qualified_locale.obj
 0002:0000c860       ??_C@_1BI@HAPKJMPO@?$AAe?$AAn?$AAg?$AAl?$AAi?$AAs?$AAh?$AA?9?$AAc?$AAa?$AAn?$AA?$AA@ 000000018005f860     libucrt:get_qualified_locale.obj
 0002:0000c878       ??_C@_1CE@HLNDMIOJ@?$AAe?$AAn?$AAg?$AAl?$AAi?$AAs?$AAh?$AA?9?$AAc?$AAa?$AAr?$AAi?$AAb?$AAb?$AAe?$AAa?$AAn?$AA?$AA@ 000000018005f878     libucrt:get_qualified_locale.obj
 0002:0000c8a0       ??_C@_1BI@LDHJHHAC@?$AAe?$AAn?$AAg?$AAl?$AAi?$AAs?$AAh?$AA?9?$AAi?$AAr?$AAe?$AA?$AA@ 000000018005f8a0     libucrt:get_qualified_locale.obj
 0002:0000c8b8       ??_C@_1CA@NJMMCFOC@?$AAe?$AAn?$AAg?$AAl?$AAi?$AAs?$AAh?$AA?9?$AAj?$AAa?$AAm?$AAa?$AAi?$AAc?$AAa?$AA?$AA@ 000000018005f8b8     libucrt:get_qualified_locale.obj
 0002:0000c8d8       ??_C@_1BG@BHJEBBGG@?$AAe?$AAn?$AAg?$AAl?$AAi?$AAs?$AAh?$AA?9?$AAn?$AAz?$AA?$AA@ 000000018005f8d8     libucrt:get_qualified_locale.obj
 0002:0000c8f0       ??_C@_1CK@FGOEJJCO@?$AAe?$AAn?$AAg?$AAl?$AAi?$AAs?$AAh?$AA?9?$AAs?$AAo?$AAu?$AAt?$AAh?$AA?5?$AAa?$AAf?$AAr?$AAi?$AAc?$AAa?$AA?$AA@ 000000018005f8f0     libucrt:get_qualified_locale.obj
 0002:0000c920       ??_C@_1DE@PDBJPCJ@?$AAe?$AAn?$AAg?$AAl?$AAi?$AAs?$AAh?$AA?9?$AAt?$AAr?$AAi?$AAn?$AAi?$AAd?$AAa?$AAd?$AA?5?$AAy?$AA?5?$AAt?$AAo?$AAb?$AAa?$AAg?$AAo?$AA?$AA@ 000000018005f920     libucrt:get_qualified_locale.obj
 0002:0000c958       ??_C@_1BG@JGCANDME@?$AAe?$AAn?$AAg?$AAl?$AAi?$AAs?$AAh?$AA?9?$AAu?$AAk?$AA?$AA@ 000000018005f958     libucrt:get_qualified_locale.obj
 0002:0000c970       ??_C@_1BG@DINKMLE@?$AAe?$AAn?$AAg?$AAl?$AAi?$AAs?$AAh?$AA?9?$AAu?$AAs?$AA?$AA@ 000000018005f970     libucrt:get_qualified_locale.obj
 0002:0000c988       ??_C@_1BI@NMFDBHJE@?$AAe?$AAn?$AAg?$AAl?$AAi?$AAs?$AAh?$AA?9?$AAu?$AAs?$AAa?$AA?$AA@ 000000018005f988     libucrt:get_qualified_locale.obj
 0002:0000c9a0       ??_C@_1BO@OIHKJKII@?$AAf?$AAr?$AAe?$AAn?$AAc?$AAh?$AA?9?$AAb?$AAe?$AAl?$AAg?$AAi?$AAa?$AAn?$AA?$AA@ 000000018005f9a0     libucrt:get_qualified_locale.obj
 0002:0000c9c0       ??_C@_1CA@NKAELJKI@?$AAf?$AAr?$AAe?$AAn?$AAc?$AAh?$AA?9?$AAc?$AAa?$AAn?$AAa?$AAd?$AAi?$AAa?$AAn?$AA?$AA@ 000000018005f9c0     libucrt:get_qualified_locale.obj
 0002:0000c9e0       ??_C@_1CE@MGKCNLGN@?$AAf?$AAr?$AAe?$AAn?$AAc?$AAh?$AA?9?$AAl?$AAu?$AAx?$AAe?$AAm?$AAb?$AAo?$AAu?$AAr?$AAg?$AA?$AA@ 000000018005f9e0     libucrt:get_qualified_locale.obj
 0002:0000ca08       ??_C@_1BK@CEGEAILM@?$AAf?$AAr?$AAe?$AAn?$AAc?$AAh?$AA?9?$AAs?$AAw?$AAi?$AAs?$AAs?$AA?$AA@ 000000018005fa08     libucrt:get_qualified_locale.obj
 0002:0000ca28       ??_C@_1CA@PAFKEOCC@?$AAg?$AAe?$AAr?$AAm?$AAa?$AAn?$AA?9?$AAa?$AAu?$AAs?$AAt?$AAr?$AAi?$AAa?$AAn?$AA?$AA@ 000000018005fa28     libucrt:get_qualified_locale.obj
 0002:0000ca48       ??_C@_1CI@HCFHGOFD@?$AAg?$AAe?$AAr?$AAm?$AAa?$AAn?$AA?9?$AAl?$AAi?$AAc?$AAh?$AAt?$AAe?$AAn?$AAs?$AAt?$AAe?$AAi?$AAn?$AA?$AA@ 000000018005fa48     libucrt:get_qualified_locale.obj
 0002:0000ca70       ??_C@_1CE@FEDDNPDG@?$AAg?$AAe?$AAr?$AAm?$AAa?$AAn?$AA?9?$AAl?$AAu?$AAx?$AAe?$AAm?$AAb?$AAo?$AAu?$AAr?$AAg?$AA?$AA@ 000000018005fa70     libucrt:get_qualified_locale.obj
 0002:0000ca98       ??_C@_1BK@LIMINNMN@?$AAg?$AAe?$AAr?$AAm?$AAa?$AAn?$AA?9?$AAs?$AAw?$AAi?$AAs?$AAs?$AA?$AA@ 000000018005fa98     libucrt:get_qualified_locale.obj
 0002:0000cab8       ??_C@_1BM@LGMDBEPD@?$AAi?$AAr?$AAi?$AAs?$AAh?$AA?9?$AAe?$AAn?$AAg?$AAl?$AAi?$AAs?$AAh?$AA?$AA@ 000000018005fab8     libucrt:get_qualified_locale.obj
 0002:0000cad8       ??_C@_1BM@NNCFBAEE@?$AAi?$AAt?$AAa?$AAl?$AAi?$AAa?$AAn?$AA?9?$AAs?$AAw?$AAi?$AAs?$AAs?$AA?$AA@ 000000018005fad8     libucrt:get_qualified_locale.obj
 0002:0000caf8       ??_C@_1BE@FEDJNPIB@?$AAn?$AAo?$AAr?$AAw?$AAe?$AAg?$AAi?$AAa?$AAn?$AA?$AA@ 000000018005faf8     libucrt:get_qualified_locale.obj
 0002:0000cb10       ??_C@_1CC@CILKDEIE@?$AAn?$AAo?$AAr?$AAw?$AAe?$AAg?$AAi?$AAa?$AAn?$AA?9?$AAb?$AAo?$AAk?$AAm?$AAa?$AAl?$AA?$AA@ 000000018005fb10     libucrt:get_qualified_locale.obj
 0002:0000cb38       ??_C@_1CE@DHMMHEPL@?$AAn?$AAo?$AAr?$AAw?$AAe?$AAg?$AAi?$AAa?$AAn?$AA?9?$AAn?$AAy?$AAn?$AAo?$AAr?$AAs?$AAk?$AA?$AA@ 000000018005fb38     libucrt:get_qualified_locale.obj
 0002:0000cb60       ??_C@_1CK@OPNMHECD@?$AAp?$AAo?$AAr?$AAt?$AAu?$AAg?$AAu?$AAe?$AAs?$AAe?$AA?9?$AAb?$AAr?$AAa?$AAz?$AAi?$AAl?$AAi?$AAa?$AAn?$AA?$AA@ 000000018005fb60     libucrt:get_qualified_locale.obj
 0002:0000cb90       ??_C@_1CE@KEEHCDB@?$AAs?$AAp?$AAa?$AAn?$AAi?$AAs?$AAh?$AA?9?$AAa?$AAr?$AAg?$AAe?$AAn?$AAt?$AAi?$AAn?$AAa?$AA?$AA@ 000000018005fb90     libucrt:get_qualified_locale.obj
 0002:0000cbb8       ??_C@_1CA@GIAOLHJD@?$AAs?$AAp?$AAa?$AAn?$AAi?$AAs?$AAh?$AA?9?$AAb?$AAo?$AAl?$AAi?$AAv?$AAi?$AAa?$AA?$AA@ 000000018005fbb8     libucrt:get_qualified_locale.obj
 0002:0000cbd8       ??_C@_1BM@OJNDFNPD@?$AAs?$AAp?$AAa?$AAn?$AAi?$AAs?$AAh?$AA?9?$AAc?$AAh?$AAi?$AAl?$AAe?$AA?$AA@ 000000018005fbd8     libucrt:get_qualified_locale.obj
 0002:0000cbf8       ??_C@_1CC@OCOLPALL@?$AAs?$AAp?$AAa?$AAn?$AAi?$AAs?$AAh?$AA?9?$AAc?$AAo?$AAl?$AAo?$AAm?$AAb?$AAi?$AAa?$AA?$AA@ 000000018005fbf8     libucrt:get_qualified_locale.obj
 0002:0000cc20       ??_C@_1CG@BPOFMKBB@?$AAs?$AAp?$AAa?$AAn?$AAi?$AAs?$AAh?$AA?9?$AAc?$AAo?$AAs?$AAt?$AAa?$AA?5?$AAr?$AAi?$AAc?$AAa?$AA?$AA@ 000000018005fc20     libucrt:get_qualified_locale.obj
 0002:0000cc48       ??_C@_1DG@IGOBAPBB@?$AAs?$AAp?$AAa?$AAn?$AAi?$AAs?$AAh?$AA?9?$AAd?$AAo?$AAm?$AAi?$AAn?$AAi?$AAc?$AAa?$AAn?$AA?5?$AAr?$AAe?$AAp?$AAu?$AAb?$AAl?$AAi?$AAc?$AA?$AA@ 000000018005fc48     libucrt:get_qualified_locale.obj
 0002:0000cc80       ??_C@_1CA@JHAPGEGI@?$AAs?$AAp?$AAa?$AAn?$AAi?$AAs?$AAh?$AA?9?$AAe?$AAc?$AAu?$AAa?$AAd?$AAo?$AAr?$AA?$AA@ 000000018005fc80     libucrt:get_qualified_locale.obj
 0002:0000cca0       ??_C@_1CI@LAPALJPP@?$AAs?$AAp?$AAa?$AAn?$AAi?$AAs?$AAh?$AA?9?$AAe?$AAl?$AA?5?$AAs?$AAa?$AAl?$AAv?$AAa?$AAd?$AAo?$AAr?$AA?$AA@ 000000018005fca0     libucrt:get_qualified_locale.obj
 0002:0000ccc8       ??_C@_1CE@PDGBOFOM@?$AAs?$AAp?$AAa?$AAn?$AAi?$AAs?$AAh?$AA?9?$AAg?$AAu?$AAa?$AAt?$AAe?$AAm?$AAa?$AAl?$AAa?$AA?$AA@ 000000018005fcc8     libucrt:get_qualified_locale.obj
 0002:0000ccf0       ??_C@_1CC@NBEBAODI@?$AAs?$AAp?$AAa?$AAn?$AAi?$AAs?$AAh?$AA?9?$AAh?$AAo?$AAn?$AAd?$AAu?$AAr?$AAa?$AAs?$AA?$AA@ 000000018005fcf0     libucrt:get_qualified_locale.obj
 0002:0000cd18       ??_C@_1CA@LLKGHBMF@?$AAs?$AAp?$AAa?$AAn?$AAi?$AAs?$AAh?$AA?9?$AAm?$AAe?$AAx?$AAi?$AAc?$AAa?$AAn?$AA?$AA@ 000000018005fd18     libucrt:get_qualified_locale.obj
 0002:0000cd38       ??_C@_1BO@LKNDOIGD@?$AAs?$AAp?$AAa?$AAn?$AAi?$AAs?$AAh?$AA?9?$AAm?$AAo?$AAd?$AAe?$AAr?$AAn?$AA?$AA@ 000000018005fd38     libucrt:get_qualified_locale.obj
 0002:0000cd58       ??_C@_1CE@NMDMOEEB@?$AAs?$AAp?$AAa?$AAn?$AAi?$AAs?$AAh?$AA?9?$AAn?$AAi?$AAc?$AAa?$AAr?$AAa?$AAg?$AAu?$AAa?$AA?$AA@ 000000018005fd58     libucrt:get_qualified_locale.obj
 0002:0000cd80       ??_C@_1BO@LLCBEJGB@?$AAs?$AAp?$AAa?$AAn?$AAi?$AAs?$AAh?$AA?9?$AAp?$AAa?$AAn?$AAa?$AAm?$AAa?$AA?$AA@ 000000018005fd80     libucrt:get_qualified_locale.obj
 0002:0000cda0       ??_C@_1CC@FKPGGIHO@?$AAs?$AAp?$AAa?$AAn?$AAi?$AAs?$AAh?$AA?9?$AAp?$AAa?$AAr?$AAa?$AAg?$AAu?$AAa?$AAy?$AA?$AA@ 000000018005fda0     libucrt:get_qualified_locale.obj
 0002:0000cdc8       ??_C@_1BK@CDEIHOOP@?$AAs?$AAp?$AAa?$AAn?$AAi?$AAs?$AAh?$AA?9?$AAp?$AAe?$AAr?$AAu?$AA?$AA@ 000000018005fdc8     libucrt:get_qualified_locale.obj
 0002:0000cde8       ??_C@_1CI@GAHAKKGP@?$AAs?$AAp?$AAa?$AAn?$AAi?$AAs?$AAh?$AA?9?$AAp?$AAu?$AAe?$AAr?$AAt?$AAo?$AA?5?$AAr?$AAi?$AAc?$AAo?$AA?$AA@ 000000018005fde8     libucrt:get_qualified_locale.obj
 0002:0000ce10       ??_C@_1CA@NKJBCAGP@?$AAs?$AAp?$AAa?$AAn?$AAi?$AAs?$AAh?$AA?9?$AAu?$AAr?$AAu?$AAg?$AAu?$AAa?$AAy?$AA?$AA@ 000000018005fe10     libucrt:get_qualified_locale.obj
 0002:0000ce30       ??_C@_1CE@ODILCONM@?$AAs?$AAp?$AAa?$AAn?$AAi?$AAs?$AAh?$AA?9?$AAv?$AAe?$AAn?$AAe?$AAz?$AAu?$AAe?$AAl?$AAa?$AA?$AA@ 000000018005fe30     libucrt:get_qualified_locale.obj
 0002:0000ce58       ??_C@_1CA@OBNMCGFO@?$AAs?$AAw?$AAe?$AAd?$AAi?$AAs?$AAh?$AA?9?$AAf?$AAi?$AAn?$AAl?$AAa?$AAn?$AAd?$AA?$AA@ 000000018005fe58     libucrt:get_qualified_locale.obj
 0002:0000ce78       ??_C@_1M@PIPDDPPI@?$AAs?$AAw?$AAi?$AAs?$AAs?$AA?$AA@ 000000018005fe78     libucrt:get_qualified_locale.obj
 0002:0000ce84       ??_C@_15GMFIMNFM@?$AAu?$AAs?$AA?$AA@ 000000018005fe84     libucrt:get_qualified_locale.obj
 0002:0000ce90       ??_C@_17HAEBFAGL@?$AAu?$AAs?$AAa?$AA?$AA@ 000000018005fe90     libucrt:get_qualified_locale.obj
 0002:0000ce98       ??_C@_1BA@DPFJEPHB@?$AAa?$AAm?$AAe?$AAr?$AAi?$AAc?$AAa?$AA?$AA@ 000000018005fe98     libucrt:get_qualified_locale.obj
 0002:0000cea8       ??_C@_1BA@ELOGGFK@?$AAb?$AAr?$AAi?$AAt?$AAa?$AAi?$AAn?$AA?$AA@ 000000018005fea8     libucrt:get_qualified_locale.obj
 0002:0000ceb8       ??_C@_1M@GHBGIGDA@?$AAc?$AAh?$AAi?$AAn?$AAa?$AA?$AA@ 000000018005feb8     libucrt:get_qualified_locale.obj
 0002:0000cec8       ??_C@_1M@NCHEJOPO@?$AAc?$AAz?$AAe?$AAc?$AAh?$AA?$AA@ 000000018005fec8     libucrt:get_qualified_locale.obj
 0002:0000ced8       ??_C@_1BA@BKPAPBLA@?$AAe?$AAn?$AAg?$AAl?$AAa?$AAn?$AAd?$AA?$AA@ 000000018005fed8     libucrt:get_qualified_locale.obj
 0002:0000cee8       ??_C@_1BM@HKBCKIPC@?$AAg?$AAr?$AAe?$AAa?$AAt?$AA?5?$AAb?$AAr?$AAi?$AAt?$AAa?$AAi?$AAn?$AA?$AA@ 000000018005fee8     libucrt:get_qualified_locale.obj
 0002:0000cf08       ??_C@_1BA@PPCHPGJB@?$AAh?$AAo?$AAl?$AAl?$AAa?$AAn?$AAd?$AA?$AA@ 000000018005ff08     libucrt:get_qualified_locale.obj
 0002:0000cf18       ??_C@_1BE@JBMPEGDG@?$AAh?$AAo?$AAn?$AAg?$AA?9?$AAk?$AAo?$AAn?$AAg?$AA?$AA@ 000000018005ff18     libucrt:get_qualified_locale.obj
 0002:0000cf30       ??_C@_1BI@KOELBBPJ@?$AAn?$AAe?$AAw?$AA?9?$AAz?$AAe?$AAa?$AAl?$AAa?$AAn?$AAd?$AA?$AA@ 000000018005ff30     libucrt:get_qualified_locale.obj
 0002:0000cf48       ??_C@_15HIEBHAIO@?$AAn?$AAz?$AA?$AA@ 000000018005ff48     libucrt:get_qualified_locale.obj
 0002:0000cf50       ??_C@_1BC@CHBCPFPI@?$AAp?$AAr?$AA?5?$AAc?$AAh?$AAi?$AAn?$AAa?$AA?$AA@ 000000018005ff50     libucrt:get_qualified_locale.obj
 0002:0000cf68       ??_C@_1BC@JAOIIFKD@?$AAp?$AAr?$AA?9?$AAc?$AAh?$AAi?$AAn?$AAa?$AA?$AA@ 000000018005ff68     libucrt:get_qualified_locale.obj
 0002:0000cf80       ??_C@_1BI@BEHPPHKC@?$AAp?$AAu?$AAe?$AAr?$AAt?$AAo?$AA?9?$AAr?$AAi?$AAc?$AAo?$AA?$AA@ 000000018005ff80     libucrt:get_qualified_locale.obj
 0002:0000cf98       ??_C@_1O@PAEOFKDI@?$AAs?$AAl?$AAo?$AAv?$AAa?$AAk?$AA?$AA@ 000000018005ff98     libucrt:get_qualified_locale.obj
 0002:0000cfa8       ??_C@_1BK@FIHMCKAM@?$AAs?$AAo?$AAu?$AAt?$AAh?$AA?5?$AAa?$AAf?$AAr?$AAi?$AAc?$AAa?$AA?$AA@ 000000018005ffa8     libucrt:get_qualified_locale.obj
 0002:0000cfc8       ??_C@_1BI@NAEOODKB@?$AAs?$AAo?$AAu?$AAt?$AAh?$AA?5?$AAk?$AAo?$AAr?$AAe?$AAa?$AA?$AA@ 000000018005ffc8     libucrt:get_qualified_locale.obj
 0002:0000cfe0       ??_C@_1BK@FBDGGIFF@?$AAs?$AAo?$AAu?$AAt?$AAh?$AA?9?$AAa?$AAf?$AAr?$AAi?$AAc?$AAa?$AA?$AA@ 000000018005ffe0     libucrt:get_qualified_locale.obj
 0002:0000d000       ??_C@_1BI@GHLEJDPK@?$AAs?$AAo?$AAu?$AAt?$AAh?$AA?9?$AAk?$AAo?$AAr?$AAe?$AAa?$AA?$AA@ 0000000180060000     libucrt:get_qualified_locale.obj
 0002:0000d018       ??_C@_1CE@PLHLOMJF@?$AAt?$AAr?$AAi?$AAn?$AAi?$AAd?$AAa?$AAd?$AA?5?$AA?$CG?$AA?5?$AAt?$AAo?$AAb?$AAa?$AAg?$AAo?$AA?$AA@ 0000000180060018     libucrt:get_qualified_locale.obj
 0002:0000d040       ??_C@_1BO@MODIMHHI@?$AAu?$AAn?$AAi?$AAt?$AAe?$AAd?$AA?9?$AAk?$AAi?$AAn?$AAg?$AAd?$AAo?$AAm?$AA?$AA@ 0000000180060040     libucrt:get_qualified_locale.obj
 0002:0000d060       ??_C@_1BM@FFHJONBJ@?$AAu?$AAn?$AAi?$AAt?$AAe?$AAd?$AA?9?$AAs?$AAt?$AAa?$AAt?$AAe?$AAs?$AA?$AA@ 0000000180060060     libucrt:get_qualified_locale.obj
 0002:0000d080       ??_C@_17DNCLJFIF@?$AAA?$AAC?$AAP?$AA?$AA@ 0000000180060080     libucrt:get_qualified_locale.obj
 0002:0000d088       ??_C@_17CIKBIHLH@?$AAO?$AAC?$AAP?$AA?$AA@ 0000000180060088     libucrt:get_qualified_locale.obj
 0002:0000d090       __rglangidNotDefault       0000000180060090     libucrt:getqloc_downlevel.obj
 0002:0000ef90       __log10_256_lead           0000000180061f90     libucrt:log10_256_lead_tail_table.obj
 0002:0000f7a0       __log10_256_tail           00000001800627a0     libucrt:log10_256_lead_tail_table.obj
 0002:0000ffa8       ??_C@_1BA@BALFACEM@?$AAC?$AAO?$AAN?$AAO?$AAU?$AAT?$AA$?$AA?$AA@ 0000000180062fa8     libucrt:initcon.obj
 0002:0000ffb8       ??_C@_1BK@DBDEIDLH@?$AAK?$AAE?$AAR?$AAN?$AAE?$AAL?$AA3?$AA2?$AA?4?$AAD?$AAL?$AAL?$AA?$AA@ 0000000180062fb8     DelayImp:delayhlp.obj
 0002:0000ffd8       __pfnDliFailureHook2       0000000180062fd8     DelayImp:delayhk1.obj
 0002:0000ffe0       _load_config_used          0000000180062fe0     LIBCMT:loadcfg.obj
 0002:00010078       ??_C@_0BG@KCAIGPHN@?4?4?2src?2node_snap7?4cpp?$AA@ 0000000180063078     node_snap7.obj
 0002:00010090       ??_C@_0L@BGPHKFLI@node_snap7?$AA@ 0000000180063090     node_snap7.obj
 0002:000100a0       ??_C@_0BC@BDKFLDHL@unknown?5exception?$AA@ 00000001800630a0     node_snap7_client.obj
 0002:000100b8       ??_C@_0BA@ELKIONDK@bad?5locale?5name?$AA@ 00000001800630b8     node_snap7_client.obj
 0002:000100c8       ??_C@_05LAPONLG@false?$AA@ 00000001800630c8     node_snap7_client.obj
 0002:000100d0       ??_C@_04LOAJBDKD@true?$AA@ 00000001800630d0     node_snap7_client.obj
 0002:000100d5       ??_C@_00CNPNBAHC@?$AA@     00000001800630d5     node_snap7_client.obj
 0002:000100d8       ??_C@_02LMMGGCAJ@?3?5?$AA@ 00000001800630d8     node_snap7_client.obj
 0002:000100e0       ??_C@_08LLGCOLLL@iostream?$AA@ 00000001800630e0     node_snap7_client.obj
 0002:000100f0       ??_C@_0BG@PADBLCHM@iostream?5stream?5error?$AA@ 00000001800630f0     node_snap7_client.obj
 0002:00010108       ??_C@_0BF@PHHKMMFD@ios_base?3?3badbit?5set?$AA@ 0000000180063108     node_snap7_client.obj
 0002:00010120       ??_C@_0BG@FMKFHCIL@ios_base?3?3failbit?5set?$AA@ 0000000180063120     node_snap7_client.obj
 0002:00010138       ??_C@_0BF@OOHOMBOF@ios_base?3?3eofbit?5set?$AA@ 0000000180063138     node_snap7_client.obj
 0002:00010150       ??_C@_1DG@OKCGPKIB@?$AAp?$AAe?$AAr?$AAs?$AAi?$AAs?$AAt?$AAe?$AAn?$AAt?$AA?$CI?$AA?$CJ?$AA?4?$AAI?$AAs?$AAN?$AAe?$AAa?$AAr?$AAD?$AAe?$AAa?$AAt?$AAh?$AA?$CI?$AA?$CJ?$AA?$AA@ 0000000180063150     node_snap7_client.obj
 0002:00010188       ??_C@_1CO@EGNPJLKI@?$AAp?$AAe?$AAr?$AAs?$AAi?$AAs?$AAt?$AAe?$AAn?$AAt?$AA?$CI?$AA?$CJ?$AA?4?$AAI?$AAs?$AAE?$AAm?$AAp?$AAt?$AAy?$AA?$CI?$AA?$CJ?$AA?$AA@ 0000000180063188     node_snap7_client.obj
 0002:000101b8       ??_C@_1DA@FBGAEOIO@?$AA?$CB?$AAp?$AAe?$AAr?$AAs?$AAi?$AAs?$AAt?$AAe?$AAn?$AAt?$AA?$CI?$AA?$CJ?$AA?4?$AAI?$AAs?$AAE?$AAm?$AAp?$AAt?$AAy?$AA?$CI?$AA?$CJ?$AA?$AA@ 00000001800631b8     node_snap7_client.obj
 0002:000101e8       ??_C@_1CO@JCKLEFMA@?$AA?$CB?$AAp?$AAe?$AAr?$AAs?$AAi?$AAs?$AAt?$AAe?$AAn?$AAt?$AA?$CI?$AA?$CJ?$AA?4?$AAI?$AAs?$AAW?$AAe?$AAa?$AAk?$AA?$CI?$AA?$CJ?$AA?$AA@ 00000001800631e8     node_snap7_client.obj
 0002:00010218       ??_C@_1BE@GMLLOIPJ@?$AAr?$AAe?$AAf?$AAs?$AA_?$AA?5?$AA?$DO?$AA?5?$AA0?$AA?$AA@ 0000000180063218     node_snap7_client.obj
 0002:00010230       ??_C@_1CC@GBFLAAPF@?$AAw?$AAr?$AAa?$AAp?$AA?9?$AA?$DO?$AAr?$AAe?$AAf?$AAs?$AA_?$AA?5?$AA?$DN?$AA?$DN?$AA?5?$AA0?$AA?$AA@ 0000000180063230     node_snap7_client.obj
 0002:00010258       ??_C@_0BA@JFNIOLAK@string?5too?5long?$AA@ 0000000180063258     node_snap7_client.obj
 0002:00010270       ??_C@_1IA@DFPCBNN@?$AAD?$AA?3?$AA?2?$AAx?$AAa?$AAm?$AAp?$AAp?$AA?2?$AAh?$AAt?$AAd?$AAo?$AAc?$AAs?$AA?2?$AAb?$AAm?$AAa?$AA?2?$AAb?$AAm?$AAa?$AA?9?$AAd?$AAi?$AAn?$AAe?$AAx?$AA?9?$AAr?$AAe@ 0000000180063270     node_snap7_client.obj
 0002:000102f0       ??_C@_1GA@PFOOBIAG@?$AAl?$AAe?$AAn?$AAg?$AAt?$AAh?$AA?5?$AA?$DM?$AA?$DN?$AA?5?$AAi?$AAm?$AAp?$AA?3?$AA?3?$AAk?$AAM?$AAa?$AAx?$AAL?$AAe?$AAn?$AAg?$AAt?$AAh?$AA?5?$AA?$CG?$AA?$CG?$AA?5?$AA?$CC?$AAt?$AAo@ 00000001800632f0     node_snap7_client.obj
 0002:00010350       ??_C@_1BO@OPFMAOCA@?$AAl?$AAe?$AAn?$AA?5?$AA?$DM?$AA?$DN?$AA?5?$AAI?$AAN?$AAT?$AA_?$AAM?$AAA?$AAX?$AA?$AA@ 0000000180063350     node_snap7_client.obj
 0002:00010370       ??_C@_1BE@CKDJNAPC@?$AAs?$AAt?$AAr?$AA_?$AA?5?$AA?$CB?$AA?$DN?$AA?5?$AA0?$AA?$AA@ 0000000180063370     node_snap7_client.obj
 0002:00010390       ??_C@_1JI@OHEJNKDK@?$AAd?$AA?3?$AA?2?$AAx?$AAa?$AAm?$AAp?$AAp?$AA?2?$AAh?$AAt?$AAd?$AAo?$AAc?$AAs?$AA?2?$AAb?$AAm?$AAa?$AA?2?$AAb?$AAm?$AAa?$AA?9?$AAd?$AAi?$AAn?$AAe?$AAx?$AA?9?$AAr?$AAe@ 0000000180063390     node_snap7_client.obj
 0002:00010430       ??_C@_1EC@MGGLMBLC@?$AAo?$AAb?$AAj?$AAe?$AAc?$AAt?$AA?9?$AA?$DO?$AAI?$AAn?$AAt?$AAe?$AAr?$AAn?$AAa?$AAl?$AAF?$AAi?$AAe?$AAl?$AAd?$AAC?$AAo?$AAu?$AAn?$AAt?$AA?$CI?$AA?$CJ?$AA?5?$AA?$DO?$AA?5?$AA0@ 0000000180063430     node_snap7_client.obj
 0002:00010478       ??_C@_1DI@ELDBKNAK@?$AAw?$AAr?$AAa?$AAp?$AA?9?$AA?$DO?$AAh?$AAa?$AAn?$AAd?$AAl?$AAe?$AA_?$AA?4?$AAI?$AAs?$AAN?$AAe?$AAa?$AAr?$AAD?$AAe?$AAa?$AAt?$AAh?$AA?$CI?$AA?$CJ?$AA?$AA@ 0000000180063478     node_snap7_client.obj
 0002:000104b0       ??_C@_08EGDECEJG@S7Client?$AA@ 00000001800634b0     node_snap7_client.obj
 0002:000104c0       ??_C@_07FJPHLACI@Connect?$AA@ 00000001800634c0     node_snap7_client.obj
 0002:000104c8       ??_C@_09BPOMLFNF@ConnectTo?$AA@ 00000001800634c8     node_snap7_client.obj
 0002:000104d8       ??_C@_0BE@IBENGEPE@SetConnectionParams?$AA@ 00000001800634d8     node_snap7_client.obj
 0002:000104f0       ??_C@_0BC@PPIOEJFO@SetConnectionType?$AA@ 00000001800634f0     node_snap7_client.obj
 0002:00010508       ??_C@_0L@CMGJAGDM@Disconnect?$AA@ 0000000180063508     node_snap7_client.obj
 0002:00010518       ??_C@_08NDIFFFJI@GetParam?$AA@ 0000000180063518     node_snap7_client.obj
 0002:00010528       ??_C@_08CCKJEGOF@SetParam?$AA@ 0000000180063528     node_snap7_client.obj
 0002:00010538       ??_C@_08PFKCGMKA@ReadArea?$AA@ 0000000180063538     node_snap7_client.obj
 0002:00010548       ??_C@_09IAANHKGJ@WriteArea?$AA@ 0000000180063548     node_snap7_client.obj
 0002:00010558       ??_C@_0O@KOEBAMEK@ReadMultiVars?$AA@ 0000000180063558     node_snap7_client.obj
 0002:00010568       ??_C@_0P@LPFKBJEN@WriteMultiVars?$AA@ 0000000180063568     node_snap7_client.obj
 0002:00010578       ??_C@_0L@FKCPJHAP@ListBlocks?$AA@ 0000000180063578     node_snap7_client.obj
 0002:00010588       ??_C@_0P@IFHMDCE@GetAgBlockInfo?$AA@ 0000000180063588     node_snap7_client.obj
 0002:00010598       ??_C@_0P@JPOKGCLH@GetPgBlockInfo?$AA@ 0000000180063598     node_snap7_client.obj
 0002:000105a8       ??_C@_0BB@PADLMFKD@ListBlocksOfType?$AA@ 00000001800635a8     node_snap7_client.obj
 0002:000105bc       ??_C@_06GPFPJJPN@Upload?$AA@ 00000001800635bc     node_snap7_client.obj
 0002:000105c8       ??_C@_0L@IKDKKNFL@FullUpload?$AA@ 00000001800635c8     node_snap7_client.obj
 0002:000105d8       ??_C@_08PPHBPJGP@Download?$AA@ 00000001800635d8     node_snap7_client.obj
 0002:000105e4       ??_C@_06JBKGCNBB@Delete?$AA@ 00000001800635e4     node_snap7_client.obj
 0002:000105ec       ??_C@_05PLELMILC@DBGet?$AA@ 00000001800635ec     node_snap7_client.obj
 0002:000105f4       ??_C@_06IJFPNJAD@DBFill?$AA@ 00000001800635f4     node_snap7_client.obj
 0002:00010600       ??_C@_0P@FLJJBAEF@GetPlcDateTime?$AA@ 0000000180063600     node_snap7_client.obj
 0002:00010610       ??_C@_0P@JFIHOKGJ@SetPlcDateTime?$AA@ 0000000180063610     node_snap7_client.obj
 0002:00010620       ??_C@_0BF@HPLOBCNH@SetPlcSystemDateTime?$AA@ 0000000180063620     node_snap7_client.obj
 0002:00010638       ??_C@_0N@JPBMPLIC@GetOrderCode?$AA@ 0000000180063638     node_snap7_client.obj
 0002:00010648       ??_C@_0L@MBDKOMDH@GetCpuInfo?$AA@ 0000000180063648     node_snap7_client.obj
 0002:00010658       ??_C@_09BJMIAG@GetCpInfo?$AA@ 0000000180063658     node_snap7_client.obj
 0002:00010668       ??_C@_07BPBFLBDO@ReadSZL?$AA@ 0000000180063668     node_snap7_client.obj
 0002:00010670       ??_C@_0M@KIBMJHGO@ReadSZLList?$AA@ 0000000180063670     node_snap7_client.obj
 0002:00010680       ??_C@_0M@LFBNJDNM@PlcHotStart?$AA@ 0000000180063680     node_snap7_client.obj
 0002:00010690       ??_C@_0N@KHBNMJE@PlcColdStart?$AA@ 0000000180063690     node_snap7_client.obj
 0002:000106a0       ??_C@_07PKNHPPAO@PlcStop?$AA@ 00000001800636a0     node_snap7_client.obj
 0002:000106a8       ??_C@_0N@IKFBFLJD@CopyRamToRom?$AA@ 00000001800636a8     node_snap7_client.obj
 0002:000106b8       ??_C@_08MLCOAOMC@Compress?$AA@ 00000001800636b8     node_snap7_client.obj
 0002:000106c8       ??_C@_0O@LKAFHLFF@GetProtection?$AA@ 00000001800636c8     node_snap7_client.obj
 0002:000106d8       ??_C@_0BD@DEPBLLAD@SetSessionPassword?$AA@ 00000001800636d8     node_snap7_client.obj
 0002:000106f0       ??_C@_0BF@NILGJDAA@ClearSessionPassword?$AA@ 00000001800636f0     node_snap7_client.obj
 0002:00010708       ??_C@_08HGJACPJJ@ExecTime?$AA@ 0000000180063708     node_snap7_client.obj
 0002:00010718       ??_C@_09KKCAFAAF@LastError?$AA@ 0000000180063718     node_snap7_client.obj
 0002:00010728       ??_C@_0N@PLKJBLKM@PDURequested?$AA@ 0000000180063728     node_snap7_client.obj
 0002:00010738       ??_C@_09JOGEBIDJ@PDULength?$AA@ 0000000180063738     node_snap7_client.obj
 0002:00010748       ??_C@_09NFPLJBGM@PlcStatus?$AA@ 0000000180063748     node_snap7_client.obj
 0002:00010758       ??_C@_09NJLBODLJ@Connected?$AA@ 0000000180063758     node_snap7_client.obj
 0002:00010768       ??_C@_09LPAIFNDF@ErrorText?$AA@ 0000000180063768     node_snap7_client.obj
 0002:00010778       ??_C@_0BC@JLALHFA@errNegotiatingPDU?$AA@ 0000000180063778     node_snap7_client.obj
 0002:00010790       ??_C@_0BE@BKBEIEPL@errCliInvalidParams?$AA@ 0000000180063790     node_snap7_client.obj
 0002:000107a8       ??_C@_0BB@MBIMJEMF@errCliJobPending?$AA@ 00000001800637a8     node_snap7_client.obj
 0002:000107c0       ??_C@_0BD@IOMHMEDF@errCliTooManyItems?$AA@ 00000001800637c0     node_snap7_client.obj
 0002:000107d8       ??_C@_0BF@EDDEJDJE@errCliInvalidWordLen?$AA@ 00000001800637d8     node_snap7_client.obj
 0002:000107f0       ??_C@_0BJ@LKOEIGAO@errCliPartialDataWritten?$AA@ 00000001800637f0     node_snap7_client.obj
 0002:00010810       ??_C@_0BC@MPMMOEDP@errCliSizeOverPDU?$AA@ 0000000180063810     node_snap7_client.obj
 0002:00010828       ??_C@_0BH@FBCOACFD@errCliInvalidPlcAnswer?$AA@ 0000000180063828     node_snap7_client.obj
 0002:00010840       ??_C@_0BI@EFBPKOBG@errCliAddressOutOfRange?$AA@ 0000000180063840     node_snap7_client.obj
 0002:00010858       ??_C@_0BL@CLJHPODL@errCliInvalidTransportSize?$AA@ 0000000180063858     node_snap7_client.obj
 0002:00010878       ??_C@_0BM@JEDKPCJC@errCliWriteDataSizeMismatch?$AA@ 0000000180063878     node_snap7_client.obj
 0002:00010898       ??_C@_0BH@NLDBFCIN@errCliItemNotAvailable?$AA@ 0000000180063898     node_snap7_client.obj
 0002:000108b0       ??_C@_0BD@LCDFOEIH@errCliInvalidValue?$AA@ 00000001800638b0     node_snap7_client.obj
 0002:000108c8       ??_C@_0BF@KFICDHDN@errCliCannotStartPLC?$AA@ 00000001800638c8     node_snap7_client.obj
 0002:000108e0       ??_C@_0BB@EDEIGLNE@errCliAlreadyRun?$AA@ 00000001800638e0     node_snap7_client.obj
 0002:000108f8       ??_C@_0BE@JKGJAKKP@errCliCannotStopPLC?$AA@ 00000001800638f8     node_snap7_client.obj
 0002:00010910       ??_C@_0BJ@PEFCGHJA@errCliCannotCopyRamToRom?$AA@ 0000000180063910     node_snap7_client.obj
 0002:00010930       ??_C@_0BF@BKDPPKCD@errCliCannotCompress?$AA@ 0000000180063930     node_snap7_client.obj
 0002:00010948       ??_C@_0BC@CKNMADLC@errCliAlreadyStop?$AA@ 0000000180063948     node_snap7_client.obj
 0002:00010960       ??_C@_0BG@CPDCEEHM@errCliFunNotAvailable?$AA@ 0000000180063960     node_snap7_client.obj
 0002:00010978       ??_C@_0BL@DJIGBLLA@errCliUploadSequenceFailed?$AA@ 0000000180063978     node_snap7_client.obj
 0002:00010998       ??_C@_0BL@BKJPIPNA@errCliInvalidDataSizeRecvd?$AA@ 0000000180063998     node_snap7_client.obj
 0002:000109b8       ??_C@_0BH@KBGFJOOF@errCliInvalidBlockType?$AA@ 00000001800639b8     node_snap7_client.obj
 0002:000109d0       ??_C@_0BJ@NGGAGCEB@errCliInvalidBlockNumber?$AA@ 00000001800639d0     node_snap7_client.obj
 0002:000109f0       ??_C@_0BH@EOMLJALM@errCliInvalidBlockSize?$AA@ 00000001800639f0     node_snap7_client.obj
 0002:00010a08       ??_C@_0BN@KBOHHNKG@errCliDownloadSequenceFailed?$AA@ 0000000180063a08     node_snap7_client.obj
 0002:00010a28       ??_C@_0BE@LBNKOCIJ@errCliInsertRefused?$AA@ 0000000180063a28     node_snap7_client.obj
 0002:00010a40       ??_C@_0BE@CJMAHJIJ@errCliDeleteRefused?$AA@ 0000000180063a40     node_snap7_client.obj
 0002:00010a58       ??_C@_0BD@GAFANLOB@errCliNeedPassword?$AA@ 0000000180063a58     node_snap7_client.obj
 0002:00010a70       ??_C@_0BG@JDIPLIOG@errCliInvalidPassword?$AA@ 0000000180063a70     node_snap7_client.obj
 0002:00010a88       ??_C@_0BN@ICBHJJKO@errCliNoPasswordToSetOrClear?$AA@ 0000000180063a88     node_snap7_client.obj
 0002:00010aa8       ??_C@_0BB@GNGFPJIK@errCliJobTimeout?$AA@ 0000000180063aa8     node_snap7_client.obj
 0002:00010ac0       ??_C@_0BG@HPABNEBC@errCliPartialDataRead?$AA@ 0000000180063ac0     node_snap7_client.obj
 0002:00010ad8       ??_C@_0BF@GJACLDC@errCliBufferTooSmall?$AA@ 0000000180063ad8     node_snap7_client.obj
 0002:00010af0       ??_C@_0BG@IDHCGKDJ@errCliFunctionRefused?$AA@ 0000000180063af0     node_snap7_client.obj
 0002:00010b08       ??_C@_0BB@LDAKDHEC@errCliDestroying?$AA@ 0000000180063b08     node_snap7_client.obj
 0002:00010b20       ??_C@_0BJ@MHBOHHHM@errCliInvalidParamNumber?$AA@ 0000000180063b20     node_snap7_client.obj
 0002:00010b40       ??_C@_0BI@MCAIOAJI@errCliCannotChangeParam?$AA@ 0000000180063b40     node_snap7_client.obj
 0002:00010b58       ??_C@_0M@KLBCDICP@CONNTYPE_PG?$AA@ 0000000180063b58     node_snap7_client.obj
 0002:00010b68       ??_C@_0M@LJOLFIPE@CONNTYPE_OP?$AA@ 0000000180063b68     node_snap7_client.obj
 0002:00010b78       ??_C@_0P@GLMOJADA@CONNTYPE_BASIC?$AA@ 0000000180063b78     node_snap7_client.obj
 0002:00010b88       ??_C@_0BD@OANPALJB@S7CpuStatusUnknown?$AA@ 0000000180063b88     node_snap7_client.obj
 0002:00010ba0       ??_C@_0P@EHMMIFO@S7CpuStatusRun?$AA@ 0000000180063ba0     node_snap7_client.obj
 0002:00010bb0       ??_C@_0BA@CHPGFNCP@S7CpuStatusStop?$AA@ 0000000180063bb0     node_snap7_client.obj
 0002:00010bc0       ??_C@_08EKENODCK@S7AreaPE?$AA@ 0000000180063bc0     node_snap7_client.obj
 0002:00010bd0       ??_C@_08COCBCGCO@S7AreaPA?$AA@ 0000000180063bd0     node_snap7_client.obj
 0002:00010be0       ??_C@_08MADAPOIH@S7AreaMK?$AA@ 0000000180063be0     node_snap7_client.obj
 0002:00010bf0       ??_C@_08BOCDHOEB@S7AreaDB?$AA@ 0000000180063bf0     node_snap7_client.obj
 0002:00010c00       ??_C@_08HPENNBD@S7AreaCT?$AA@ 0000000180063c00     node_snap7_client.obj
 0002:00010c10       ??_C@_08IFJNMBPO@S7AreaTM?$AA@ 0000000180063c10     node_snap7_client.obj
 0002:00010c20       ??_C@_07JNHABOID@S7WLBit?$AA@ 0000000180063c20     node_snap7_client.obj
 0002:00010c28       ??_C@_08DMLPGKPJ@S7WLByte?$AA@ 0000000180063c28     node_snap7_client.obj
 0002:00010c38       ??_C@_08PMFLDHLL@S7WLWord?$AA@ 0000000180063c38     node_snap7_client.obj
 0002:00010c48       ??_C@_09PDBFEMGC@S7WLDWord?$AA@ 0000000180063c48     node_snap7_client.obj
 0002:00010c58       ??_C@_08INLPMPIO@S7WLReal?$AA@ 0000000180063c58     node_snap7_client.obj
 0002:00010c68       ??_C@_0M@LNLJALPJ@S7WLCounter?$AA@ 0000000180063c68     node_snap7_client.obj
 0002:00010c78       ??_C@_09EBCKIALH@S7WLTimer?$AA@ 0000000180063c78     node_snap7_client.obj
 0002:00010c88       ??_C@_08FJENIKAO@Block_OB?$AA@ 0000000180063c88     node_snap7_client.obj
 0002:00010c98       ??_C@_08FFBIGFOP@Block_DB?$AA@ 0000000180063c98     node_snap7_client.obj
 0002:00010ca8       ??_C@_09DLOMNJJP@Block_SDB?$AA@ 0000000180063ca8     node_snap7_client.obj
 0002:00010cb8       ??_C@_08EPIHIAMA@Block_FC?$AA@ 0000000180063cb8     node_snap7_client.obj
 0002:00010cc8       ??_C@_09CBHDDMLA@Block_SFC?$AA@ 0000000180063cc8     node_snap7_client.obj
 0002:00010cd8       ??_C@_08FGJMLBIB@Block_FB?$AA@ 0000000180063cd8     node_snap7_client.obj
 0002:00010ce8       ??_C@_09DIGIANPB@Block_SFB?$AA@ 0000000180063ce8     node_snap7_client.obj
 0002:00010cf8       ??_C@_09OALJODN@SubBlk_OB?$AA@ 0000000180063cf8     node_snap7_client.obj
 0002:00010d08       ??_C@_0L@IEGLPOJN@SubBlk_SDB?$AA@ 0000000180063d08     node_snap7_client.obj
 0002:00010d18       ??_C@_09BIMBJEPD@SubBlk_FC?$AA@ 0000000180063d18     node_snap7_client.obj
 0002:00010d28       ??_C@_0L@JOPEBLLC@SubBlk_SFC?$AA@ 0000000180063d28     node_snap7_client.obj
 0002:00010d38       ??_C@_09BNKKFLC@SubBlk_FB?$AA@ 0000000180063d38     node_snap7_client.obj
 0002:00010d48       ??_C@_0L@IHOPCKPD@SubBlk_SFB?$AA@ 0000000180063d48     node_snap7_client.obj
 0002:00010d58       ??_C@_0N@HLEACMAA@BlockLangAWL?$AA@ 0000000180063d58     node_snap7_client.obj
 0002:00010d68       ??_C@_0N@OALPGDPB@BlockLangKOP?$AA@ 0000000180063d68     node_snap7_client.obj
 0002:00010d78       ??_C@_0N@DGEJNIK@BlockLangFUP?$AA@ 0000000180063d78     node_snap7_client.obj
 0002:00010d88       ??_C@_0N@JKHPLILI@BlockLangSCL?$AA@ 0000000180063d88     node_snap7_client.obj
 0002:00010d98       ??_C@_0M@LPBDIHIO@BlockLangDB?$AA@ 0000000180063d98     node_snap7_client.obj
 0002:00010da8       ??_C@_0P@IKBHEIKO@BlockLangGRAPH?$AA@ 0000000180063da8     node_snap7_client.obj
 0002:00010db8       ??_C@_09FAMKDJKI@LocalPort?$AA@ 0000000180063db8     node_snap7_client.obj
 0002:00010dc8       ??_C@_0L@CAONHDKF@RemotePort?$AA@ 0000000180063dc8     node_snap7_client.obj
 0002:00010dd8       ??_C@_0M@DEDCPCCA@PingTimeout?$AA@ 0000000180063dd8     node_snap7_client.obj
 0002:00010de8       ??_C@_0M@HADLIONC@SendTimeout?$AA@ 0000000180063de8     node_snap7_client.obj
 0002:00010df8       ??_C@_0M@JMFGCDPK@RecvTimeout?$AA@ 0000000180063df8     node_snap7_client.obj
 0002:00010e08       ??_C@_0N@OLKIMLMP@WorkInterval?$AA@ 0000000180063e08     node_snap7_client.obj
 0002:00010e18       ??_C@_06PEGJHADP@SrcRef?$AA@ 0000000180063e18     node_snap7_client.obj
 0002:00010e20       ??_C@_06EPIMEKEI@DstRef?$AA@ 0000000180063e20     node_snap7_client.obj
 0002:00010e28       ??_C@_07MGOCHJOD@SrcTSap?$AA@ 0000000180063e28     node_snap7_client.obj
 0002:00010e30       ??_C@_0L@GNIPHLDM@PDURequest?$AA@ 0000000180063e30     node_snap7_client.obj
 0002:00010e40       ??_C@_0L@OFMEDLMB@MaxClients?$AA@ 0000000180063e40     node_snap7_client.obj
 0002:00010e50       ??_C@_0N@NJELCKNP@BSendTimeout?$AA@ 0000000180063e50     node_snap7_client.obj
 0002:00010e60       ??_C@_0N@DFCGIHPH@BRecvTimeout?$AA@ 0000000180063e60     node_snap7_client.obj
 0002:00010e70       ??_C@_0N@FPCGBAAD@RecoveryTime?$AA@ 0000000180063e70     node_snap7_client.obj
 0002:00010e80       ??_C@_0O@HNPIKCNH@KeepAliveTime?$AA@ 0000000180063e80     node_snap7_client.obj
 0002:00010e90       ??_C@_0BK@CCNLFCGP@Wrong?5number?5of?5arguments?$AA@ 0000000180063e90     node_snap7_client.obj
 0002:00010eb0       ??_C@_0BA@JBJBFEOE@Wrong?5arguments?$AA@ 0000000180063eb0     node_snap7_client.obj
 0002:00010ec0       ??_C@_0BK@GNIGFBLP@Wrong?5number?5of?5Arguments?$AA@ 0000000180063ec0     node_snap7_client.obj
 0002:00010ee0       ??_C@_0BM@DFOKBKM@Array?5needs?5at?5least?51?5item?$AA@ 0000000180063ee0     node_snap7_client.obj
 0002:00010f00       ??_C@_0CP@KDOKMNLD@?$CJ?5that?5can?5be?5transferred?5with?5R@ 0000000180063f00     node_snap7_client.obj
 0002:00010f30       ??_C@_0BO@IDBCMCK@Array?5exceeds?5max?5variables?5?$CI?$AA@ 0000000180063f30     node_snap7_client.obj
 0002:00010f50       ??_C@_0BJ@LJFHKDDK@Wrong?5argument?5structure?$AA@ 0000000180063f50     node_snap7_client.obj
 0002:00010f6c       ??_C@_04KPICECCB@Area?$AA@ 0000000180063f6c     node_snap7_client.obj
 0002:00010f78       ??_C@_07PGDIDDGF@WordLen?$AA@ 0000000180063f78     node_snap7_client.obj
 0002:00010f80       ??_C@_05FHMJPCKA@Start?$AA@ 0000000180063f80     node_snap7_client.obj
 0002:00010f88       ??_C@_06HKBMKICC@Amount?$AA@ 0000000180063f88     node_snap7_client.obj
 0002:00010f90       ??_C@_08BNHDHAFH@DBNumber?$AA@ 0000000180063f90     node_snap7_client.obj
 0002:00010f9c       ??_C@_06GGONACPB@Result?$AA@ 0000000180063f9c     node_snap7_client.obj
 0002:00010fa4       ??_C@_04DICKPMGH@Data?$AA@ 0000000180063fa4     node_snap7_client.obj
 0002:00010fb0       ??_C@_0DA@IDBGGKJG@?$CJ?5that?5can?5be?5transferred?5with?5W@ 0000000180063fb0     node_snap7_client.obj
 0002:00010fe0       ??_C@_07HOKBAGKP@OBCount?$AA@ 0000000180063fe0     node_snap7_client.obj
 0002:00010fe8       ??_C@_07GBOOBNIE@FBCount?$AA@ 0000000180063fe8     node_snap7_client.obj
 0002:00010ff0       ??_C@_07MHJJBGDA@FCCount?$AA@ 0000000180063ff0     node_snap7_client.obj
 0002:00010ff8       ??_C@_08KJBKKLPA@SFBCount?$AA@ 0000000180063ff8     node_snap7_client.obj
 0002:00011008       ??_C@_08PGNKAEE@SFCCount?$AA@ 0000000180064008     node_snap7_client.obj
 0002:00011018       ??_C@_07CDMLBKPJ@DBCount?$AA@ 0000000180064018     node_snap7_client.obj
 0002:00011020       ??_C@_08OLDPKMIN@SDBCount?$AA@ 0000000180064020     node_snap7_client.obj
 0002:00011030       ??_C@_0BM@BGBELIMK@Argument?5should?5be?5a?5Buffer?$AA@ 0000000180064030     node_snap7_client.obj
 0002:00011050       ??_C@_07EIJPENKB@BlkType?$AA@ 0000000180064050     node_snap7_client.obj
 0002:00011058       ??_C@_09FNKPICNE@BlkNumber?$AA@ 0000000180064058     node_snap7_client.obj
 0002:00011068       ??_C@_07KJCMACGK@BlkLang?$AA@ 0000000180064068     node_snap7_client.obj
 0002:00011070       ??_C@_08KILEHJPA@BlkFlags?$AA@ 0000000180064070     node_snap7_client.obj
 0002:00011080       ??_C@_07DMKINAKN@MC7Size?$AA@ 0000000180064080     node_snap7_client.obj
 0002:00011088       ??_C@_08OOEONMLO@LoadSize?$AA@ 0000000180064088     node_snap7_client.obj
 0002:00011098       ??_C@_09BGENOFHP@LocalData?$AA@ 0000000180064098     node_snap7_client.obj
 0002:000110a8       ??_C@_09HADHOCIC@SBBLength?$AA@ 00000001800640a8     node_snap7_client.obj
 0002:000110b8       ??_C@_08BPDKCIGK@CheckSum?$AA@ 00000001800640b8     node_snap7_client.obj
 0002:000110c8       ??_C@_07NGFJPNPN@Version?$AA@ 00000001800640c8     node_snap7_client.obj
 0002:000110d0       ??_C@_08LFHJKBBK@CodeDate?$AA@ 00000001800640d0     node_snap7_client.obj
 0002:000110e0       ??_C@_08NLHMFHK@IntfDate?$AA@ 00000001800640e0     node_snap7_client.obj
 0002:000110ec       ??_C@_06HHECMMLE@Author?$AA@ 00000001800640ec     node_snap7_client.obj
 0002:000110f4       ??_C@_06BOFMEHLD@Family?$AA@ 00000001800640f4     node_snap7_client.obj
 0002:000110fc       ??_C@_06OENKJGA@Header?$AA@ 00000001800640fc     node_snap7_client.obj
 0002:00011104       ??_C@_04JFPLDHAO@year?$AA@ 0000000180064104     node_snap7_client.obj
 0002:0001110c       ??_C@_05MEBAADFH@month?$AA@ 000000018006410c     node_snap7_client.obj
 0002:00011114       ??_C@_03NNBHCDBP@day?$AA@  0000000180064114     node_snap7_client.obj
 0002:00011118       ??_C@_05LOHOPFFC@hours?$AA@ 0000000180064118     node_snap7_client.obj
 0002:00011120       ??_C@_07GCICIJGK@minutes?$AA@ 0000000180064120     node_snap7_client.obj
 0002:00011128       ??_C@_07GELLIBDG@seconds?$AA@ 0000000180064128     node_snap7_client.obj
 0002:00011130       ??_C@_04BCJPDBDA@Code?$AA@ 0000000180064130     node_snap7_client.obj
 0002:00011138       ??_C@_02KONCHDFN@V1?$AA@   0000000180064138     node_snap7_client.obj
 0002:0001113c       ??_C@_02IFPPCAJO@V2?$AA@   000000018006413c     node_snap7_client.obj
 0002:00011140       ??_C@_02JMOEBBNP@V3?$AA@   0000000180064140     node_snap7_client.obj
 0002:00011148       ??_C@_0P@MPBPCGIN@ModuleTypeName?$AA@ 0000000180064148     node_snap7_client.obj
 0002:00011158       ??_C@_0N@FPJJBBNM@SerialNumber?$AA@ 0000000180064158     node_snap7_client.obj
 0002:00011168       ??_C@_06DGCJJFMK@ASName?$AA@ 0000000180064168     node_snap7_client.obj
 0002:00011170       ??_C@_09EGCMDBBB@Copyright?$AA@ 0000000180064170     node_snap7_client.obj
 0002:00011180       ??_C@_0L@GEIEADPN@ModuleName?$AA@ 0000000180064180     node_snap7_client.obj
 0002:00011190       ??_C@_0N@EKKLEDM@MaxPduLength?$AA@ 0000000180064190     node_snap7_client.obj
 0002:000111a0       ??_C@_0P@DDHINENC@MaxConnections?$AA@ 00000001800641a0     node_snap7_client.obj
 0002:000111b0       ??_C@_0L@HMKBOFO@MaxMpiRate?$AA@ 00000001800641b0     node_snap7_client.obj
 0002:000111c0       ??_C@_0L@COJPACKI@MaxBusRate?$AA@ 00000001800641c0     node_snap7_client.obj
 0002:000111d0       ??_C@_09JPJNBOIB@sch_schal?$AA@ 00000001800641d0     node_snap7_client.obj
 0002:000111e0       ??_C@_07GDJLCPEP@sch_par?$AA@ 00000001800641e0     node_snap7_client.obj
 0002:000111e8       ??_C@_07BKNKHAMH@sch_rel?$AA@ 00000001800641e8     node_snap7_client.obj
 0002:000111f0       ??_C@_08LIBKKPDN@bart_sch?$AA@ 00000001800641f0     node_snap7_client.obj
 0002:00011200       ??_C@_07GFPLLJE@anl_sch?$AA@ 0000000180064200     node_snap7_client.obj
 0002:00011208       ??_C@_02BBAHNLBA@?$CFp?$AA@ 0000000180064208     node_snap7_client.obj
 0002:0001120c       ??_C@_02MDKMJEGG@eE?$AA@   000000018006420c     node_snap7_client.obj
 0002:00011210       ??_C@_02OOPEBDOJ@pP?$AA@   0000000180064210     node_snap7_client.obj
 0002:00011218       ??_C@_0BI@CFPLBAOH@invalid?5string?5position?$AA@ 0000000180064218     node_snap7_client.obj
 0002:00011230       ??_C@_1CE@LNAGEONJ@?$AA?$CB?$AAo?$AAb?$AAj?$AAe?$AAc?$AAt?$AA?4?$AAI?$AAs?$AAE?$AAm?$AAp?$AAt?$AAy?$AA?$CI?$AA?$CJ?$AA?$AA@ 0000000180064230     node_snap7_client.obj
 0002:00011258       ??_7AsyncWorker@Nan@@6B@   0000000180064258     node_snap7_client.obj
 0002:00011288       ??_7?$basic_streambuf@DU?$char_traits@D@std@@@std@@6B@ 0000000180064288     node_snap7_client.obj
 0002:00011300       ??_7error_category@std@@6B@ 0000000180064300     node_snap7_client.obj
 0002:00011330       ??_7_Iostream_error_category@std@@6B@ 0000000180064330     node_snap7_client.obj
 0002:00011360       ??_7ios_base@std@@6B@      0000000180064360     node_snap7_client.obj
 0002:00011368       ??_7IOWorker@node_snap7@@6B@ 0000000180064368     node_snap7_client.obj
 0002:00011398       ??_8?$basic_stringstream@DU?$char_traits@D@std@@V?$allocator@D@2@@std@@7B?$basic_ostream@DU?$char_traits@D@std@@@1@@ 0000000180064398     node_snap7_client.obj
 0002:000113a0       ??_7?$basic_ios@DU?$char_traits@D@std@@@std@@6B@ 00000001800643a0     node_snap7_client.obj
 0002:000113a8       ??_7?$basic_iostream@DU?$char_traits@D@std@@@std@@6B@ 00000001800643a8     node_snap7_client.obj
 0002:000113b0       ??_7exception@stdext@@6B@  00000001800643b0     node_snap7_client.obj
 0002:000113c8       ??_7?$basic_stringbuf@DU?$char_traits@D@std@@V?$allocator@D@2@@std@@6B@ 00000001800643c8     node_snap7_client.obj
 0002:00011440       ??_7?$basic_stringstream@DU?$char_traits@D@std@@V?$allocator@D@2@@std@@6B@ 0000000180064440     node_snap7_client.obj
 0002:00011448       ??_7?$basic_istream@DU?$char_traits@D@std@@@std@@6B@ 0000000180064448     node_snap7_client.obj
 0002:00011450       ??_7ObjectWrap@Nan@@6B@    0000000180064450     node_snap7_client.obj
 0002:00011468       ??_7S7Client@node_snap7@@6B@ 0000000180064468     node_snap7_client.obj
 0002:00011480       ??_8?$basic_stringstream@DU?$char_traits@D@std@@V?$allocator@D@2@@std@@7B?$basic_istream@DU?$char_traits@D@std@@@1@@ 0000000180064480     node_snap7_client.obj
 0002:00011488       ??_7?$basic_ostream@DU?$char_traits@D@std@@@std@@6B@ 0000000180064488     node_snap7_client.obj
 0002:00011490       ??_7_System_error@std@@6B@ 0000000180064490     node_snap7_client.obj
 0002:00011490       ??_7failure@ios_base@std@@6B@ 0000000180064490     node_snap7_client.obj
 0002:000114a8       ??_C@_08HCOMDCCD@iojs?4exe?$AA@ 00000001800644a8     win_delay_load_hook.obj
 0002:000114b8       ??_C@_08JDDNMFDB@node?4exe?$AA@ 00000001800644b8     win_delay_load_hook.obj
 0002:000114c8       __pfnDliNotifyHook2        00000001800644c8     win_delay_load_hook.obj
 0002:000114e0       ??_7TConnListenerThread@@6B@ 00000001800644e0     snap7:s7_partner.obj
 0002:000114f0       ??_7TPartnerThread@@6B@    00000001800644f0     snap7:s7_partner.obj
 0002:00011500       ??_7TSnap7Partner@@6B@     0000000180064500     snap7:s7_partner.obj
 0002:00011528       ??_7TClientThread@@6B@     0000000180064528     snap7:s7_client.obj
 0002:00011538       ??_7TSnap7Client@@6B@      0000000180064538     snap7:s7_client.obj
 0002:00011560       ??_C@_08FDIJDPJM@?$CFY?1?$CFm?1?$CFd?$AA@ 0000000180064560     snap7:s7_micro_client.obj
 0002:00011570       ??_7TSnap7MicroClient@@6B@ 0000000180064570     snap7:s7_micro_client.obj
 0002:00011598       ??_C@_01GBGANLPD@0?$AA@    0000000180064598     snap7:s7_text.obj
 0002:000115a0       ??_C@_0BC@LGPAMIPH@?$CFY?9?$CFm?9?$CFd?5?$CFH?3?$CFM?3?$CFS?$AA@ 00000001800645a0     snap7:s7_text.obj
 0002:000115b8       ??_C@_0BP@NIDLDPOF@?5TCP?5?3?5Interrupted?5system?5call?$AA@ 00000001800645b8     snap7:s7_text.obj
 0002:000115d8       ??_C@_0BH@BMGBJMIP@?5TCP?5?3?5Bad?5file?5number?$AA@ 00000001800645d8     snap7:s7_text.obj
 0002:000115f0       ??_C@_0BJ@HHGLAPJG@?5TCP?5?3?5Permission?5denied?$AA@ 00000001800645f0     snap7:s7_text.obj
 0002:00011610       ??_C@_0BD@CCEHCNKJ@?5TCP?5?3?5Bad?5address?$AA@ 0000000180064610     snap7:s7_text.obj
 0002:00011628       ??_C@_0BI@KPCALANF@?5TCP?5?3?5Invalid?5argument?$AA@ 0000000180064628     snap7:s7_text.obj
 0002:00011640       ??_C@_0BL@JEGCEJBH@?5TCP?5?3?5Too?5many?5open?5files?$AA@ 0000000180064640     snap7:s7_text.obj
 0002:00011660       ??_C@_0BN@COMJLNNB@?5TCP?5?3?5Operation?5would?5block?$AA@ 0000000180064660     snap7:s7_text.obj
 0002:00011680       ??_C@_0CB@CIDMJNGC@?5TCP?5?3?5Operation?5now?5in?5progress@ 0000000180064680     snap7:s7_text.obj
 0002:000116a8       ??_C@_0CF@FJCOFOAG@?5TCP?5?3?5Operation?5already?5in?5prog@ 00000001800646a8     snap7:s7_text.obj
 0002:000116d0       ??_C@_0CG@HKLCFBBP@?5TCP?5?3?5Socket?5operation?5on?5non?5s@ 00000001800646d0     snap7:s7_text.obj
 0002:000116f8       ??_C@_0CE@IFPCMKOJ@?5TCP?5?3?5Destination?5address?5requi@ 00000001800646f8     snap7:s7_text.obj
 0002:00011720       ??_C@_0BI@EMOKOM@?5TCP?5?3?5Message?5too?5long?$AA@ 0000000180064720     snap7:s7_text.obj
 0002:00011738       ??_C@_0CG@BPIIMPKB@?5TCP?5?3?5Protocol?5wrong?5type?5for?5S@ 0000000180064738     snap7:s7_text.obj
 0002:00011760       ??_C@_0BO@IFLNMCIC@?5TCP?5?3?5Protocol?5not?5available?$AA@ 0000000180064760     snap7:s7_text.obj
 0002:00011780       ??_C@_0BO@BPFANKEL@?5TCP?5?3?5Protocol?5not?5supported?$AA@ 0000000180064780     snap7:s7_text.obj
 0002:000117a0       ??_C@_0BM@CBHIAHBB@?5TCP?5?3?5Socket?5not?5supported?$AA@ 00000001800647a0     snap7:s7_text.obj
 0002:000117c0       ??_C@_0CJ@EPJHDJNC@?5TCP?5?3?5Operation?5not?5supported?5o@ 00000001800647c0     snap7:s7_text.obj
 0002:000117f0       ??_C@_0CF@EANJNNO@?5TCP?5?3?5Protocol?5family?5not?5suppo@ 00000001800647f0     snap7:s7_text.obj
 0002:00011818       ??_C@_0CE@JMJLLMFH@?5TCP?5?3?5Address?5family?5not?5suppor@ 0000000180064818     snap7:s7_text.obj
 0002:00011840       ??_C@_0BO@IJKAGDLG@?5TCP?5?3?5Address?5already?5in?5use?$AA@ 0000000180064840     snap7:s7_text.obj
 0002:00011860       ??_C@_0CG@MJFCOILG@?5TCP?5?3?5Can?8t?5assign?5requested?5ad@ 0000000180064860     snap7:s7_text.obj
 0002:00011888       ??_C@_0BH@CPOECOCN@?5TCP?5?3?5Network?5is?5down?$AA@ 0000000180064888     snap7:s7_text.obj
 0002:000118a0       ??_C@_0BO@KKAEHOBO@?5TCP?5?3?5Network?5is?5unreachable?$AA@ 00000001800648a0     snap7:s7_text.obj
 0002:000118c0       ??_C@_0CL@LBECLCPF@?5TCP?5?3?5Network?5dropped?5connectio@ 00000001800648c0     snap7:s7_text.obj
 0002:000118f0       ??_C@_0CI@HFBDIHLJ@?5TCP?5?3?5Software?5caused?5connectio@ 00000001800648f0     snap7:s7_text.obj
 0002:00011918       ??_C@_0CA@KBPGNJKH@?5TCP?5?3?5Connection?5reset?5by?5peer?$AA@ 0000000180064918     snap7:s7_text.obj
 0002:00011938       ??_C@_0CB@HJBDMLJM@?5TCP?5?3?5No?5Buffer?5space?5available@ 0000000180064938     snap7:s7_text.obj
 0002:00011960       ??_C@_0CD@PHPMLLDE@?5TCP?5?3?5Socket?5is?5already?5connect@ 0000000180064960     snap7:s7_text.obj
 0002:00011988       ??_C@_0BP@BDFOALEE@?5TCP?5?3?5Socket?5is?5not?5connected?$AA@ 0000000180064988     snap7:s7_text.obj
 0002:000119a8       ??_C@_0CI@OPFCNJGA@?5TCP?5?3?5Can?8t?5send?5after?5Socket?5s@ 00000001800649a8     snap7:s7_text.obj
 0002:000119d0       ??_C@_0CI@JLKAOJOC@?5TCP?5?3?5Too?5many?5references?3can?8t@ 00000001800649d0     snap7:s7_text.obj
 0002:000119f8       ??_C@_0BM@KGAMDMJK@?5TCP?5?3?5Connection?5timed?5out?$AA@ 00000001800649f8     snap7:s7_text.obj
 0002:00011a18       ??_C@_0BK@MIIJPPMJ@?5TCP?5?3?5Connection?5refused?$AA@ 0000000180064a18     snap7:s7_text.obj
 0002:00011a38       ??_C@_0CJ@MFJEAEIP@?5TCP?5?3?5Too?5many?5levels?5of?5symbol@ 0000000180064a38     snap7:s7_text.obj
 0002:00011a68       ??_C@_0BN@DEJFAEED@?5TCP?5?3?5File?5name?5is?5too?5long?$AA@ 0000000180064a68     snap7:s7_text.obj
 0002:00011a88       ??_C@_0BE@CBHPDIGI@?5TCP?5?3?5Host?5is?5down?$AA@ 0000000180064a88     snap7:s7_text.obj
 0002:00011aa0       ??_C@_0BI@DBNPFBCC@?5TCP?5?3?5Unreachable?5peer?$AA@ 0000000180064aa0     snap7:s7_text.obj
 0002:00011ab8       ??_C@_0BO@HMJDONNK@?5TCP?5?3?5Directory?5is?5not?5empty?$AA@ 0000000180064ab8     snap7:s7_text.obj
 0002:00011ad8       ??_C@_0BG@OPHDKODN@?5TCP?5?3?5Too?5many?5users?$AA@ 0000000180064ad8     snap7:s7_text.obj
 0002:00011af0       ??_C@_0BL@PFKLEABE@?5TCP?5?3?5Disk?5quota?5exceeded?$AA@ 0000000180064af0     snap7:s7_text.obj
 0002:00011b10       ??_C@_0BN@OPLEFOGE@?5TCP?5?3?5Stale?5NFS?5file?5handle?$AA@ 0000000180064b10     snap7:s7_text.obj
 0002:00011b30       ??_C@_0CJ@NLMFLMFI@?5TCP?5?3?5Too?5many?5levels?5of?5remote@ 0000000180064b30     snap7:s7_text.obj
 0002:00011b60       ??_C@_0BK@BMECIGGK@?5TCP?5?3?5Too?5many?5processes?$AA@ 0000000180064b60     snap7:s7_text.obj
 0002:00011b80       ??_C@_0CF@GCONPAL@?5TCP?5?3?5Network?5subsystem?5is?5unus@ 0000000180064b80     snap7:s7_text.obj
 0002:00011ba8       ??_C@_0DD@PPJEKMIC@?5TCP?5?3?5Winsock?5DLL?5cannot?5suppor@ 0000000180064ba8     snap7:s7_text.obj
 0002:00011be0       ??_C@_0BP@HPDIGMBJ@?5TCP?5?3?5Winsock?5not?5initialized?$AA@ 0000000180064be0     snap7:s7_text.obj
 0002:00011c00       ??_C@_0BC@CFPAJFPI@?5TCP?5?3?5Disconnect?$AA@ 0000000180064c00     snap7:s7_text.obj
 0002:00011c18       ??_C@_0BG@PPHJGLJI@?5TCP?5?3?5Host?5not?5found?$AA@ 0000000180064c18     snap7:s7_text.obj
 0002:00011c30       ??_C@_0CK@NFMCALGG@?5TCP?5?3?5Non?5authoritative?5?9?5host?5@ 0000000180064c30     snap7:s7_text.obj
 0002:00011c60       ??_C@_0BN@ECAFGHIO@?5TCP?5?3?5Non?5recoverable?5error?$AA@ 0000000180064c60     snap7:s7_text.obj
 0002:00011c80       ??_C@_0DE@DBFIKOPE@?5TCP?5?3?5Valid?5name?0?5no?5data?5recor@ 0000000180064c80     snap7:s7_text.obj
 0002:00011cb8       ??_C@_0BH@GPAKLAPH@?5TCP?5?3?5Invalid?5address?$AA@ 0000000180064cb8     snap7:s7_text.obj
 0002:00011cd0       ??_C@_01PKGAHCOL@?$CJ?$AA@ 0000000180064cd0     snap7:s7_text.obj
 0002:00011cd8       ??_C@_0BM@IPEGIMML@?5TCP?5?3?5Other?5Socket?5error?5?$CI?$AA@ 0000000180064cd8     snap7:s7_text.obj
 0002:00011cf8       ??_C@_0BI@GCEIFOPL@?5ISO?5?3?5Connection?5error?$AA@ 0000000180064cf8     snap7:s7_text.obj
 0002:00011d10       ??_C@_0BI@OHAHBDLC@?5ISO?5?3?5Disconnect?5error?$AA@ 0000000180064d10     snap7:s7_text.obj
 0002:00011d28       ??_C@_0BG@HGHDAGJP@?5ISO?5?3?5Bad?5PDU?5format?$AA@ 0000000180064d28     snap7:s7_text.obj
 0002:00011d40       ??_C@_0DG@CMLFFJCH@?5ISO?5?3?5Datasize?5passed?5to?5send?1r@ 0000000180064d40     snap7:s7_text.obj
 0002:00011d78       ??_C@_0BO@ODPNIGBE@?5ISO?5?3?5Null?5passed?5as?5pointer?$AA@ 0000000180064d78     snap7:s7_text.obj
 0002:00011d98       ??_C@_0BP@OKINLMPF@?5ISO?5?3?5A?5short?5packet?5received?$AA@ 0000000180064d98     snap7:s7_text.obj
 0002:00011db8       ??_C@_0CJ@EEGEOFE@?5ISO?5?3?5Too?5many?5packets?5without?5@ 0000000180064db8     snap7:s7_text.obj
 0002:00011de8       ??_C@_0DN@MEJBFMOE@?5ISO?5?3?5The?5sum?5of?5fragments?5data@ 0000000180064de8     snap7:s7_text.obj
 0002:00011e28       ??_C@_0CF@DBBMKPJE@?5ISO?5?3?5An?5error?5occurred?5during?5@ 0000000180064e28     snap7:s7_text.obj
 0002:00011e50       ??_C@_0CF@HMFAGFKE@?5ISO?5?3?5An?5error?5occurred?5during?5@ 0000000180064e50     snap7:s7_text.obj
 0002:00011e78       ??_C@_0CP@NJGNAIHD@?5ISO?5?3?5Invalid?5connection?5params@ 0000000180064e78     snap7:s7_text.obj
 0002:00011ea8       ??_C@_0BJ@CEMDHNAE@?5ISO?5?3?5Unknown?5error?5?$CI0x?$AA@ 0000000180064ea8     snap7:s7_text.obj
 0002:00011ec8       ??_C@_0BP@PADENHMD@CPU?5?3?5Error?5in?5PDU?5negotiation?$AA@ 0000000180064ec8     snap7:s7_text.obj
 0002:00011ee8       ??_C@_0CA@HJOFHADJ@CLI?5?3?5invalid?5param?$CIs?$CJ?5supplied?$AA@ 0000000180064ee8     snap7:s7_text.obj
 0002:00011f08       ??_C@_0BC@PKDMAGEC@CLI?5?3?5Job?5pending?$AA@ 0000000180064f08     snap7:s7_text.obj
 0002:00011f20       ??_C@_0CO@HKODLHME@CLI?5?3?5too?5may?5items?5?$CI?$DO20?$CJ?5in?5mul@ 0000000180064f20     snap7:s7_text.obj
 0002:00011f50       ??_C@_0BJ@KGMFPCKJ@CLI?5?3?5invalid?5WordLength?$AA@ 0000000180064f50     snap7:s7_text.obj
 0002:00011f70       ??_C@_0BL@LBOGFHOA@CLI?5?3?5Partial?5data?5written?$AA@ 0000000180064f70     snap7:s7_text.obj
 0002:00011f90       ??_C@_0CG@CLMDCNDO@CPU?5?3?5total?5data?5exceeds?5the?5PDU@ 0000000180064f90     snap7:s7_text.obj
 0002:00011fb8       ??_C@_0BJ@MLFICAIH@CLI?5?3?5invalid?5CPU?5answer?$AA@ 0000000180064fb8     snap7:s7_text.obj
 0002:00011fd8       ??_C@_0BL@PCJBPLOA@CPU?5?3?5Address?5out?5of?5range?$AA@ 0000000180064fd8     snap7:s7_text.obj
 0002:00011ff8       ??_C@_0BN@MACPABBL@CPU?5?3?5Invalid?5Transport?5size?$AA@ 0000000180064ff8     snap7:s7_text.obj
 0002:00012018       ??_C@_0BJ@GGBDMEHH@CPU?5?3?5Data?5size?5mismatch?$AA@ 0000000180065018     snap7:s7_text.obj
 0002:00012038       ??_C@_0BJ@NMENJHIJ@CPU?5?3?5Item?5not?5available?$AA@ 0000000180065038     snap7:s7_text.obj
 0002:00012058       ??_C@_0BN@GLGPHHCI@CPU?5?3?5Invalid?5value?5supplied?$AA@ 0000000180065058     snap7:s7_text.obj
 0002:00012078       ??_C@_0BH@LGAHKBEB@CPU?5?3?5Cannot?5start?5PLC?$AA@ 0000000180065078     snap7:s7_text.obj
 0002:00012090       ??_C@_0BG@KDELOFDD@CPU?5?3?5PLC?5already?5RUN?$AA@ 0000000180065090     snap7:s7_text.obj
 0002:000120a8       ??_C@_0BG@KHKGDJAP@CPU?5?3?5Cannot?5stop?5PLC?$AA@ 00000001800650a8     snap7:s7_text.obj
 0002:000120c0       ??_C@_0BN@NCJDDJMB@CPU?5?3?5Cannot?5copy?5RAM?5to?5ROM?$AA@ 00000001800650c0     snap7:s7_text.obj
 0002:000120e0       ??_C@_0BG@MIHPEHEM@CPU?5?3?5Cannot?5compress?$AA@ 00000001800650e0     snap7:s7_text.obj
 0002:000120f8       ??_C@_0BH@IBNGFDEF@CPU?5?3?5PLC?5already?5STOP?$AA@ 00000001800650f8     snap7:s7_text.obj
 0002:00012110       ??_C@_0BN@DGHOGHMK@CPU?5?3?5Function?5not?5available?$AA@ 0000000180065110     snap7:s7_text.obj
 0002:00012130       ??_C@_0BN@DLOFGHEL@CPU?5?3?5Upload?5sequence?5failed?$AA@ 0000000180065130     snap7:s7_text.obj
 0002:00012150       ??_C@_0CB@LDDADKCN@CLI?5?3?5Invalid?5data?5size?5received@ 0000000180065150     snap7:s7_text.obj
 0002:00012178       ??_C@_0BJ@BILPJBAM@CLI?5?3?5Invalid?5block?5type?$AA@ 0000000180065178     snap7:s7_text.obj
 0002:00012198       ??_C@_0BL@MJGDIOKP@CLI?5?3?5Invalid?5block?5number?$AA@ 0000000180065198     snap7:s7_text.obj
 0002:000121b8       ??_C@_0BJ@PHBBJPFF@CLI?5?3?5Invalid?5block?5size?$AA@ 00000001800651b8     snap7:s7_text.obj
 0002:000121d8       ??_C@_0BP@CILFNFKO@CPU?5?3?5Download?5sequence?5failed?$AA@ 00000001800651d8     snap7:s7_text.obj
 0002:000121f8       ??_C@_0BL@MBKNJDED@CPU?5?3?5block?5insert?5refused?$AA@ 00000001800651f8     snap7:s7_text.obj
 0002:00012218       ??_C@_0BL@MBDFIJNI@CPU?5?3?5block?5delete?5refused?$AA@ 0000000180065218     snap7:s7_text.obj
 0002:00012238       ??_C@_0DL@DACOJGDD@CPU?5?3?5Function?5not?5authorized?5fo@ 0000000180065238     snap7:s7_text.obj
 0002:00012278       ??_C@_0BH@PMKEMCDF@CPU?5?3?5Invalid?5password?$AA@ 0000000180065278     snap7:s7_text.obj
 0002:00012290       ??_C@_0CC@HLJMCHHP@CPU?5?3?5No?5password?5to?5set?5or?5clea@ 0000000180065290     snap7:s7_text.obj
 0002:000122b8       ??_C@_0BC@KPKDAJFL@CLI?5?3?5Job?5Timeout?$AA@ 00000001800652b8     snap7:s7_text.obj
 0002:000122d0       ??_C@_0CO@CNAFDHGN@CLI?5?3?5function?5refused?5by?5CPU?5?$CIU@ 00000001800652d0     snap7:s7_text.obj
 0002:00012300       ??_C@_0BI@OHDJOHLK@CLI?5?3?5Partial?5data?5read?$AA@ 0000000180065300     snap7:s7_text.obj
 0002:00012320       ??_C@_0ED@NFKDJOAE@CLI?5?3?5The?5buffer?5supplied?5is?5too@ 0000000180065320     snap7:s7_text.obj
 0002:00012368       ??_C@_0CC@HOPLJIIF@CLI?5?3?5Cannot?5perform?5?$CIdestroying@ 0000000180065368     snap7:s7_text.obj
 0002:00012390       ??_C@_0BL@ONNJMOMC@CLI?5?3?5Invalid?5Param?5Number?$AA@ 0000000180065390     snap7:s7_text.obj
 0002:000123b0       ??_C@_0CD@NOIJNJBL@CLI?5?3?5Cannot?5change?5this?5param?5n@ 00000001800653b0     snap7:s7_text.obj
 0002:000123d8       ??_C@_0BI@NAFGAAIC@CLI?5?3?5Unknown?5error?5?$CI0x?$AA@ 00000001800653d8     snap7:s7_text.obj
 0002:000123f0       ??_C@_0BK@MCCAAJMG@SRV?5?3?5Server?5cannot?5start?$AA@ 00000001800653f0     snap7:s7_text.obj
 0002:00012410       ??_C@_0CC@ELLOOKKO@SRV?5?3?5Null?5passed?5as?5area?5pointe@ 0000000180065410     snap7:s7_text.obj
 0002:00012438       ??_C@_0DA@JJNHKHPO@SRV?5?3?5Cannot?5register?5area?5since@ 0000000180065438     snap7:s7_text.obj
 0002:00012468       ??_C@_0BI@JKKJHLPK@SRV?5?3?5Unknown?5Area?5code?$AA@ 0000000180065468     snap7:s7_text.obj
 0002:00012480       ??_C@_0CA@KJMAJMCE@SRV?5?3?5Invalid?5param?$CIs?$CJ?5supplied?$AA@ 0000000180065480     snap7:s7_text.obj
 0002:000124a0       ??_C@_0BH@GCCMBOHD@SRV?5?3?5DB?5Limit?5reached?$AA@ 00000001800654a0     snap7:s7_text.obj
 0002:000124b8       ??_C@_0BL@MJEEIGJD@SRV?5?3?5Invalid?5Param?5Number?$AA@ 00000001800654b8     snap7:s7_text.obj
 0002:000124d8       ??_C@_0CD@KFFIJNAE@SRV?5?3?5Cannot?5change?5this?5param?5n@ 00000001800654d8     snap7:s7_text.obj
 0002:00012500       ??_C@_0BI@DGFBJKKO@SRV?5?3?5Unknown?5error?5?$CI0x?$AA@ 0000000180065500     snap7:s7_text.obj
 0002:00012518       ??_C@_0CD@KICNKPIF@PAR?5?3?5Local?5address?5already?5in?5u@ 0000000180065518     snap7:s7_text.obj
 0002:00012540       ??_C@_0CB@NNJAOEAA@PAR?5?3?5No?5more?5partners?5available@ 0000000180065540     snap7:s7_text.obj
 0002:00012568       ??_C@_0CA@PAABCCHN@PAR?5?3?5No?5more?5servers?5available?$AA@ 0000000180065568     snap7:s7_text.obj
 0002:00012588       ??_C@_0CB@IJEHDDDF@PAR?5?3?5Invalid?5parameter?5supplied@ 0000000180065588     snap7:s7_text.obj
 0002:000125b0       ??_C@_0CJ@DGMNGHNB@PAR?5?3?5Cannot?5perform?0?5Partner?5no@ 00000001800655b0     snap7:s7_text.obj
 0002:000125e0       ??_C@_0CD@BNCDBNOL@PAR?5?3?5Cannot?5perform?0?5Partner?5Bu@ 00000001800655e0     snap7:s7_text.obj
 0002:00012608       ??_C@_0BE@NKDCPHNP@PAR?5?3?5Frame?5timeout?$AA@ 0000000180065608     snap7:s7_text.obj
 0002:00012620       ??_C@_0BL@OPOMFDI@PAR?5?3?5Invalid?5PDU?5received?$AA@ 0000000180065620     snap7:s7_text.obj
 0002:00012640       ??_C@_0BD@DEPEMMNG@PAR?5?3?5Send?5timeout?$AA@ 0000000180065640     snap7:s7_text.obj
 0002:00012658       ??_C@_0BD@BKNAJIB@PAR?5?3?5Recv?5timeout?$AA@ 0000000180065658     snap7:s7_text.obj
 0002:00012670       ??_C@_0BL@LECADHKO@PAR?5?3?5Send?5refused?5by?5peer?$AA@ 0000000180065670     snap7:s7_text.obj
 0002:00012690       ??_C@_0BM@IINFPDJK@PAR?5?3?5Error?5negotiating?5PDU?$AA@ 0000000180065690     snap7:s7_text.obj
 0002:000126b0       ??_C@_0BK@EMKAOMOA@PAR?5?3?5Error?5Sending?5Block?$AA@ 00000001800656b0     snap7:s7_text.obj
 0002:000126d0       ??_C@_0BM@GHMPEGLM@PAR?5?3?5Error?5Receiving?5Block?$AA@ 00000001800656d0     snap7:s7_text.obj
 0002:000126f0       ??_C@_0BE@OMGKJNGD@PAR?5?3?5Error?5Binding?$AA@ 00000001800656f0     snap7:s7_text.obj
 0002:00012708       ??_C@_0CC@IAEEHCJI@PAR?5?3?5Cannot?5perform?5?$CIdestroying@ 0000000180065708     snap7:s7_text.obj
 0002:00012730       ??_C@_0BL@NJGIFHCL@PAR?5?3?5Invalid?5Param?5Number?$AA@ 0000000180065730     snap7:s7_text.obj
 0002:00012750       ??_C@_0CD@LNHBAKCI@PAR?5?3?5Cannot?5change?5this?5param?5n@ 0000000180065750     snap7:s7_text.obj
 0002:00012780       ??_C@_0ED@FCHANBIJ@PAR?5?3?5The?5buffer?5supplied?5is?5too@ 0000000180065780     snap7:s7_text.obj
 0002:000127c8       ??_C@_0BI@EFHJBPPH@PAR?5?3?5Unknown?5error?5?$CI0x?$AA@ 00000001800657c8     snap7:s7_text.obj
 0002:000127e0       ??_C@_0BN@HFPHNLJP@LIB?5?3?5Invalid?5param?5supplied?$AA@ 00000001800657e0     snap7:s7_text.obj
 0002:00012800       ??_C@_0BO@DCNJADLO@LIB?5?3?5Invalid?5object?5supplied?$AA@ 0000000180065800     snap7:s7_text.obj
 0002:00012820       ??_C@_02GIPFHKNO@OK?$AA@   0000000180065820     snap7:s7_text.obj
 0002:00012824       ??_C@_02PBFOLPKM@?$FN?5?$AA@ 0000000180065824     snap7:s7_text.obj
 0002:00012828       ??_C@_02GBLMOEJC@?5?$FL?$AA@ 0000000180065828     snap7:s7_text.obj
 0002:00012830       ??_C@_08GHFBNIJN@?5Server?5?$AA@ 0000000180065830     snap7:s7_text.obj
 0002:00012840       ??_C@_07ELEPLNCO@started?$AA@ 0000000180065840     snap7:s7_text.obj
 0002:00012848       ??_C@_07IEOHBIGJ@stopped?$AA@ 0000000180065848     snap7:s7_text.obj
 0002:00012850       ??_C@_0CI@LDBMGHJN@Cannot?5start?5listener?5?9?5Socket?5E@ 0000000180065850     snap7:s7_text.obj
 0002:00012878       ??_C@_0N@OGBGDEJG@Client?5added?$AA@ 0000000180065878     snap7:s7_text.obj
 0002:00012888       ??_C@_0P@PNIHPMIE@Client?5refused?$AA@ 0000000180065888     snap7:s7_text.obj
 0002:00012898       ??_C@_0DH@NPFHLKCG@A?5client?5was?5refused?5due?5to?5maxi@ 0000000180065898     snap7:s7_text.obj
 0002:000128d0       ??_C@_0BB@MNKMGNJH@Client?5exception?$AA@ 00000001800658d0     snap7:s7_text.obj
 0002:000128e8       ??_C@_0BM@OLIBCDIP@Client?5disconnected?5by?5peer?$AA@ 00000001800658e8     snap7:s7_text.obj
 0002:00012908       ??_C@_0BC@FBHHNEKD@Client?5terminated?$AA@ 0000000180065908     snap7:s7_text.obj
 0002:00012920       ??_C@_0DA@ONNCIPBI@?5clients?5have?5been?5dropped?5bacau@ 0000000180065920     snap7:s7_text.obj
 0002:00012950       ??_C@_0BA@BBDMFPIH@Unknown?5event?5?$CI?$AA@ 0000000180065950     snap7:s7_text.obj
 0002:00012960       ??_C@_0BA@MDIBIHI@?5bytes?5rejected?$AA@ 0000000180065960     snap7:s7_text.obj
 0002:00012970       ??_C@_0N@ICLEFFLD@Fragment?5of?5?$AA@ 0000000180065970     snap7:s7_text.obj
 0002:00012980       ??_C@_0BC@NEDPDPIG@Malformed?5PDU?5of?5?$AA@ 0000000180065980     snap7:s7_text.obj
 0002:00012998       ??_C@_0BD@DFGGOHAC@Message?5of?5sparse?5?$AA@ 0000000180065998     snap7:s7_text.obj
 0002:000129b0       ??_C@_0BH@BFLEIBHD@Cannot?5handle?5this?5PDU?$AA@ 00000001800659b0     snap7:s7_text.obj
 0002:000129c8       ??_C@_0CP@HOMDCFFL@Function?5group?5cyclic?5data?5not?5y@ 00000001800659c8     snap7:s7_text.obj
 0002:000129f8       ??_C@_0CO@MIDPCCEB@Function?5group?5programmer?5not?5ye@ 00000001800659f8     snap7:s7_text.obj
 0002:00012a28       ??_C@_0BG@ENFOFCDO@Unknown?5Return?5code?5?$CI?$AA@ 0000000180065a28     snap7:s7_text.obj
 0002:00012a40       ??_C@_0M@DHLHBCHA@Area?5?3?5PE?0?5?$AA@ 0000000180065a40     snap7:s7_text.obj
 0002:00012a50       ??_C@_0M@LINFIFCH@Area?5?3?5PA?0?5?$AA@ 0000000180065a50     snap7:s7_text.obj
 0002:00012a60       ??_C@_0M@EPBIDGHA@Area?5?3?5MK?0?5?$AA@ 0000000180065a60     snap7:s7_text.obj
 0002:00012a70       ??_C@_0M@PIFCMPNI@Area?5?3?5CT?0?5?$AA@ 0000000180065a70     snap7:s7_text.obj
 0002:00012a80       ??_C@_0M@HIDJMFP@Area?5?3?5TM?0?5?$AA@ 0000000180065a80     snap7:s7_text.obj
 0002:00012a8c       ??_C@_02KEGNLNML@?0?5?$AA@ 0000000180065a8c     snap7:s7_text.obj
 0002:00012a90       ??_C@_09PPEBPLHO@Area?5?3?5DB?$AA@ 0000000180065a90     snap7:s7_text.obj
 0002:00012aa0       ??_C@_0P@JMDAAJBG@Unknown?5area?5?$CI?$AA@ 0000000180065aa0     snap7:s7_text.obj
 0002:00012ab0       ??_C@_09OJEDDGCH@?0?5Size?5?3?5?$AA@ 0000000180065ab0     snap7:s7_text.obj
 0002:00012ac0       ??_C@_08BAAEPMG@Start?5?3?5?$AA@ 0000000180065ac0     snap7:s7_text.obj
 0002:00012ad0       ??_C@_07KAJLPJJO@?5?9?9?$DO?5OK?$AA@ 0000000180065ad0     snap7:s7_text.obj
 0002:00012ad8       ??_C@_0BF@CEBCANGF@?5?9?9?$DO?5Exception?5error?$AA@ 0000000180065ad8     snap7:s7_text.obj
 0002:00012af0       ??_C@_0BE@BFGOFENJ@?5?9?9?$DO?5Area?5not?5found?$AA@ 0000000180065af0     snap7:s7_text.obj
 0002:00012b08       ??_C@_0BC@BKHIJPHM@?5?9?9?$DO?5Out?5of?5range?$AA@ 0000000180065b08     snap7:s7_text.obj
 0002:00012b20       ??_C@_0CA@KDNCICEC@?5?9?9?$DO?5Data?5size?5exceeds?5PDU?5size?$AA@ 0000000180065b20     snap7:s7_text.obj
 0002:00012b40       ??_C@_0BM@LBEJDKKP@?5?9?9?$DO?5Invalid?5transport?5size?$AA@ 0000000180065b40     snap7:s7_text.obj
 0002:00012b60       ??_C@_0BI@ODGLFDDJ@?5?9?9?$DO?5Data?5size?5mismatch?$AA@ 0000000180065b60     snap7:s7_text.obj
 0002:00012b78       ??_C@_0BK@ENEKMKIK@?5?9?9?$DO?5Unknown?5error?5code?5?$CI?$AA@ 0000000180065b78     snap7:s7_text.obj
 0002:00012b98       ??_C@_0BH@FNEMHJJP@CPU?5Control?5request?5?3?5?$AA@ 0000000180065b98     snap7:s7_text.obj
 0002:00012bb0       ??_C@_07NBCGADJA@Unknown?$AA@ 0000000180065bb0     snap7:s7_text.obj
 0002:00012bb8       ??_C@_0BC@NCCPJMJI@Cold?5START?5?9?9?$DO?5OK?$AA@ 0000000180065bb8     snap7:s7_text.obj
 0002:00012bd0       ??_C@_0BC@GNHDAEK@Warm?5START?5?9?9?$DO?5OK?$AA@ 0000000180065bd0     snap7:s7_text.obj
 0002:00012be8       ??_C@_0M@CAANNLJJ@STOP?5?9?9?$DO?5OK?$AA@ 0000000180065be8     snap7:s7_text.obj
 0002:00012bf8       ??_C@_0BH@BBICPCJP@Memory?5compress?5?9?9?$DO?5OK?$AA@ 0000000180065bf8     snap7:s7_text.obj
 0002:00012c10       ??_C@_0BH@NBFOKODH@Copy?5Ram?5to?5Rom?5?9?9?$DO?5OK?$AA@ 0000000180065c10     snap7:s7_text.obj
 0002:00012c28       ??_C@_0BO@POIJPLDK@Block?5Insert?5or?5Delete?5?9?9?$DO?5OK?$AA@ 0000000180065c28     snap7:s7_text.obj
 0002:00012c48       ??_C@_0BH@GMEPNFPB@Unknown?5control?5code?5?$CI?$AA@ 0000000180065c48     snap7:s7_text.obj
 0002:00012c60       ??_C@_0BM@MHJGBHJB@System?5clock?5read?5requested?$AA@ 0000000180065c60     snap7:s7_text.obj
 0002:00012c80       ??_C@_0BN@HFCKLGEP@System?5clock?5write?5requested?$AA@ 0000000180065c80     snap7:s7_text.obj
 0002:00012ca0       ??_C@_09KGKHLBMO@?5INDEX?30x?$AA@ 0000000180065ca0     snap7:s7_text.obj
 0002:00012cb0       ??_C@_0BI@IOHHKPOJ@Read?5SZL?5request?0?5ID?30x?$AA@ 0000000180065cb0     snap7:s7_text.obj
 0002:00012cc8       ??_C@_0BD@PNOMGBCN@?5?9?9?$DO?5NOT?5AVAILABLE?$AA@ 0000000180065cc8     snap7:s7_text.obj
 0002:00012ce0       ??_C@_0EJ@HKGJGDHK@Block?5upload?5requested?5?9?9?$DO?5NOT?5P@ 0000000180065ce0     snap7:s7_text.obj
 0002:00012d30       ??_C@_0EL@JDAFGNJI@Block?5download?5requested?5?9?9?$DO?5NOT@ 0000000180065d30     snap7:s7_text.obj
 0002:00012d7c       ??_C@_02LJDHMBJH@OB?$AA@   0000000180065d7c     snap7:s7_text.obj
 0002:00012d80       ??_C@_02LFGCCOHG@DB?$AA@   0000000180065d80     snap7:s7_text.obj
 0002:00012d84       ??_C@_03LCNPIIDE@SDB?$AA@  0000000180065d84     snap7:s7_text.obj
 0002:00012d88       ??_C@_02KPPNMLFJ@FC?$AA@   0000000180065d88     snap7:s7_text.obj
 0002:00012d8c       ??_C@_03KIEAGNBL@SFC?$AA@  0000000180065d8c     snap7:s7_text.obj
 0002:00012d90       ??_C@_02LGOGPKBI@FB?$AA@   0000000180065d90     snap7:s7_text.obj
 0002:00012d94       ??_C@_03LBFLFMFK@SFB?$AA@  0000000180065d94     snap7:s7_text.obj
 0002:00012d98       ??_C@_01LBDDMOBJ@?$FN?$AA@ 0000000180065d98     snap7:s7_text.obj
 0002:00012da0       ??_C@_0M@DKDHFOMO@?$FLUnknown?50x?$AA@ 0000000180065da0     snap7:s7_text.obj
 0002:00012db0       ??_C@_0BF@FCDFEIEG@Block?5list?5requested?$AA@ 0000000180065db0     snap7:s7_text.obj
 0002:00012dc8       ??_C@_0CB@JGADLJGI@?5list?5requested?5?$CIstart?5sequence?$CJ@ 0000000180065dc8     snap7:s7_text.obj
 0002:00012df0       ??_C@_0P@CIKLBFIG@Block?5of?5type?5?$AA@ 0000000180065df0     snap7:s7_text.obj
 0002:00012e00       ??_C@_0BM@PGOPAEGD@?5list?5requested?5?$CInext?5part?$CJ?$AA@ 0000000180065e00     snap7:s7_text.obj
 0002:00012e1c       ??_C@_01CLKCMJKC@?5?$AA@   0000000180065e1c     snap7:s7_text.obj
 0002:00012e20       ??_C@_0BG@FKOOGMDL@Block?5info?5requested?5?$AA@ 0000000180065e20     snap7:s7_text.obj
 0002:00012e38       ??_C@_0CP@DGJEINID@Security?5request?5?3?5Set?5session?5p@ 0000000180065e38     snap7:s7_text.obj
 0002:00012e68       ??_C@_0DB@PBEBFHPL@Security?5request?5?3?5Clear?5session@ 0000000180065e68     snap7:s7_text.obj
 0002:00012ea0       ??_C@_0CH@EBOOGKCC@Security?5request?5?3?5Unknown?5Subfu@ 0000000180065ea0     snap7:s7_text.obj
 0002:00012ec8       ??_C@_0BA@NFHJAEIF@PDU?5incoming?5?3?5?$AA@ 0000000180065ec8     snap7:s7_text.obj
 0002:00012ed8       ??_C@_0P@OEMHMEFD@Read?5request?0?5?$AA@ 0000000180065ed8     snap7:s7_text.obj
 0002:00012ee8       ??_C@_0BA@HKLCEKOF@Write?5request?0?5?$AA@ 0000000180065ee8     snap7:s7_text.obj
 0002:00012ef8       ??_C@_06LCIDCBMH@?5bytes?$AA@ 0000000180065ef8     snap7:s7_text.obj
 0002:00012f00       ??_C@_0CD@PMNGNIFC@The?5client?5requires?5a?5PDU?5size?5o@ 0000000180065f00     snap7:s7_text.obj
 0002:00012f28       ??_7TS7Worker@@6B@         0000000180065f28     snap7:s7_server.obj
 0002:00012f68       ??_7TSnap7Server@@6B@      0000000180065f68     snap7:s7_server.obj
 0002:00012f98       ??_7TIsoTcpSocket@@6B@     0000000180065f98     snap7:s7_isotcp.obj
 0002:00012fc0       ??_C@_07OHKHACFK@0?40?40?40?$AA@ 0000000180065fc0     snap7:snap_tcpsrvr.obj
 0002:00012fc8       ??_7TMsgWorkerThread@@6B@  0000000180065fc8     snap7:snap_tcpsrvr.obj
 0002:00012fd8       ??_7TCustomMsgServer@@6B@  0000000180065fd8     snap7:snap_tcpsrvr.obj
 0002:00013008       ??_7TMsgListenerThread@@6B@ 0000000180066008     snap7:snap_tcpsrvr.obj
 0002:00013018       ??_7TEcoTcpWorker@@6B@     0000000180066018     snap7:snap_tcpsrvr.obj
 0002:00013028       ??_C@_09PFCHIMEP@127?40?40?41?$AA@ 0000000180066028     snap7:snap_msgsock.obj
 0002:00013038       ??_C@_0O@MCBLBENO@?2iphlpapi?4dll?$AA@ 0000000180066038     snap7:snap_msgsock.obj
 0002:00013048       ??_C@_0P@DGOLJNLO@IcmpCreateFile?$AA@ 0000000180066048     snap7:snap_msgsock.obj
 0002:00013058       ??_C@_0BA@CBGGGMBA@IcmpCloseHandle?$AA@ 0000000180066058     snap7:snap_msgsock.obj
 0002:00013068       ??_C@_0O@BFGMLFBB@IcmpSendEcho2?$AA@ 0000000180066068     snap7:snap_msgsock.obj
 0002:00013078       ??_7TMsgSocket@@6B@        0000000180066078     snap7:snap_msgsock.obj
 0002:00013088       ??_7TSnap7Peer@@6B@        0000000180066088     snap7:s7_peer.obj
 0002:000130b0       ??_7TSnapThread@@6B@       00000001800660b0     snap7:snap_threads.obj
 0002:000130c0       __real@408f400000000000    00000001800660c0     node_snap7_client.obj
 0002:000130c8       __real@4202a05f20000000    00000001800660c8     node_snap7_client.obj
 0002:000130d0       __xmm@7fffffffffffffff7fffffffffffffff 00000001800660d0     node_snap7_client.obj
 0002:00013a78       _tls_used                  0000000180066a78     LIBCMT:tlssup.obj
 0002:00013aa0       ??_R4_Facet_base@std@@6B@  0000000180066aa0     libcpmt:locale0.obj
 0002:00013ac8       ??_R3_Facet_base@std@@8    0000000180066ac8     libcpmt:locale0.obj
 0002:00013ae0       ??_R2_Facet_base@std@@8    0000000180066ae0     libcpmt:locale0.obj
 0002:00013af0       ??_R1A@?0A@EA@_Facet_base@std@@8 0000000180066af0     libcpmt:locale0.obj
 0002:00013b18       ??_R4_Locimp@locale@std@@6B@ 0000000180066b18     libcpmt:locale0.obj
 0002:00013b40       ??_R3_Locimp@locale@std@@8 0000000180066b40     libcpmt:locale0.obj
 0002:00013b58       ??_R2_Locimp@locale@std@@8 0000000180066b58     libcpmt:locale0.obj
 0002:00013b80       ??_R1A@?0A@EA@_Locimp@locale@std@@8 0000000180066b80     libcpmt:locale0.obj
 0002:00013ba8       ??_R1A@?0A@EA@facet@locale@std@@8 0000000180066ba8     libcpmt:locale0.obj
 0002:00013bd0       ??_R3facet@locale@std@@8   0000000180066bd0     libcpmt:locale0.obj
 0002:00013be8       ??_R2facet@locale@std@@8   0000000180066be8     libcpmt:locale0.obj
 0002:00013c08       ??_R17?0A@EA@_Crt_new_delete@std@@8 0000000180066c08     libcpmt:locale0.obj
 0002:00013c30       ??_R3_Crt_new_delete@std@@8 0000000180066c30     libcpmt:locale0.obj
 0002:00013c48       ??_R2_Crt_new_delete@std@@8 0000000180066c48     libcpmt:locale0.obj
 0002:00013c58       ??_R1A@?0A@EA@_Crt_new_delete@std@@8 0000000180066c58     libcpmt:locale0.obj
 0002:00013c80       ??_R4exception@std@@6B@    0000000180066c80     libcpmt:xthrow.obj
 0002:00013ca8       ??_R3exception@std@@8      0000000180066ca8     libcpmt:xthrow.obj
 0002:00013cc0       ??_R2exception@std@@8      0000000180066cc0     libcpmt:xthrow.obj
 0002:00013cd0       ??_R1A@?0A@EA@exception@std@@8 0000000180066cd0     libcpmt:xthrow.obj
 0002:00013cf8       ??_R4bad_alloc@std@@6B@    0000000180066cf8     libcpmt:xthrow.obj
 0002:00013d20       ??_R3bad_alloc@std@@8      0000000180066d20     libcpmt:xthrow.obj
 0002:00013d38       ??_R2bad_alloc@std@@8      0000000180066d38     libcpmt:xthrow.obj
 0002:00013d50       ??_R1A@?0A@EA@bad_alloc@std@@8 0000000180066d50     libcpmt:xthrow.obj
 0002:00013d78       ??_R4logic_error@std@@6B@  0000000180066d78     libcpmt:xthrow.obj
 0002:00013da0       ??_R3logic_error@std@@8    0000000180066da0     libcpmt:xthrow.obj
 0002:00013db8       ??_R2logic_error@std@@8    0000000180066db8     libcpmt:xthrow.obj
 0002:00013dd0       ??_R1A@?0A@EA@logic_error@std@@8 0000000180066dd0     libcpmt:xthrow.obj
 0002:00013df8       ??_R4length_error@std@@6B@ 0000000180066df8     libcpmt:xthrow.obj
 0002:00013e20       ??_R3length_error@std@@8   0000000180066e20     libcpmt:xthrow.obj
 0002:00013e38       ??_R2length_error@std@@8   0000000180066e38     libcpmt:xthrow.obj
 0002:00013e58       ??_R1A@?0A@EA@length_error@std@@8 0000000180066e58     libcpmt:xthrow.obj
 0002:00013e80       ??_R4out_of_range@std@@6B@ 0000000180066e80     libcpmt:xthrow.obj
 0002:00013ea8       ??_R3out_of_range@std@@8   0000000180066ea8     libcpmt:xthrow.obj
 0002:00013ec0       ??_R2out_of_range@std@@8   0000000180066ec0     libcpmt:xthrow.obj
 0002:00013ee0       ??_R1A@?0A@EA@out_of_range@std@@8 0000000180066ee0     libcpmt:xthrow.obj
 0002:00013f08       ??_R4runtime_error@std@@6B@ 0000000180066f08     libcpmt:xthrow.obj
 0002:00013f30       ??_R3runtime_error@std@@8  0000000180066f30     libcpmt:xthrow.obj
 0002:00013f48       ??_R2runtime_error@std@@8  0000000180066f48     libcpmt:xthrow.obj
 0002:00013f60       ??_R1A@?0A@EA@runtime_error@std@@8 0000000180066f60     libcpmt:xthrow.obj
 0002:00013f88       ??_R3ctype_base@std@@8     0000000180066f88     libcpmt:locale.obj
 0002:00013fa0       ??_R2ctype_base@std@@8     0000000180066fa0     libcpmt:locale.obj
 0002:00013fc8       ??_R1A@?0A@EA@ctype_base@std@@8 0000000180066fc8     libcpmt:locale.obj
 0002:00013ff0       ??_R4?$ctype@D@std@@6B@    0000000180066ff0     libcpmt:locale.obj
 0002:00014018       ??_R3?$ctype@D@std@@8      0000000180067018     libcpmt:locale.obj
 0002:00014030       ??_R2?$ctype@D@std@@8      0000000180067030     libcpmt:locale.obj
 0002:00014060       ??_R1A@?0A@EA@?$ctype@D@std@@8 0000000180067060     libcpmt:locale.obj
 0002:00014088       ??_R4?$num_put@DV?$ostreambuf_iterator@DU?$char_traits@D@std@@@std@@@std@@6B@ 0000000180067088     libcpmt:locale.obj
 0002:000140b0       ??_R3?$num_put@DV?$ostreambuf_iterator@DU?$char_traits@D@std@@@std@@@std@@8 00000001800670b0     libcpmt:locale.obj
 0002:000140c8       ??_R2?$num_put@DV?$ostreambuf_iterator@DU?$char_traits@D@std@@@std@@@std@@8 00000001800670c8     libcpmt:locale.obj
 0002:000140f0       ??_R1A@?0A@EA@?$num_put@DV?$ostreambuf_iterator@DU?$char_traits@D@std@@@std@@@std@@8 00000001800670f0     libcpmt:locale.obj
 0002:00014118       ??_R4?$numpunct@D@std@@6B@ 0000000180067118     libcpmt:locale.obj
 0002:00014140       ??_R3?$numpunct@D@std@@8   0000000180067140     libcpmt:locale.obj
 0002:00014158       ??_R2?$numpunct@D@std@@8   0000000180067158     libcpmt:locale.obj
 0002:00014180       ??_R1A@?0A@EA@?$numpunct@D@std@@8 0000000180067180     libcpmt:locale.obj
 0002:000141a8       ??_R4type_info@@6B@        00000001800671a8     LIBCMT:std_type_info_static.obj
 0002:000141d0       ??_R3type_info@@8          00000001800671d0     LIBCMT:std_type_info_static.obj
 0002:000141e8       ??_R2type_info@@8          00000001800671e8     LIBCMT:std_type_info_static.obj
 0002:000141f8       ??_R1A@?0A@EA@type_info@@8 00000001800671f8     LIBCMT:std_type_info_static.obj
 0002:00014220       ??_R4bad_array_new_length@std@@6B@ 0000000180067220     LIBCMT:throw_bad_alloc.obj
 0002:00014248       ??_R3bad_array_new_length@std@@8 0000000180067248     LIBCMT:throw_bad_alloc.obj
 0002:00014260       ??_R2bad_array_new_length@std@@8 0000000180067260     LIBCMT:throw_bad_alloc.obj
 0002:00014280       ??_R1A@?0A@EA@bad_array_new_length@std@@8 0000000180067280     LIBCMT:throw_bad_alloc.obj
 0002:000142a8       ??_R4bad_exception@std@@6B@ 00000001800672a8     libvcruntime:frame.obj
 0002:000142d0       ??_R3bad_exception@std@@8  00000001800672d0     libvcruntime:frame.obj
 0002:000142e8       ??_R2bad_exception@std@@8  00000001800672e8     libvcruntime:frame.obj
 0002:00014300       ??_R1A@?0A@EA@bad_exception@std@@8 0000000180067300     libvcruntime:frame.obj
 0002:000147d8       __rtc_iaa                  00000001800677d8     LIBCMT:_initsect_.obj
 0002:000147e0       __rtc_izz                  00000001800677e0     LIBCMT:_initsect_.obj
 0002:000147e8       __rtc_taa                  00000001800677e8     LIBCMT:_initsect_.obj
 0002:000147f0       __rtc_tzz                  00000001800677f0     LIBCMT:_initsect_.obj
 0002:00019eb8       _TI2?AVbad_alloc@std@@     000000018006ceb8     libcpmt:xthrow.obj
 0002:00019ed8       _CTA2?AVbad_alloc@std@@    000000018006ced8     libcpmt:xthrow.obj
 0002:00019ef0       _CT??_R0?AVbad_alloc@std@@@8??0bad_alloc@std@@QEAA@AEBV01@@Z24 000000018006cef0     libcpmt:xthrow.obj
 0002:00019f18       _CT??_R0?AVexception@std@@@8??0exception@std@@QEAA@AEBV01@@Z24 000000018006cf18     libcpmt:xthrow.obj
 0002:00019f40       _CT??_R0?AVlogic_error@std@@@8??0logic_error@std@@QEAA@AEBV01@@Z24 000000018006cf40     libcpmt:xthrow.obj
 0002:00019f68       _TI3?AVlength_error@std@@  000000018006cf68     libcpmt:xthrow.obj
 0002:00019f88       _CTA3?AVlength_error@std@@ 000000018006cf88     libcpmt:xthrow.obj
 0002:00019fa8       _CT??_R0?AVlength_error@std@@@8??0length_error@std@@QEAA@AEBV01@@Z24 000000018006cfa8     libcpmt:xthrow.obj
 0002:00019fd0       _TI3?AVout_of_range@std@@  000000018006cfd0     libcpmt:xthrow.obj
 0002:00019ff0       _CTA3?AVout_of_range@std@@ 000000018006cff0     libcpmt:xthrow.obj
 0002:0001a010       _CT??_R0?AVout_of_range@std@@@8??0out_of_range@std@@QEAA@AEBV01@@Z24 000000018006d010     libcpmt:xthrow.obj
 0002:0001a038       _TI3?AVbad_array_new_length@std@@ 000000018006d038     LIBCMT:throw_bad_alloc.obj
 0002:0001a058       _CTA3?AVbad_array_new_length@std@@ 000000018006d058     LIBCMT:throw_bad_alloc.obj
 0002:0001a078       _CT??_R0?AVbad_array_new_length@std@@@8??0bad_array_new_length@std@@QEAA@AEBV01@@Z24 000000018006d078     LIBCMT:throw_bad_alloc.obj
 0002:0001a0a0       _TI2?AVbad_exception@std@@ 000000018006d0a0     libvcruntime:frame.obj
 0002:0001a0c0       _CTA2?AVbad_exception@std@@ 000000018006d0c0     libvcruntime:frame.obj
 0002:0001a0d8       _CT??_R0?AVbad_exception@std@@@8??0bad_exception@std@@QEAA@AEBV01@@Z24 000000018006d0d8     libvcruntime:frame.obj
 0002:0001a0fc       __DELAY_IMPORT_DESCRIPTOR_node_exe 000000018006d0fc     node:node.exe
 0002:0001a11c       __NULL_DELAY_IMPORT_DESCRIPTOR 000000018006d11c     node:node.exe
 0002:0001a3a0       \177node_NULL_THUNK_DATA_DLN 000000018006d3a0     node:node.exe
 0002:0001b5f8       \177node_NULL_THUNK_DATA_DLB 000000018006e5f8     node:node.exe
 0002:0001c534       __IMPORT_DESCRIPTOR_KERNEL32 000000018006f534     kernel32:KERNEL32.dll
 0002:0001c548       __IMPORT_DESCRIPTOR_WS2_32 000000018006f548     ws2_32:WS2_32.dll
 0002:0001c55c       __IMPORT_DESCRIPTOR_WINMM  000000018006f55c     winmm:WINMM.dll
 0002:0001c570       __NULL_IMPORT_DESCRIPTOR   000000018006f570     kernel32:KERNEL32.dll
 0003:00000004       ?_Sync@ios_base@std@@0_NA  0000000180071004     libcpmt:ios.obj
 0003:00000020       ?_PJP_CPP_Copyright@@3PADA 0000000180071020     libcpmt:iosptrs.obj
 0003:00000080       _Init_global_epoch         0000000180071080     LIBCMT:thread_safe_statics.obj
 0003:00000084       __scrt_native_dllmain_reason 0000000180071084     LIBCMT:utility.obj
 0003:00000088       __security_cookie          0000000180071088     LIBCMT:gs_cookie.obj
 0003:00000090       __security_cookie_complement 0000000180071090     LIBCMT:gs_cookie.obj
 0003:00000098       _fltused                   0000000180071098     LIBCMT:fltused.obj
 0003:000000a0       __isa_available            00000001800710a0     LIBCMT:_cpu_disp_.obj
 0003:000000a4       __isa_enabled              00000001800710a4     LIBCMT:_cpu_disp_.obj
 0003:000000a8       __memcpy_nt_iters          00000001800710a8     LIBCMT:_cpu_disp_.obj
 0003:000000c0       __abort_behavior           00000001800710c0     libucrt:abort.obj
 0003:000000d0       __acrt_lconv_c             00000001800710d0     libucrt:localeconv.obj
 0003:00000168       __acrt_lconv               0000000180071168     libucrt:localeconv.obj
 0003:00000170       __acrt_lconv_static_decimal 0000000180071170     libucrt:localeconv.obj
 0003:00000174       __acrt_lconv_static_W_decimal 0000000180071174     libucrt:localeconv.obj
 0003:00000180       _pctype                    0000000180071180     libucrt:ctype.obj
 0003:00000188       _pwctype                   0000000180071188     libucrt:ctype.obj
 0003:00000260       _iob                       0000000180071260     libucrt:_file.obj
 0003:00000370       __acrt_initial_locale_data 0000000180071370     libucrt:nlsdata.obj
 0003:000004c8       __acrt_initial_locale_pointers 00000001800714c8     libucrt:nlsdata.obj
 0003:000004d8       __acrt_wide_c_locale_string 00000001800714d8     libucrt:nlsdata.obj
 0003:000004dc       __mb_cur_max               00000001800714dc     libucrt:nlsdata.obj
 0003:000004e0       __badioinfo                00000001800714e0     libucrt:ioinit.obj
 0003:00000524       __globallocalestatus       0000000180071524     libucrt:glstatus.obj
 0003:00000530       __acrt_initial_multibyte_data 0000000180071530     libucrt:mbctype.obj
 0003:00000758       __acrt_current_multibyte_data 0000000180071758     libucrt:mbctype.obj
 0003:00000860       _mbctype                   0000000180071860     libucrt:mbctype.obj
 0003:00000970       _mbcasemap                 0000000180071970     libucrt:mbctype.obj
 0003:00000a80       __dcrt_lowio_console_output_handle 0000000180071a80     libucrt:initcon.obj
 0003:00000ad8       ?SZL_ID_0174_IDX_0006@@3PAEA 0000000180071ad8     snap7:s7_server.obj
 0003:00000ae8       ?SZL_ID_0112_IDX_0100@@3PAEA 0000000180071ae8     snap7:s7_server.obj
 0003:00000af8       ?SZL_ID_0115_IDX_0800@@3PAEA 0000000180071af8     snap7:s7_server.obj
 0003:00000b10       ?SZL_ID_01A0_IDX_0006@@3PAEA 0000000180071b10     snap7:s7_server.obj
 0003:00000b94       ?SZLNotAvail@@3PAEA        0000000180071b94     snap7:s7_server.obj
 0003:00000b98       ?SZL_ID_0F1B_IDX_XXXX@@3PAEA 0000000180071b98     snap7:s7_server.obj
 0003:00000ba8       ?SZL_ID_0117_IDX_0004@@3PAEA 0000000180071ba8     snap7:s7_server.obj
 0003:00000bb8       ?SZL_ID_0117_IDX_0001@@3PAEA 0000000180071bb8     snap7:s7_server.obj
 0003:00000bc8       ?SZL_ID_0F18_IDX_XXXX@@3PAEA 0000000180071bc8     snap7:s7_server.obj
 0003:00000bd8       ?SZL_ID_0111_IDX_0006@@3PAEA 0000000180071bd8     snap7:s7_server.obj
 0003:00000c00       ?SZL_ID_0112_IDX_0400@@3PAEA 0000000180071c00     snap7:s7_server.obj
 0003:00000c10       ?SZL_ID_0092_IDX_0000@@3PAEA 0000000180071c10     snap7:s7_server.obj
 0003:00000c30       ?SZL_ID_0F37_IDX_XXXX@@3PAEA 0000000180071c30     snap7:s7_server.obj
 0003:00000c40       ?SZL_ID_0013_IDX_XXXX@@3PAEA 0000000180071c40     snap7:s7_server.obj
 0003:00000d00       ?SZL_ID_01A0_IDX_0014@@3PAEA 0000000180071d00     snap7:s7_server.obj
 0003:00000ea0       ?SZL_ID_0F21_IDX_XXXX@@3PAEA 0000000180071ea0     snap7:s7_server.obj
 0003:00000eb0       ?SZL_ID_01A0_IDX_0010@@3PAEA 0000000180071eb0     snap7:s7_server.obj
 0003:00001000       ?SZL_ID_0F92_IDX_XXXX@@3PAEA 0000000180072000     snap7:s7_server.obj
 0003:00001010       ?SZL_ID_0F17_IDX_XXXX@@3PAEA 0000000180072010     snap7:s7_server.obj
 0003:00001020       ?SZL_ID_0132_IDX_0002@@3PAEA 0000000180072020     snap7:s7_server.obj
 0003:00001058       ?SZL_ID_0131_IDX_0003@@3PAEA 0000000180072058     snap7:s7_server.obj
 0003:00001090       ?SZL_ID_011C_IDX_0003@@3PAEA 0000000180072090     snap7:s7_server.obj
 0003:000010c0       ?SZL_ID_0131_IDX_0006@@3PAEA 00000001800720c0     snap7:s7_server.obj
 0003:000010f8       ?SZL_ID_001A_IDX_XXXX@@3PAEA 00000001800720f8     snap7:s7_server.obj
 0003:00001128       ?SZL_ID_011C_IDX_0001@@3PAEA 0000000180072128     snap7:s7_server.obj
 0003:00001158       ?SZL_ID_0132_IDX_0003@@3PAEA 0000000180072158     snap7:s7_server.obj
 0003:00001190       ?SZL_ID_0021_IDX_XXXX@@3PAEA 0000000180072190     snap7:s7_server.obj
 0003:000011f8       ?SZL_ID_0112_IDX_0000@@3PAEA 00000001800721f8     snap7:s7_server.obj
 0003:00001208       ?SZL_ID_0132_IDX_0009@@3PAEA 0000000180072208     snap7:s7_server.obj
 0003:00001240       ?SZL_ID_0117_IDX_0002@@3PAEA 0000000180072240     snap7:s7_server.obj
 0003:00001250       ?SZL_ID_0222_IDX_0050@@3PAEA 0000000180072250     snap7:s7_server.obj
 0003:00001280       ?SZL_ID_0014_IDX_XXXX@@3PAEA 0000000180072280     snap7:s7_server.obj
 0003:000012d8       ?SZL_ID_0019_IDX_XXXX@@3PAEA 00000001800722d8     snap7:s7_server.obj
 0003:00001300       ?SZL_ID_01A0_IDX_000B@@3PAEA 0000000180072300     snap7:s7_server.obj
 0003:000013e8       ?SZL_ID_0F14_IDX_XXXX@@3PAEA 00000001800723e8     snap7:s7_server.obj
 0003:000013f8       ?SZL_ID_0118_IDX_0001@@3PAEA 00000001800723f8     snap7:s7_server.obj
 0003:00001410       ?SZL_ID_01A0_IDX_000D@@3PAEA 0000000180072410     snap7:s7_server.obj
 0003:00001520       ?SZL_ID_0FA0_IDX_XXXX@@3PAEA 0000000180072520     snap7:s7_server.obj
 0003:00001530       ?SZL_ID_0038_IDX_XXXX@@3PAEA 0000000180072530     snap7:s7_server.obj
 0003:00001580       ?SZL_ID_0D91_IDX_0000@@3PAEA 0000000180072580     snap7:s7_server.obj
 0003:000015a0       ?SZL_ID_0118_IDX_0003@@3PAEA 00000001800725a0     snap7:s7_server.obj
 0003:000015b0       ?SZL_ID_0174_IDX_000C@@3PAEA 00000001800725b0     snap7:s7_server.obj
 0003:000015c0       ?SZL_ID_0125_IDX_0001@@3PAEA 00000001800725c0     snap7:s7_server.obj
 0003:000015d0       ?SZL_ID_0111_IDX_0001@@3PAEA 00000001800725d0     snap7:s7_server.obj
 0003:000015f8       ?SZL_ID_0F38_IDX_XXXX@@3PAEA 00000001800725f8     snap7:s7_server.obj
 0003:00001608       ?SZL_ID_0125_IDX_0000@@3PAEA 0000000180072608     snap7:s7_server.obj
 0003:00001618       ?SZL_ID_0117_IDX_0003@@3PAEA 0000000180072618     snap7:s7_server.obj
 0003:00001630       ?SZL_ID_0194_IDX_0064@@3PAEA 0000000180072630     snap7:s7_server.obj
 0003:00001740       ?SZL_ID_0132_IDX_000C@@3PAEA 0000000180072740     snap7:s7_server.obj
 0003:00001778       ?SZL_ID_0137_IDX_07FE@@3PAEA 0000000180072778     snap7:s7_server.obj
 0003:000017b8       ?SZL_ID_0131_IDX_0007@@3PAEA 00000001800727b8     snap7:s7_server.obj
 0003:000017f0       ?SZL_ID_0132_IDX_000B@@3PAEA 00000001800727f0     snap7:s7_server.obj
 0003:00001828       ?SZL_ID_01A0_IDX_0000@@3PAEA 0000000180072828     snap7:s7_server.obj
 0003:00001838       ?SZL_ID_0025_IDX_XXXX@@3PAEA 0000000180072838     snap7:s7_server.obj
 0003:00001848       ?SZL_ID_0222_IDX_0064@@3PAEA 0000000180072848     snap7:s7_server.obj
 0003:00001870       ?SZL_ID_0095_IDX_XXXX@@3PAEA 0000000180072870     snap7:s7_server.obj
 0003:000018a8       ?SZL_ID_011C_IDX_0009@@3PAEA 00000001800728a8     snap7:s7_server.obj
 0003:000018d8       ?SZL_ID_0F11_IDX_0001@@3PAEA 00000001800728d8     snap7:s7_server.obj
 0003:000018e8       ?SZL_ID_0174_IDX_0004@@3PAEA 00000001800728e8     snap7:s7_server.obj
 0003:000018f8       ?SZL_ID_0222_IDX_0028@@3PAEA 00000001800728f8     snap7:s7_server.obj
 0003:00001920       ?SZL_ID_0794_IDX_XXXX@@3PAEA 0000000180072920     snap7:s7_server.obj
 0003:00001a30       ?SZL_ID_0132_IDX_0008@@3PAEA 0000000180072a30     snap7:s7_server.obj
 0003:00001a68       ?SZL_ID_0131_IDX_0009@@3PAEA 0000000180072a68     snap7:s7_server.obj
 0003:00001aa0       ?SZL_ID_0011_IDX_XXXX@@3PAEA 0000000180072aa0     snap7:s7_server.obj
 0003:00001b20       ?SZL_ID_0424_IDX_XXXX@@3PAEA 0000000180072b20     snap7:s7_server.obj
 0003:00001b40       ?SZL_ID_0023_IDX_XXXX@@3PAEA 0000000180072b40     snap7:s7_server.obj
 0003:00001c28       ?SZL_ID_0132_IDX_0006@@3PAEA 0000000180072c28     snap7:s7_server.obj
 0003:00001c60       ?SZL_ID_0F1A_IDX_XXXX@@3PAEA 0000000180072c60     snap7:s7_server.obj
 0003:00001c70       ?SZL_ID_001C_IDX_XXXX@@3PAEA 0000000180072c70     snap7:s7_server.obj
 0003:00001dd0       ?SZL_ID_0A21_IDX_XXXX@@3PAEA 0000000180072dd0     snap7:s7_server.obj
 0003:00001de0       ?SZL_ID_01A0_IDX_0005@@3PAEA 0000000180072de0     snap7:s7_server.obj
 0003:00001e50       ?SZL_ID_0F95_IDX_XXXX@@3PAEA 0000000180072e50     snap7:s7_server.obj
 0003:00001e60       ?SZL_ID_01A0_IDX_0001@@3PAEA 0000000180072e60     snap7:s7_server.obj
 0003:00001e80       ?SZL_ID_0113_IDX_0001@@3PAEA 0000000180072e80     snap7:s7_server.obj
 0003:00001eb0       ?SZL_ID_0F12_IDX_0000@@3PAEA 0000000180072eb0     snap7:s7_server.obj
 0003:00001ec0       ?SZL_ID_0F11_IDX_0006@@3PAEA 0000000180072ec0     snap7:s7_server.obj
 0003:00001ed0       ?SZL_ID_011C_IDX_000B@@3PAEA 0000000180072ed0     snap7:s7_server.obj
 0003:00001f00       ?SZL_ID_0174_IDX_0001@@3PAEA 0000000180072f00     snap7:s7_server.obj
 0003:00001f10       ?SZL_ID_01A0_IDX_0008@@3PAEA 0000000180072f10     snap7:s7_server.obj
 0003:00001fc0       ?SZL_ID_0074_IDX_XXXX@@3PAEA 0000000180072fc0     snap7:s7_server.obj
 0003:00001ff0       ?SZL_ID_01A0_IDX_000A@@3PAEA 0000000180072ff0     snap7:s7_server.obj
 0003:000020c8       ?SZL_ID_0131_IDX_0008@@3PAEA 00000001800730c8     snap7:s7_server.obj
 0003:00002100       ?SZL_ID_0132_IDX_0004@@3PAEA 0000000180073100     snap7:s7_server.obj
 0003:00002140       ?SZL_ID_0017_IDX_XXXX@@3PAEA 0000000180073140     snap7:s7_server.obj
 0003:00002310       ?SZL_ID_01A0_IDX_000E@@3PAEA 0000000180073310     snap7:s7_server.obj
 0003:00002438       ?SZL_ID_0222_IDX_0014@@3PAEA 0000000180073438     snap7:s7_server.obj
 0003:00002460       ?SZL_ID_0F74_IDX_XXXX@@3PAEA 0000000180073460     snap7:s7_server.obj
 0003:00002470       ?SZL_ID_0131_IDX_0001@@3PAEA 0000000180073470     snap7:s7_server.obj
 0003:000024a8       ?SZL_ID_0174_IDX_000B@@3PAEA 00000001800734a8     snap7:s7_server.obj
 0003:000024c0       ?SZL_ID_0002_IDX_XXXX@@3PAEA 00000001800734c0     snap7:s7_server.obj
 0003:00002690       ?SZL_ID_0591_IDX_XXXX@@3PAEA 0000000180073690     snap7:s7_server.obj
 0003:000026e0       ?SZL_ID_001B_IDX_XXXX@@3PAEA 00000001800736e0     snap7:s7_server.obj
 0003:00002768       ?SZL_ID_0131_IDX_0002@@3PAEA 0000000180073768     snap7:s7_server.obj
 0003:000027a0       ?SZL_ID_0F9A_IDX_XXXX@@3PAEA 00000001800737a0     snap7:s7_server.obj
 0003:000027b0       ?SZL_ID_0F1C_IDX_XXXX@@3PAEA 00000001800737b0     snap7:s7_server.obj
 0003:000027c0       ?SZL_ID_0118_IDX_0002@@3PAEA 00000001800737c0     snap7:s7_server.obj
 0003:000027d0       ?SZL_ID_0036_IDX_XXXX@@3PAEA 00000001800737d0     snap7:s7_server.obj
 0003:000027e0       ?SZL_ID_0A91_IDX_XXXX@@3PAEA 00000001800737e0     snap7:s7_server.obj
 0003:00002810       ?SZL_ID_0132_IDX_0001@@3PAEA 0000000180073810     snap7:s7_server.obj
 0003:00002848       ?SZL_ID_0C91_IDX_07FE@@3PAEA 0000000180073848     snap7:s7_server.obj
 0003:00002870       ?SZL_ID_0024_IDX_XXXX@@3PAEA 0000000180073870     snap7:s7_server.obj
 0003:000028d0       ?SZL_ID_0117_IDX_0000@@3PAEA 00000001800738d0     snap7:s7_server.obj
 0003:000028e0       ?SZL_ID_01A0_IDX_0009@@3PAEA 00000001800738e0     snap7:s7_server.obj
 0003:000029a0       ?SZL_ID_01A0_IDX_0015@@3PAEA 00000001800739a0     snap7:s7_server.obj
 0003:00002b50       ?SZL_ID_0692_IDX_0000@@3PAEA 0000000180073b50     snap7:s7_server.obj
 0003:00002b70       ?SZL_ID_011C_IDX_000A@@3PAEA 0000000180073b70     snap7:s7_server.obj
 0003:00002ba0       ?SZL_ID_0124_IDX_XXXX@@3PAEA 0000000180073ba0     snap7:s7_server.obj
 0003:00002bc0       ?SZL_ID_0F12_IDX_0200@@3PAEA 0000000180073bc0     snap7:s7_server.obj
 0003:00002bd0       ?SZL_ID_0132_IDX_0007@@3PAEA 0000000180073bd0     snap7:s7_server.obj
 0003:00002c10       ?SZL_ID_01A0_IDX_0012@@3PAEA 0000000180073c10     snap7:s7_server.obj
 0003:00002d90       ?SZL_ID_01A0_IDX_000C@@3PAEA 0000000180073d90     snap7:s7_server.obj
 0003:00002e90       ?SZL_ID_01A0_IDX_0004@@3PAEA 0000000180073e90     snap7:s7_server.obj
 0003:00002ef0       ?SZL_ID_0094_IDX_0000@@3PAEA 0000000180073ef0     snap7:s7_server.obj
 0003:00003000       ?SZL_ID_0131_IDX_0004@@3PAEA 0000000180074000     snap7:s7_server.obj
 0003:00003038       ?SZL_ID_0131_IDX_0005@@3PAEA 0000000180074038     snap7:s7_server.obj
 0003:00003070       ?SZL_ID_0222_IDX_0001@@3PAEA 0000000180074070     snap7:s7_server.obj
 0003:00003098       ?SZL_ID_0F25_IDX_XXXX@@3PAEA 0000000180074098     snap7:s7_server.obj
 0003:000030b0       ?SZL_ID_0294_IDX_XXXX@@3PAEA 00000001800740b0     snap7:s7_server.obj
 0003:000031c0       ?SZL_ID_0F00_IDX_XXXX@@3PAEA 00000001800741c0     snap7:s7_server.obj
 0003:000031d0       ?SZL_ID_01A0_IDX_0007@@3PAEA 00000001800741d0     snap7:s7_server.obj
 0003:00003268       ?SZL_ID_011C_IDX_0002@@3PAEA 0000000180074268     snap7:s7_server.obj
 0003:00003298       ?SZL_ID_0132_IDX_0005@@3PAEA 0000000180074298     snap7:s7_server.obj
 0003:000032d0       ?SZL_ID_01A0_IDX_000F@@3PAEA 00000001800742d0     snap7:s7_server.obj
 0003:00003408       ?SZL_ID_0F19_IDX_XXXX@@3PAEA 0000000180074408     snap7:s7_server.obj
 0003:00003418       ?SZL_ID_0F23_IDX_XXXX@@3PAEA 0000000180074418     snap7:s7_server.obj
 0003:00003428       ?SZL_ID_0112_IDX_0200@@3PAEA 0000000180074428     snap7:s7_server.obj
 0003:00003440       ?SZL_ID_01A0_IDX_0003@@3PAEA 0000000180074440     snap7:s7_server.obj
 0003:00003488       ?SZL_ID_003A_IDX_XXXX@@3PAEA 0000000180074488     snap7:s7_server.obj
 0003:00003498       ?SZL_ID_011C_IDX_0008@@3PAEA 0000000180074498     snap7:s7_server.obj
 0003:000034d0       ?SZL_ID_0694_IDX_0064@@3PAEA 00000001800744d0     snap7:s7_server.obj
 0003:000035e0       ?SZL_ID_0018_IDX_XXXX@@3PAEA 00000001800745e0     snap7:s7_server.obj
 0003:00003600       ?SZL_ID_011C_IDX_0007@@3PAEA 0000000180074600     snap7:s7_server.obj
 0003:00003630       ?SZL_ID_0132_IDX_000A@@3PAEA 0000000180074630     snap7:s7_server.obj
 0003:00003668       ?SZL_ID_0232_IDX_0004@@3PAEA 0000000180074668     snap7:s7_server.obj
 0003:000036a0       ?SZL_ID_01A0_IDX_0011@@3PAEA 00000001800746a0     snap7:s7_server.obj
 0003:00003800       ?SZL_ID_0012_IDX_XXXX@@3PAEA 0000000180074800     snap7:s7_server.obj
 0003:00003840       ?SZL_ID_0F36_IDX_XXXX@@3PAEA 0000000180074840     snap7:s7_server.obj
 0003:00003850       ?SZL_ID_0174_IDX_0005@@3PAEA 0000000180074850     snap7:s7_server.obj
 0003:00003860       ?SZL_ID_01A0_IDX_0013@@3PAEA 0000000180074860     snap7:s7_server.obj
 0003:000039e8       ?SZL_ID_0118_IDX_0000@@3PAEA 00000001800749e8     snap7:s7_server.obj
 0003:000039f8       ?SZL_ID_01A0_IDX_0002@@3PAEA 00000001800749f8     snap7:s7_server.obj
 0003:00003a30       ?SZL_ID_0F94_IDX_XXXX@@3PAEA 0000000180074a30     snap7:s7_server.obj
 0003:00003a40       ?SZL_ID_0000_IDX_XXXX@@3PAEA 0000000180074a40     snap7:s7_server.obj
 0003:00003b30       ?SZL_ID_011C_IDX_0005@@3PAEA 0000000180074b30     snap7:s7_server.obj
 0003:00003b60       ?SZL_ID_0222_IDX_000A@@3PAEA 0000000180074b60     snap7:s7_server.obj
 0003:00003b88       ?SZL_ID_0F12_IDX_0400@@3PAEA 0000000180074b88     snap7:s7_server.obj
 0003:00003b98       ?SZL_ID_0111_IDX_0007@@3PAEA 0000000180074b98     snap7:s7_server.obj
 0003:00003bc0       ?SZL_ID_00A0_IDX_XXXX@@3PAEA 0000000180074bc0     snap7:s7_server.obj
 0003:00003c98       ?SZL_ID_0015_IDX_XXXX@@3PAEA 0000000180074c98     snap7:s7_server.obj
 0003:00003cd8       ?SZL_ID_0037_IDX_XXXX@@3PAEA 0000000180074cd8     snap7:s7_server.obj
 0003:00003d18       ?SZL_ID_0D97_IDX_0000@@3PAEA 0000000180074d18     snap7:s7_server.obj
 0003:00003d58       ?SZL_ID_0232_IDX_0001@@3PAEA 0000000180074d58     snap7:s7_server.obj
 0003:00003d90       ?SZL_ID_0F3A_IDX_XXXX@@3PAEA 0000000180074d90     snap7:s7_server.obj
 0003:00003da0       ?SZL_ID_011C_IDX_0004@@3PAEA 0000000180074da0     snap7:s7_server.obj
 0003:00003dd0       ?SZL_ID_0F11_IDX_0007@@3PAEA 0000000180074dd0     snap7:s7_server.obj
 0003:00003de0       ?SZL_ID_0225_IDX_0001@@3PAEA 0000000180074de0     snap7:s7_server.obj
 0003:00003df0       ?SZL_ID_0F12_IDX_0100@@3PAEA 0000000180074df0     snap7:s7_server.obj
 0003:00003e00       ?SZL_ID_0292_IDX_0000@@3PAEA 0000000180074e00     snap7:s7_server.obj
 0003:00003e20       ??_R0?AV_Facet_base@std@@@8 0000000180074e20     libcpmt:locale0.obj
 0003:00003e48       ??_R0?AV_Locimp@locale@std@@@8 0000000180074e48     libcpmt:locale0.obj
 0003:00003e78       ??_R0?AVfacet@locale@std@@@8 0000000180074e78     libcpmt:locale0.obj
 0003:00003ea0       ??_R0?AU_Crt_new_delete@std@@@8 0000000180074ea0     libcpmt:locale0.obj
 0003:00003ed0       ??_R0?AVbad_alloc@std@@@8  0000000180074ed0     libcpmt:xthrow.obj
 0003:00003ef8       ??_R0?AVexception@std@@@8  0000000180074ef8     libcpmt:xthrow.obj
 0003:00003f20       ??_R0?AVlogic_error@std@@@8 0000000180074f20     libcpmt:xthrow.obj
 0003:00003f48       ??_R0?AVlength_error@std@@@8 0000000180074f48     libcpmt:xthrow.obj
 0003:00003f70       ??_R0?AVout_of_range@std@@@8 0000000180074f70     libcpmt:xthrow.obj
 0003:00003f98       ??_R0?AVruntime_error@std@@@8 0000000180074f98     libcpmt:xthrow.obj
 0003:00003fc0       ??_R0?AUctype_base@std@@@8 0000000180074fc0     libcpmt:locale.obj
 0003:00003fe8       ??_R0?AV?$ctype@D@std@@@8  0000000180074fe8     libcpmt:locale.obj
 0003:00004010       ??_R0?AV?$num_put@DV?$ostreambuf_iterator@DU?$char_traits@D@std@@@std@@@std@@@8 0000000180075010     libcpmt:locale.obj
 0003:00004070       ??_R0?AV?$numpunct@D@std@@@8 0000000180075070     libcpmt:locale.obj
 0003:00004098       ??_R0?AVtype_info@@@8      0000000180075098     LIBCMT:std_type_info_static.obj
 0003:000040b8       ??_R0?AVbad_array_new_length@std@@@8 00000001800750b8     LIBCMT:throw_bad_alloc.obj
 0003:000040e8       ??_R0?AVbad_exception@std@@@8 00000001800750e8     libvcruntime:frame.obj
 0003:00004110       __imp_node_module_register 0000000180075110     node:node.exe
 0003:00004118       __imp_uv_mutex_unlock      0000000180075118     node:node.exe
 0003:00004120       __imp_uv_queue_work        0000000180075120     node:node.exe
 0003:00004128       __imp_?Global@Context@v8@@QEAA?AV?$Local@VObject@v8@@@2@XZ 0000000180075128     node:node.exe
 0003:00004130       __imp_?Value@External@v8@@QEBAPEAXXZ 0000000180075130     node:node.exe
 0003:00004138       __imp_?New@External@v8@@SA?AV?$Local@VExternal@v8@@@2@PEAVIsolate@2@PEAX@Z 0000000180075138     node:node.exe
 0003:00004140       __imp_?NewFromUnsigned@Integer@v8@@SA?AV?$Local@VInteger@v8@@@2@PEAVIsolate@2@I@Z 0000000180075140     node:node.exe
 0003:00004148       __imp_?New@Integer@v8@@SA?AV?$Local@VInteger@v8@@@2@PEAVIsolate@2@H@Z 0000000180075148     node:node.exe
 0003:00004150       __imp_?New@Signature@v8@@SA?AV?$Local@VSignature@v8@@@2@PEAVIsolate@2@V?$Local@VFunctionTemplate@v8@@@2@@Z 0000000180075150     node:node.exe
 0003:00004158       __imp_?ThrowException@Isolate@v8@@QEAA?AV?$Local@VValue@v8@@@2@V32@@Z 0000000180075158     node:node.exe
 0003:00004160       __imp_?GetCurrentContext@Isolate@v8@@QEAA?AV?$Local@VContext@v8@@@2@XZ 0000000180075160     node:node.exe
 0003:00004168       __imp_?GetCurrent@Isolate@v8@@SAPEAV12@XZ 0000000180075168     node:node.exe
 0003:00004170       __imp_?CreateHandle@HandleScope@v8@@KAPEAPEAVObject@internal@2@PEAVIsolate@42@PEAV342@@Z 0000000180075170     node:node.exe
 0003:00004178       __imp_?CreateHandle@HandleScope@v8@@CAPEAPEAVObject@internal@2@PEAVHeapObject@42@PEAV342@@Z 0000000180075178     node:node.exe
 0003:00004180       __imp_??1HandleScope@v8@@QEAA@XZ 0000000180075180     node:node.exe
 0003:00004188       __imp_??0HandleScope@v8@@QEAA@PEAVIsolate@1@@Z 0000000180075188     node:node.exe
 0003:00004190       __imp_?Set@Template@v8@@QEAAXV?$Local@VName@v8@@@2@V?$Local@VData@v8@@@2@W4PropertyAttribute@2@@Z 0000000180075190     node:node.exe
 0003:00004198       __imp_?Error@Exception@v8@@SA?AV?$Local@VValue@v8@@@2@V?$Local@VString@v8@@@2@@Z 0000000180075198     node:node.exe
 0003:000041a0       __imp_?TypeError@Exception@v8@@SA?AV?$Local@VValue@v8@@@2@V?$Local@VString@v8@@@2@@Z 00000001800751a0     node:node.exe
 0003:000041a8       __imp_?New@Array@v8@@SA?AV?$Local@VArray@v8@@@2@PEAVIsolate@2@H@Z 00000001800751a8     node:node.exe
 0003:000041b0       __imp_?Length@Array@v8@@QEBAIXZ 00000001800751b0     node:node.exe
 0003:000041b8       __imp_?New@Date@v8@@SA?AV?$MaybeLocal@VValue@v8@@@2@V?$Local@VContext@v8@@@2@N@Z 00000001800751b8     node:node.exe
 0003:000041c0       __imp_?SetClassName@FunctionTemplate@v8@@QEAAXV?$Local@VString@v8@@@2@@Z 00000001800751c0     node:node.exe
 0003:000041c8       __imp_?PrototypeTemplate@FunctionTemplate@v8@@QEAA?AV?$Local@VObjectTemplate@v8@@@2@XZ 00000001800751c8     node:node.exe
 0003:000041d0       __imp_?InstanceTemplate@FunctionTemplate@v8@@QEAA?AV?$Local@VObjectTemplate@v8@@@2@XZ 00000001800751d0     node:node.exe
 0003:000041d8       __imp_?GetFunction@FunctionTemplate@v8@@QEAA?AV?$Local@VFunction@v8@@@2@XZ 00000001800751d8     node:node.exe
 0003:000041e0       __imp_?New@FunctionTemplate@v8@@SA?AV?$Local@VFunctionTemplate@v8@@@2@PEAVIsolate@2@P6AXAEBV?$FunctionCallbackInfo@VValue@v8@@@2@@ZV?$Local@VValue@v8@@@2@V?$Local@VSignature@v8@@@2@H@Z 00000001800751e0     node:node.exe
 0003:000041e8       __imp_?ToLocalEmpty@V8@v8@@CAXXZ 00000001800751e8     node:node.exe
 0003:000041f0       __imp_?FromJustIsNothing@V8@v8@@CAXXZ 00000001800751f0     node:node.exe
 0003:000041f8       __imp_?ClearWeak@V8@v8@@CAPEAXPEAPEAVObject@internal@2@@Z 00000001800751f8     node:node.exe
 0003:00004200       __imp_?MakeWeak@V8@v8@@CAXPEAPEAVObject@internal@2@PEAXP6AXAEBV?$WeakCallbackInfo@X@2@@ZW4WeakCallbackType@2@@Z 0000000180075200     node:node.exe
 0003:00004208       __imp_?DisposeGlobal@V8@v8@@CAXPEAPEAVObject@internal@2@@Z 0000000180075208     node:node.exe
 0003:00004210       __imp_?GlobalizeReference@V8@v8@@CAPEAPEAVObject@internal@2@PEAVIsolate@42@PEAPEAV342@@Z 0000000180075210     node:node.exe
 0003:00004218       __imp_?Int32Value@Value@v8@@QEBAHXZ 0000000180075218     node:node.exe
 0003:00004220       __imp_?Uint32Value@Value@v8@@QEBAIXZ 0000000180075220     node:node.exe
 0003:00004228       __imp_?NumberValue@Value@v8@@QEBANXZ 0000000180075228     node:node.exe
 0003:00004230       __imp_?ToInteger@Value@v8@@QEBA?AV?$MaybeLocal@VInteger@v8@@@2@V?$Local@VContext@v8@@@2@@Z 0000000180075230     node:node.exe
 0003:00004238       __imp_?IsDate@Value@v8@@QEBA_NXZ 0000000180075238     node:node.exe
 0003:00004240       __imp_?IsUint32@Value@v8@@QEBA_NXZ 0000000180075240     node:node.exe
 0003:00004248       __imp_?IsInt32@Value@v8@@QEBA_NXZ 0000000180075248     node:node.exe
 0003:00004250       __imp_?IsObject@Value@v8@@QEBA_NXZ 0000000180075250     node:node.exe
 0003:00004258       __imp_?IsArray@Value@v8@@QEBA_NXZ 0000000180075258     node:node.exe
 0003:00004260       __imp_?IsFunction@Value@v8@@QEBA_NXZ 0000000180075260     node:node.exe
 0003:00004268       __imp_?Escape@EscapableHandleScope@v8@@AEAAPEAPEAVObject@internal@2@PEAPEAV342@@Z 0000000180075268     node:node.exe
 0003:00004270       __imp_??0EscapableHandleScope@v8@@QEAA@PEAVIsolate@1@@Z 0000000180075270     node:node.exe
 0003:00004278       __imp_?NewFromUtf8@String@v8@@SA?AV?$MaybeLocal@VString@v8@@@2@PEAVIsolate@2@PEBDW4NewStringType@2@H@Z 0000000180075278     node:node.exe
 0003:00004280       __imp_?WriteUtf8@String@v8@@QEBAHPEADHPEAHH@Z 0000000180075280     node:node.exe
 0003:00004288       __imp_?Length@String@v8@@QEBAHXZ 0000000180075288     node:node.exe
 0003:00004290       __imp_?New@Number@v8@@SA?AV?$Local@VNumber@v8@@@2@PEAVIsolate@2@N@Z 0000000180075290     node:node.exe
 0003:00004298       __imp_?SlowGetAlignedPointerFromInternalField@Object@v8@@AEAAPEAXH@Z 0000000180075298     node:node.exe
 0003:000042a0       __imp_?SlowGetInternalField@Object@v8@@AEAA?AV?$Local@VValue@v8@@@2@H@Z 00000001800752a0     node:node.exe
 0003:000042a8       __imp_?New@Object@v8@@SA?AV?$Local@VObject@v8@@@2@PEAVIsolate@2@@Z 00000001800752a8     node:node.exe
 0003:000042b0       __imp_?SetAlignedPointerInInternalField@Object@v8@@QEAAXHPEAX@Z 00000001800752b0     node:node.exe
 0003:000042b8       __imp_?SetInternalField@Object@v8@@QEAAXHV?$Local@VValue@v8@@@2@@Z 00000001800752b8     node:node.exe
 0003:000042c0       __imp_?InternalFieldCount@Object@v8@@QEAAHXZ 00000001800752c0     node:node.exe
 0003:000042c8       __imp_?Has@Object@v8@@QEAA?AV?$Maybe@_N@2@V?$Local@VContext@v8@@@2@V?$Local@VValue@v8@@@2@@Z 00000001800752c8     node:node.exe
 0003:000042d0       __imp_?Get@Object@v8@@QEAA?AV?$MaybeLocal@VValue@v8@@@2@V?$Local@VContext@v8@@@2@V?$Local@VValue@v8@@@2@@Z 00000001800752d0     node:node.exe
 0003:000042d8       __imp_?Get@Object@v8@@QEAA?AV?$Local@VValue@v8@@@2@I@Z 00000001800752d8     node:node.exe
 0003:000042e0       __imp_?Get@Object@v8@@QEAA?AV?$MaybeLocal@VValue@v8@@@2@V?$Local@VContext@v8@@@2@I@Z 00000001800752e0     node:node.exe
 0003:000042e8       __imp_?Set@Object@v8@@QEAA?AV?$Maybe@_N@2@V?$Local@VContext@v8@@@2@V?$Local@VValue@v8@@@2@1@Z 00000001800752e8     node:node.exe
 0003:000042f0       __imp_?Set@Object@v8@@QEAA?AV?$Maybe@_N@2@V?$Local@VContext@v8@@@2@IV?$Local@VValue@v8@@@2@@Z 00000001800752f0     node:node.exe
 0003:000042f8       __imp_?NewInstance@Function@v8@@QEBA?AV?$Local@VObject@v8@@@2@XZ 00000001800752f8     node:node.exe
 0003:00004300       __imp_?SetInternalFieldCount@ObjectTemplate@v8@@QEAAXH@Z 0000000180075300     node:node.exe
 0003:00004308       __imp_?NewInstance@ObjectTemplate@v8@@QEAA?AV?$MaybeLocal@VObject@v8@@@2@V?$Local@VContext@v8@@@2@@Z 0000000180075308     node:node.exe
 0003:00004310       __imp_?New@ObjectTemplate@v8@@SA?AV?$Local@VObjectTemplate@v8@@@2@PEAVIsolate@2@V?$Local@VFunctionTemplate@v8@@@2@@Z 0000000180075310     node:node.exe
 0003:00004318       __imp_uv_mutex_lock        0000000180075318     node:node.exe
 0003:00004320       __imp_?HasInstance@Buffer@node@@YA_NV?$Local@VValue@v8@@@v8@@@Z 0000000180075320     node:node.exe
 0003:00004328       __imp_?New@Buffer@node@@YA?AV?$MaybeLocal@VObject@v8@@@v8@@PEAVIsolate@4@PEAD_KP6AX1PEAX@Z3@Z 0000000180075328     node:node.exe
 0003:00004330       __imp_?Data@Buffer@node@@YAPEADV?$Local@VObject@v8@@@v8@@@Z 0000000180075330     node:node.exe
 0003:00004338       __imp_?Length@Buffer@node@@YA_KV?$Local@VObject@v8@@@v8@@@Z 0000000180075338     node:node.exe
 0003:00004340       __imp_?MakeCallback@node@@YA?AV?$Local@VValue@v8@@@v8@@PEAVIsolate@3@V?$Local@VObject@v8@@@3@V?$Local@VFunction@v8@@@3@HPEAV23@@Z 0000000180075340     node:node.exe
 0003:00004348       __imp_uv_mutex_destroy     0000000180075348     node:node.exe
 0003:00004350       __imp_uv_mutex_init        0000000180075350     node:node.exe
 0003:00004358       __imp_uv_default_loop      0000000180075358     node:node.exe
 0003:00004360       __imp_?ToObject@Value@v8@@QEBA?AV?$Local@VObject@v8@@@2@XZ 0000000180075360     node:node.exe
 0003:00004368       __imp_?ToString@Value@v8@@QEBA?AV?$Local@VString@v8@@@2@XZ 0000000180075368     node:node.exe
 0003:00004370       \177node_NULL_THUNK_DATA_DLA 0000000180075370     node:node.exe
 0003:00004380       __hmod__node_exe           0000000180075380     node:node.exe
 0003:000044e8       ?_Id_cnt@id@locale@std@@0HA 00000001800754e8     libcpmt:locale0.obj
 0003:000044f0       ?_Clocptr@_Locimp@locale@std@@0PEAV123@EA 00000001800754f0     libcpmt:locale0.obj
 0003:00004500       ?id@?$ctype@_W@std@@2V0locale@2@A 0000000180075500     libcpmt:locale0.obj
 0003:00004508       ?id@?$ctype@D@std@@2V0locale@2@A 0000000180075508     libcpmt:locale0.obj
 0003:00004510       ?id@?$codecvt@GDU_Mbstatet@@@std@@2V0locale@2@A 0000000180075510     libcpmt:locale0.obj
 0003:00004518       ?id@?$ctype@G@std@@2V0locale@2@A 0000000180075518     libcpmt:locale0.obj
 0003:00004530       ?id@?$codecvt@_WDU_Mbstatet@@@std@@2V0locale@2@A 0000000180075530     libcpmt:locale0.obj
 0003:0000459c       ?_Index@ios_base@std@@0HA  000000018007559c     libcpmt:ios.obj
 0003:000045a0       ?_Raise_handler@std@@3P6AXAEBVexception@stdext@@@ZEA 00000001800755a0     libcpmt:raisehan.obj
 0003:000045b0       ?_Ptr_cin@std@@3PEAV?$basic_istream@DU?$char_traits@D@std@@@1@EA 00000001800755b0     libcpmt:iosptrs.obj
 0003:000045b8       ?_Ptr_cout@std@@3PEAV?$basic_ostream@DU?$char_traits@D@std@@@1@EA 00000001800755b8     libcpmt:iosptrs.obj
 0003:000045c0       ?_Ptr_cerr@std@@3PEAV?$basic_ostream@DU?$char_traits@D@std@@@1@EA 00000001800755c0     libcpmt:iosptrs.obj
 0003:000045c8       ?_Ptr_clog@std@@3PEAV?$basic_ostream@DU?$char_traits@D@std@@@1@EA 00000001800755c8     libcpmt:iosptrs.obj
 0003:000045d0       ?_Ptr_wcin@std@@3PEAV?$basic_istream@_WU?$char_traits@_W@std@@@1@EA 00000001800755d0     libcpmt:iosptrs.obj
 0003:000045d8       ?_Ptr_wcout@std@@3PEAV?$basic_ostream@_WU?$char_traits@_W@std@@@1@EA 00000001800755d8     libcpmt:iosptrs.obj
 0003:000045e0       ?_Ptr_wcerr@std@@3PEAV?$basic_ostream@_WU?$char_traits@_W@std@@@1@EA 00000001800755e0     libcpmt:iosptrs.obj
 0003:000045e8       ?_Ptr_wclog@std@@3PEAV?$basic_ostream@_WU?$char_traits@_W@std@@@1@EA 00000001800755e8     libcpmt:iosptrs.obj
 0003:00004648       ?id@?$num_get@DV?$istreambuf_iterator@DU?$char_traits@D@std@@@std@@@std@@2V0locale@2@A 0000000180075648     libcpmt:locale.obj
 0003:00004650       ?id@?$codecvt@DDU_Mbstatet@@@std@@2V0locale@2@A 0000000180075650     libcpmt:locale.obj
 0003:00004660       __encodedKERNEL32Functions 0000000180075660     libcpmt:winapisupp.obj
 0003:000047a0       ?id@?$time_put@_WV?$ostreambuf_iterator@_WU?$char_traits@_W@std@@@std@@@std@@2V0locale@2@A 00000001800757a0     libcpmt:wlocale.obj
 0003:000047a8       ?id@?$num_get@_WV?$istreambuf_iterator@_WU?$char_traits@_W@std@@@std@@@std@@2V0locale@2@A 00000001800757a8     libcpmt:wlocale.obj
 0003:000047b0       ?id@?$num_put@_WV?$ostreambuf_iterator@_WU?$char_traits@_W@std@@@std@@@std@@2V0locale@2@A 00000001800757b0     libcpmt:wlocale.obj
 0003:000047b8       ?id@?$numpunct@_W@std@@2V0locale@2@A 00000001800757b8     libcpmt:wlocale.obj
 0003:000047c0       ?id@?$collate@_W@std@@2V0locale@2@A 00000001800757c0     libcpmt:wlocale.obj
 0003:000047c8       ?id@?$messages@_W@std@@2V0locale@2@A 00000001800757c8     libcpmt:wlocale.obj
 0003:000047d0       ?id@?$money_get@_WV?$istreambuf_iterator@_WU?$char_traits@_W@std@@@std@@@std@@2V0locale@2@A 00000001800757d0     libcpmt:wlocale.obj
 0003:000047d8       ?id@?$money_put@_WV?$ostreambuf_iterator@_WU?$char_traits@_W@std@@@std@@@std@@2V0locale@2@A 00000001800757d8     libcpmt:wlocale.obj
 0003:000047e0       ?id@?$moneypunct@_W$0A@@std@@2V0locale@2@A 00000001800757e0     libcpmt:wlocale.obj
 0003:000047e8       ?id@?$moneypunct@_W$00@std@@2V0locale@2@A 00000001800757e8     libcpmt:wlocale.obj
 0003:000047f0       ?id@?$time_get@_WV?$istreambuf_iterator@_WU?$char_traits@_W@std@@@std@@@std@@2V0locale@2@A 00000001800757f0     libcpmt:wlocale.obj
 0003:000047f8       ?id@?$num_get@GV?$istreambuf_iterator@GU?$char_traits@G@std@@@std@@@std@@2V0locale@2@A 00000001800757f8     libcpmt:wlocale.obj
 0003:00004800       ?id@?$num_put@GV?$ostreambuf_iterator@GU?$char_traits@G@std@@@std@@@std@@2V0locale@2@A 0000000180075800     libcpmt:wlocale.obj
 0003:00004808       ?id@?$numpunct@G@std@@2V0locale@2@A 0000000180075808     libcpmt:wlocale.obj
 0003:00004810       ?id@?$collate@G@std@@2V0locale@2@A 0000000180075810     libcpmt:wlocale.obj
 0003:00004818       ?id@?$messages@G@std@@2V0locale@2@A 0000000180075818     libcpmt:wlocale.obj
 0003:00004820       ?id@?$money_get@GV?$istreambuf_iterator@GU?$char_traits@G@std@@@std@@@std@@2V0locale@2@A 0000000180075820     libcpmt:wlocale.obj
 0003:00004828       ?id@?$money_put@GV?$ostreambuf_iterator@GU?$char_traits@G@std@@@std@@@std@@2V0locale@2@A 0000000180075828     libcpmt:wlocale.obj
 0003:00004830       ?id@?$moneypunct@G$0A@@std@@2V0locale@2@A 0000000180075830     libcpmt:wlocale.obj
 0003:00004838       ?id@?$moneypunct@G$00@std@@2V0locale@2@A 0000000180075838     libcpmt:wlocale.obj
 0003:00004840       ?id@?$time_get@GV?$istreambuf_iterator@GU?$char_traits@G@std@@@std@@@std@@2V0locale@2@A 0000000180075840     libcpmt:wlocale.obj
 0003:00004848       ?id@?$time_put@GV?$ostreambuf_iterator@GU?$char_traits@G@std@@@std@@@std@@2V0locale@2@A 0000000180075848     libcpmt:wlocale.obj
 0003:00004850       ?id@?$collate@D@std@@2V0locale@2@A 0000000180075850     libcpmt:xlocale.obj
 0003:00004858       ?id@?$messages@D@std@@2V0locale@2@A 0000000180075858     libcpmt:xlocale.obj
 0003:00004860       ?id@?$money_get@DV?$istreambuf_iterator@DU?$char_traits@D@std@@@std@@@std@@2V0locale@2@A 0000000180075860     libcpmt:xlocale.obj
 0003:00004868       ?id@?$money_put@DV?$ostreambuf_iterator@DU?$char_traits@D@std@@@std@@@std@@2V0locale@2@A 0000000180075868     libcpmt:xlocale.obj
 0003:00004870       ?id@?$moneypunct@D$0A@@std@@2V0locale@2@A 0000000180075870     libcpmt:xlocale.obj
 0003:00004878       ?id@?$moneypunct@D$00@std@@2V0locale@2@A 0000000180075878     libcpmt:xlocale.obj
 0003:00004880       ?id@?$time_get@DV?$istreambuf_iterator@DU?$char_traits@D@std@@@std@@@std@@2V0locale@2@A 0000000180075880     libcpmt:xlocale.obj
 0003:00004888       ?id@?$time_put@DV?$ostreambuf_iterator@DU?$char_traits@D@std@@@std@@@std@@2V0locale@2@A 0000000180075888     libcpmt:xlocale.obj
 0003:000048d8       __scrt_current_native_startup_state 00000001800758d8     LIBCMT:utility.obj
 0003:000048e0       __scrt_native_startup_lock 00000001800758e0     LIBCMT:utility.obj
 0003:00004e90       __scrt_debugger_hook_flag  0000000180075e90     LIBCMT:utility_desktop.obj
 0003:00004e94       _tls_index                 0000000180075e94     LIBCMT:tlssup.obj
 0003:00004e98       __favor                    0000000180075e98     LIBCMT:_cpu_disp_.obj
 0003:00004ea0       ?__type_info_root_node@@3U__type_info_node@@A 0000000180075ea0     LIBCMT:tncleanup.obj
 0003:00004eb0       ?_OptionsStorage@?1??__local_stdio_scanf_options@@9@4_KA 0000000180075eb0     LIBCMT:default_local_stdio_options.obj
 0003:00004eb8       ?g_OutOfMemoryExceptionCallback@@3P6APEAXXZEA 0000000180075eb8     libvcruntime:frame.obj
 0003:00004f28       __pPurecall                0000000180075f28     libvcruntime:purevirt_data.obj
 0003:00004fd8       ?pArgList@UnDecorator@@0PEAVReplicator@@EA 0000000180075fd8     libvcruntime:undname.obj
 0003:00004fe0       ?pZNameList@UnDecorator@@0PEAVReplicator@@EA 0000000180075fe0     libvcruntime:undname.obj
 0003:00004fe8       ?pTemplateArgList@UnDecorator@@0PEAVReplicator@@EA 0000000180075fe8     libvcruntime:undname.obj
 0003:00004ff0       ?gName@UnDecorator@@0PEBDEB 0000000180075ff0     libvcruntime:undname.obj
 0003:00004ff8       ?name@UnDecorator@@0PEBDEB 0000000180075ff8     libvcruntime:undname.obj
 0003:00005000       ?outputString@UnDecorator@@0PEADEA 0000000180076000     libvcruntime:undname.obj
 0003:00005008       ?maxStringLength@UnDecorator@@0HA 0000000180076008     libvcruntime:undname.obj
 0003:0000500c       ?disableFlags@UnDecorator@@0KA 000000018007600c     libvcruntime:undname.obj
 0003:00005010       ?fExplicitTemplateParams@UnDecorator@@0_NA 0000000180076010     libvcruntime:undname.obj
 0003:00005011       ?fGetTemplateArgumentList@UnDecorator@@0_NA 0000000180076011     libvcruntime:undname.obj
 0003:00005018       ?m_pGetParameter@UnDecorator@@0P6APEADJ@ZEA 0000000180076018     libvcruntime:undname.obj
 0003:00005050       __acrt_lconv_static_null   0000000180076050     libucrt:localeconv.obj
 0003:00005054       __acrt_lconv_static_W_null 0000000180076054     libucrt:localeconv.obj
 0003:00005398       _environ_table             0000000180076398     libucrt:environment_initialization.obj
 0003:000053a0       _wenviron_table            00000001800763a0     libucrt:environment_initialization.obj
 0003:000053a8       __dcrt_initial_wide_environment 00000001800763a8     libucrt:environment_initialization.obj
 0003:000053b0       __dcrt_initial_narrow_environment 00000001800763b0     libucrt:environment_initialization.obj
 0003:000053b8       __acrt_atexit_table        00000001800763b8     libucrt:onexit.obj
 0003:000053d0       __acrt_at_quick_exit_table 00000001800763d0     libucrt:onexit.obj
 0003:00005408       ?_timezone@@3V?$dual_state_global@J@__crt_state_management@@A 0000000180076408     libucrt:timeset.obj
 0003:0000540c       ?_daylight@@3V?$dual_state_global@H@__crt_state_management@@A 000000018007640c     libucrt:timeset.obj
 0003:00005410       ?_dstbias@@3V?$dual_state_global@J@__crt_state_management@@A 0000000180076410     libucrt:timeset.obj
 0003:000054f0       _nstream                   00000001800764f0     libucrt:_file.obj
 0003:000054f8       __piob                     00000001800764f8     libucrt:_file.obj
 0003:00005500       _cflush                    0000000180076500     libucrt:_file.obj
 0003:00005510       __acrt_stdout_buffer       0000000180076510     libucrt:_sftbuf.obj
 0003:00005518       __acrt_stderr_buffer       0000000180076518     libucrt:_sftbuf.obj
 0003:00005520       __acrt_locale_changed_data 0000000180076520     libucrt:wsetlocale.obj
 0003:00005528       __acrt_current_locale_data 0000000180076528     libucrt:nlsdata.obj
 0003:00005530       __pioinfo                  0000000180076530     libucrt:ioinit.obj
 0003:00005930       _nhandle                   0000000180076930     libucrt:ioinit.obj
 0003:00005af0       __acrt_heap                0000000180076af0     libucrt:heap_handle.obj
 0003:00005af8       __fma3_is_available        0000000180076af8     libucrt:fma3_available.obj
 0003:00005afc       __use_fma3_lib             0000000180076afc     libucrt:fma3_available.obj
 0003:00005b00       __mbcodepage               0000000180076b00     libucrt:mbctype.obj
 0003:00005b04       __ismbcodepage             0000000180076b04     libucrt:mbctype.obj
 0003:00005b08       __mbulinfo                 0000000180076b08     libucrt:mbctype.obj
 0003:00005b18       __mblocalename             0000000180076b18     libucrt:mbctype.obj
 0003:00005b24       __argc                     0000000180076b24     libucrt:argv_data.obj
 0003:00005b28       __argv                     0000000180076b28     libucrt:argv_data.obj
 0003:00005b30       __wargv                    0000000180076b30     libucrt:argv_data.obj
 0003:00005b38       _acmdln                    0000000180076b38     libucrt:argv_data.obj
 0003:00005b40       _wcmdln                    0000000180076b40     libucrt:argv_data.obj
 0003:00005b48       _pgmptr                    0000000180076b48     libucrt:argv_data.obj
 0003:00005b58       ?DloadKernel32@@3PEAUHINSTANCE__@@EA 0000000180076b58     DelayImp:delayhlp.obj
 0003:00005b60       ?DloadAcquireSRWLockExclusive@@3P6AXPEA_K@ZEA 0000000180076b60     DelayImp:delayhlp.obj
 0003:00005b68       ?DloadReleaseSRWLockExclusive@@3P6AXPEA_K@ZEA 0000000180076b68     DelayImp:delayhlp.obj
 0003:00005b70       ?DloadSrwLock@@3_KA        0000000180076b70     DelayImp:delayhlp.obj
 0003:00005b78       ?DloadSectionLockCount@@3KA 0000000180076b78     DelayImp:delayhlp.obj
 0003:00005b7c       ?DloadSectionOldProtection@@3KA 0000000180076b7c     DelayImp:delayhlp.obj
 0003:00005b80       ?DloadSectionCommitPermanent@@3KA 0000000180076b80     DelayImp:delayhlp.obj
 0003:00005b88       ?_Static@?1???$_Immortalize@V_Iostream_error_category@std@@@std@@YAAEAV_Iostream_error_category@1@XZ@4U?$_Immortalizer@V_Iostream_error_category@std@@@1@A 0000000180076b88     node_snap7_client.obj
 0003:00005b98       ?$TSS0@?1???$_Immortalize@V_Iostream_error_category@std@@@std@@YAAEAV_Iostream_error_category@1@XZ@4HA 0000000180076b98     node_snap7_client.obj
 0003:00005ba0       ?_OptionsStorage@?1??__local_stdio_printf_options@@9@4_KA 0000000180076ba0     node_snap7_client.obj
 0003:00005ba8       ?_Psave@?$_Facetptr@V?$numpunct@D@std@@@std@@2PEBVfacet@locale@2@EB 0000000180076ba8     node_snap7_client.obj
 0003:00005bb0       ?_Psave@?$_Facetptr@V?$num_put@DV?$ostreambuf_iterator@DU?$char_traits@D@std@@@std@@@std@@@std@@2PEBVfacet@locale@2@EB 0000000180076bb0     node_snap7_client.obj
 0003:00005bb8       ?_Psave@?$_Facetptr@V?$ctype@D@std@@@std@@2PEBVfacet@locale@2@EB 0000000180076bb8     node_snap7_client.obj
 0003:00005bd0       ?constructor@S7Client@node_snap7@@0V?$Persistent@VFunctionTemplate@v8@@V?$NonCopyablePersistentTraits@VFunctionTemplate@v8@@@2@@Nan@@A 0000000180076bd0     node_snap7_client.obj
 0003:00005d90       ?id@?$num_put@DV?$ostreambuf_iterator@DU?$char_traits@D@std@@@std@@@std@@2V0locale@2@A 0000000180076d90     node_snap7_client.obj
 0003:00005d98       ?id@?$numpunct@D@std@@2V0locale@2@A 0000000180076d98     node_snap7_client.obj
 0003:00005da0       __dyn_tls_init_callback    0000000180076da0     <common>
 0003:00005da8       __scrt_ucrt_dll_is_in_use  0000000180076da8     <common>
 0006:00000000       _tls_start                 000000018007d000     LIBCMT:tlssup.obj
 0006:00000004       _Init_thread_epoch         000000018007d004     LIBCMT:thread_safe_statics.obj
 0006:00000008       _tls_end                   000000018007d008     LIBCMT:tlssup.obj

 entry point at        0001:0002f904

 Static symbols

 0000:fff7f000       .debug$S                   0000000180000000     node:node.exe
 0000:fff7f000       .debug$S                   0000000180000000     kernel32:KERNEL32.dll
 0000:fff7f000       .debug$S                   0000000180000000     kernel32:KERNEL32.dll
 0000:fff7f000       .debug$S                   0000000180000000     kernel32:KERNEL32.dll
 0000:fff7f000       .debug$S                   0000000180000000     kernel32:KERNEL32.dll
 0000:fff7f000       .debug$S                   0000000180000000     kernel32:KERNEL32.dll
 0000:fff7f000       .debug$S                   0000000180000000     kernel32:KERNEL32.dll
 0000:fff7f000       .debug$S                   0000000180000000     kernel32:KERNEL32.dll
 0000:fff7f000       .debug$S                   0000000180000000     kernel32:KERNEL32.dll
 0000:fff7f000       .debug$S                   0000000180000000     kernel32:KERNEL32.dll
 0000:fff7f000       .debug$S                   0000000180000000     kernel32:KERNEL32.dll
 0000:fff7f000       .debug$S                   0000000180000000     kernel32:KERNEL32.dll
 0000:fff7f000       .debug$S                   0000000180000000     kernel32:KERNEL32.dll
 0000:fff7f000       .debug$S                   0000000180000000     kernel32:KERNEL32.dll
 0000:fff7f000       .debug$S                   0000000180000000     kernel32:KERNEL32.dll
 0000:fff7f000       .debug$S                   0000000180000000     kernel32:KERNEL32.dll
 0000:fff7f000       .debug$S                   0000000180000000     kernel32:KERNEL32.dll
 0000:fff7f000       .debug$S                   0000000180000000     kernel32:KERNEL32.dll
 0000:fff7f000       .debug$S                   0000000180000000     kernel32:KERNEL32.dll
 0000:fff7f000       .debug$S                   0000000180000000     kernel32:KERNEL32.dll
 0000:fff7f000       .debug$S                   0000000180000000     kernel32:KERNEL32.dll
 0000:fff7f000       .debug$S                   0000000180000000     kernel32:KERNEL32.dll
 0000:fff7f000       .debug$S                   0000000180000000     kernel32:KERNEL32.dll
 0000:fff7f000       .debug$S                   0000000180000000     kernel32:KERNEL32.dll
 0000:fff7f000       .debug$S                   0000000180000000     kernel32:KERNEL32.dll
 0000:fff7f000       .debug$S                   0000000180000000     kernel32:KERNEL32.dll
 0000:fff7f000       .debug$S                   0000000180000000     kernel32:KERNEL32.dll
 0000:fff7f000       .debug$S                   0000000180000000     kernel32:KERNEL32.dll
 0000:fff7f000       .debug$S                   0000000180000000     kernel32:KERNEL32.dll
 0000:fff7f000       .debug$S                   0000000180000000     kernel32:KERNEL32.dll
 0000:fff7f000       .debug$S                   0000000180000000     kernel32:KERNEL32.dll
 0000:fff7f000       .debug$S                   0000000180000000     kernel32:KERNEL32.dll
 0000:fff7f000       .debug$S                   0000000180000000     kernel32:KERNEL32.dll
 0000:fff7f000       .debug$S                   0000000180000000     kernel32:KERNEL32.dll
 0000:fff7f000       .debug$S                   0000000180000000     kernel32:KERNEL32.dll
 0000:fff7f000       .debug$S                   0000000180000000     kernel32:KERNEL32.dll
 0000:fff7f000       .debug$S                   0000000180000000     kernel32:KERNEL32.dll
 0000:fff7f000       .debug$S                   0000000180000000     kernel32:KERNEL32.dll
 0000:fff7f000       .debug$S                   0000000180000000     kernel32:KERNEL32.dll
 0000:fff7f000       .debug$S                   0000000180000000     kernel32:KERNEL32.dll
 0000:fff7f000       .debug$S                   0000000180000000     kernel32:KERNEL32.dll
 0000:fff7f000       .debug$S                   0000000180000000     kernel32:KERNEL32.dll
 0000:fff7f000       .debug$S                   0000000180000000     kernel32:KERNEL32.dll
 0000:fff7f000       .debug$S                   0000000180000000     kernel32:KERNEL32.dll
 0000:fff7f000       .debug$S                   0000000180000000     kernel32:KERNEL32.dll
 0000:fff7f000       .debug$S                   0000000180000000     kernel32:KERNEL32.dll
 0000:fff7f000       .debug$S                   0000000180000000     kernel32:KERNEL32.dll
 0000:fff7f000       .debug$S                   0000000180000000     kernel32:KERNEL32.dll
 0000:fff7f000       .debug$S                   0000000180000000     node:node.exe
 0000:fff7f000       .debug$S                   0000000180000000     node:node.exe
 0000:fff7f000       .debug$S                   0000000180000000     node:node.exe
 0000:fff7f000       .debug$S                   0000000180000000     node:node.exe
 0000:fff7f000       .debug$S                   0000000180000000     node:node.exe
 0000:fff7f000       .debug$S                   0000000180000000     node:node.exe
 0000:fff7f000       .debug$S                   0000000180000000     node:node.exe
 0000:fff7f000       .debug$S                   0000000180000000     node:node.exe
 0000:fff7f000       .debug$S                   0000000180000000     node:node.exe
 0000:fff7f000       .debug$S                   0000000180000000     node:node.exe
 0000:fff7f000       .debug$S                   0000000180000000     node:node.exe
 0000:fff7f000       .debug$S                   0000000180000000     node:node.exe
 0000:fff7f000       .debug$S                   0000000180000000     node:node.exe
 0000:fff7f000       .debug$S                   0000000180000000     node:node.exe
 0000:fff7f000       .debug$S                   0000000180000000     node:node.exe
 0000:fff7f000       .debug$S                   0000000180000000     node:node.exe
 0000:fff7f000       .debug$S                   0000000180000000     node:node.exe
 0000:fff7f000       .debug$S                   0000000180000000     node:node.exe
 0000:fff7f000       .debug$S                   0000000180000000     node:node.exe
 0000:fff7f000       .debug$S                   0000000180000000     node:node.exe
 0000:fff7f000       .debug$S                   0000000180000000     node:node.exe
 0000:fff7f000       .debug$S                   0000000180000000     node:node.exe
 0000:fff7f000       .debug$S                   0000000180000000     node:node.exe
 0000:fff7f000       .debug$S                   0000000180000000     node:node.exe
 0000:fff7f000       .debug$S                   0000000180000000     node:node.exe
 0000:fff7f000       .debug$S                   0000000180000000     node:node.exe
 0000:fff7f000       .debug$S                   0000000180000000     node:node.exe
 0000:fff7f000       .debug$S                   0000000180000000     kernel32:KERNEL32.dll
 0000:fff7f000       .debug$S                   0000000180000000     node:node.exe
 0000:fff7f000       .debug$S                   0000000180000000     kernel32:KERNEL32.dll
 0000:fff7f000       .debug$S                   0000000180000000     node:node.exe
 0000:fff7f000       .debug$S                   0000000180000000     node:node.exe
 0000:fff7f000       .debug$S                   0000000180000000     node:node.exe
 0000:fff7f000       .debug$S                   0000000180000000     node:node.exe
 0000:fff7f000       .debug$S                   0000000180000000     node:node.exe
 0000:fff7f000       .debug$S                   0000000180000000     node:node.exe
 0000:fff7f000       .debug$S                   0000000180000000     node:node.exe
 0000:fff7f000       .debug$S                   0000000180000000     node:node.exe
 0000:fff7f000       .debug$S                   0000000180000000     node:node.exe
 0000:fff7f000       .debug$S                   0000000180000000     node:node.exe
 0000:fff7f000       .debug$S                   0000000180000000     node:node.exe
 0000:fff7f000       .debug$S                   0000000180000000     node:node.exe
 0000:fff7f000       .debug$S                   0000000180000000     node:node.exe
 0000:fff7f000       .debug$S                   0000000180000000     node:node.exe
 0000:fff7f000       .debug$S                   0000000180000000     kernel32:KERNEL32.dll
 0000:fff7f000       .debug$S                   0000000180000000     node:node.exe
 0000:fff7f000       .debug$S                   0000000180000000     kernel32:KERNEL32.dll
 0000:fff7f000       .debug$S                   0000000180000000     node:node.exe
 0000:fff7f000       .debug$S                   0000000180000000     kernel32:KERNEL32.dll
 0000:fff7f000       .debug$S                   0000000180000000     node:node.exe
 0000:fff7f000       .debug$S                   0000000180000000     kernel32:KERNEL32.dll
 0000:fff7f000       .debug$S                   0000000180000000     node:node.exe
 0000:fff7f000       .debug$S                   0000000180000000     kernel32:KERNEL32.dll
 0000:fff7f000       .debug$S                   0000000180000000     node:node.exe
 0000:fff7f000       .debug$S                   0000000180000000     kernel32:KERNEL32.dll
 0000:fff7f000       .debug$S                   0000000180000000     node:node.exe
 0000:fff7f000       .debug$S                   0000000180000000     kernel32:KERNEL32.dll
 0000:fff7f000       .debug$S                   0000000180000000     node:node.exe
 0000:fff7f000       .debug$S                   0000000180000000     kernel32:KERNEL32.dll
 0000:fff7f000       .debug$S                   0000000180000000     node:node.exe
 0000:fff7f000       .debug$S                   0000000180000000     kernel32:KERNEL32.dll
 0000:fff7f000       .debug$S                   0000000180000000     node:node.exe
 0000:fff7f000       .debug$S                   0000000180000000     kernel32:KERNEL32.dll
 0000:fff7f000       .debug$S                   0000000180000000     node:node.exe
 0000:fff7f000       .debug$S                   0000000180000000     kernel32:KERNEL32.dll
 0000:fff7f000       .debug$S                   0000000180000000     node:node.exe
 0000:fff7f000       .debug$S                   0000000180000000     kernel32:KERNEL32.dll
 0000:fff7f000       .debug$S                   0000000180000000     node:node.exe
 0000:fff7f000       .debug$S                   0000000180000000     kernel32:KERNEL32.dll
 0000:fff7f000       .debug$S                   0000000180000000     node:node.exe
 0000:fff7f000       .debug$S                   0000000180000000     kernel32:KERNEL32.dll
 0000:fff7f000       .debug$S                   0000000180000000     node:node.exe
 0000:fff7f000       .debug$S                   0000000180000000     kernel32:KERNEL32.dll
 0000:fff7f000       .debug$S                   0000000180000000     node:node.exe
 0000:fff7f000       .debug$S                   0000000180000000     kernel32:KERNEL32.dll
 0000:fff7f000       .debug$S                   0000000180000000     node:node.exe
 0000:fff7f000       .debug$S                   0000000180000000     kernel32:KERNEL32.dll
 0000:fff7f000       .debug$S                   0000000180000000     node:node.exe
 0000:fff7f000       .debug$S                   0000000180000000     kernel32:KERNEL32.dll
 0000:fff7f000       .debug$S                   0000000180000000     node:node.exe
 0000:fff7f000       .debug$S                   0000000180000000     kernel32:KERNEL32.dll
 0000:fff7f000       .debug$S                   0000000180000000     node:node.exe
 0000:fff7f000       .debug$S                   0000000180000000     kernel32:KERNEL32.dll
 0000:fff7f000       .debug$S                   0000000180000000     node:node.exe
 0000:fff7f000       .debug$S                   0000000180000000     kernel32:KERNEL32.dll
 0000:fff7f000       .debug$S                   0000000180000000     node:node.exe
 0000:fff7f000       .debug$S                   0000000180000000     kernel32:KERNEL32.dll
 0000:fff7f000       .debug$S                   0000000180000000     node:node.exe
 0000:fff7f000       .debug$S                   0000000180000000     kernel32:KERNEL32.dll
 0000:fff7f000       .debug$S                   0000000180000000     node:node.exe
 0000:fff7f000       .debug$S                   0000000180000000     node:node.exe
 0000:fff7f000       .debug$S                   0000000180000000     node:node.exe
 0000:fff7f000       .debug$S                   0000000180000000     node:node.exe
 0000:fff7f000       .debug$S                   0000000180000000     node:node.exe
 0000:fff7f000       .debug$S                   0000000180000000     node:node.exe
 0000:fff7f000       .debug$S                   0000000180000000     node:node.exe
 0000:fff7f000       .debug$S                   0000000180000000     kernel32:KERNEL32.dll
 0000:fff7f000       .debug$S                   0000000180000000     kernel32:KERNEL32.dll
 0000:fff7f000       .debug$S                   0000000180000000     node:node.exe
 0000:fff7f000       .debug$S                   0000000180000000     node:node.exe
 0000:fff7f000       .debug$S                   0000000180000000     kernel32:KERNEL32.dll
 0000:fff7f000       .debug$S                   0000000180000000     node_snap7.exp
 0000:fff7f000       .debug$S                   0000000180000000     kernel32:KERNEL32.dll
 0000:fff7f000       .debug$S                   0000000180000000     kernel32:KERNEL32.dll
 0000:fff7f000       .debug$S                   0000000180000000     kernel32:KERNEL32.dll
 0000:fff7f000       .debug$S                   0000000180000000     node:node.exe
 0000:fff7f000       .debug$S                   0000000180000000     kernel32:KERNEL32.dll
 0000:fff7f000       .debug$S                   0000000180000000     kernel32:KERNEL32.dll
 0000:fff7f000       .debug$S                   0000000180000000     node:node.exe
 0000:fff7f000       .debug$S                   0000000180000000     kernel32:KERNEL32.dll
 0000:fff7f000       .debug$S                   0000000180000000     kernel32:KERNEL32.dll
 0000:fff7f000       .debug$S                   0000000180000000     kernel32:KERNEL32.dll
 0000:fff7f000       .debug$S                   0000000180000000     node:node.exe
 0000:fff7f000       .debug$S                   0000000180000000     kernel32:KERNEL32.dll
 0000:fff7f000       .debug$S                   0000000180000000     kernel32:KERNEL32.dll
 0000:fff7f000       .debug$S                   0000000180000000     kernel32:KERNEL32.dll
 0000:fff7f000       .debug$S                   0000000180000000     kernel32:KERNEL32.dll
 0000:fff7f000       .debug$S                   0000000180000000     kernel32:KERNEL32.dll
 0000:fff7f000       .debug$S                   0000000180000000     kernel32:KERNEL32.dll
 0000:fff7f000       .debug$S                   0000000180000000     kernel32:KERNEL32.dll
 0000:fff7f000       .debug$S                   0000000180000000     node:node.exe
 0000:fff7f000       .debug$S                   0000000180000000     kernel32:KERNEL32.dll
 0000:fff7f000       .debug$S                   0000000180000000     node:node.exe
 0000:fff7f000       .debug$S                   0000000180000000     kernel32:KERNEL32.dll
 0000:fff7f000       .debug$S                   0000000180000000     kernel32:KERNEL32.dll
 0000:fff7f000       .debug$S                   0000000180000000     kernel32:KERNEL32.dll
 0000:fff7f000       .debug$S                   0000000180000000     node:node.exe
 0000:fff7f000       .debug$S                   0000000180000000     kernel32:KERNEL32.dll
 0000:fff7f000       .debug$S                   0000000180000000     node:node.exe
 0000:fff7f000       .debug$S                   0000000180000000     kernel32:KERNEL32.dll
 0000:fff7f000       .debug$S                   0000000180000000     node:node.exe
 0000:fff7f000       .debug$S                   0000000180000000     kernel32:KERNEL32.dll
 0000:fff7f000       .debug$S                   0000000180000000     node:node.exe
 0000:fff7f000       .debug$S                   0000000180000000     kernel32:KERNEL32.dll
 0000:fff7f000       .debug$S                   0000000180000000     node:node.exe
 0000:fff7f000       .debug$S                   0000000180000000     kernel32:KERNEL32.dll
 0000:fff7f000       .debug$S                   0000000180000000     kernel32:KERNEL32.dll
 0000:fff7f000       .debug$S                   0000000180000000     kernel32:KERNEL32.dll
 0000:fff7f000       .debug$S                   0000000180000000     node:node.exe
 0000:fff7f000       .debug$S                   0000000180000000     kernel32:KERNEL32.dll
 0000:fff7f000       .debug$S                   0000000180000000     node:node.exe
 0000:fff7f000       .debug$S                   0000000180000000     kernel32:KERNEL32.dll
 0000:fff7f000       .debug$S                   0000000180000000     node:node.exe
 0000:fff7f000       .debug$S                   0000000180000000     winmm:WINMM.dll
 0000:fff7f000       .debug$S                   0000000180000000     kernel32:KERNEL32.dll
 0000:fff7f000       .debug$S                   0000000180000000     kernel32:KERNEL32.dll
 0000:fff7f000       .debug$S                   0000000180000000     kernel32:KERNEL32.dll
 0000:fff7f000       .debug$S                   0000000180000000     winmm:WINMM.dll
 0000:fff7f000       .debug$S                   0000000180000000     winmm:WINMM.dll
 0000:fff7f000       .debug$S                   0000000180000000     ws2_32:WS2_32.dll
 0000:fff7f000       .debug$S                   0000000180000000     ws2_32:WS2_32.dll
 0000:fff7f000       .debug$S                   0000000180000000     ws2_32:WS2_32.dll
 0000:fff7f000       .debug$S                   0000000180000000     ws2_32:WS2_32.dll
 0000:fff7f000       .debug$S                   0000000180000000     ws2_32:WS2_32.dll
 0000:fff7f000       .debug$S                   0000000180000000     ws2_32:WS2_32.dll
 0000:fff7f000       .debug$S                   0000000180000000     ws2_32:WS2_32.dll
 0000:fff7f000       .debug$S                   0000000180000000     ws2_32:WS2_32.dll
 0000:fff7f000       .debug$S                   0000000180000000     ws2_32:WS2_32.dll
 0000:fff7f000       .debug$S                   0000000180000000     ws2_32:WS2_32.dll
 0000:fff7f000       .debug$S                   0000000180000000     ws2_32:WS2_32.dll
 0000:fff7f000       .debug$S                   0000000180000000     ws2_32:WS2_32.dll
 0000:fff7f000       .debug$S                   0000000180000000     ws2_32:WS2_32.dll
 0000:fff7f000       .debug$S                   0000000180000000     ws2_32:WS2_32.dll
 0000:fff7f000       .debug$S                   0000000180000000     ws2_32:WS2_32.dll
 0000:fff7f000       .debug$S                   0000000180000000     ws2_32:WS2_32.dll
 0000:fff7f000       .debug$S                   0000000180000000     ws2_32:WS2_32.dll
 0000:fff7f000       .debug$S                   0000000180000000     ws2_32:WS2_32.dll
 0000:fff7f000       .debug$S                   0000000180000000     ws2_32:WS2_32.dll
 0000:fff7f000       .debug$S                   0000000180000000     ws2_32:WS2_32.dll
 0000:fff7f000       .debug$S                   0000000180000000     kernel32:KERNEL32.dll
 0001:00000000       ??__E?constructor@S7Client@node_snap7@@0V?$Persistent@VFunctionTemplate@v8@@V?$NonCopyablePersistentTraits@VFunctionTemplate@v8@@@2@@Nan@@A@@YAXXZ 0000000180001000 f   node_snap7_client.obj
 0001:00000010       ??__ESocketsLayerInitializer@@YAXXZ 0000000180001010 f   snap7:snap_msgsock.obj
 0001:0000002c       ??__Einitlocks@std@@YAXXZ  000000018000102c f   libcpmt:xlock.obj
 0001:0000004c       ??__E_Fac_tidy_reg@std@@YAXXZ 000000018000104c f   libcpmt:locale0.obj
 0001:00000058       ??__Eclassic_locale@std@@YAXXZ 0000000180001058 f   libcpmt:locale0.obj
 0001:00000064       ??__Einit_atexit@@YAXXZ    0000000180001064 f   libcpmt:iosptrs.obj
 0001:00000070       ??__Einitlocks@std@@YAXXZ  0000000180001070 f   libcpmt:iosptrs.obj
 0001:000000a0       _register_node_snap7       00000001800010a0 f   node_snap7.obj
 0001:00000d70       ?FunctionCallbackWrapper@imp@Nan@@YAXAEBV?$FunctionCallbackInfo@VValue@v8@@@v8@@@Z 0000000180001d70 f   node_snap7_client.obj
 0001:0000611c       $LN10                      000000018000711c     node_snap7_client.obj
 0001:0000612c       $LN9                       000000018000712c     node_snap7_client.obj
 0001:00006c50       $LN180                     0000000180007c50     node_snap7_client.obj
 0001:00007368       $LN156                     0000000180008368     node_snap7_client.obj
 0001:00007b3c       $LN1408                    0000000180008b3c     node_snap7_client.obj
 0001:000093c0       $LN875                     000000018000a3c0     node_snap7_client.obj
 0001:000093d0       $LN874                     000000018000a3d0     node_snap7_client.obj
 0001:00009768       $LN189                     000000018000a768     node_snap7_client.obj
 0001:00009778       $LN188                     000000018000a778     node_snap7_client.obj
 0001:00012140       no_op_initialize           0000000180013140 f i libucrt:wsetlocale.obj
 0001:00016640       ?load_exe_hook@@YAP6A_JXZIPEAUDelayLoadInfo@@@Z 0000000180017640 f   win_delay_load_hook.obj
 0001:00019318       $LN20                      000000018001a318     snap7:s7_partner.obj
 0001:00019438       $LN21                      000000018001a438     snap7:s7_partner.obj
 0001:0001b534       $LN76                      000000018001c534     snap7:s7_micro_client.obj
 0001:0001b544       $LN75                      000000018001c544     snap7:s7_micro_client.obj
 0001:0001b934       $LN101                     000000018001c934     snap7:s7_micro_client.obj
 0001:0001b944       $LN100                     000000018001c944     snap7:s7_micro_client.obj
 0001:0001b964       $LN99                      000000018001c964     snap7:s7_micro_client.obj
 0001:0001b978       $LN98                      000000018001c978     snap7:s7_micro_client.obj
 0001:0001c1d4       $LN126                     000000018001d1d4     snap7:s7_micro_client.obj
 0001:0001c1e8       $LN125                     000000018001d1e8     snap7:s7_micro_client.obj
 0001:0001c208       $LN124                     000000018001d208     snap7:s7_micro_client.obj
 0001:0001c218       $LN123                     000000018001d218     snap7:s7_micro_client.obj
 0001:0001c488       $LN83                      000000018001d488     snap7:s7_micro_client.obj
 0001:0001dc18       $LN157                     000000018001ec18     snap7:s7_micro_client.obj
 0001:0001f54c       $LN17                      000000018002054c     snap7:s7_micro_client.obj
 0001:0001f55c       $LN16                      000000018002055c     snap7:s7_micro_client.obj
 0001:0001f778       $LN44                      0000000180020778     snap7:s7_micro_client.obj
 0001:0001f90c       $LN15                      000000018002090c     snap7:s7_micro_client.obj
 0001:0001f9d0       $LN17                      00000001800209d0     snap7:s7_micro_client.obj
 0001:00020e00       ?TcpTextOf@@YA?AV?$basic_string@DU?$char_traits@D@std@@V?$allocator@D@2@@std@@H@Z 0000000180021e00 f   snap7:s7_text.obj
 0001:00021374       $LN1785                    0000000180022374     snap7:s7_text.obj
 0001:00021430       $LN1784                    0000000180022430     snap7:s7_text.obj
 0001:00021490       ?IsoTextOf@@YA?AV?$basic_string@DU?$char_traits@D@std@@V?$allocator@D@2@@std@@H@Z 0000000180022490 f   snap7:s7_text.obj
 0001:000216a0       ?CliTextOf@@YA?AV?$basic_string@DU?$char_traits@D@std@@V?$allocator@D@2@@std@@H@Z 00000001800226a0 f   snap7:s7_text.obj
 0001:00021c70       ?SrvTextOf@@YA?AV?$basic_string@DU?$char_traits@D@std@@V?$allocator@D@2@@std@@H@Z 0000000180022c70 f   snap7:s7_text.obj
 0001:00021e30       ?ParTextOf@@YA?AV?$basic_string@DU?$char_traits@D@std@@V?$allocator@D@2@@std@@H@Z 0000000180022e30 f   snap7:s7_text.obj
 0001:00022580       ?SenderText@@YA?AV?$basic_string@DU?$char_traits@D@std@@V?$allocator@D@2@@std@@AEAUTSrvEvent@@@Z 0000000180023580 f   snap7:s7_text.obj
 0001:00022860       ?TcpServerEventText@@YA?AV?$basic_string@DU?$char_traits@D@std@@V?$allocator@D@2@@std@@AEAUTSrvEvent@@@Z 0000000180023860 f   snap7:s7_text.obj
 0001:00022cb0       ?PDUText@@YA?AV?$basic_string@DU?$char_traits@D@std@@V?$allocator@D@2@@std@@AEAUTSrvEvent@@@Z 0000000180023cb0 f   snap7:s7_text.obj
 0001:000231f0       ?TxtArea@@YA?AV?$basic_string@DU?$char_traits@D@std@@V?$allocator@D@2@@std@@AEAUTSrvEvent@@@Z 00000001800241f0 f   snap7:s7_text.obj
 0001:000234cc       $LN710                     00000001800244cc     snap7:s7_text.obj
 0001:000234e8       $LN709                     00000001800244e8     snap7:s7_text.obj
 0001:00023560       ?TxtStartSize@@YA?AV?$basic_string@DU?$char_traits@D@std@@V?$allocator@D@2@@std@@AEAUTSrvEvent@@@Z 0000000180024560 f   snap7:s7_text.obj
 0001:000237c0       ?TxtDataResult@@YA?AV?$basic_string@DU?$char_traits@D@std@@V?$allocator@D@2@@std@@AEAUTSrvEvent@@@Z 00000001800247c0 f   snap7:s7_text.obj
 0001:00023a98       $LN912                     0000000180024a98     snap7:s7_text.obj
 0001:00023ad0       ?ControlText@@YA?AV?$basic_string@DU?$char_traits@D@std@@V?$allocator@D@2@@std@@G@Z 0000000180024ad0 f   snap7:s7_text.obj
 0001:00023e08       $LN482                     0000000180024e08     snap7:s7_text.obj
 0001:00023e30       ?ClockText@@YA?AV?$basic_string@DU?$char_traits@D@std@@V?$allocator@D@2@@std@@G@Z 0000000180024e30 f   snap7:s7_text.obj
 0001:00023ea0       ?ReadSZLText@@YA?AV?$basic_string@DU?$char_traits@D@std@@V?$allocator@D@2@@std@@AEAUTSrvEvent@@@Z 0000000180024ea0 f   snap7:s7_text.obj
 0001:00024200       ?UploadText@@YA?AV?$basic_string@DU?$char_traits@D@std@@V?$allocator@D@2@@std@@AEAUTSrvEvent@@@Z 0000000180025200 f   snap7:s7_text.obj
 0001:00024250       ?DownloadText@@YA?AV?$basic_string@DU?$char_traits@D@std@@V?$allocator@D@2@@std@@AEAUTSrvEvent@@@Z 0000000180025250 f   snap7:s7_text.obj
 0001:000242a0       ?StrBlockType@@YA?AV?$basic_string@DU?$char_traits@D@std@@V?$allocator@D@2@@std@@G@Z 00000001800252a0 f   snap7:s7_text.obj
 0001:00024588       $LN912                     0000000180025588     snap7:s7_text.obj
 0001:000245d0       ?BlockInfoText@@YA?AV?$basic_string@DU?$char_traits@D@std@@V?$allocator@D@2@@std@@AEAUTSrvEvent@@@Z 00000001800255d0 f   snap7:s7_text.obj
 0001:00024ce0       ?SecurityText@@YA?AV?$basic_string@DU?$char_traits@D@std@@V?$allocator@D@2@@std@@AEAUTSrvEvent@@@Z 0000000180025ce0 f   snap7:s7_text.obj
 0001:00025b70       uninitialize_c             0000000180026b70 f   libucrt:initialization.obj
 0001:00025b70       initialize_global_state_isolation 0000000180026b70 f   libucrt:initialization.obj
 0001:00025b70       report_memory_leaks        0000000180026b70 f   libucrt:initialization.obj
 0001:00025b70       uninitialize_global_state_isolation 0000000180026b70 f   libucrt:initialization.obj
 0001:00025b70       initialize_environment     0000000180026b70 f   libucrt:initialization.obj
 0001:000260bc       $LN17                      00000001800270bc     snap7:s7_server.obj
 0001:000260d8       $LN16                      00000001800270d8     snap7:s7_server.obj
 0001:00026304       $LN32                      0000000180027304     snap7:s7_server.obj
 0001:000263a8       $LN13                      00000001800273a8     snap7:s7_server.obj
 0001:000263c4       $LN12                      00000001800273c4     snap7:s7_server.obj
 0001:0002689c       $LN155                     000000018002789c     snap7:s7_server.obj
 0001:000268ac       $LN154                     00000001800278ac     snap7:s7_server.obj
 0001:000268cc       $LN153                     00000001800278cc     snap7:s7_server.obj
 0001:000268e4       $LN152                     00000001800278e4     snap7:s7_server.obj
 0001:00026ebc       $LN87                      0000000180027ebc     snap7:s7_server.obj
 0001:00026ecc       $LN86                      0000000180027ecc     snap7:s7_server.obj
 0001:00029600       $LN344                     000000018002a600     snap7:s7_server.obj
 0001:0002966c       $LN343                     000000018002a66c     snap7:s7_server.obj
 0001:00029710       $LN342                     000000018002a710     snap7:s7_server.obj
 0001:0002974c       $LN341                     000000018002a74c     snap7:s7_server.obj
 0001:000297dc       $LN340                     000000018002a7dc     snap7:s7_server.obj
 0001:00029808       $LN339                     000000018002a808     snap7:s7_server.obj
 0001:0002982c       $LN338                     000000018002a82c     snap7:s7_server.obj
 0001:0002985c       $LN337                     000000018002a85c     snap7:s7_server.obj
 0001:000298b4       $LN336                     000000018002a8b4     snap7:s7_server.obj
 0001:000298e4       $LN335                     000000018002a8e4     snap7:s7_server.obj
 0001:00029900       $LN334                     000000018002a900     snap7:s7_server.obj
 0001:00029964       $LN333                     000000018002a964     snap7:s7_server.obj
 0001:000299c0       $LN332                     000000018002a9c0     snap7:s7_server.obj
 0001:0002dc60       tidy_global                000000018002ec60 f   libcpmt:locale0.obj
 0001:0002e744       ?initialize_pointers@@YAHXZ 000000018002f744 f   libcpmt:winapisupp.obj
 0001:0002ee50       $$000000                   000000018002fe50     LIBCMT:_amdsecgs_.obj
 0001:0002ee84       ?__scrt_initialize_thread_safe_statics@@YAHXZ 000000018002fe84 f   LIBCMT:thread_safe_statics.obj
 0001:0002efa4       ?__scrt_uninitialize_thread_safe_statics@@YAXXZ 000000018002ffa4 f   LIBCMT:thread_safe_statics.obj
 0001:0002f5b8       ?dllmain_crt_dispatch@@YAHQEAUHINSTANCE__@@KQEAX@Z 00000001800305b8 f   LIBCMT:dll_dllmain.obj
 0001:0002f608       ?dllmain_crt_process_attach@@YAHQEAUHINSTANCE__@@QEAX@Z 0000000180030608 f   LIBCMT:dll_dllmain.obj
 0001:0002f734       ?dllmain_crt_process_detach@@YAH_N@Z 0000000180030734 f   LIBCMT:dll_dllmain.obj
 0001:0002f7b8       ?dllmain_dispatch@@YAHQEAUHINSTANCE__@@KQEAX@Z 00000001800307b8 f   LIBCMT:dll_dllmain.obj
 0001:0002f8b0       ?dllmain_raw@@YAHQEAUHINSTANCE__@@KQEAX@Z 00000001800308b0 f   LIBCMT:dll_dllmain.obj
 0001:0002fa80       $$000000                   0000000180030a80     LIBCMT:_chkstk_.obj
 0001:0002fc9c       capture_current_context    0000000180030c9c f   LIBCMT:gs_report.obj
 0001:0002fd0c       capture_previous_context   0000000180030d0c f   LIBCMT:gs_report.obj
 0001:000302c0       $$000000                   00000001800312c0     libvcruntime:memcpy.obj
 0001:00030367       MoveSmall                  0000000180031367     libvcruntime:memcpy.obj
 0001:00030840       ?CatchIt@@YAXPEAUEHExceptionRecord@@PEA_KPEAU_CONTEXT@@PEAU_xDISPATCHER_CONTEXT@@PEBU_s_FuncInfo@@PEBU_s_HandlerType@@PEBU_s_CatchableType@@PEBU_s_TryBlockMapEntry@@H1EE@Z 0000000180031840 f   libvcruntime:frame.obj
 0001:00030904       ?ExFilterRethrow@@YAHPEAU_EXCEPTION_POINTERS@@PEAUEHExceptionRecord@@PEAH@Z 0000000180031904 f   libvcruntime:frame.obj
 0001:0003098c       ?FindHandler@@YAXPEAUEHExceptionRecord@@PEA_KPEAU_CONTEXT@@PEAU_xDISPATCHER_CONTEXT@@PEBU_s_FuncInfo@@EH1@Z 000000018003198c f   libvcruntime:frame.obj
 0001:00030e5c       ?FindHandlerForForeignException@@YAXPEAUEHExceptionRecord@@PEA_KPEAU_CONTEXT@@PEAU_xDISPATCHER_CONTEXT@@PEBU_s_FuncInfo@@HH1@Z 0000000180031e5c f   libvcruntime:frame.obj
 0001:000310c8       ?IsInExceptionSpec@@YAEPEAUEHExceptionRecord@@PEBU_s_ESTypeList@@@Z 00000001800320c8 f   libvcruntime:frame.obj
 0001:00032440       $$000000                   0000000180033440     libvcruntime:memset.obj
 0001:0003252c       MsetTab                    000000018003352c     libvcruntime:memset.obj
 0001:000325f0       $$000000                   00000001800335f0     libvcruntime:memcmp.obj
 0001:000326c8       ?try_get_function@@YAPEAXW4function_id@?A0x679b24ab@@QEBDQEBW4module_id@2@2@Z 00000001800336c8 f   libvcruntime:winapi_downlevel.obj
 0001:000330b0       $$000000                   00000001800340b0     libvcruntime:handlers.obj
 0001:00033100       $$000000                   0000000180034100     libvcruntime:_jmpuwind_.obj
 0001:0003356c       ??$common_mktime@_J@@YA_JQEAUtm@@_N@Z 000000018003456c f   libucrt:mktime.obj
 0001:000339b4       ??$common_vsprintf@Vformat_validation_base@__crt_stdio_output@@D@@YAH_KQEAD0QEBDQEAU__crt_locale_pointers@@1@Z 00000001800349b4 f   libucrt:output.obj
 0001:0003409c       ??R<lambda_dd75445284c072d0bd3768540cc698fa>@@QEBAHXZ 000000018003509c f   libucrt:output.obj
 0001:00036b14       ??$common_localtime_s@_J@@YAHQEAUtm@@QEB_J@Z 0000000180037b14 f   libucrt:localtime.obj
 0001:00036f80       ??$common_assert_to_message_box@_W@@YAXQEB_W0IQEAX@Z 0000000180037f80 f   libucrt:assert.obj
 0001:00037044       ??$common_assert_to_message_box_build_string@_W@@YAXQEA_W_KQEB_W2IQEAX@Z 0000000180038044 f   libucrt:assert.obj
 0001:00037818       ??$common_assert_to_stderr@_W@@YAXQEB_W0I@Z 0000000180038818 f   libucrt:assert.obj
 0001:00037988       ?get_assert_format@@YAPEB_W_W@Z 0000000180038988 f   libucrt:assert.obj
 0001:00037bf0       $$000000                   0000000180038bf0     libucrt:strncpy.obj
 0001:00037f28       ??$common_timespec_get@U_timespec64@@@@YAHQEAU_timespec64@@H@Z 0000000180038f28 f   libucrt:time.obj
 0001:000380d8       call_wsetlocale            00000001800390d8 f   libucrt:setlocale.obj
 0001:00038d54       ?x_ismbbtype_l@@YAHPEAU__crt_locale_pointers@@IHH@Z 0000000180039d54 f   libucrt:ismbbyte.obj
 0001:000393b0       $$000000                   000000018003a3b0     libucrt:pow.obj
 0001:0003aa50       $$000000                   000000018003ba50     libucrt:powf.obj
 0001:0003b9cc       ?compute_iso_week_internal@@YAHHHH@Z 000000018003c9cc f   libucrt:wcsftime.obj
 0001:0003bac0       ?expand_time@@YA_NPEAU__crt_locale_pointers@@_WPEBUtm@@PEAPEA_WPEA_KPEBU__crt_lc_time_data@@_N@Z 000000018003cac0 f   libucrt:wcsftime.obj
 0001:0003ca60       ?store_number@@YAXHHQEAPEA_WQEA_K_W@Z 000000018003da60 f   libucrt:wcsftime.obj
 0001:0003cbb0       ?store_winword@@YA_NQEAU__crt_locale_pointers@@HQEBUtm@@QEAPEA_WQEA_KQEBU__crt_lc_time_data@@@Z 000000018003dbb0 f   libucrt:wcsftime.obj
 0001:0003d2bc       ?internal_isupper_l@@YA_NHQEAU__crt_locale_pointers@@@Z 000000018003e2bc f   libucrt:tolower_toupper.obj
 0001:0003da4c       ?atexit_exception_filter@@YAHK@Z 000000018003ea4c f   libucrt:exit.obj
 0001:0003da58       ?common_exit@@YAXHW4_crt_exit_cleanup_mode@@W4_crt_exit_return_mode@@@Z 000000018003ea58 f   libucrt:exit.obj
 0001:0003dbc4       ?exit_or_terminate_process@@YAXI@Z 000000018003ebc4 f   libucrt:exit.obj
 0001:0003dc10       ?try_cor_exit_process@@YAXI@Z 000000018003ec10 f   libucrt:exit.obj
 0001:0003dca8       ??$parse_command_line@D@@YAXPEADPEAPEAD0PEA_K2@Z 000000018003eca8 f   libucrt:argv_parsing.obj
 0001:0003e040       ??$common_get_or_create_environment_nolock@D@@YAPEAPEADXZ 000000018003f040 f   libucrt:environment_initialization.obj
 0001:0003e088       ??$common_initialize_environment_nolock@D@@YAHXZ 000000018003f088 f   libucrt:environment_initialization.obj
 0001:0003e0f4       ??$create_environment@D@@YAQEAPEADQEAD@Z 000000018003f0f4 f   libucrt:environment_initialization.obj
 0001:0003e1f0       ??$free_environment@D@@YAXQEAPEAD@Z 000000018003f1f0 f   libucrt:environment_initialization.obj
 0001:0003e1f0       ??$free_environment@_W@@YAXQEAPEA_W@Z 000000018003f1f0 f   libucrt:environment_initialization.obj
 0001:0003e234       ??$initialize_environment_by_cloning_nolock@D@@YAHXZ 000000018003f234 f   libucrt:environment_initialization.obj
 0001:0003e308       ??$uninitialize_environment_internal@D@@YAXAEAPEAPEAD@Z 000000018003f308 f   libucrt:environment_initialization.obj
 0001:0003e324       ??$uninitialize_environment_internal@_W@@YAXAEAPEAPEA_W@Z 000000018003f324 f   libucrt:environment_initialization.obj
 0001:0003e564       ??R<lambda_4e60a939b0d047cfe11ddc22648dfba9>@@QEBAHXZ 000000018003f564 f   libucrt:onexit.obj
 0001:0003e814       initialize_global_variables 000000018003f814 f   libucrt:initialization.obj
 0001:0003e828       initialize_c               000000018003f828 f   libucrt:initialization.obj
 0001:0003e84c       uninitialize_environment   000000018003f84c f   libucrt:initialization.obj
 0001:0003e85c       initialize_pointers        000000018003f85c f   libucrt:initialization.obj
 0001:0003e8b0       uninitialize_vcruntime     000000018003f8b0 f   libucrt:initialization.obj
 0001:0003e8b8       uninitialize_allocated_memory 000000018003f8b8 f   libucrt:initialization.obj
 0001:0003ea90       ??$common_xtox@KD@@YAHKQEAD_KI_N@Z 000000018003fa90 f   libucrt:xtoa.obj
 0001:0003eb24       ??$common_xtox@K_W@@YAHKQEA_W_KI_N@Z 000000018003fb24 f   libucrt:xtoa.obj
 0001:0003ebd0       ??$common_xtox_s@K_W@@YAHKQEA_W_KI_N@Z 000000018003fbd0 f   libucrt:xtoa.obj
 0001:0003fbc4       ?construct_ptd_array@@YAXQEAU__acrt_ptd@@@Z 0000000180040bc4 f   libucrt:per_thread_data.obj
 0001:0003fc94       ?destroy_fls@@YAXPEAX@Z    0000000180040c94 f   libucrt:per_thread_data.obj
 0001:0003fcb4       ?destroy_ptd_array@@YAXQEAU__acrt_ptd@@@Z 0000000180040cb4 f   libucrt:per_thread_data.obj
 0001:0003fdac       ?replace_current_thread_locale_nolock@@YAXQEAU__acrt_ptd@@QEAU__crt_locale_data@@@Z 0000000180040dac f   libucrt:per_thread_data.obj
 0001:000400cc       ??$common_gmtime_s@_J@@YAHQEAUtm@@QEB_J@Z 00000001800410cc f   libucrt:gmtime.obj
 0001:00040260       ?compute_year@@YAHAEA_JAEA_N@Z 0000000180041260 f   libucrt:gmtime.obj
 0001:00040398       ?_isindst_nolock@@YAHQEAUtm@@@Z 0000000180041398 f   libucrt:tzset.obj
 0001:000406b4       ?cvtdate@@YAXW4transition_type@?A0x1b14ceb2@@W4date_type@2@HHHHHHHHH@Z 00000001800416b4 f   libucrt:tzset.obj
 0001:000408a8       ?tzset_from_environment_nolock@@YAXPEAD@Z 00000001800418a8 f   libucrt:tzset.obj
 0001:00040af8       ?tzset_from_system_nolock@@YAXXZ 0000000180041af8 f   libucrt:tzset.obj
 0001:00040ccc       ?tzset_nolock@@YAXXZ       0000000180041ccc f   libucrt:tzset.obj
 0001:00041258       ?fp_format_a@@YAHQEBNPEAD_KQEAD2H_NIQEAU__crt_locale_pointers@@@Z 0000000180042258 f   libucrt:cvt.obj
 0001:000415b8       ?fp_format_e@@YAHQEBNQEAD_K12H_NIQEAU__crt_locale_pointers@@@Z 00000001800425b8 f   libucrt:cvt.obj
 0001:00041688       ?fp_format_e_internal@@YAHQEAD_KH_NIQEAU_strflt@@2QEAU__crt_locale_pointers@@@Z 0000000180042688 f   libucrt:cvt.obj
 0001:00041864       ?fp_format_f_internal@@YAHQEAD_KHQEAU_strflt@@_NQEAU__crt_locale_pointers@@@Z 0000000180042864 f   libucrt:cvt.obj
 0001:000419ac       ?fp_format_g@@YAHQEBNQEAD_K12H_NIQEAU__crt_locale_pointers@@@Z 00000001800429ac f   libucrt:cvt.obj
 0001:00041ae4       ?fp_format_nan_or_infinity@@YAHW4__acrt_fp_class@@_NPEAD_K1@Z 0000000180042ae4 f   libucrt:cvt.obj
 0001:0004245c       ??R<lambda_2af78c5f5901b1372d98f9ab3177dfa6>@@QEBAXXZ 000000018004345c f   libucrt:wsetlocale.obj
 0001:00042820       _copytlocinfo_nolock       0000000180043820 f   libucrt:wsetlocale.obj
 0001:00042de0       _wsetlocale_get_all        0000000180043de0 f   libucrt:wsetlocale.obj
 0001:00042fc8       _wsetlocale_nolock         0000000180043fc8 f   libucrt:wsetlocale.obj
 0001:00043250       _wsetlocale_set_cat        0000000180044250 f   libucrt:wsetlocale.obj
 0001:00043590       ?initialize_inherited_file_handles_nolock@@YAXXZ 0000000180044590 f   libucrt:ioinit.obj
 0001:0004367c       ?initialize_stdio_handles_nolock@@YAXXZ 000000018004467c f   libucrt:ioinit.obj
 0001:0004444c       ??$message_box_wait_thread@_W@@YAKQEAX@Z 000000018004544c f   libucrt:crtmbox.obj
 0001:00044660       common_flush_all           0000000180045660 f   libucrt:fflush.obj
 0001:000447c8       ??R<lambda_b721fa326cdb32351d23dfa67958c160>@@QEBAHXZ 00000001800457c8 f   libucrt:setvbuf.obj
 0001:00044958       ?<helper_func_cdecl>@<lambda_e2bb8337c48846e80c921ea5ddadc92d>@@CAHPEA_W@Z 0000000180045958 f   libucrt:winapi_thunks.obj
 0001:00044a34       ?try_get_function@@YAPEAXW4function_id@?A0x63058377@@QEBDQEBW4module_id@2@2@Z 0000000180045a34 f   libucrt:winapi_thunks.obj
 0001:00045808       ?_mbstowcs_l_helper@@YA_KPEA_WPEBD_KPEAU__crt_locale_pointers@@@Z 0000000180046808 f   libucrt:mbstowcs.obj
 0001:00045b34       ?_wcstombs_l_helper@@YA_KPEADPEB_W_KPEAU__crt_locale_pointers@@@Z 0000000180046b34 f   libucrt:wcstombs.obj
 0001:00046094       ?InternalGetLocaleInfoA@@YAHQEAU__crt_locale_pointers@@QEB_WKQEADH@Z 0000000180047094 f   libucrt:getlocaleinfoa.obj
 0001:000465b0       ?__acrt_LCMapStringA_stat@@YAHPEAU__crt_locale_pointers@@PEB_WKPEBDHPEADHHH@Z 00000001800475b0 f   libucrt:lcmapstringa.obj
 0001:00046ef8       ?<helper_func_cdecl>@<lambda_2feae5270eb4d0d5532525f423405775>@@CAHPEBX0@Z 0000000180047ef8 f   libucrt:argv_wildcards.obj
 0001:00046f0c       ??$common_expand_argv_wildcards@D@@YAHQEAPEADQEAPEAPEAD@Z 0000000180047f0c f   libucrt:argv_wildcards.obj
 0001:00047118       ??$copy_and_add_argument_to_buffer@D@@YAHQEBD0_KAEAV?$argument_list@D@?A0xca0879c4@@@Z 0000000180048118 f   libucrt:argv_wildcards.obj
 0001:00047228       ??$expand_argument_wildcards@D@@YAHQEAD0AEAV?$argument_list@D@?A0xca0879c4@@@Z 0000000180048228 f   libucrt:argv_wildcards.obj
 0001:000474dc       ??R<lambda_ad1ced32f4ac17aa236e5ef05d6b3b7c>@@QEBAXXZ 00000001800484dc f   libucrt:mbctype.obj
 0001:000476f4       ?getSystemCP@@YAHH@Z       00000001800486f4 f   libucrt:mbctype.obj
 0001:00047774       ?setSBCS@@YAXPEAU__crt_multibyte_data@@@Z 0000000180048774 f   libucrt:mbctype.obj
 0001:00047804       ?setSBUpLow@@YAXPEAU__crt_multibyte_data@@@Z 0000000180048804 f   libucrt:mbctype.obj
 0001:000479e8       ?setmbcp_internal@@YAHH_N@Z 00000001800489e8 f   libucrt:mbctype.obj
 0001:0004805c       ??$common_set_variable_in_environment_nolock@D@@YAHQEADH@Z 000000018004905c f   libucrt:setenv.obj
 0001:0004834c       ??$copy_environment@D@@YAPEAPEADQEAPEAD@Z 000000018004934c f   libucrt:setenv.obj
 0001:00048a40       ??$common_getenv_nolock@D@@YAPEADQEBD@Z 0000000180049a40 f   libucrt:getenv.obj
 0001:00048ac8       ??$common_getenv_s@D@@YAHQEA_KQEAD_KQEBD@Z 0000000180049ac8 f   libucrt:getenv.obj
 0001:0004a0d0       memcpy_s                   000000018004b0d0 f   libucrt:cfout.obj
 0001:0004a0d0       memcpy_s                   000000018004b0d0 f   libucrt:strtod.obj
 0001:0004a158       ??$write_buffer_nolock@D@@YA_NDV__crt_stdio_stream@@@Z 000000018004b158 f   libucrt:_flsbuf.obj
 0001:0004a25c       ??$write_buffer_nolock@_W@@YA_N_WV__crt_stdio_stream@@@Z 000000018004b25c f   libucrt:_flsbuf.obj
 0001:0004b020       ?free_crt_array_internal@@YAXQEAPEBX_K@Z 000000018004c020 f   libucrt:inittime.obj
 0001:0004b078       ?initialize_lc_time@@YA_NQEAU__crt_lc_time_data@@QEAU__crt_locale_data@@@Z 000000018004c078 f   libucrt:inittime.obj
 0001:0004b6e8       GetLocaleNameFromDefault   000000018004c6e8 f   libucrt:get_qualified_locale.obj
 0001:0004b790       GetLocaleNameFromLangCountry 000000018004c790 f   libucrt:get_qualified_locale.obj
 0001:0004b860       GetLocaleNameFromLanguage  000000018004c860 f   libucrt:get_qualified_locale.obj
 0001:0004b8fc       LangCountryEnumProcEx      000000018004c8fc f   libucrt:get_qualified_locale.obj
 0001:0004bcb0       LanguageEnumProcEx         000000018004ccb0 f   libucrt:get_qualified_locale.obj
 0001:0004bd9c       ProcessCodePage            000000018004cd9c f   libucrt:get_qualified_locale.obj
 0001:0004be50       TestDefaultCountry         000000018004ce50 f   libucrt:get_qualified_locale.obj
 0001:0004beb8       TranslateName              000000018004ceb8 f   libucrt:get_qualified_locale.obj
 0001:0004c174       CountryEnumProc            000000018004d174 f   libucrt:getqloc_downlevel.obj
 0001:0004c260       GetLcidFromLangCountry     000000018004d260 f   libucrt:getqloc_downlevel.obj
 0001:0004c330       GetLcidFromLanguage        000000018004d330 f   libucrt:getqloc_downlevel.obj
 0001:0004c3c8       LangCountryEnumProc        000000018004d3c8 f   libucrt:getqloc_downlevel.obj
 0001:0004c60c       LanguageEnumProc           000000018004d60c f   libucrt:getqloc_downlevel.obj
 0001:0004c708       LcidFromHexString          000000018004d708 f   libucrt:getqloc_downlevel.obj
 0001:0004c758       ProcessCodePage            000000018004d758 f   libucrt:getqloc_downlevel.obj
 0001:0004c808       TestDefaultLanguage        000000018004d808 f   libucrt:getqloc_downlevel.obj
 0001:0004c8b4       TranslateName              000000018004d8b4 f   libucrt:getqloc_downlevel.obj
 0001:0004cef0       $$000000                   000000018004def0     libucrt:fpsr.obj
 0001:0004d070       ?write_double_translated_ansi_nolock@@YA?AUwrite_result@?A0x9c548279@@HQEBDI@Z 000000018004e070 f   libucrt:write.obj
 0001:0004d278       ?write_text_ansi_nolock@@YA?AUwrite_result@?A0x9c548279@@HQEBDI@Z 000000018004e278 f   libucrt:write.obj
 0001:0004d380       ?write_text_utf16le_nolock@@YA?AUwrite_result@?A0x9c548279@@HQEBDI@Z 000000018004e380 f   libucrt:write.obj
 0001:0004d49c       ?write_text_utf8_nolock@@YA?AUwrite_result@?A0x9c548279@@HQEBDI@Z 000000018004e49c f   libucrt:write.obj
 0001:0004d9e0       ?GetTableIndexFromLocaleName@@YAHPEB_W@Z 000000018004e9e0 f   libucrt:lcidtoname_downlevel.obj
 0001:0004dc48       _call_matherr              000000018004ec48 f   libucrt:libm_error.obj
 0001:0004dcb0       _exception_enabled         000000018004ecb0 f   libucrt:libm_error.obj
 0001:0004e0c0       ?shortsort@@YAXPEAD0_KP6AHPEBX2@Z@Z 000000018004f0c0 f   libucrt:qsort.obj
 0001:0004e604       ?initialize_multibyte@@YAHXZ 000000018004f604 f   libucrt:multibyte_initializer.obj
 0001:0004e8f0       $$000000                   000000018004f8f0     libucrt:log10.obj
 0001:0004ee9c       ??$common_lseek@_J@@YA_JH_JH@Z 000000018004fe9c f   libucrt:lseek.obj
 0001:0004ef8c       ??$common_lseek_nolock@_J@@YA_JH_JH@Z 000000018004ff8c f   libucrt:lseek.obj
 0001:0004f47c       common_control87           000000018005047c f   libucrt:ieee.obj
 0001:0004f910       ?InternalCompareStringA@@YAHPEAU__crt_locale_pointers@@PEB_WKPEBDH2HH@Z 0000000180050910 f   libucrt:comparestringa.obj
 0001:0004fd50       _log_special_common        0000000180050d50 f   libucrt:log_special.obj
 0001:00050a50       $$000000                   0000000180051a50     LIBCMT:_guard_dispatch_.obj
 0001:00050a70       Cli_ErrorText$dtor$0       0000000180051a70 f   snap7:snap7_libmain.obj
 0001:00050a7c       Cli_ErrorText$catch$1      0000000180051a7c f   snap7:snap7_libmain.obj
 0001:00050a89       __catch$Cli_ErrorText$0    0000000180051a89 f   snap7:snap7_libmain.obj
 0001:00050aa0       Srv_ErrorText$dtor$0       0000000180051aa0 f   snap7:snap7_libmain.obj
 0001:00050aac       Srv_ErrorText$catch$1      0000000180051aac f   snap7:snap7_libmain.obj
 0001:00050ab9       __catch$Srv_ErrorText$0    0000000180051ab9 f   snap7:snap7_libmain.obj
 0001:00050ad0       Srv_EventText$dtor$0       0000000180051ad0 f   snap7:snap7_libmain.obj
 0001:00050adc       Srv_EventText$catch$1      0000000180051adc f   snap7:snap7_libmain.obj
 0001:00050ae9       __catch$Srv_EventText$0    0000000180051ae9 f   snap7:snap7_libmain.obj
 0001:00050b00       Par_ErrorText$dtor$0       0000000180051b00 f   snap7:snap7_libmain.obj
 0001:00050b0c       Par_ErrorText$catch$1      0000000180051b0c f   snap7:snap7_libmain.obj
 0001:00050b19       __catch$Par_ErrorText$0    0000000180051b19 f   snap7:snap7_libmain.obj
 0001:00050b30       ?dtor$0@?0??ServersManager_GetServer@@YAHIAEAPEAVTConnectionServer@@@Z@4HA 0000000180051b30 f   snap7:s7_partner.obj
 0001:00050b50       ?dtor$0@?0??GetServer@TServersManager@@QEAAHIAEAPEAVTConnectionServer@@@Z@4HA 0000000180051b50 f   snap7:s7_partner.obj
 0001:00050b70       ?dtor$0@?0??StartListener@TCustomMsgServer@@AEAAHXZ@4HA 0000000180051b70 f   snap7:snap_tcpsrvr.obj
 0001:00050b70       ?dtor$0@?0??Start@TConnectionServer@@IEAAHXZ@4HA 0000000180051b70 f   snap7:s7_partner.obj
 0001:00050b90       ?dtor$0@?0???0TSnap7Partner@@QEAA@_N@Z@4HA 0000000180051b90 f   snap7:s7_partner.obj
 0001:00050ba0       ?catch$0@?0??CloseWorker@TSnap7Partner@@AEAAXXZ@4HA 0000000180051ba0 f   snap7:s7_partner.obj
 0001:00050bad       __catch$?CloseWorker@TSnap7Partner@@AEAAXXZ$0 0000000180051bad f   snap7:s7_partner.obj
 0001:00050bc0       ?catch$0@?0??CloseThread@TSnap7Client@@AEAAXXZ@4HA 0000000180051bc0 f   snap7:s7_client.obj
 0001:00050bcd       __catch$?CloseThread@TSnap7Client@@AEAAXXZ$0 0000000180051bcd f   snap7:s7_client.obj
 0001:00050be0       ?catch$0@?0??DoCompletion@TSnap7Client@@IEAAXXZ@4HA 0000000180051be0 f   snap7:s7_client.obj
 0001:00050bed       __catch$?DoCompletion@TSnap7Client@@IEAAXXZ$0 0000000180051bed f   snap7:s7_client.obj
 0001:00050c00       ?dtor$0@?0??NumToString@@YA?AV?$basic_string@DU?$char_traits@D@std@@V?$allocator@D@2@@std@@HHI@Z@4HA 0000000180051c00 f   snap7:s7_text.obj
 0001:00050c26       ?dtor$1@?0??NumToString@@YA?AV?$basic_string@DU?$char_traits@D@std@@V?$allocator@D@2@@std@@HHI@Z@4HA 0000000180051c26 f   snap7:s7_text.obj
 0001:00050c40       ?dtor$0@?0??TimeToString@@YA?AV?$basic_string@DU?$char_traits@D@std@@V?$allocator@D@2@@std@@_J@Z@4HA 0000000180051c40 f   snap7:s7_text.obj
 0001:00050c4c       ?dtor$1@?0??TimeToString@@YA?AV?$basic_string@DU?$char_traits@D@std@@V?$allocator@D@2@@std@@_J@Z@4HA 0000000180051c4c f   snap7:s7_text.obj
 0001:00050c80       ?dtor$0@?0???$?HDU?$char_traits@D@std@@V?$allocator@D@1@@std@@YA?AV?$basic_string@DU?$char_traits@D@std@@V?$allocator@D@2@@0@$$QEAV10@PEBD@Z@4HA 0000000180051c80 f   snap7:s7_text.obj
 0001:00050c80       ?dtor$0@?0??UploadText@@YA?AV?$basic_string@DU?$char_traits@D@std@@V?$allocator@D@2@@std@@AEAUTSrvEvent@@@Z@4HA 0000000180051c80 f   snap7:s7_text.obj
 0001:00050c80       ?dtor$0@?0???$?HDU?$char_traits@D@std@@V?$allocator@D@1@@std@@YA?AV?$basic_string@DU?$char_traits@D@std@@V?$allocator@D@2@@0@PEBD$$QEAV10@@Z@4HA 0000000180051c80 f   snap7:s7_text.obj
 0001:00050c80       ?dtor$0@?0??SecurityText@@YA?AV?$basic_string@DU?$char_traits@D@std@@V?$allocator@D@2@@std@@AEAUTSrvEvent@@@Z@4HA 0000000180051c80 f   snap7:s7_text.obj
 0001:00050c80       ?dtor$0@?0??ClockText@@YA?AV?$basic_string@DU?$char_traits@D@std@@V?$allocator@D@2@@std@@G@Z@4HA 0000000180051c80 f   snap7:s7_text.obj
 0001:00050c80       ?dtor$0@?0???$?HDU?$char_traits@D@std@@V?$allocator@D@1@@std@@YA?AV?$basic_string@DU?$char_traits@D@std@@V?$allocator@D@2@@0@AEBV10@PEBD@Z@4HA 0000000180051c80 f   snap7:s7_text.obj
 0001:00050c80       ?dtor$0@?0???$?HDU?$char_traits@D@std@@V?$allocator@D@1@@std@@YA?AV?$basic_string@DU?$char_traits@D@std@@V?$allocator@D@2@@0@$$QEAV10@AEBV10@@Z@4HA 0000000180051c80 f   snap7:s7_text.obj
 0001:00050c80       ?dtor$0@?0??IpAddressToString@@YA?AV?$basic_string@DU?$char_traits@D@std@@V?$allocator@D@2@@std@@H@Z@4HA 0000000180051c80 f   snap7:s7_text.obj
 0001:00050c80       ?dtor$0@?0??DownloadText@@YA?AV?$basic_string@DU?$char_traits@D@std@@V?$allocator@D@2@@std@@AEAUTSrvEvent@@@Z@4HA 0000000180051c80 f   snap7:s7_text.obj
 0001:00050c80       ?dtor$0@?0???$?HDU?$char_traits@D@std@@V?$allocator@D@1@@std@@YA?AV?$basic_string@DU?$char_traits@D@std@@V?$allocator@D@2@@0@PEBDAEBV10@@Z@4HA 0000000180051c80 f   snap7:s7_text.obj
 0001:00050cb0       ?dtor$0@?0??TcpTextOf@@YA?AV?$basic_string@DU?$char_traits@D@std@@V?$allocator@D@2@@std@@H@Z@4HA 0000000180051cb0 f   snap7:s7_text.obj
 0001:00050cb0       ?dtor$0@?0??IsoTextOf@@YA?AV?$basic_string@DU?$char_traits@D@std@@V?$allocator@D@2@@std@@H@Z@4HA 0000000180051cb0 f   snap7:s7_text.obj
 0001:00050cb0       ?dtor$0@?0??TxtDataResult@@YA?AV?$basic_string@DU?$char_traits@D@std@@V?$allocator@D@2@@std@@AEAUTSrvEvent@@@Z@4HA 0000000180051cb0 f   snap7:s7_text.obj
 0001:00050cb0       ?dtor$0@?0??SrvTextOf@@YA?AV?$basic_string@DU?$char_traits@D@std@@V?$allocator@D@2@@std@@H@Z@4HA 0000000180051cb0 f   snap7:s7_text.obj
 0001:00050cb0       ?dtor$0@?0??StrBlockType@@YA?AV?$basic_string@DU?$char_traits@D@std@@V?$allocator@D@2@@std@@G@Z@4HA 0000000180051cb0 f   snap7:s7_text.obj
 0001:00050cb0       ?dtor$0@?0??CliTextOf@@YA?AV?$basic_string@DU?$char_traits@D@std@@V?$allocator@D@2@@std@@H@Z@4HA 0000000180051cb0 f   snap7:s7_text.obj
 0001:00050cb0       ?dtor$0@?0??ParTextOf@@YA?AV?$basic_string@DU?$char_traits@D@std@@V?$allocator@D@2@@std@@H@Z@4HA 0000000180051cb0 f   snap7:s7_text.obj
 0001:00050cd6       ?dtor$1@?0??IsoTextOf@@YA?AV?$basic_string@DU?$char_traits@D@std@@V?$allocator@D@2@@std@@H@Z@4HA 0000000180051cd6 f   snap7:s7_text.obj
 0001:00050cd6       ?dtor$1@?0??TxtDataResult@@YA?AV?$basic_string@DU?$char_traits@D@std@@V?$allocator@D@2@@std@@AEAUTSrvEvent@@@Z@4HA 0000000180051cd6 f   snap7:s7_text.obj
 0001:00050cd6       ?dtor$1@?0??CliTextOf@@YA?AV?$basic_string@DU?$char_traits@D@std@@V?$allocator@D@2@@std@@H@Z@4HA 0000000180051cd6 f   snap7:s7_text.obj
 0001:00050cd6       ?dtor$1@?0??ParTextOf@@YA?AV?$basic_string@DU?$char_traits@D@std@@V?$allocator@D@2@@std@@H@Z@4HA 0000000180051cd6 f   snap7:s7_text.obj
 0001:00050cd6       ?dtor$1@?0??TcpTextOf@@YA?AV?$basic_string@DU?$char_traits@D@std@@V?$allocator@D@2@@std@@H@Z@4HA 0000000180051cd6 f   snap7:s7_text.obj
 0001:00050cd6       ?dtor$1@?0??StrBlockType@@YA?AV?$basic_string@DU?$char_traits@D@std@@V?$allocator@D@2@@std@@G@Z@4HA 0000000180051cd6 f   snap7:s7_text.obj
 0001:00050cd6       ?dtor$1@?0??SrvTextOf@@YA?AV?$basic_string@DU?$char_traits@D@std@@V?$allocator@D@2@@std@@H@Z@4HA 0000000180051cd6 f   snap7:s7_text.obj
 0001:00050ce2       ?dtor$2@?0??TcpTextOf@@YA?AV?$basic_string@DU?$char_traits@D@std@@V?$allocator@D@2@@std@@H@Z@4HA 0000000180051ce2 f   snap7:s7_text.obj
 0001:00050ce2       ?dtor$2@?0??ParTextOf@@YA?AV?$basic_string@DU?$char_traits@D@std@@V?$allocator@D@2@@std@@H@Z@4HA 0000000180051ce2 f   snap7:s7_text.obj
 0001:00050ce2       ?dtor$2@?0??IsoTextOf@@YA?AV?$basic_string@DU?$char_traits@D@std@@V?$allocator@D@2@@std@@H@Z@4HA 0000000180051ce2 f   snap7:s7_text.obj
 0001:00050ce2       ?dtor$2@?0??CliTextOf@@YA?AV?$basic_string@DU?$char_traits@D@std@@V?$allocator@D@2@@std@@H@Z@4HA 0000000180051ce2 f   snap7:s7_text.obj
 0001:00050ce2       ?dtor$2@?0??StrBlockType@@YA?AV?$basic_string@DU?$char_traits@D@std@@V?$allocator@D@2@@std@@G@Z@4HA 0000000180051ce2 f   snap7:s7_text.obj
 0001:00050ce2       ?dtor$2@?0??SrvTextOf@@YA?AV?$basic_string@DU?$char_traits@D@std@@V?$allocator@D@2@@std@@H@Z@4HA 0000000180051ce2 f   snap7:s7_text.obj
 0001:00050ce2       ?dtor$2@?0??TxtDataResult@@YA?AV?$basic_string@DU?$char_traits@D@std@@V?$allocator@D@2@@std@@AEAUTSrvEvent@@@Z@4HA 0000000180051ce2 f   snap7:s7_text.obj
 0001:00050cf0       ?dtor$0@?0??ErrParText@@YA?AV?$basic_string@DU?$char_traits@D@std@@V?$allocator@D@2@@std@@H@Z@4HA 0000000180051cf0 f   snap7:s7_text.obj
 0001:00050cf0       ?dtor$0@?0??ErrSrvText@@YA?AV?$basic_string@DU?$char_traits@D@std@@V?$allocator@D@2@@std@@H@Z@4HA 0000000180051cf0 f   snap7:s7_text.obj
 0001:00050cf0       ?dtor$0@?0??ErrCliText@@YA?AV?$basic_string@DU?$char_traits@D@std@@V?$allocator@D@2@@std@@H@Z@4HA 0000000180051cf0 f   snap7:s7_text.obj
 0001:00050d16       ?dtor$1@?0??ErrSrvText@@YA?AV?$basic_string@DU?$char_traits@D@std@@V?$allocator@D@2@@std@@H@Z@4HA 0000000180051d16 f   snap7:s7_text.obj
 0001:00050d16       ?dtor$1@?0??ErrParText@@YA?AV?$basic_string@DU?$char_traits@D@std@@V?$allocator@D@2@@std@@H@Z@4HA 0000000180051d16 f   snap7:s7_text.obj
 0001:00050d16       ?dtor$1@?0??ErrCliText@@YA?AV?$basic_string@DU?$char_traits@D@std@@V?$allocator@D@2@@std@@H@Z@4HA 0000000180051d16 f   snap7:s7_text.obj
 0001:00050d22       ?dtor$2@?0??ErrSrvText@@YA?AV?$basic_string@DU?$char_traits@D@std@@V?$allocator@D@2@@std@@H@Z@4HA 0000000180051d22 f   snap7:s7_text.obj
 0001:00050d22       ?dtor$2@?0??ErrCliText@@YA?AV?$basic_string@DU?$char_traits@D@std@@V?$allocator@D@2@@std@@H@Z@4HA 0000000180051d22 f   snap7:s7_text.obj
 0001:00050d22       ?dtor$2@?0??ErrParText@@YA?AV?$basic_string@DU?$char_traits@D@std@@V?$allocator@D@2@@std@@H@Z@4HA 0000000180051d22 f   snap7:s7_text.obj
 0001:00050d2e       ?dtor$3@?0??ErrSrvText@@YA?AV?$basic_string@DU?$char_traits@D@std@@V?$allocator@D@2@@std@@H@Z@4HA 0000000180051d2e f   snap7:s7_text.obj
 0001:00050d2e       ?dtor$3@?0??ErrCliText@@YA?AV?$basic_string@DU?$char_traits@D@std@@V?$allocator@D@2@@std@@H@Z@4HA 0000000180051d2e f   snap7:s7_text.obj
 0001:00050d2e       ?dtor$3@?0??ErrParText@@YA?AV?$basic_string@DU?$char_traits@D@std@@V?$allocator@D@2@@std@@H@Z@4HA 0000000180051d2e f   snap7:s7_text.obj
 0001:00050d3a       ?dtor$4@?0??ErrSrvText@@YA?AV?$basic_string@DU?$char_traits@D@std@@V?$allocator@D@2@@std@@H@Z@4HA 0000000180051d3a f   snap7:s7_text.obj
 0001:00050d3a       ?dtor$4@?0??ErrParText@@YA?AV?$basic_string@DU?$char_traits@D@std@@V?$allocator@D@2@@std@@H@Z@4HA 0000000180051d3a f   snap7:s7_text.obj
 0001:00050d3a       ?dtor$4@?0??ErrCliText@@YA?AV?$basic_string@DU?$char_traits@D@std@@V?$allocator@D@2@@std@@H@Z@4HA 0000000180051d3a f   snap7:s7_text.obj
 0001:00050d50       ?dtor$0@?0??SenderText@@YA?AV?$basic_string@DU?$char_traits@D@std@@V?$allocator@D@2@@std@@AEAUTSrvEvent@@@Z@4HA 0000000180051d50 f   snap7:s7_text.obj
 0001:00050d5c       ?dtor$1@?0??SenderText@@YA?AV?$basic_string@DU?$char_traits@D@std@@V?$allocator@D@2@@std@@AEAUTSrvEvent@@@Z@4HA 0000000180051d5c f   snap7:s7_text.obj
 0001:00050d68       ?dtor$2@?0??SenderText@@YA?AV?$basic_string@DU?$char_traits@D@std@@V?$allocator@D@2@@std@@AEAUTSrvEvent@@@Z@4HA 0000000180051d68 f   snap7:s7_text.obj
 0001:00050d74       ?dtor$3@?0??SenderText@@YA?AV?$basic_string@DU?$char_traits@D@std@@V?$allocator@D@2@@std@@AEAUTSrvEvent@@@Z@4HA 0000000180051d74 f   snap7:s7_text.obj
 0001:00050d80       ?dtor$4@?0??SenderText@@YA?AV?$basic_string@DU?$char_traits@D@std@@V?$allocator@D@2@@std@@AEAUTSrvEvent@@@Z@4HA 0000000180051d80 f   snap7:s7_text.obj
 0001:00050da6       ?dtor$5@?0??SenderText@@YA?AV?$basic_string@DU?$char_traits@D@std@@V?$allocator@D@2@@std@@AEAUTSrvEvent@@@Z@4HA 0000000180051da6 f   snap7:s7_text.obj
 0001:00050dc0       ?dtor$0@?0??TcpServerEventText@@YA?AV?$basic_string@DU?$char_traits@D@std@@V?$allocator@D@2@@std@@AEAUTSrvEvent@@@Z@4HA 0000000180051dc0 f   snap7:s7_text.obj
 0001:00050dcc       ?dtor$1@?0??TcpServerEventText@@YA?AV?$basic_string@DU?$char_traits@D@std@@V?$allocator@D@2@@std@@AEAUTSrvEvent@@@Z@4HA 0000000180051dcc f   snap7:s7_text.obj
 0001:00050dd8       ?dtor$2@?0??TcpServerEventText@@YA?AV?$basic_string@DU?$char_traits@D@std@@V?$allocator@D@2@@std@@AEAUTSrvEvent@@@Z@4HA 0000000180051dd8 f   snap7:s7_text.obj
 0001:00050de4       ?dtor$3@?0??TcpServerEventText@@YA?AV?$basic_string@DU?$char_traits@D@std@@V?$allocator@D@2@@std@@AEAUTSrvEvent@@@Z@4HA 0000000180051de4 f   snap7:s7_text.obj
 0001:00050df0       ?dtor$4@?0??TcpServerEventText@@YA?AV?$basic_string@DU?$char_traits@D@std@@V?$allocator@D@2@@std@@AEAUTSrvEvent@@@Z@4HA 0000000180051df0 f   snap7:s7_text.obj
 0001:00050dfc       ?dtor$5@?0??TcpServerEventText@@YA?AV?$basic_string@DU?$char_traits@D@std@@V?$allocator@D@2@@std@@AEAUTSrvEvent@@@Z@4HA 0000000180051dfc f   snap7:s7_text.obj
 0001:00050e08       ?dtor$6@?0??TcpServerEventText@@YA?AV?$basic_string@DU?$char_traits@D@std@@V?$allocator@D@2@@std@@AEAUTSrvEvent@@@Z@4HA 0000000180051e08 f   snap7:s7_text.obj
 0001:00050e14       ?dtor$7@?0??TcpServerEventText@@YA?AV?$basic_string@DU?$char_traits@D@std@@V?$allocator@D@2@@std@@AEAUTSrvEvent@@@Z@4HA 0000000180051e14 f   snap7:s7_text.obj
 0001:00050e20       ?dtor$8@?0??TcpServerEventText@@YA?AV?$basic_string@DU?$char_traits@D@std@@V?$allocator@D@2@@std@@AEAUTSrvEvent@@@Z@4HA 0000000180051e20 f   snap7:s7_text.obj
 0001:00050e2c       ?dtor$9@?0??TcpServerEventText@@YA?AV?$basic_string@DU?$char_traits@D@std@@V?$allocator@D@2@@std@@AEAUTSrvEvent@@@Z@4HA 0000000180051e2c f   snap7:s7_text.obj
 0001:00050e60       ?dtor$0@?0??PDUText@@YA?AV?$basic_string@DU?$char_traits@D@std@@V?$allocator@D@2@@std@@AEAUTSrvEvent@@@Z@4HA 0000000180051e60 f   snap7:s7_text.obj
 0001:00050e6c       ?dtor$1@?0??PDUText@@YA?AV?$basic_string@DU?$char_traits@D@std@@V?$allocator@D@2@@std@@AEAUTSrvEvent@@@Z@4HA 0000000180051e6c f   snap7:s7_text.obj
 0001:00050e78       ?dtor$2@?0??PDUText@@YA?AV?$basic_string@DU?$char_traits@D@std@@V?$allocator@D@2@@std@@AEAUTSrvEvent@@@Z@4HA 0000000180051e78 f   snap7:s7_text.obj
 0001:00050e9e       ?dtor$3@?0??PDUText@@YA?AV?$basic_string@DU?$char_traits@D@std@@V?$allocator@D@2@@std@@AEAUTSrvEvent@@@Z@4HA 0000000180051e9e f   snap7:s7_text.obj
 0001:00050eaa       ?dtor$4@?0??PDUText@@YA?AV?$basic_string@DU?$char_traits@D@std@@V?$allocator@D@2@@std@@AEAUTSrvEvent@@@Z@4HA 0000000180051eaa f   snap7:s7_text.obj
 0001:00050eb6       ?dtor$5@?0??PDUText@@YA?AV?$basic_string@DU?$char_traits@D@std@@V?$allocator@D@2@@std@@AEAUTSrvEvent@@@Z@4HA 0000000180051eb6 f   snap7:s7_text.obj
 0001:00050ec2       ?dtor$6@?0??PDUText@@YA?AV?$basic_string@DU?$char_traits@D@std@@V?$allocator@D@2@@std@@AEAUTSrvEvent@@@Z@4HA 0000000180051ec2 f   snap7:s7_text.obj
 0001:00050ece       ?dtor$7@?0??PDUText@@YA?AV?$basic_string@DU?$char_traits@D@std@@V?$allocator@D@2@@std@@AEAUTSrvEvent@@@Z@4HA 0000000180051ece f   snap7:s7_text.obj
 0001:00050eda       ?dtor$8@?0??PDUText@@YA?AV?$basic_string@DU?$char_traits@D@std@@V?$allocator@D@2@@std@@AEAUTSrvEvent@@@Z@4HA 0000000180051eda f   snap7:s7_text.obj
 0001:00050ef0       ?dtor$0@?0??TxtArea@@YA?AV?$basic_string@DU?$char_traits@D@std@@V?$allocator@D@2@@std@@AEAUTSrvEvent@@@Z@4HA 0000000180051ef0 f   snap7:s7_text.obj
 0001:00050f16       ?dtor$1@?0??TxtArea@@YA?AV?$basic_string@DU?$char_traits@D@std@@V?$allocator@D@2@@std@@AEAUTSrvEvent@@@Z@4HA 0000000180051f16 f   snap7:s7_text.obj
 0001:00050f22       ?dtor$2@?0??TxtArea@@YA?AV?$basic_string@DU?$char_traits@D@std@@V?$allocator@D@2@@std@@AEAUTSrvEvent@@@Z@4HA 0000000180051f22 f   snap7:s7_text.obj
 0001:00050f2e       ?dtor$3@?0??TxtArea@@YA?AV?$basic_string@DU?$char_traits@D@std@@V?$allocator@D@2@@std@@AEAUTSrvEvent@@@Z@4HA 0000000180051f2e f   snap7:s7_text.obj
 0001:00050f3a       ?dtor$4@?0??TxtArea@@YA?AV?$basic_string@DU?$char_traits@D@std@@V?$allocator@D@2@@std@@AEAUTSrvEvent@@@Z@4HA 0000000180051f3a f   snap7:s7_text.obj
 0001:00050f50       ?dtor$0@?0??TxtStartSize@@YA?AV?$basic_string@DU?$char_traits@D@std@@V?$allocator@D@2@@std@@AEAUTSrvEvent@@@Z@4HA 0000000180051f50 f   snap7:s7_text.obj
 0001:00050f5c       ?dtor$1@?0??TxtStartSize@@YA?AV?$basic_string@DU?$char_traits@D@std@@V?$allocator@D@2@@std@@AEAUTSrvEvent@@@Z@4HA 0000000180051f5c f   snap7:s7_text.obj
 0001:00050f68       ?dtor$2@?0??TxtStartSize@@YA?AV?$basic_string@DU?$char_traits@D@std@@V?$allocator@D@2@@std@@AEAUTSrvEvent@@@Z@4HA 0000000180051f68 f   snap7:s7_text.obj
 0001:00050f74       ?dtor$3@?0??TxtStartSize@@YA?AV?$basic_string@DU?$char_traits@D@std@@V?$allocator@D@2@@std@@AEAUTSrvEvent@@@Z@4HA 0000000180051f74 f   snap7:s7_text.obj
 0001:00050f80       ?dtor$4@?0??TxtStartSize@@YA?AV?$basic_string@DU?$char_traits@D@std@@V?$allocator@D@2@@std@@AEAUTSrvEvent@@@Z@4HA 0000000180051f80 f   snap7:s7_text.obj
 0001:00050fb0       ?dtor$0@?0??ControlText@@YA?AV?$basic_string@DU?$char_traits@D@std@@V?$allocator@D@2@@std@@G@Z@4HA 0000000180051fb0 f   snap7:s7_text.obj
 0001:00050fbc       ?dtor$1@?0??ControlText@@YA?AV?$basic_string@DU?$char_traits@D@std@@V?$allocator@D@2@@std@@G@Z@4HA 0000000180051fbc f   snap7:s7_text.obj
 0001:00050fe2       ?dtor$2@?0??ControlText@@YA?AV?$basic_string@DU?$char_traits@D@std@@V?$allocator@D@2@@std@@G@Z@4HA 0000000180051fe2 f   snap7:s7_text.obj
 0001:00050fee       ?dtor$3@?0??ControlText@@YA?AV?$basic_string@DU?$char_traits@D@std@@V?$allocator@D@2@@std@@G@Z@4HA 0000000180051fee f   snap7:s7_text.obj
 0001:00050ffa       ?dtor$4@?0??ControlText@@YA?AV?$basic_string@DU?$char_traits@D@std@@V?$allocator@D@2@@std@@G@Z@4HA 0000000180051ffa f   snap7:s7_text.obj
 0001:00051010       ?dtor$0@?0??ReadSZLText@@YA?AV?$basic_string@DU?$char_traits@D@std@@V?$allocator@D@2@@std@@AEAUTSrvEvent@@@Z@4HA 0000000180052010 f   snap7:s7_text.obj
 0001:0005101c       ?dtor$1@?0??ReadSZLText@@YA?AV?$basic_string@DU?$char_traits@D@std@@V?$allocator@D@2@@std@@AEAUTSrvEvent@@@Z@4HA 000000018005201c f   snap7:s7_text.obj
 0001:00051028       ?dtor$2@?0??ReadSZLText@@YA?AV?$basic_string@DU?$char_traits@D@std@@V?$allocator@D@2@@std@@AEAUTSrvEvent@@@Z@4HA 0000000180052028 f   snap7:s7_text.obj
 0001:00051034       ?dtor$3@?0??ReadSZLText@@YA?AV?$basic_string@DU?$char_traits@D@std@@V?$allocator@D@2@@std@@AEAUTSrvEvent@@@Z@4HA 0000000180052034 f   snap7:s7_text.obj
 0001:00051040       ?dtor$4@?0??ReadSZLText@@YA?AV?$basic_string@DU?$char_traits@D@std@@V?$allocator@D@2@@std@@AEAUTSrvEvent@@@Z@4HA 0000000180052040 f   snap7:s7_text.obj
 0001:0005104c       ?dtor$5@?0??ReadSZLText@@YA?AV?$basic_string@DU?$char_traits@D@std@@V?$allocator@D@2@@std@@AEAUTSrvEvent@@@Z@4HA 000000018005204c f   snap7:s7_text.obj
 0001:00051080       ?dtor$0@?0??BlockInfoText@@YA?AV?$basic_string@DU?$char_traits@D@std@@V?$allocator@D@2@@std@@AEAUTSrvEvent@@@Z@4HA 0000000180052080 f   snap7:s7_text.obj
 0001:0005108c       ?dtor$1@?0??BlockInfoText@@YA?AV?$basic_string@DU?$char_traits@D@std@@V?$allocator@D@2@@std@@AEAUTSrvEvent@@@Z@4HA 000000018005208c f   snap7:s7_text.obj
 0001:00051098       ?dtor$2@?0??BlockInfoText@@YA?AV?$basic_string@DU?$char_traits@D@std@@V?$allocator@D@2@@std@@AEAUTSrvEvent@@@Z@4HA 0000000180052098 f   snap7:s7_text.obj
 0001:000510a4       ?dtor$3@?0??BlockInfoText@@YA?AV?$basic_string@DU?$char_traits@D@std@@V?$allocator@D@2@@std@@AEAUTSrvEvent@@@Z@4HA 00000001800520a4 f   snap7:s7_text.obj
 0001:000510b0       ?dtor$4@?0??BlockInfoText@@YA?AV?$basic_string@DU?$char_traits@D@std@@V?$allocator@D@2@@std@@AEAUTSrvEvent@@@Z@4HA 00000001800520b0 f   snap7:s7_text.obj
 0001:000510bc       ?dtor$5@?0??BlockInfoText@@YA?AV?$basic_string@DU?$char_traits@D@std@@V?$allocator@D@2@@std@@AEAUTSrvEvent@@@Z@4HA 00000001800520bc f   snap7:s7_text.obj
 0001:000510c8       ?dtor$6@?0??BlockInfoText@@YA?AV?$basic_string@DU?$char_traits@D@std@@V?$allocator@D@2@@std@@AEAUTSrvEvent@@@Z@4HA 00000001800520c8 f   snap7:s7_text.obj
 0001:000510d4       ?dtor$7@?0??BlockInfoText@@YA?AV?$basic_string@DU?$char_traits@D@std@@V?$allocator@D@2@@std@@AEAUTSrvEvent@@@Z@4HA 00000001800520d4 f   snap7:s7_text.obj
 0001:000510e0       ?dtor$8@?0??BlockInfoText@@YA?AV?$basic_string@DU?$char_traits@D@std@@V?$allocator@D@2@@std@@AEAUTSrvEvent@@@Z@4HA 00000001800520e0 f   snap7:s7_text.obj
 0001:000510ec       ?dtor$9@?0??BlockInfoText@@YA?AV?$basic_string@DU?$char_traits@D@std@@V?$allocator@D@2@@std@@AEAUTSrvEvent@@@Z@4HA 00000001800520ec f   snap7:s7_text.obj
 0001:000510f8       ?dtor$10@?0??BlockInfoText@@YA?AV?$basic_string@DU?$char_traits@D@std@@V?$allocator@D@2@@std@@AEAUTSrvEvent@@@Z@4HA 00000001800520f8 f   snap7:s7_text.obj
 0001:00051104       ?dtor$11@?0??BlockInfoText@@YA?AV?$basic_string@DU?$char_traits@D@std@@V?$allocator@D@2@@std@@AEAUTSrvEvent@@@Z@4HA 0000000180052104 f   snap7:s7_text.obj
 0001:00051110       ?dtor$12@?0??BlockInfoText@@YA?AV?$basic_string@DU?$char_traits@D@std@@V?$allocator@D@2@@std@@AEAUTSrvEvent@@@Z@4HA 0000000180052110 f   snap7:s7_text.obj
 0001:00051140       ?dtor$0@?0??EvtSrvText@@YA?AV?$basic_string@DU?$char_traits@D@std@@V?$allocator@D@2@@std@@AEAUTSrvEvent@@@Z@4HA 0000000180052140 f   snap7:s7_text.obj
 0001:0005114c       ?dtor$1@?0??EvtSrvText@@YA?AV?$basic_string@DU?$char_traits@D@std@@V?$allocator@D@2@@std@@AEAUTSrvEvent@@@Z@4HA 000000018005214c f   snap7:s7_text.obj
 0001:00051158       ?dtor$2@?0??EvtSrvText@@YA?AV?$basic_string@DU?$char_traits@D@std@@V?$allocator@D@2@@std@@AEAUTSrvEvent@@@Z@4HA 0000000180052158 f   snap7:s7_text.obj
 0001:00051164       ?dtor$3@?0??EvtSrvText@@YA?AV?$basic_string@DU?$char_traits@D@std@@V?$allocator@D@2@@std@@AEAUTSrvEvent@@@Z@4HA 0000000180052164 f   snap7:s7_text.obj
 0001:00051170       ?dtor$4@?0??EvtSrvText@@YA?AV?$basic_string@DU?$char_traits@D@std@@V?$allocator@D@2@@std@@AEAUTSrvEvent@@@Z@4HA 0000000180052170 f   snap7:s7_text.obj
 0001:0005117c       ?dtor$5@?0??EvtSrvText@@YA?AV?$basic_string@DU?$char_traits@D@std@@V?$allocator@D@2@@std@@AEAUTSrvEvent@@@Z@4HA 000000018005217c f   snap7:s7_text.obj
 0001:00051188       ?dtor$6@?0??EvtSrvText@@YA?AV?$basic_string@DU?$char_traits@D@std@@V?$allocator@D@2@@std@@AEAUTSrvEvent@@@Z@4HA 0000000180052188 f   snap7:s7_text.obj
 0001:00051194       ?dtor$7@?0??EvtSrvText@@YA?AV?$basic_string@DU?$char_traits@D@std@@V?$allocator@D@2@@std@@AEAUTSrvEvent@@@Z@4HA 0000000180052194 f   snap7:s7_text.obj
 0001:000511a0       ?dtor$8@?0??EvtSrvText@@YA?AV?$basic_string@DU?$char_traits@D@std@@V?$allocator@D@2@@std@@AEAUTSrvEvent@@@Z@4HA 00000001800521a0 f   snap7:s7_text.obj
 0001:000511ac       ?dtor$9@?0??EvtSrvText@@YA?AV?$basic_string@DU?$char_traits@D@std@@V?$allocator@D@2@@std@@AEAUTSrvEvent@@@Z@4HA 00000001800521ac f   snap7:s7_text.obj
 0001:000511b8       ?dtor$10@?0??EvtSrvText@@YA?AV?$basic_string@DU?$char_traits@D@std@@V?$allocator@D@2@@std@@AEAUTSrvEvent@@@Z@4HA 00000001800521b8 f   snap7:s7_text.obj
 0001:000511c4       ?dtor$11@?0??EvtSrvText@@YA?AV?$basic_string@DU?$char_traits@D@std@@V?$allocator@D@2@@std@@AEAUTSrvEvent@@@Z@4HA 00000001800521c4 f   snap7:s7_text.obj
 0001:000511d0       ?dtor$12@?0??EvtSrvText@@YA?AV?$basic_string@DU?$char_traits@D@std@@V?$allocator@D@2@@std@@AEAUTSrvEvent@@@Z@4HA 00000001800521d0 f   snap7:s7_text.obj
 0001:000511dc       ?dtor$13@?0??EvtSrvText@@YA?AV?$basic_string@DU?$char_traits@D@std@@V?$allocator@D@2@@std@@AEAUTSrvEvent@@@Z@4HA 00000001800521dc f   snap7:s7_text.obj
 0001:000511e8       ?dtor$14@?0??EvtSrvText@@YA?AV?$basic_string@DU?$char_traits@D@std@@V?$allocator@D@2@@std@@AEAUTSrvEvent@@@Z@4HA 00000001800521e8 f   snap7:s7_text.obj
 0001:000511f4       ?dtor$15@?0??EvtSrvText@@YA?AV?$basic_string@DU?$char_traits@D@std@@V?$allocator@D@2@@std@@AEAUTSrvEvent@@@Z@4HA 00000001800521f4 f   snap7:s7_text.obj
 0001:00051200       ?dtor$16@?0??EvtSrvText@@YA?AV?$basic_string@DU?$char_traits@D@std@@V?$allocator@D@2@@std@@AEAUTSrvEvent@@@Z@4HA 0000000180052200 f   snap7:s7_text.obj
 0001:0005120c       ?dtor$17@?0??EvtSrvText@@YA?AV?$basic_string@DU?$char_traits@D@std@@V?$allocator@D@2@@std@@AEAUTSrvEvent@@@Z@4HA 000000018005220c f   snap7:s7_text.obj
 0001:00051218       ?dtor$18@?0??EvtSrvText@@YA?AV?$basic_string@DU?$char_traits@D@std@@V?$allocator@D@2@@std@@AEAUTSrvEvent@@@Z@4HA 0000000180052218 f   snap7:s7_text.obj
 0001:00051224       ?dtor$19@?0??EvtSrvText@@YA?AV?$basic_string@DU?$char_traits@D@std@@V?$allocator@D@2@@std@@AEAUTSrvEvent@@@Z@4HA 0000000180052224 f   snap7:s7_text.obj
 0001:00051230       ?dtor$20@?0??EvtSrvText@@YA?AV?$basic_string@DU?$char_traits@D@std@@V?$allocator@D@2@@std@@AEAUTSrvEvent@@@Z@4HA 0000000180052230 f   snap7:s7_text.obj
 0001:0005123c       ?dtor$21@?0??EvtSrvText@@YA?AV?$basic_string@DU?$char_traits@D@std@@V?$allocator@D@2@@std@@AEAUTSrvEvent@@@Z@4HA 000000018005223c f   snap7:s7_text.obj
 0001:00051248       ?dtor$22@?0??EvtSrvText@@YA?AV?$basic_string@DU?$char_traits@D@std@@V?$allocator@D@2@@std@@AEAUTSrvEvent@@@Z@4HA 0000000180052248 f   snap7:s7_text.obj
 0001:00051254       ?dtor$23@?0??EvtSrvText@@YA?AV?$basic_string@DU?$char_traits@D@std@@V?$allocator@D@2@@std@@AEAUTSrvEvent@@@Z@4HA 0000000180052254 f   snap7:s7_text.obj
 0001:00051260       ?dtor$24@?0??EvtSrvText@@YA?AV?$basic_string@DU?$char_traits@D@std@@V?$allocator@D@2@@std@@AEAUTSrvEvent@@@Z@4HA 0000000180052260 f   snap7:s7_text.obj
 0001:0005126c       ?dtor$25@?0??EvtSrvText@@YA?AV?$basic_string@DU?$char_traits@D@std@@V?$allocator@D@2@@std@@AEAUTSrvEvent@@@Z@4HA 000000018005226c f   snap7:s7_text.obj
 0001:00051278       ?dtor$26@?0??EvtSrvText@@YA?AV?$basic_string@DU?$char_traits@D@std@@V?$allocator@D@2@@std@@AEAUTSrvEvent@@@Z@4HA 0000000180052278 f   snap7:s7_text.obj
 0001:00051284       ?dtor$27@?0??EvtSrvText@@YA?AV?$basic_string@DU?$char_traits@D@std@@V?$allocator@D@2@@std@@AEAUTSrvEvent@@@Z@4HA 0000000180052284 f   snap7:s7_text.obj
 0001:00051290       ?dtor$28@?0??EvtSrvText@@YA?AV?$basic_string@DU?$char_traits@D@std@@V?$allocator@D@2@@std@@AEAUTSrvEvent@@@Z@4HA 0000000180052290 f   snap7:s7_text.obj
 0001:0005129c       ?dtor$29@?0??EvtSrvText@@YA?AV?$basic_string@DU?$char_traits@D@std@@V?$allocator@D@2@@std@@AEAUTSrvEvent@@@Z@4HA 000000018005229c f   snap7:s7_text.obj
 0001:000512d0       ?dtor$0@?0???$?HDU?$char_traits@D@std@@V?$allocator@D@1@@std@@YA?AV?$basic_string@DU?$char_traits@D@std@@V?$allocator@D@2@@0@$$QEAV10@0@Z@4HA 00000001800522d0 f   snap7:s7_text.obj
 0001:00051300       ?dtor$0@?0???0TSnap7Server@@QEAA@XZ@4HA 0000000180052300 f   snap7:s7_server.obj
 0001:00051310       ?dtor$0@?0??CreateWorkerSocket@TSnap7Server@@MEAAPEAVTMsgSocket@@_K@Z@4HA 0000000180052310 f   snap7:s7_server.obj
 0001:00051330       ?catch$0@?0??DoReadEvent@TSnap7Server@@IEAAXHIGGGGG@Z@4HA 0000000180052330 f   snap7:s7_server.obj
 0001:0005133d       __catch$?DoReadEvent@TSnap7Server@@IEAAXHIGGGGG@Z$0 000000018005233d f   snap7:s7_server.obj
 0001:00051350       ?catch$0@?0??DoReadArea@TSnap7Server@@IEAA_NHHHHHHPEAX@Z@4HA 0000000180052350 f   snap7:s7_server.obj
 0001:0005135d       __catch$?DoReadArea@TSnap7Server@@IEAA_NHHHHHHPEAX@Z$0 000000018005235d f   snap7:s7_server.obj
 0001:00051370       ?catch$0@?0??DoWriteArea@TSnap7Server@@IEAA_NHHHHHHPEAX@Z@4HA 0000000180052370 f   snap7:s7_server.obj
 0001:0005137d       __catch$?DoWriteArea@TSnap7Server@@IEAA_NHHHHHHPEAX@Z$0 000000018005237d f   snap7:s7_server.obj
 0001:00051390       ?catch$0@?0??Execute@TMsgWorkerThread@@UEAAXXZ@4HA 0000000180052390 f   snap7:snap_tcpsrvr.obj
 0001:0005139d       __catch$?Execute@TMsgWorkerThread@@UEAAXXZ$0 000000018005239d f   snap7:snap_tcpsrvr.obj
 0001:000513b0       ?dtor$2@?0???0TCustomMsgServer@@QEAA@XZ@4HA 00000001800523b0 f   snap7:snap_tcpsrvr.obj
 0001:000513d0       ?catch$0@?0??KillAll@TCustomMsgServer@@IEAAXXZ@4HA 00000001800523d0 f   snap7:snap_tcpsrvr.obj
 0001:000513dd       __catch$?KillAll@TCustomMsgServer@@IEAAXXZ$0 00000001800523dd f   snap7:snap_tcpsrvr.obj
 0001:000513f0       ?dtor$0@?0??CreateWorkerSocket@TCustomMsgServer@@MEAAPEAVTMsgSocket@@_K@Z@4HA 00000001800523f0 f   snap7:snap_tcpsrvr.obj
 0001:00051410       ?catch$0@?0??DoEvent@TCustomMsgServer@@MEAAXHIGGGGG@Z@4HA 0000000180052410 f   snap7:snap_tcpsrvr.obj
 0001:0005141d       __catch$?DoEvent@TCustomMsgServer@@MEAAXHIGGGGG@Z$0 000000018005241d f   snap7:snap_tcpsrvr.obj
 0001:00051430       ?catch$0@?0??PickEvent@TCustomMsgServer@@QEAA_NPEAX@Z@4HA 0000000180052430 f   snap7:snap_tcpsrvr.obj
 0001:0005143d       __catch$?PickEvent@TCustomMsgServer@@QEAA_NPEAX@Z$0 000000018005243d f   snap7:snap_tcpsrvr.obj
 0001:00051450       ?catch$0@?0??ForceClose@TMsgSocket@@QEAAXXZ@4HA 0000000180052450 f   snap7:snap_msgsock.obj
 0001:0005145d       __catch$?ForceClose@TMsgSocket@@QEAAXXZ$0 000000018005245d f   snap7:snap_msgsock.obj
 0001:00051470       ?catch$0@?0??ThreadProc@@YAKPEAX@Z@4HA 0000000180052470 f   snap7:snap_threads.obj
 0001:0005147d       __catch$?ThreadProc@@YAKPEAX@Z$0 000000018005247d f   snap7:snap_threads.obj
 0001:0005148b       ?dtor$0@?0??_Init@locale@std@@CAPEAV_Locimp@12@_N@Z@4HA 000000018005248b f   libcpmt:locale0.obj
 0001:0005148b       ?dtor$0@?0??_Locimp_dtor@_Locimp@locale@std@@CAXPEAV123@@Z@4HA 000000018005248b f   libcpmt:locale0.obj
 0001:00051497       __scrt_is_nonwritable_in_current_image$filt$0 0000000180052497 f   LIBCMT:utility.obj
 0001:000514af       ?fin$0@?0??dllmain_crt_process_attach@@YAHQEAUHINSTANCE__@@QEAX@Z@4HA 00000001800524af f   LIBCMT:dll_dllmain.obj
 0001:000514c6       ?fin$0@?0??dllmain_crt_process_detach@@YAH_N@Z@4HA 00000001800524c6 f   LIBCMT:dll_dllmain.obj
 0001:000514e2       ?filt$0@?0??dllmain_dispatch@@YAHQEAUHINSTANCE__@@KQEAX@Z@4HA 00000001800524e2 f   LIBCMT:dll_dllmain.obj
 0001:00051518       __CxxCallCatchBlock$filt$0 0000000180052518 f   libvcruntime:frame.obj
 0001:0005153d       __CxxCallCatchBlock$fin$1  000000018005253d f   libvcruntime:frame.obj
 0001:000515b5       __DestructExceptionObject$filt$0 00000001800525b5 f   libvcruntime:frame.obj
 0001:000515cd       __FrameUnwindToState$filt$0 00000001800525cd f   libvcruntime:frame.obj
 0001:000515e3       __FrameUnwindToState$fin$1 00000001800525e3 f   libvcruntime:frame.obj
 0001:00051606       _CallSETranslator$filt$0   0000000180052606 f   libvcruntime:trnsctrl.obj
 0001:00051652       setlocale$fin$0            0000000180052652 f   libucrt:setlocale.obj
 0001:0005166d       _query_new_handler$fin$0   000000018005266d f   libucrt:new_handler.obj
 0001:00051683       ?filt$0@?0??common_exit@@YAXHW4_crt_exit_cleanup_mode@@W4_crt_exit_return_mode@@@Z@4HA 0000000180052683 f   libucrt:exit.obj
 0001:0005169e       ?fin$1@?0??common_exit@@YAXHW4_crt_exit_cleanup_mode@@W4_crt_exit_return_mode@@@Z@4HA 000000018005269e f   libucrt:exit.obj
 0001:000516b7       ?fin$0@?0???$?RV<lambda_e24bbb7b643b32fcea6fa61b31d4c984>@@AEAV<lambda_275893d493268fdec8709772e3fcec0e>@@V<lambda_9d71df4d7cf3f480f8d633942495c3b0>@@@?$__crt_seh_guarded_call@H@@QEAAH$$QEAV<lambda_e24bbb7b643b32fcea6fa61b31d4c984>@@AEAV<lambda_275893d493268fdec8709772e3fcec0e>@@$$QEAV<lambda_9d71df4d7cf3f480f8d633942495c3b0>@@@Z@4HA 00000001800526b7 f   libucrt:onexit.obj
 0001:000516d4       raise$fin$0                00000001800526d4 f   libucrt:signal.obj
 0001:000516f8       ?fin$0@?0???$?RV<lambda_5e887d1dcbef67a5eb4283622ba103bf>@@AEAV<lambda_4466841279450cc726390878d4a41900>@@V<lambda_341c25c0346d94847f1f3c463c57e077>@@@?$__crt_seh_guarded_call@X@@QEAAX$$QEAV<lambda_5e887d1dcbef67a5eb4283622ba103bf>@@AEAV<lambda_4466841279450cc726390878d4a41900>@@$$QEAV<lambda_341c25c0346d94847f1f3c463c57e077>@@@Z@4HA 00000001800526f8 f   libucrt:per_thread_data.obj
 0001:000516f8       ?fin$0@?0???$?RV<lambda_b8c45f8f788dd370798f47cfe8ac3a86>@@AEAV<lambda_4e60a939b0d047cfe11ddc22648dfba9>@@V<lambda_332c3edc96d0294ec56c57d38c1cdfd5>@@@?$__crt_seh_guarded_call@H@@QEAAH$$QEAV<lambda_b8c45f8f788dd370798f47cfe8ac3a86>@@AEAV<lambda_4e60a939b0d047cfe11ddc22648dfba9>@@$$QEAV<lambda_332c3edc96d0294ec56c57d38c1cdfd5>@@@Z@4HA 00000001800526f8 f   libucrt:onexit.obj
 0001:000516f8       ?fin$0@?0???$?RV<lambda_72d1df2b273a38828b1ce30cbf4cdab5>@@AEAV<lambda_876a65b173b8412d3a47c70a915b0cf4>@@V<lambda_41932305e351933ebe8f8be3ed8bb5dc>@@@?$__crt_seh_guarded_call@X@@QEAAX$$QEAV<lambda_72d1df2b273a38828b1ce30cbf4cdab5>@@AEAV<lambda_876a65b173b8412d3a47c70a915b0cf4>@@$$QEAV<lambda_41932305e351933ebe8f8be3ed8bb5dc>@@@Z@4HA 00000001800526f8 f   libucrt:per_thread_data.obj
 0001:000516f8       ?fin$0@?0???$?RV<lambda_fb3a7dec4e47f37f22dae91bb15c9095>@@AEAV<lambda_698284760c8add0bfb0756c19673e34b>@@V<lambda_dfb8eca1e75fef3034a8fb18dd509707>@@@?$__crt_seh_guarded_call@X@@QEAAX$$QEAV<lambda_fb3a7dec4e47f37f22dae91bb15c9095>@@AEAV<lambda_698284760c8add0bfb0756c19673e34b>@@$$QEAV<lambda_dfb8eca1e75fef3034a8fb18dd509707>@@@Z@4HA 00000001800526f8 f   libucrt:per_thread_data.obj
 0001:000516f8       ?fin$0@?0???$?RV<lambda_c36588078e9f5dfd39652860aa6b3aaf>@@AEAV<lambda_ec61778202f4f5fc7e7711acc23c3bca>@@V<lambda_dc9d2797ccde5d239b4a0efae8ebd7db>@@@?$__crt_seh_guarded_call@P6AXH@Z@@QEAAP6AXH@Z$$QEAV<lambda_c36588078e9f5dfd39652860aa6b3aaf>@@AEAV<lambda_ec61778202f4f5fc7e7711acc23c3bca>@@$$QEAV<lambda_dc9d2797ccde5d239b4a0efae8ebd7db>@@@Z@4HA 00000001800526f8 f   libucrt:signal.obj
 0001:000516f8       ?fin$0@?0???$?RV<lambda_46352004c1216016012b18bd6f87e700>@@AEAV<lambda_3bd07e1a1191394380780325891bf33f>@@V<lambda_334532d3f185bcaa59b5be82d7d22bff>@@@?$__crt_seh_guarded_call@X@@QEAAX$$QEAV<lambda_46352004c1216016012b18bd6f87e700>@@AEAV<lambda_3bd07e1a1191394380780325891bf33f>@@$$QEAV<lambda_334532d3f185bcaa59b5be82d7d22bff>@@@Z@4HA 00000001800526f8 f   libucrt:per_thread_data.obj
 0001:000516f8       ?fin$0@?0???$?RV<lambda_d67e8342c384adda8f857579ab50b2ae>@@AEAV<lambda_30712929f77e709619002f448b6a9510>@@V<lambda_4525336fd7e478d965fb7ca7a337cad8>@@@?$__crt_seh_guarded_call@X@@QEAAX$$QEAV<lambda_d67e8342c384adda8f857579ab50b2ae>@@AEAV<lambda_30712929f77e709619002f448b6a9510>@@$$QEAV<lambda_4525336fd7e478d965fb7ca7a337cad8>@@@Z@4HA 00000001800526f8 f   libucrt:wsetlocale.obj
 0001:000516f8       ?fin$0@?0???$?RV<lambda_99476a1ad63dd22509b5d3e65b0ffc95>@@AEAV<lambda_ad1ced32f4ac17aa236e5ef05d6b3b7c>@@V<lambda_f7424dd8d45958661754dc4f2697e9c3>@@@?$__crt_seh_guarded_call@X@@QEAAX$$QEAV<lambda_99476a1ad63dd22509b5d3e65b0ffc95>@@AEAV<lambda_ad1ced32f4ac17aa236e5ef05d6b3b7c>@@$$QEAV<lambda_f7424dd8d45958661754dc4f2697e9c3>@@@Z@4HA 00000001800526f8 f   libucrt:mbctype.obj
 0001:000516f8       ?fin$0@?0???$?RV<lambda_630b2aca97f6d20d5b5ea6529ea6b6af>@@AEAV<lambda_af91936f1d075d609f72d9d8cba980af>@@V<lambda_e82fa975f615b5c7c7b0e4d178fdae67>@@@?$__crt_seh_guarded_call@H@@QEAAH$$QEAV<lambda_630b2aca97f6d20d5b5ea6529ea6b6af>@@AEAV<lambda_af91936f1d075d609f72d9d8cba980af>@@$$QEAV<lambda_e82fa975f615b5c7c7b0e4d178fdae67>@@@Z@4HA 00000001800526f8 f   libucrt:winapi_thunks.obj
 0001:00051712       __tzset$fin$0              0000000180052712 f   libucrt:tzset.obj
 0001:00051712       _isindst$fin$0             0000000180052712 f   libucrt:tzset.obj
 0001:0005172b       ?fin$0@?0???$?RV<lambda_5df02c53a8f32f81fd64e5bbb78039f1>@@AEAV<lambda_2af78c5f5901b1372d98f9ab3177dfa6>@@AEAV<lambda_f51fe5fd7c79a33db34fc9310f277369>@@@?$__crt_seh_guarded_call@X@@QEAAX$$QEAV<lambda_5df02c53a8f32f81fd64e5bbb78039f1>@@AEAV<lambda_2af78c5f5901b1372d98f9ab3177dfa6>@@AEAV<lambda_f51fe5fd7c79a33db34fc9310f277369>@@@Z@4HA 000000018005272b f   libucrt:wsetlocale.obj
 0001:0005174c       __acrt_initialize_lowio$fin$0 000000018005274c f   libucrt:ioinit.obj
 0001:0005174c       __acrt_lowio_ensure_fh_exists$fin$0 000000018005274c f   libucrt:osfinfo.obj
 0001:00051765       _ctrlfp$filt$0             0000000180052765 f   libucrt:fpctrl.obj
 0001:00051765       common_control87$filt$0    0000000180052765 f   libucrt:ieee.obj
 0001:00051791       common_flush_all$fin$0     0000000180052791 f   libucrt:fflush.obj
 0001:000517ab       common_flush_all$fin$1     00000001800527ab f   libucrt:fflush.obj
 0001:000517c4       ?fin$0@?0???$?RV<lambda_7a5ef57ff966f610505f1d28a3d40618>@@AEAV<lambda_b721fa326cdb32351d23dfa67958c160>@@V<lambda_5e0fb27672408a07956fe59e48ccb2aa>@@@?$__crt_seh_guarded_call@H@@QEAAH$$QEAV<lambda_7a5ef57ff966f610505f1d28a3d40618>@@AEAV<lambda_b721fa326cdb32351d23dfa67958c160>@@$$QEAV<lambda_5e0fb27672408a07956fe59e48ccb2aa>@@@Z@4HA 00000001800527c4 f   libucrt:setvbuf.obj
 0001:000517c4       ?fin$0@?0???$?RV<lambda_7b91131dde12e1c3dfc74ff76b3f2eac>@@AEAV<lambda_dd75445284c072d0bd3768540cc698fa>@@V<lambda_16bc4ecb55b4718497c16bceaea2ceaf>@@@?$__crt_seh_guarded_call@H@@QEAAH$$QEAV<lambda_7b91131dde12e1c3dfc74ff76b3f2eac>@@AEAV<lambda_dd75445284c072d0bd3768540cc698fa>@@$$QEAV<lambda_16bc4ecb55b4718497c16bceaea2ceaf>@@@Z@4HA 00000001800527c4 f   libucrt:output.obj
 0001:000517df       __acrt_update_thread_multibyte_data$fin$0 00000001800527df f   libucrt:mbctype.obj
 0001:000517f8       __acrt_uninitialize_locale$fin$0 00000001800527f8 f   libucrt:wsetlocale.obj
 0001:000517f8       __acrt_update_thread_locale_data$fin$0 00000001800527f8 f   libucrt:locale_refcounting.obj
 0001:00051811       ?fin$0@?0???$common_getenv_s@D@@YAHQEA_KQEAD_KQEBD@Z@4HA 0000000180052811 f   libucrt:getenv.obj
 0001:0005182a       _fcloseall$fin$0           000000018005282a f   libucrt:closeall.obj
 0001:00051843       ?fin$0@?0???$?RV<lambda_bfedae4ebbf01fab1bb6dcc6a9e276e0>@@AEAV<lambda_2fe9b910cf3cbf4a0ab98a02ba45b3ec>@@V<lambda_237c231691f317818eb88cc1d5d642d6>@@@?$__crt_seh_guarded_call@H@@QEAAH$$QEAV<lambda_bfedae4ebbf01fab1bb6dcc6a9e276e0>@@AEAV<lambda_2fe9b910cf3cbf4a0ab98a02ba45b3ec>@@$$QEAV<lambda_237c231691f317818eb88cc1d5d642d6>@@@Z@4HA 0000000180052843 f   libucrt:close.obj
 0001:00051843       ?fin$0@?0???$?RV<lambda_b521505b218e5242e90febf6bfebc422>@@AEAV<lambda_6978c1fb23f02e42e1d9e99668cc68aa>@@V<lambda_314360699dd331753a4119843814e9a7>@@@?$__crt_seh_guarded_call@H@@QEAAH$$QEAV<lambda_b521505b218e5242e90febf6bfebc422>@@AEAV<lambda_6978c1fb23f02e42e1d9e99668cc68aa>@@$$QEAV<lambda_314360699dd331753a4119843814e9a7>@@@Z@4HA 0000000180052843 f   libucrt:commit.obj
 0001:0005185d       _write$fin$0               000000018005285d f   libucrt:write.obj
 0001:0005185d       ?fin$0@?0???$common_lseek@_J@@YA_JH_JH@Z@4HA 000000018005285d f   libucrt:lseek.obj
 0001:00051874       fflush$fin$0               0000000180052874 f   libucrt:fflush.obj
 0001:00051874       fclose$fin$0               0000000180052874 f   libucrt:fclose.obj
 0001:00051890       _IsNonwritableInCurrentImage$filt$0 0000000180052890 f   LIBCMT:pesect.obj
 0001:000518b0       ??__F?constructor@S7Client@node_snap7@@0V?$Persistent@VFunctionTemplate@v8@@V?$NonCopyablePersistentTraits@VFunctionTemplate@v8@@@2@@Nan@@A@@YAXXZ 00000001800528b0 f   node_snap7_client.obj
 0001:000518d0       ??__FSocketsLayerInitializer@@YAXXZ 00000001800528d0 f   snap7:snap_msgsock.obj
 0001:000518fc       ??__Finitlocks@std@@YAXXZ  00000001800528fc f   libcpmt:xlock.obj
 0001:00051908       ??__F_Fac_tidy_reg@std@@YAXXZ 0000000180052908 f   libcpmt:locale0.obj
 0001:00051934       ??__Fclassic_locale@std@@YAXXZ 0000000180052934 f   libcpmt:locale0.obj
 0001:00051994       ??__Finit_atexit@@YAXXZ    0000000180052994 f   libcpmt:iosptrs.obj
 0001:000519e8       ??__Finitlocks@std@@YAXXZ  00000001800529e8 f   libcpmt:iosptrs.obj
 0002:000003f8       ?initlocks$initializer$@std@@3P6AXXZEA 00000001800533f8     libcpmt:xlock.obj
 0002:00000400       ?initlocks$initializer$@std@@3P6AXXZEA 0000000180053400     libcpmt:iosptrs.obj
 0002:00000408       ?init_atexit$initializer$@@3P6AXXZEA 0000000180053408     libcpmt:iosptrs.obj
 0002:00000410       ?_Fac_tidy_reg$initializer$@std@@3P6AXXZEA 0000000180053410     libcpmt:locale0.obj
 0002:00000418       ?classic_locale$initializer$@std@@3P6AXXZEA 0000000180053418     libcpmt:locale0.obj
 0002:00000428       ??constructor$initializer$@S7Client@node_snap7@@0P6AXXZEA@@3P6AXXZEA 0000000180053428     node_snap7_client.obj
 0002:00000430       ?SocketsLayerInitializer$initializer$@@3P6AXXZEA 0000000180053430     snap7:snap_msgsock.obj
 0002:00000448       ?pinit@@3P6AHXZEA          0000000180053448     libcpmt:winapisupp.obj
 0002:00000450       ?__scrt_initialize_tss_var@@3P6AHXZEA 0000000180053450     LIBCMT:thread_safe_statics.obj
 0002:000004e0       $cppxdata$??_G_Fac_node@std@@QEAAPEAXI@Z 00000001800534e0     libcpmt:locale0.obj
 0002:00000508       $cppxdata$?_Locimp_dtor@_Locimp@locale@std@@CAXPEAV123@@Z 0000000180053508     libcpmt:locale0.obj
 0002:00000530       $cppxdata$??_G_Locimp@locale@std@@MEAAPEAXI@Z 0000000180053530     libcpmt:locale0.obj
 0002:00000558       $cppxdata$?_Init@locale@std@@CAPEAV_Locimp@12@_N@Z 0000000180053558     libcpmt:locale0.obj
 0002:00000580       $cppxdata$??__Fclassic_locale@std@@YAXXZ 0000000180053580     libcpmt:locale0.obj
 0002:000006b0       ?_Win_errtab@std@@3QBU_Win_errtab_t@1@B 00000001800536b0     libcpmt:syserror.obj
 0002:00000900       ?_Sys_errtab@std@@3QBU_Sys_errtab_t@1@B 0000000180053900     libcpmt:syserror.obj
 0002:000014a0       $cppxdata$??__Finit_atexit@@YAXXZ 00000001800544a0     libcpmt:iosptrs.obj
 0002:000019f0       digits                     00000001800549f0     libcpmt:xstoul.obj
 0002:00001a18       ndigs                      0000000180054a18     libcpmt:xstoul.obj
 0002:00001a40       digits                     0000000180054a40     libcpmt:xstoull.obj
 0002:00001a68       ndigs                      0000000180054a68     libcpmt:xstoull.obj
 0002:000020c0       ?LcidToLocaleNameTable@@3QBULcidToLocaleName@@B 00000001800550c0     libcpmt:winapinls.obj
 0002:00002f00       ?LocaleNameToIndexTable@@3QBULocaleNameIndex@@B 0000000180055f00     libcpmt:winapinls.obj
 0002:00004de8       GS_ExceptionPointers       0000000180057de8     LIBCMT:gs_report.obj
 0002:00004e60       ?ExceptionTemplate@?1??_UnwindNestedFrames@@9@4U_EXCEPTION_RECORD@@B 0000000180057e60     libvcruntime:trnsctrl.obj
 0002:00004f00       ?ExceptionTemplate@?1??_CxxThrowException@@9@4UEHExceptionRecord@@B 0000000180057f00     libvcruntime:throw.obj
 0002:00004f40       ?module_names@?A0x679b24ab@@3QBQEB_WB 0000000180057f40     libvcruntime:winapi_downlevel.obj
 0002:00005010       ?candidate_modules@?1??try_get_FlsAlloc@@YAP6AKP6AXPEAX@Z@ZXZ@4QBW4module_id@?A0x679b24ab@@B 0000000180058010     libvcruntime:winapi_downlevel.obj
 0002:00005018       ?candidate_modules@?1??try_get_FlsFree@@YAP6AHK@ZXZ@4QBW4module_id@?A0x679b24ab@@B 0000000180058018     libvcruntime:winapi_downlevel.obj
 0002:00005020       ?candidate_modules@?1??try_get_FlsGetValue@@YAP6APEAXK@ZXZ@4QBW4module_id@?A0x679b24ab@@B 0000000180058020     libvcruntime:winapi_downlevel.obj
 0002:00005028       ?candidate_modules@?1??try_get_FlsSetValue@@YAP6AHKPEAX@ZXZ@4QBW4module_id@?A0x679b24ab@@B 0000000180058028     libvcruntime:winapi_downlevel.obj
 0002:00005030       ?candidate_modules@?1??try_get_InitializeCriticalSectionEx@@YAP6AHPEAU_RTL_CRITICAL_SECTION@@KK@ZXZ@4QBW4module_id@?A0x679b24ab@@B 0000000180058030     libvcruntime:winapi_downlevel.obj
 0002:00005040       ?tokenTable@@3QBQEBDB      0000000180058040     libvcruntime:undname.obj
 0002:000050b0       ?nameTable@@3QBQEBDB       00000001800580b0     libvcruntime:undname.obj
 0002:00005338       ?rttiTable@@3QBQEBDB       0000000180058338     libvcruntime:undname.obj
 0002:00006590       errtable                   0000000180059590     libucrt:errno.obj
 0002:000070d0       __flag_x_one_y_snan        000000018005a0d0     libucrt:pow.obj
 0002:000070d4       __flag_x_zero_z_inf        000000018005a0d4     libucrt:pow.obj
 0002:000070d8       __flag_x_nan               000000018005a0d8     libucrt:pow.obj
 0002:000070dc       __flag_y_nan               000000018005a0dc     libucrt:pow.obj
 0002:000070e0       __flag_x_nan_y_nan         000000018005a0e0     libucrt:pow.obj
 0002:000070e4       __flag_x_neg_y_notint      000000018005a0e4     libucrt:pow.obj
 0002:000070e8       __flag_z_zero              000000018005a0e8     libucrt:pow.obj
 0002:000070ec       __flag_z_denormal          000000018005a0ec     libucrt:pow.obj
 0002:000070f0       __flag_z_inf               000000018005a0f0     libucrt:pow.obj
 0002:00007100       __ay_max_bound             000000018005a100     libucrt:pow.obj
 0002:00007108       __ay_min_bound             000000018005a108     libucrt:pow.obj
 0002:00007110       __sign_mask                000000018005a110     libucrt:pow.obj
 0002:00007118       __sign_and_exp_mask        000000018005a118     libucrt:pow.obj
 0002:00007120       __exp_mask                 000000018005a120     libucrt:pow.obj
 0002:00007128       __neg_inf                  000000018005a128     libucrt:pow.obj
 0002:00007130       __pos_inf                  000000018005a130     libucrt:pow.obj
 0002:00007138       __pos_one                  000000018005a138     libucrt:pow.obj
 0002:00007140       __pos_zero                 000000018005a140     libucrt:pow.obj
 0002:00007148       __exp_mant_mask            000000018005a148     libucrt:pow.obj
 0002:00007150       __mant_mask                000000018005a150     libucrt:pow.obj
 0002:00007158       __ind_pattern              000000018005a158     libucrt:pow.obj
 0002:00007160       __neg_qnan                 000000018005a160     libucrt:pow.obj
 0002:00007168       __qnan                     000000018005a168     libucrt:pow.obj
 0002:00007170       __qnan_set                 000000018005a170     libucrt:pow.obj
 0002:00007178       __neg_one                  000000018005a178     libucrt:pow.obj
 0002:00007180       __neg_zero                 000000018005a180     libucrt:pow.obj
 0002:00007188       __exp_shift                000000018005a188     libucrt:pow.obj
 0002:00007190       __exp_bias                 000000018005a190     libucrt:pow.obj
 0002:00007198       __exp_bias_m1              000000018005a198     libucrt:pow.obj
 0002:000071a0       __yexp_53                  000000018005a1a0     libucrt:pow.obj
 0002:000071a8       __mant_full                000000018005a1a8     libucrt:pow.obj
 0002:000071b0       __1_before_mant            000000018005a1b0     libucrt:pow.obj
 0002:000071b8       __mask_mant_all8           000000018005a1b8     libucrt:pow.obj
 0002:000071c0       __mask_mant9               000000018005a1c0     libucrt:pow.obj
 0002:000071d0       __real_fffffffff8000000    000000018005a1d0     libucrt:pow.obj
 0002:000071e0       __mask_8000000000000000    000000018005a1e0     libucrt:pow.obj
 0002:000071f0       __real_4090040000000000    000000018005a1f0     libucrt:pow.obj
 0002:00007200       __real_C090C80000000000    000000018005a200     libucrt:pow.obj
 0002:00007210       __real_ninf                000000018005a210     libucrt:pow.obj
 0002:00007220       __real_inf                 000000018005a220     libucrt:pow.obj
 0002:00007230       __real_nan                 000000018005a230     libucrt:pow.obj
 0002:00007240       __real_mant                000000018005a240     libucrt:pow.obj
 0002:00007250       __mask_1023                000000018005a250     libucrt:pow.obj
 0002:00007260       __mask_001                 000000018005a260     libucrt:pow.obj
 0002:00007270       __real_log2_lead           000000018005a270     libucrt:pow.obj
 0002:00007280       __real_log2_tail           000000018005a280     libucrt:pow.obj
 0002:00007290       __real_two                 000000018005a290     libucrt:pow.obj
 0002:000072a0       __real_one                 000000018005a2a0     libucrt:pow.obj
 0002:000072b0       __real_half                000000018005a2b0     libucrt:pow.obj
 0002:000072c0       __mask_100                 000000018005a2c0     libucrt:pow.obj
 0002:000072d0       __real_1_over_2            000000018005a2d0     libucrt:pow.obj
 0002:000072e0       __real_1_over_3            000000018005a2e0     libucrt:pow.obj
 0002:000072f0       __real_1_over_4            000000018005a2f0     libucrt:pow.obj
 0002:00007300       __real_1_over_5            000000018005a300     libucrt:pow.obj
 0002:00007310       __real_1_over_6            000000018005a310     libucrt:pow.obj
 0002:00007320       __real_1_over_7            000000018005a320     libucrt:pow.obj
 0002:00007330       __mask_1023_f              000000018005a330     libucrt:pow.obj
 0002:00007340       __mask_2045                000000018005a340     libucrt:pow.obj
 0002:00007350       __real_threshold           000000018005a350     libucrt:pow.obj
 0002:00007360       __real_notsign             000000018005a360     libucrt:pow.obj
 0002:00007370       __log_F_inv_head           000000018005a370     libucrt:pow.obj
 0002:00007b80       __log_F_inv_tail           000000018005ab80     libucrt:pow.obj
 0002:00008390       __denormal_threshold       000000018005b390     libucrt:pow.obj
 0002:000083a0       __enable_almost_inf        000000018005b3a0     libucrt:pow.obj
 0002:000083b0       __real_zero                000000018005b3b0     libucrt:pow.obj
 0002:000083c0       __real_smallest_denormal   000000018005b3c0     libucrt:pow.obj
 0002:000083d0       __denormal_tiny_threshold  000000018005b3d0     libucrt:pow.obj
 0002:000083e0       __real_p65536              000000018005b3e0     libucrt:pow.obj
 0002:000083f0       __real_m68800              000000018005b3f0     libucrt:pow.obj
 0002:00008400       __real_64_by_log2          000000018005b400     libucrt:pow.obj
 0002:00008410       __real_log2_by_64_head     000000018005b410     libucrt:pow.obj
 0002:00008420       __real_log2_by_64_tail     000000018005b420     libucrt:pow.obj
 0002:00008430       __real_1_by_720            000000018005b430     libucrt:pow.obj
 0002:00008440       __real_1_by_120            000000018005b440     libucrt:pow.obj
 0002:00008450       __real_1_by_24             000000018005b450     libucrt:pow.obj
 0002:00008460       __real_1_by_6              000000018005b460     libucrt:pow.obj
 0002:00008470       __real_1_by_2              000000018005b470     libucrt:pow.obj
 0002:00008480       __flag_x_one_y_snan        000000018005b480     libucrt:powf.obj
 0002:00008484       __flag_x_zero_z_inf        000000018005b484     libucrt:powf.obj
 0002:00008488       __flag_x_nan               000000018005b488     libucrt:powf.obj
 0002:0000848c       __flag_y_nan               000000018005b48c     libucrt:powf.obj
 0002:00008490       __flag_x_nan_y_nan         000000018005b490     libucrt:powf.obj
 0002:00008494       __flag_x_neg_y_notint      000000018005b494     libucrt:powf.obj
 0002:00008498       __flag_z_zero              000000018005b498     libucrt:powf.obj
 0002:0000849c       __flag_z_denormal          000000018005b49c     libucrt:powf.obj
 0002:000084a0       __flag_z_inf               000000018005b4a0     libucrt:powf.obj
 0002:000084a4       L__1_by_3                  000000018005b4a4     libucrt:powf.obj
 0002:000084ac       L__log2                    000000018005b4ac     libucrt:powf.obj
 0002:000084b4       L__max_exp_arg             000000018005b4b4     libucrt:powf.obj
 0002:000084bc       L__min_exp_arg             000000018005b4bc     libucrt:powf.obj
 0002:000084c4       L__real_log2_by_64         000000018005b4c4     libucrt:powf.obj
 0002:000084cc       L__1_by_6                  000000018005b4cc     libucrt:powf.obj
 0002:000084d4       L__real_threshold          000000018005b4d4     libucrt:powf.obj
 0002:000084dc       L__real_one                000000018005b4dc     libucrt:powf.obj
 0002:000084e4       L__real_two                000000018005b4e4     libucrt:powf.obj
 0002:000084ec       L__neg_zero                000000018005b4ec     libucrt:powf.obj
 0002:00008500       L__real_ca42               000000018005b500     libucrt:powf.obj
 0002:00008508       L__real_ca4                000000018005b508     libucrt:powf.obj
 0002:00008510       L__real_ca31               000000018005b510     libucrt:powf.obj
 0002:00008518       L__real_ca3                000000018005b518     libucrt:powf.obj
 0002:00008520       L__clear_sign              000000018005b520     libucrt:powf.obj
 0002:00008530       L__real_64_by_log2         000000018005b530     libucrt:powf.obj
 0002:00008540       L__1_by_2                  000000018005b540     libucrt:powf.obj
 0002:00008550       L__1023                    000000018005b550     libucrt:powf.obj
 0002:00008560       L__xexp_bits_xmantissa_bits 000000018005b560     libucrt:powf.obj
 0002:00008eb0       __acrt_initializers        000000018005beb0     libucrt:initialization.obj
 0002:00009180       _first_127char             000000018005c180     libucrt:wsetlocale.obj
 0002:000098a0       ?_names@?1??_get_fname@@9@9 000000018005c8a0     libucrt:fpexcept.obj
 0002:00009b50       module_names               000000018005cb50     libucrt:winapi_thunks.obj
 0002:0000a080       ?candidate_modules@?1??try_get_CompareStringEx@@YAP6AHPEB_WK0H0HPEAU_nlsversioninfo@@PEAX_J@ZXZ@4QBW4module_id@?A0x63058377@@B 000000018005d080     libucrt:winapi_thunks.obj
 0002:0000a088       ?candidate_modules@?1??try_get_EnumSystemLocalesEx@@YAP6AHP6AHPEA_WK_J@ZK1PEAX@ZXZ@4QBW4module_id@?A0x63058377@@B 000000018005d088     libucrt:winapi_thunks.obj
 0002:0000a0a8       ?candidate_modules@?1??try_get_FlsAlloc@@YAP6AKP6AXPEAX@Z@ZXZ@4QBW4module_id@?A0x63058377@@B 000000018005d0a8     libucrt:winapi_thunks.obj
 0002:0000a0b0       ?candidate_modules@?1??try_get_FlsFree@@YAP6AHK@ZXZ@4QBW4module_id@?A0x63058377@@B 000000018005d0b0     libucrt:winapi_thunks.obj
 0002:0000a0b8       ?candidate_modules@?1??try_get_FlsGetValue@@YAP6APEAXK@ZXZ@4QBW4module_id@?A0x63058377@@B 000000018005d0b8     libucrt:winapi_thunks.obj
 0002:0000a0c0       ?candidate_modules@?1??try_get_FlsSetValue@@YAP6AHKPEAX@ZXZ@4QBW4module_id@?A0x63058377@@B 000000018005d0c0     libucrt:winapi_thunks.obj
 0002:0000a0c8       ?candidate_modules@?1??try_get_GetActiveWindow@@YAP6APEAUHWND__@@XZXZ@4QBW4module_id@?A0x63058377@@B 000000018005d0c8     libucrt:winapi_thunks.obj
 0002:0000a0e0       ?candidate_modules@?1??try_get_GetCurrentPackageId@@YAP6AJPEAIPEAE@ZXZ@4QBW4module_id@?A0x63058377@@B 000000018005d0e0     libucrt:winapi_thunks.obj
 0002:0000a0e8       ?candidate_modules@?1??try_get_GetDateFormatEx@@YAP6AHPEB_WKPEBU_SYSTEMTIME@@0PEA_WH0@ZXZ@4QBW4module_id@?A0x63058377@@B 000000018005d0e8     libucrt:winapi_thunks.obj
 0002:0000a100       ?candidate_modules@?1??try_get_GetLastActivePopup@@YAP6APEAUHWND__@@PEAU2@@ZXZ@4QBW4module_id@?A0x63058377@@B 000000018005d100     libucrt:winapi_thunks.obj
 0002:0000a120       ?candidate_modules@?1??try_get_GetLocaleInfoEx@@YAP6AHPEB_WKPEA_WH@ZXZ@4QBW4module_id@?A0x63058377@@B 000000018005d120     libucrt:winapi_thunks.obj
 0002:0000a128       ?candidate_modules@?1??try_get_GetProcessWindowStation@@YAP6APEAUHWINSTA__@@XZXZ@4QBW4module_id@?A0x63058377@@B 000000018005d128     libucrt:winapi_thunks.obj
 0002:0000a148       ?candidate_modules@?1??try_get_GetSystemTimePreciseAsFileTime@@YAP6AXPEAU_FILETIME@@@ZXZ@4QBW4module_id@?A0x63058377@@B 000000018005d148     libucrt:winapi_thunks.obj
 0002:0000a150       ?candidate_modules@?1??try_get_GetTimeFormatEx@@YAP6AHPEB_WKPEBU_SYSTEMTIME@@0PEA_WH@ZXZ@4QBW4module_id@?A0x63058377@@B 000000018005d150     libucrt:winapi_thunks.obj
 0002:0000a168       ?candidate_modules@?1??try_get_GetUserDefaultLocaleName@@YAP6AHPEA_WH@ZXZ@4QBW4module_id@?A0x63058377@@B 000000018005d168     libucrt:winapi_thunks.obj
 0002:0000a190       ?candidate_modules@?1??try_get_GetUserObjectInformationW@@YAP6AHPEAXH0KPEAK@ZXZ@4QBW4module_id@?A0x63058377@@B 000000018005d190     libucrt:winapi_thunks.obj
 0002:0000a1b8       ?candidate_modules@?1??try_get_InitializeCriticalSectionEx@@YAP6AHPEAU_RTL_CRITICAL_SECTION@@KK@ZXZ@4QBW4module_id@?A0x63058377@@B 000000018005d1b8     libucrt:winapi_thunks.obj
 0002:0000a1c0       ?candidate_modules@?1??try_get_IsValidLocaleName@@YAP6AHPEB_W@ZXZ@4QBW4module_id@?A0x63058377@@B 000000018005d1c0     libucrt:winapi_thunks.obj
 0002:0000a1e0       ?candidate_modules@?1??try_get_LCMapStringEx@@YAP6AHPEB_WK0HPEA_WHPEAU_nlsversioninfo@@PEAX_J@ZXZ@4QBW4module_id@?A0x63058377@@B 000000018005d1e0     libucrt:winapi_thunks.obj
 0002:0000a1e8       ?candidate_modules@?1??try_get_LCIDToLocaleName@@YAP6AHKPEA_WHK@ZXZ@4QBW4module_id@?A0x63058377@@B 000000018005d1e8     libucrt:winapi_thunks.obj
 0002:0000a208       ?candidate_modules@?1??try_get_LocaleNameToLCID@@YAP6AKPEB_WK@ZXZ@4QBW4module_id@?A0x63058377@@B 000000018005d208     libucrt:winapi_thunks.obj
 0002:0000a228       ?candidate_modules@?1??try_get_MessageBoxA@@YAP6AHPEAUHWND__@@PEBD1I@ZXZ@4QBW4module_id@?A0x63058377@@B 000000018005d228     libucrt:winapi_thunks.obj
 0002:0000a240       ?candidate_modules@?1??try_get_MessageBoxW@@YAP6AHPEAUHWND__@@PEB_W1I@ZXZ@4QBW4module_id@?A0x63058377@@B 000000018005d240     libucrt:winapi_thunks.obj
 0002:0000c0a0       _mb_locale_names           000000018005f0a0     libucrt:mbctype.obj
 0002:0000d0b0       __real@433fffffffffffff    00000001800600b0     libucrt:fpsr.obj
 0002:0000d0b8       __real@c33fffffffffffff    00000001800600b8     libucrt:fpsr.obj
 0002:0000d0c0       LcidToLocaleNameTable      00000001800600c0     libucrt:lcidtoname_downlevel.obj
 0002:0000df00       LocaleNameToIndexTable     0000000180060f00     libucrt:lcidtoname_downlevel.obj
 0002:0000ed40       __real_ninf                0000000180061d40     libucrt:log10.obj
 0002:0000ed50       __real_inf                 0000000180061d50     libucrt:log10.obj
 0002:0000ed60       __real_neg_qnan            0000000180061d60     libucrt:log10.obj
 0002:0000ed70       __real_qnanbit             0000000180061d70     libucrt:log10.obj
 0002:0000ed80       __int_1023                 0000000180061d80     libucrt:log10.obj
 0002:0000ed90       __mask_001                 0000000180061d90     libucrt:log10.obj
 0002:0000eda0       __mask_mant                0000000180061da0     libucrt:log10.obj
 0002:0000edb0       __mask_mant_top8           0000000180061db0     libucrt:log10.obj
 0002:0000edc0       __mask_mant9               0000000180061dc0     libucrt:log10.obj
 0002:0000edd0       __real_log10_e             0000000180061dd0     libucrt:log10.obj
 0002:0000ede0       __real_log10_e_lead        0000000180061de0     libucrt:log10.obj
 0002:0000edf0       __real_log10_e_tail        0000000180061df0     libucrt:log10.obj
 0002:0000ee00       __real_log10_2_lead        0000000180061e00     libucrt:log10.obj
 0002:0000ee10       __real_log10_2_tail        0000000180061e10     libucrt:log10.obj
 0002:0000ee20       __real_two                 0000000180061e20     libucrt:log10.obj
 0002:0000ee30       __real_one                 0000000180061e30     libucrt:log10.obj
 0002:0000ee40       __real_half                0000000180061e40     libucrt:log10.obj
 0002:0000ee50       __mask_100                 0000000180061e50     libucrt:log10.obj
 0002:0000ee60       __real_1_over_512          0000000180061e60     libucrt:log10.obj
 0002:0000ee70       __real_1_over_2            0000000180061e70     libucrt:log10.obj
 0002:0000ee80       __real_1_over_3            0000000180061e80     libucrt:log10.obj
 0002:0000ee90       __real_1_over_4            0000000180061e90     libucrt:log10.obj
 0002:0000eea0       __real_1_over_5            0000000180061ea0     libucrt:log10.obj
 0002:0000eeb0       __real_1_over_6            0000000180061eb0     libucrt:log10.obj
 0002:0000eec0       __real_neg_1023            0000000180061ec0     libucrt:log10.obj
 0002:0000eed0       __mask_2045                0000000180061ed0     libucrt:log10.obj
 0002:0000eee0       __real_threshold           0000000180061ee0     libucrt:log10.obj
 0002:0000eef0       __real_near_one_lt         0000000180061ef0     libucrt:log10.obj
 0002:0000ef00       __real_near_one_gt         0000000180061f00     libucrt:log10.obj
 0002:0000ef10       __real_min_norm            0000000180061f10     libucrt:log10.obj
 0002:0000ef20       __real_notsign             0000000180061f20     libucrt:log10.obj
 0002:0000ef30       __real_ca1                 0000000180061f30     libucrt:log10.obj
 0002:0000ef40       __real_ca2                 0000000180061f40     libucrt:log10.obj
 0002:0000ef50       __real_ca3                 0000000180061f50     libucrt:log10.obj
 0002:0000ef60       __real_ca4                 0000000180061f60     libucrt:log10.obj
 0002:0000ef70       __mask_lower               0000000180061f70     libucrt:log10.obj
 0002:0000ef80       __flag_x_zero              0000000180061f80     libucrt:log10.obj
 0002:0000ef84       __flag_x_neg               0000000180061f84     libucrt:log10.obj
 0002:0000ef88       __flag_x_nan               0000000180061f88     libucrt:log10.obj
 0002:000114d0       ?BitMask@@3QBEB            00000001800644d0     snap7:s7_server.obj
 0002:000114d8       ?iphlpapi@@3PEBDEB         00000001800644d8     snap7:snap_msgsock.obj
 0002:000130e0       $cppxdata$Par_ErrorText    00000001800660e0     snap7:snap7_libmain.obj
 0002:00013108       $cppxdata$Cli_ErrorText    0000000180066108     snap7:snap7_libmain.obj
 0002:00013130       $cppxdata$Srv_ErrorText    0000000180066130     snap7:snap7_libmain.obj
 0002:00013158       $cppxdata$Srv_EventText    0000000180066158     snap7:snap7_libmain.obj
 0002:00013180       $cppxdata$?CloseWorker@TSnap7Partner@@AEAAXXZ 0000000180066180     snap7:s7_partner.obj
 0002:000131a8       $cppxdata$?Start@TConnectionServer@@IEAAHXZ 00000001800661a8     snap7:s7_partner.obj
 0002:000131d0       $cppxdata$?GetServer@TServersManager@@QEAAHIAEAPEAVTConnectionServer@@@Z 00000001800661d0     snap7:s7_partner.obj
 0002:000131f8       $cppxdata$?ServersManager_GetServer@@YAHIAEAPEAVTConnectionServer@@@Z 00000001800661f8     snap7:s7_partner.obj
 0002:00013220       $cppxdata$??0TSnap7Partner@@QEAA@_N@Z 0000000180066220     snap7:s7_partner.obj
 0002:00013248       $cppxdata$?DoCompletion@TSnap7Client@@IEAAXXZ 0000000180066248     snap7:s7_client.obj
 0002:00013270       $cppxdata$?CloseThread@TSnap7Client@@AEAAXXZ 0000000180066270     snap7:s7_client.obj
 0002:00013298       $cppxdata$??$?HDU?$char_traits@D@std@@V?$allocator@D@1@@std@@YA?AV?$basic_string@DU?$char_traits@D@std@@V?$allocator@D@2@@0@$$QEAV10@AEBV10@@Z 0000000180066298     snap7:s7_text.obj
 0002:000132c0       $cppxdata$??$?HDU?$char_traits@D@std@@V?$allocator@D@1@@std@@YA?AV?$basic_string@DU?$char_traits@D@std@@V?$allocator@D@2@@0@$$QEAV10@0@Z 00000001800662c0     snap7:s7_text.obj
 0002:000132e8       $cppxdata$??$?HDU?$char_traits@D@std@@V?$allocator@D@1@@std@@YA?AV?$basic_string@DU?$char_traits@D@std@@V?$allocator@D@2@@0@AEBV10@PEBD@Z 00000001800662e8     snap7:s7_text.obj
 0002:00013310       $cppxdata$??$?HDU?$char_traits@D@std@@V?$allocator@D@1@@std@@YA?AV?$basic_string@DU?$char_traits@D@std@@V?$allocator@D@2@@0@$$QEAV10@PEBD@Z 0000000180066310     snap7:s7_text.obj
 0002:00013338       $cppxdata$??$?HDU?$char_traits@D@std@@V?$allocator@D@1@@std@@YA?AV?$basic_string@DU?$char_traits@D@std@@V?$allocator@D@2@@0@PEBDAEBV10@@Z 0000000180066338     snap7:s7_text.obj
 0002:00013360       $cppxdata$??$?HDU?$char_traits@D@std@@V?$allocator@D@1@@std@@YA?AV?$basic_string@DU?$char_traits@D@std@@V?$allocator@D@2@@0@PEBD$$QEAV10@@Z 0000000180066360     snap7:s7_text.obj
 0002:00013388       $cppxdata$??4?$basic_string@DU?$char_traits@D@std@@V?$allocator@D@2@@std@@QEAAAEAV01@$$QEAV01@@Z 0000000180066388     snap7:s7_text.obj
 0002:000133b0       $cppxdata$?SecurityText@@YA?AV?$basic_string@DU?$char_traits@D@std@@V?$allocator@D@2@@std@@AEAUTSrvEvent@@@Z 00000001800663b0     snap7:s7_text.obj
 0002:000133d8       $cppxdata$?BlockInfoText@@YA?AV?$basic_string@DU?$char_traits@D@std@@V?$allocator@D@2@@std@@AEAUTSrvEvent@@@Z 00000001800663d8     snap7:s7_text.obj
 0002:00013400       $cppxdata$?StrBlockType@@YA?AV?$basic_string@DU?$char_traits@D@std@@V?$allocator@D@2@@std@@G@Z 0000000180066400     snap7:s7_text.obj
 0002:00013428       $cppxdata$?DownloadText@@YA?AV?$basic_string@DU?$char_traits@D@std@@V?$allocator@D@2@@std@@AEAUTSrvEvent@@@Z 0000000180066428     snap7:s7_text.obj
 0002:00013450       $cppxdata$?UploadText@@YA?AV?$basic_string@DU?$char_traits@D@std@@V?$allocator@D@2@@std@@AEAUTSrvEvent@@@Z 0000000180066450     snap7:s7_text.obj
 0002:00013478       $cppxdata$?ReadSZLText@@YA?AV?$basic_string@DU?$char_traits@D@std@@V?$allocator@D@2@@std@@AEAUTSrvEvent@@@Z 0000000180066478     snap7:s7_text.obj
 0002:000134a0       $cppxdata$?ClockText@@YA?AV?$basic_string@DU?$char_traits@D@std@@V?$allocator@D@2@@std@@G@Z 00000001800664a0     snap7:s7_text.obj
 0002:000134c8       $cppxdata$?ControlText@@YA?AV?$basic_string@DU?$char_traits@D@std@@V?$allocator@D@2@@std@@G@Z 00000001800664c8     snap7:s7_text.obj
 0002:000134f0       $cppxdata$?TxtDataResult@@YA?AV?$basic_string@DU?$char_traits@D@std@@V?$allocator@D@2@@std@@AEAUTSrvEvent@@@Z 00000001800664f0     snap7:s7_text.obj
 0002:00013518       $cppxdata$?TxtStartSize@@YA?AV?$basic_string@DU?$char_traits@D@std@@V?$allocator@D@2@@std@@AEAUTSrvEvent@@@Z 0000000180066518     snap7:s7_text.obj
