 node_snap7

 Timestamp is 5850b6f4 (Wed Dec 14 10:05:24 2016)

 Preferred load address is 0000000180000000

 Start         Length     Name                   Class
 0001:00000000 00000090H .text$di                CODE
 0001:00000090 000509c0H .text$mn                CODE
 0001:00050a50 00000020H .text$mn$00             CODE
 0001:00050a70 00000e40H .text$x                 CODE
 0001:000518b0 00000144H .text$yd                CODE
 0002:00000000 000003e0H .idata$5                DATA
 0002:000003e0 00000010H .00cfg                  DATA
 0002:000003f0 00000008H .CRT$XCA                DATA
 0002:000003f8 00000018H .CRT$XCC                DATA
 0002:00000410 00000010H .CRT$XCL                DATA
 0002:00000420 00000018H .CRT$XCU                DATA
 0002:00000438 00000008H .CRT$XCZ                DATA
 0002:00000440 00000008H .CRT$XIA                DATA
 0002:00000448 00000030H .CRT$XIC                DATA
 0002:00000478 00000008H .CRT$XIZ                DATA
 0002:00000480 00000008H .CRT$XLA                DATA
 0002:00000488 00000008H .CRT$XLZ                DATA
 0002:00000490 00000008H .CRT$XPA                DATA
 0002:00000498 00000010H .CRT$XPX                DATA
 0002:000004a8 00000008H .CRT$XPXA               DATA
 0002:000004b0 00000008H .CRT$XPZ                DATA
 0002:000004b8 00000008H .CRT$XTA                DATA
 0002:000004c0 00000010H .CRT$XTZ                DATA
 0002:000004d0 000135a8H .rdata                  DATA
 0002:00013a78 00000028H .rdata$T                DATA
 0002:00013aa0 00000884H .rdata$r                DATA
 0002:00014324 000004b4H .rdata$zzzdbg           DATA
 0002:000147d8 00000008H .rtc$IAA                DATA
 0002:000147e0 00000008H .rtc$IZZ                DATA
 0002:000147e8 00000008H .rtc$TAA                DATA
 0002:000147f0 00000010H .rtc$TZZ                DATA
 0002:00014800 000056b8H .xdata                  DATA
 0002:00019eb8 00000244H .xdata$x                DATA
 0002:0001a0fc 00000020H .didat$2                DATA
 0002:0001a11c 00000024H .didat$3                DATA
 0002:0001a140 00000268H .didat$4                DATA
 0002:0001a3a8 00001248H .didat$6                DATA
 0002:0001b5f0 00000270H .didat$7                DATA
 0002:0001b860 00000cd4H .edata                  DATA
 0002:0001c534 0000003cH .idata$2                DATA
 0002:0001c570 00000018H .idata$3                DATA
 0002:0001c588 000003e0H .idata$4                DATA
 0002:0001c968 0000077aH .idata$6                DATA
 0003:00000000 00003e20H .data                   DATA
 0003:00003e20 000002f0H .data$r                 DATA
 0003:00004110 00000270H .didat$5                DATA
 0003:00004380 00001a2cH .bss                    DATA
 0004:00000000 0000441cH .pdata                  DATA
 0005:00000000 000000b8H .gfids$x                DATA
 0005:000000b8 00000128H .gfids$y                DATA
 0006:00000000 00000004H .tls                    DATA
 0006:00000004 00000004H .tls$                   DATA
 0006:00000008 00000001H .tls$ZZZ                DATA
 0007:00000000 00000060H .rsrc$01                DATA
 0007:00000060 00000180H .rsrc$02                DATA

  Address         Publics by Value              Rva+Base               Lib:Object

 0000:00000000       __dynamic_value_reloc_table 0000000000000000     <absolute>
 0000:00000000       __guard_iat_count          0000000000000000     <absolute>
 0000:00000000       __guard_iat_table          0000000000000000     <absolute>
 0000:00000000       __guard_longjmp_table      0000000000000000     <absolute>
 0000:00000000       __guard_longjmp_count      0000000000000000     <absolute>
 0000:00000000       __guard_fids_count         0000000000000000     <absolute>
 0000:00000000       ___safe_se_handler_table   0000000000000000     <absolute>
 0000:00000000       ___safe_se_handler_count   0000000000000000     <absolute>
 0000:00000000       __guard_fids_table         0000000000000000     <absolute>
 0000:00000100       __guard_flags              0000000000000100     <absolute>
 0000:00000000       __ImageBase                0000000180000000     <linker-defined>
 0001:00000090       ?InitAll@node_snap7@@YAXV?$Local@VObject@v8@@@v8@@@Z 0000000180001090 f   node_snap7.obj
 0001:000000b0       __local_stdio_printf_options 00000001800010b0 f i node_snap7_client.obj
 0001:000000c0       sprintf_s                  00000001800010c0 f i node_snap7_client.obj
 0001:00000120       ?what@exception@stdext@@UEBAPEBDXZ 0000000180001120 f i node_snap7_client.obj
 0001:00000140       ?FragmentSkipped@TS7Worker@@MEAAXH@Z 0000000180001140 f i snap7:s7_server.obj
 0001:00000140       ?_Unlock@?$basic_streambuf@DU?$char_traits@D@std@@@std@@UEAAXXZ 0000000180001140 f i node_snap7_client.obj
 0001:00000140       ?IsoParsePDU@TIsoTcpSocket@@MEAAXUTIsoControlPDU@@@Z 0000000180001140 f i snap7:s7_isotcp.obj
 0001:00000140       ?_Lock@?$basic_streambuf@DU?$char_traits@D@std@@@std@@UEAAXXZ 0000000180001140 f i node_snap7_client.obj
 0001:00000140       __except_validate_context_record 0000000180001140 f i libvcruntime:jbcxrval.obj
 0001:00000140       ?_Doraise@exception@stdext@@MEBAXXZ 0000000180001140 f i node_snap7_client.obj
 0001:00000140       _guard_check_icall_nop     0000000180001140 f i LIBCMT:guard_support.obj
 0001:00000140       ?Execute@TSnapThread@@UEAAXXZ 0000000180001140 f i snap7:snap_threads.obj
 0001:00000140       ?imbue@?$basic_streambuf@DU?$char_traits@D@std@@@std@@MEAAXAEBVlocale@2@@Z 0000000180001140 f i node_snap7_client.obj
 0001:00000140       ?FragmentSkipped@TIsoTcpSocket@@MEAAXH@Z 0000000180001140 f i snap7:s7_isotcp.obj
 0001:00000150       ??_Eruntime_error@std@@UEAAPEAXI@Z 0000000180001150 f i * CIL library *:* CIL module *
 0001:00000150       ??_Eexception@stdext@@UEAAPEAXI@Z 0000000180001150 f i * CIL library *:* CIL module *
 0001:00000150       ??_Gruntime_error@std@@UEAAPEAXI@Z 0000000180001150 f i node_snap7_client.obj
 0001:00000150       ??_Gexception@stdext@@UEAAPEAXI@Z 0000000180001150 f i node_snap7_client.obj
 0001:00000180       ?_Doraise@runtime_error@std@@MEBAXXZ 0000000180001180 f i node_snap7_client.obj
 0001:00000180       ?_Doraise@failure@ios_base@std@@MEBAXXZ 0000000180001180 f i node_snap7_client.obj
 0001:000001a0       ??0_Locinfo@std@@QEAA@PEBD@Z 00000001800011a0 f i node_snap7_client.obj
 0001:00000260       ??1_Locinfo@std@@QEAA@XZ   0000000180001260 f i node_snap7_client.obj
 0001:00000300       ??_E_Facet_base@std@@UEAAPEAXI@Z 0000000180001300 f i * CIL library *:* CIL module *
 0001:00000300       ??_G_Facet_base@std@@UEAAPEAXI@Z 0000000180001300 f i node_snap7_client.obj
 0001:00000330       ?_Incref@facet@locale@std@@UEAAXXZ 0000000180001330 f i node_snap7_client.obj
 0001:00000340       ?_Decref@facet@locale@std@@UEAAPEAV_Facet_base@3@XZ 0000000180001340 f i node_snap7_client.obj
 0001:00000350       ?_Getcat@?$ctype@D@std@@SA_KPEAPEBVfacet@locale@2@PEBV42@@Z 0000000180001350 f i node_snap7_client.obj
 0001:00000410       ?do_tolower@?$ctype@D@std@@MEBADD@Z 0000000180001410 f i node_snap7_client.obj
 0001:00000420       ?do_tolower@?$ctype@D@std@@MEBAPEBDPEADPEBD@Z 0000000180001420 f i node_snap7_client.obj
 0001:00000480       ?do_toupper@?$ctype@D@std@@MEBADD@Z 0000000180001480 f i node_snap7_client.obj
 0001:00000490       ?do_toupper@?$ctype@D@std@@MEBAPEBDPEADPEBD@Z 0000000180001490 f i node_snap7_client.obj
 0001:000004f0       ?do_widen@?$ctype@D@std@@MEBADD@Z 00000001800014f0 f i node_snap7_client.obj
 0001:000004f0       ?do_narrow@?$ctype@D@std@@MEBADDD@Z 00000001800014f0 f i node_snap7_client.obj
 0001:00000500       ?do_widen@?$ctype@D@std@@MEBAPEBDPEBD0PEAD@Z 0000000180001500 f i node_snap7_client.obj
 0001:00000520       ?do_narrow@?$ctype@D@std@@MEBAPEBDPEBD0DPEAD@Z 0000000180001520 f i node_snap7_client.obj
 0001:00000540       ??_E?$ctype@D@std@@MEAAPEAXI@Z 0000000180001540 f i * CIL library *:* CIL module *
 0001:00000540       ??_G?$ctype@D@std@@MEAAPEAXI@Z 0000000180001540 f i node_snap7_client.obj
 0001:000005b0       ??_G_Iostream_error_category@std@@UEAAPEAXI@Z 00000001800015b0 f i node_snap7_client.obj
 0001:000005b0       ??_E_Iostream_error_category@std@@UEAAPEAXI@Z 00000001800015b0 f i * CIL library *:* CIL module *
 0001:000005b0       ??_Eerror_category@std@@UEAAPEAXI@Z 00000001800015b0 f i * CIL library *:* CIL module *
 0001:000005b0       ??_Gerror_category@std@@UEAAPEAXI@Z 00000001800015b0 f i node_snap7_client.obj
 0001:000005e0       ?default_error_condition@error_category@std@@UEBA?AVerror_condition@2@H@Z 00000001800015e0 f i node_snap7_client.obj
 0001:000005f0       ?equivalent@error_category@std@@UEBA_NHAEBVerror_condition@2@@Z 00000001800015f0 f i node_snap7_client.obj
 0001:00000610       ?equivalent@error_category@std@@UEBA_NAEBVerror_code@2@H@Z 0000000180001610 f i node_snap7_client.obj
 0001:00000630       ?_Makestr@_System_error@std@@CA?AV?$basic_string@DU?$char_traits@D@std@@V?$allocator@D@2@@2@Verror_code@2@V32@@Z 0000000180001630 f i node_snap7_client.obj
 0001:00000730       ??_G_System_error@std@@UEAAPEAXI@Z 0000000180001730 f i node_snap7_client.obj
 0001:00000730       ??_E_System_error@std@@UEAAPEAXI@Z 0000000180001730 f i * CIL library *:* CIL module *
 0001:00000730       ??_Gfailure@ios_base@std@@UEAAPEAXI@Z 0000000180001730 f i node_snap7_client.obj
 0001:00000730       ??_Efailure@ios_base@std@@UEAAPEAXI@Z 0000000180001730 f i * CIL library *:* CIL module *
 0001:00000760       ?name@_Iostream_error_category@std@@UEBAPEBDXZ 0000000180001760 f i node_snap7_client.obj
 0001:00000770       ?message@_Iostream_error_category@std@@UEBA?AV?$basic_string@DU?$char_traits@D@std@@V?$allocator@D@2@@2@H@Z 0000000180001770 f i node_snap7_client.obj
 0001:000007f0       ?clear@ios_base@std@@QEAAXH_N@Z 00000001800017f0 f i node_snap7_client.obj
 0001:00000d30       ??_Gios_base@std@@UEAAPEAXI@Z 0000000180001d30 f i node_snap7_client.obj
 0001:00000d30       ??_Eios_base@std@@UEAAPEAXI@Z 0000000180001d30 f i * CIL library *:* CIL module *
 0001:00000e20       ?New@?$Factory@VFunctionTemplate@v8@@@imp@Nan@@SA?AV?$Local@VFunctionTemplate@v8@@@v8@@P6AXAEBV?$FunctionCallbackInfo@VValue@v8@@@3@@ZV?$Local@VValue@v8@@@5@V?$Local@VSignature@v8@@@5@@Z 0000000180001e20 f i node_snap7_client.obj
 0001:00000fb0       ?ThrowTypeError@Nan@@YAXPEBD@Z 0000000180001fb0 f i node_snap7_client.obj
 0001:00001040       ??0Utf8String@Nan@@QEAA@V?$Local@VValue@v8@@@v8@@@Z 0000000180002040 f i node_snap7_client.obj
 0001:00001130       ??0Callback@Nan@@QEAA@AEBV?$Local@VFunction@v8@@@v8@@@Z 0000000180002130 f i node_snap7_client.obj
 0001:000011e0       ?SetFunction@Callback@Nan@@QEAAXAEBV?$Local@VFunction@v8@@@v8@@@Z 00000001800021e0 f i node_snap7_client.obj
 0001:00001270       ??0AsyncWorker@Nan@@QEAA@PEAVCallback@1@@Z 0000000180002270 f i node_snap7_client.obj
 0001:00001330       ??1AsyncWorker@Nan@@UEAA@XZ 0000000180002330 f i node_snap7_client.obj
 0001:000013e0       ?WorkComplete@AsyncWorker@Nan@@UEAAXXZ 00000001800023e0 f i node_snap7_client.obj
 0001:00001470       ?Destroy@AsyncWorker@Nan@@UEAAXXZ 0000000180002470 f i node_snap7_client.obj
 0001:00001490       ?HandleOKCallback@AsyncWorker@Nan@@MEAAXXZ 0000000180002490 f i node_snap7_client.obj
 0001:00001550       ?HandleErrorCallback@AsyncWorker@Nan@@MEAAXXZ 0000000180002550 f i node_snap7_client.obj
 0001:000016a0       ??_EAsyncWorker@Nan@@UEAAPEAXI@Z 00000001800026a0 f i * CIL library *:* CIL module *
 0001:000016a0       ??_GAsyncWorker@Nan@@UEAAPEAXI@Z 00000001800026a0 f i node_snap7_client.obj
 0001:000016e0       ?AsyncExecute@Nan@@YAXPEAUuv_work_s@@@Z 00000001800026e0 f i node_snap7_client.obj
 0001:000016f0       ?AsyncExecuteComplete@Nan@@YAXPEAUuv_work_s@@@Z 00000001800026f0 f i node_snap7_client.obj
 0001:00001730       ?AsyncQueueWorker@Nan@@YAXPEAVAsyncWorker@1@@Z 0000000180002730 f i node_snap7_client.obj
 0001:00001760       ?SetPrototypeMethod@Nan@@YAXV?$Local@VFunctionTemplate@v8@@@v8@@PEBDP6AXAEBV?$FunctionCallbackInfo@VValue@v8@@@1@@Z@Z 0000000180002760 f i node_snap7_client.obj
 0001:00001850       ??1ObjectWrap@Nan@@UEAA@XZ 0000000180002850 f i node_snap7_client.obj
 0001:000018c0       ?Wrap@ObjectWrap@Nan@@IEAAXV?$Local@VObject@v8@@@v8@@@Z 00000001800028c0 f i node_snap7_client.obj
 0001:000019a0       ?Ref@ObjectWrap@Nan@@MEAAXXZ 00000001800029a0 f i node_snap7_client.obj
 0001:000019e0       ?Unref@ObjectWrap@Nan@@MEAAXXZ 00000001800029e0 f i node_snap7_client.obj
 0001:00001a90       ?WeakCallback@ObjectWrap@Nan@@CAXAEBV?$WeakCallbackInfo@VObjectWrap@Nan@@@v8@@@Z 0000000180002a90 f i node_snap7_client.obj
 0001:00001b20       ??_GObjectWrap@Nan@@UEAAPEAXI@Z 0000000180002b20 f i node_snap7_client.obj
 0001:00001b20       ??_EObjectWrap@Nan@@UEAAPEAXI@Z 0000000180002b20 f i * CIL library *:* CIL module *
 0001:00001b60       ??0IOWorker@node_snap7@@QEAA@PEAVCallback@Nan@@PEAVS7Client@1@W4DataIOFunction@1@PEAXHH@Z 0000000180002b60 f i node_snap7_client.obj
 0001:00001bd0       ??0IOWorker@node_snap7@@QEAA@PEAVCallback@Nan@@PEAVS7Client@1@W4DataIOFunction@1@PEAXHHH@Z 0000000180002bd0 f i node_snap7_client.obj
 0001:00001c50       ??0IOWorker@node_snap7@@QEAA@PEAVCallback@Nan@@PEAVS7Client@1@W4DataIOFunction@1@PEAXHHHHH@Z 0000000180002c50 f i node_snap7_client.obj
 0001:00001ce0       ??_GIOWorker@node_snap7@@UEAAPEAXI@Z 0000000180002ce0 f i node_snap7_client.obj
 0001:00001ce0       ??_EIOWorker@node_snap7@@UEAAPEAXI@Z 0000000180002ce0 f i * CIL library *:* CIL module *
 0001:00001d20       ?Init@S7Client@node_snap7@@SAXV?$Local@VObject@v8@@@v8@@@Z 0000000180002d20 f   node_snap7_client.obj
 0001:00005eb0       ?New@S7Client@node_snap7@@SAXAEBV?$FunctionCallbackInfo@VValue@v8@@@Nan@@@Z 0000000180006eb0 f   node_snap7_client.obj
 0001:00005fd0       ??_GS7Client@node_snap7@@EEAAPEAXI@Z 0000000180006fd0 f i node_snap7_client.obj
 0001:00005fd0       ??_ES7Client@node_snap7@@EEAAPEAXI@Z 0000000180006fd0 f i * CIL library *:* CIL module *
 0001:00006010       ??1S7Client@node_snap7@@EEAA@XZ 0000000180007010 f   node_snap7_client.obj
 0001:000060e0       ?GetByteCountFromWordLen@S7Client@node_snap7@@SAHH@Z 00000001800070e0 f   node_snap7_client.obj
 0001:00006150       ?FreeCallback@S7Client@node_snap7@@SAXPEADPEAX@Z 0000000180007150 f   node_snap7_client.obj
 0001:00006160       ?FreeCallbackSZL@S7Client@node_snap7@@SAXPEADPEAX@Z 0000000180007160 f   node_snap7_client.obj
 0001:00006170       ?Connect@S7Client@node_snap7@@SAXAEBV?$FunctionCallbackInfo@VValue@v8@@@Nan@@@Z 0000000180007170 f   node_snap7_client.obj
 0001:000063b0       ?ConnectTo@S7Client@node_snap7@@SAXAEBV?$FunctionCallbackInfo@VValue@v8@@@Nan@@@Z 00000001800073b0 f   node_snap7_client.obj
 0001:000066b0       ??_GUtf8String@Nan@@QEAAPEAXI@Z 00000001800076b0 f i node_snap7_client.obj
 0001:000066f0       ?SetConnectionParams@S7Client@node_snap7@@SAXAEBV?$FunctionCallbackInfo@VValue@v8@@@Nan@@@Z 00000001800076f0 f   node_snap7_client.obj
 0001:000068f0       ?SetConnectionType@S7Client@node_snap7@@SAXAEBV?$FunctionCallbackInfo@VValue@v8@@@Nan@@@Z 00000001800078f0 f   node_snap7_client.obj
 0001:000069d0       ?Disconnect@S7Client@node_snap7@@SAXAEBV?$FunctionCallbackInfo@VValue@v8@@@Nan@@@Z 00000001800079d0 f   node_snap7_client.obj
 0001:00006a90       ?GetParam@S7Client@node_snap7@@SAXAEBV?$FunctionCallbackInfo@VValue@v8@@@Nan@@@Z 0000000180007a90 f   node_snap7_client.obj
 0001:00006c80       ?SetParam@S7Client@node_snap7@@SAXAEBV?$FunctionCallbackInfo@VValue@v8@@@Nan@@@Z 0000000180007c80 f   node_snap7_client.obj
 0001:00006db0       ?Execute@IOWorker@node_snap7@@EEAAXXZ 0000000180007db0 f   node_snap7_client.obj
 0001:000073f0       ?HandleOKCallback@IOWorker@node_snap7@@EEAAXXZ 00000001800083f0 f   node_snap7_client.obj
 0001:00007bc0       ?ReadArea@S7Client@node_snap7@@SAXAEBV?$FunctionCallbackInfo@VValue@v8@@@Nan@@@Z 0000000180008bc0 f   node_snap7_client.obj
 0001:00008100       ?WriteArea@S7Client@node_snap7@@SAXAEBV?$FunctionCallbackInfo@VValue@v8@@@Nan@@@Z 0000000180009100 f   node_snap7_client.obj
 0001:000085c0       ?ReadMultiVars@S7Client@node_snap7@@SAXAEBV?$FunctionCallbackInfo@VValue@v8@@@Nan@@@Z 00000001800095c0 f   node_snap7_client.obj
 0001:000093f0       ?S7DataItemToArray@S7Client@node_snap7@@QEAA?AV?$Local@VArray@v8@@@v8@@PEAUTS7DataItem@@H_N@Z 000000018000a3f0 f   node_snap7_client.obj
 0001:000097a0       ?WriteMultiVars@S7Client@node_snap7@@SAXAEBV?$FunctionCallbackInfo@VValue@v8@@@Nan@@@Z 000000018000a7a0 f   node_snap7_client.obj
 0001:0000a6c0       ?ListBlocks@S7Client@node_snap7@@SAXAEBV?$FunctionCallbackInfo@VValue@v8@@@Nan@@@Z 000000018000b6c0 f   node_snap7_client.obj
 0001:0000a970       ?S7BlocksListToObject@S7Client@node_snap7@@QEAA?AV?$Local@VObject@v8@@@v8@@PEAUTS7BlocksList@@@Z 000000018000b970 f   node_snap7_client.obj
 0001:0000adc0       ?GetAgBlockInfo@S7Client@node_snap7@@SAXAEBV?$FunctionCallbackInfo@VValue@v8@@@Nan@@@Z 000000018000bdc0 f   node_snap7_client.obj
 0001:0000b080       ?GetPgBlockInfo@S7Client@node_snap7@@SAXAEBV?$FunctionCallbackInfo@VValue@v8@@@Nan@@@Z 000000018000c080 f   node_snap7_client.obj
 0001:0000b210       ?S7BlockInfoToObject@S7Client@node_snap7@@QEAA?AV?$Local@VObject@v8@@@v8@@PEAUTS7BlockInfo@@@Z 000000018000c210 f   node_snap7_client.obj
 0001:0000bb10       ?ListBlocksOfType@S7Client@node_snap7@@SAXAEBV?$FunctionCallbackInfo@VValue@v8@@@Nan@@@Z 000000018000cb10 f   node_snap7_client.obj
 0001:0000be30       ?S7BlocksOfTypeToArray@S7Client@node_snap7@@QEAA?AV?$Local@VArray@v8@@@v8@@PEAY0CAAA@GH@Z 000000018000ce30 f   node_snap7_client.obj
 0001:0000bf80       ?Upload@S7Client@node_snap7@@SAXAEBV?$FunctionCallbackInfo@VValue@v8@@@Nan@@@Z 000000018000cf80 f   node_snap7_client.obj
 0001:0000c380       ?FullUpload@S7Client@node_snap7@@SAXAEBV?$FunctionCallbackInfo@VValue@v8@@@Nan@@@Z 000000018000d380 f   node_snap7_client.obj
 0001:0000c780       ?Download@S7Client@node_snap7@@SAXAEBV?$FunctionCallbackInfo@VValue@v8@@@Nan@@@Z 000000018000d780 f   node_snap7_client.obj
 0001:0000ca40       ?Delete@S7Client@node_snap7@@SAXAEBV?$FunctionCallbackInfo@VValue@v8@@@Nan@@@Z 000000018000da40 f   node_snap7_client.obj
 0001:0000ccc0       ?DBGet@S7Client@node_snap7@@SAXAEBV?$FunctionCallbackInfo@VValue@v8@@@Nan@@@Z 000000018000dcc0 f   node_snap7_client.obj
 0001:0000d030       ?DBFill@S7Client@node_snap7@@SAXAEBV?$FunctionCallbackInfo@VValue@v8@@@Nan@@@Z 000000018000e030 f   node_snap7_client.obj
 0001:0000d370       ?GetPlcDateTime@S7Client@node_snap7@@SAXAEBV?$FunctionCallbackInfo@VValue@v8@@@Nan@@@Z 000000018000e370 f   node_snap7_client.obj
 0001:0000d640       ?SetPlcDateTime@S7Client@node_snap7@@SAXAEBV?$FunctionCallbackInfo@VValue@v8@@@Nan@@@Z 000000018000e640 f   node_snap7_client.obj
 0001:0000dcb0       ?SetPlcSystemDateTime@S7Client@node_snap7@@SAXAEBV?$FunctionCallbackInfo@VValue@v8@@@Nan@@@Z 000000018000ecb0 f   node_snap7_client.obj
 0001:0000def0       ?GetOrderCode@S7Client@node_snap7@@SAXAEBV?$FunctionCallbackInfo@VValue@v8@@@Nan@@@Z 000000018000eef0 f   node_snap7_client.obj
 0001:0000e1b0       ?S7OrderCodeToObject@S7Client@node_snap7@@QEAA?AV?$Local@VObject@v8@@@v8@@PEAUTS7OrderCode@@@Z 000000018000f1b0 f   node_snap7_client.obj
 0001:0000e470       ?GetCpuInfo@S7Client@node_snap7@@SAXAEBV?$FunctionCallbackInfo@VValue@v8@@@Nan@@@Z 000000018000f470 f   node_snap7_client.obj
 0001:0000e730       ?S7CpuInfoToObject@S7Client@node_snap7@@QEAA?AV?$Local@VObject@v8@@@v8@@PEAUTS7CpuInfo@@@Z 000000018000f730 f   node_snap7_client.obj
 0001:0000eab0       ?GetCpInfo@S7Client@node_snap7@@SAXAEBV?$FunctionCallbackInfo@VValue@v8@@@Nan@@@Z 000000018000fab0 f   node_snap7_client.obj
 0001:0000ed70       ?S7CpInfoToObject@S7Client@node_snap7@@QEAA?AV?$Local@VObject@v8@@@v8@@PEAUTS7CpInfo@@@Z 000000018000fd70 f   node_snap7_client.obj
 0001:0000f020       ?ReadSZL@S7Client@node_snap7@@SAXAEBV?$FunctionCallbackInfo@VValue@v8@@@Nan@@@Z 0000000180010020 f   node_snap7_client.obj
 0001:0000f4e0       ?ReadSZLList@S7Client@node_snap7@@SAXAEBV?$FunctionCallbackInfo@VValue@v8@@@Nan@@@Z 00000001800104e0 f   node_snap7_client.obj
 0001:0000f830       ?S7SZLListToArray@S7Client@node_snap7@@QEAA?AV?$Local@VArray@v8@@@v8@@PEAUTS7SZLList@@H@Z 0000000180010830 f   node_snap7_client.obj
 0001:0000f980       ?PlcHotStart@S7Client@node_snap7@@SAXAEBV?$FunctionCallbackInfo@VValue@v8@@@Nan@@@Z 0000000180010980 f   node_snap7_client.obj
 0001:0000fbb0       ?PlcColdStart@S7Client@node_snap7@@SAXAEBV?$FunctionCallbackInfo@VValue@v8@@@Nan@@@Z 0000000180010bb0 f   node_snap7_client.obj
 0001:0000fde0       ?PlcStop@S7Client@node_snap7@@SAXAEBV?$FunctionCallbackInfo@VValue@v8@@@Nan@@@Z 0000000180010de0 f   node_snap7_client.obj
 0001:00010010       ?CopyRamToRom@S7Client@node_snap7@@SAXAEBV?$FunctionCallbackInfo@VValue@v8@@@Nan@@@Z 0000000180011010 f   node_snap7_client.obj
 0001:00010200       ?Compress@S7Client@node_snap7@@SAXAEBV?$FunctionCallbackInfo@VValue@v8@@@Nan@@@Z 0000000180011200 f   node_snap7_client.obj
 0001:000103f0       ?GetProtection@S7Client@node_snap7@@SAXAEBV?$FunctionCallbackInfo@VValue@v8@@@Nan@@@Z 00000001800113f0 f   node_snap7_client.obj
 0001:000106b0       ?S7ProtectionToObject@S7Client@node_snap7@@QEAA?AV?$Local@VObject@v8@@@v8@@PEAUTS7Protection@@@Z 00000001800116b0 f   node_snap7_client.obj
 0001:000109f0       ?SetSessionPassword@S7Client@node_snap7@@SAXAEBV?$FunctionCallbackInfo@VValue@v8@@@Nan@@@Z 00000001800119f0 f   node_snap7_client.obj
 0001:00010c10       ?ClearSessionPassword@S7Client@node_snap7@@SAXAEBV?$FunctionCallbackInfo@VValue@v8@@@Nan@@@Z 0000000180011c10 f   node_snap7_client.obj
 0001:00010e40       ?ExecTime@S7Client@node_snap7@@SAXAEBV?$FunctionCallbackInfo@VValue@v8@@@Nan@@@Z 0000000180011e40 f   node_snap7_client.obj
 0001:00010f40       ?LastError@S7Client@node_snap7@@SAXAEBV?$FunctionCallbackInfo@VValue@v8@@@Nan@@@Z 0000000180011f40 f   node_snap7_client.obj
 0001:00011000       ?PDURequested@S7Client@node_snap7@@SAXAEBV?$FunctionCallbackInfo@VValue@v8@@@Nan@@@Z 0000000180012000 f   node_snap7_client.obj
 0001:00011100       ?PDULength@S7Client@node_snap7@@SAXAEBV?$FunctionCallbackInfo@VValue@v8@@@Nan@@@Z 0000000180012100 f   node_snap7_client.obj
 0001:00011200       ?PlcStatus@S7Client@node_snap7@@SAXAEBV?$FunctionCallbackInfo@VValue@v8@@@Nan@@@Z 0000000180012200 f   node_snap7_client.obj
 0001:000114e0       ?Connected@S7Client@node_snap7@@SAXAEBV?$FunctionCallbackInfo@VValue@v8@@@Nan@@@Z 00000001800124e0 f   node_snap7_client.obj
 0001:00011560       ?ErrorText@S7Client@node_snap7@@SAXAEBV?$FunctionCallbackInfo@VValue@v8@@@Nan@@@Z 0000000180012560 f   node_snap7_client.obj
 0001:00011710       ??1?$basic_string@DU?$char_traits@D@std@@V?$allocator@D@2@@std@@QEAA@XZ 0000000180012710 f i node_snap7_client.obj
 0001:000117a0       ??0?$basic_string@DU?$char_traits@D@std@@V?$allocator@D@2@@std@@QEAA@PEBD@Z 00000001800127a0 f i node_snap7_client.obj
 0001:000117e0       ??1?$basic_stringstream@DU?$char_traits@D@std@@V?$allocator@D@2@@std@@UEAA@XZ 00000001800127e0 f i node_snap7_client.obj
 0001:00011910       ??0?$basic_stringstream@DU?$char_traits@D@std@@V?$allocator@D@2@@std@@QEAA@H@Z 0000000180012910 f i node_snap7_client.obj
 0001:000119b0       ?seekpos@?$basic_stringbuf@DU?$char_traits@D@std@@V?$allocator@D@2@@std@@MEAA?AV?$fpos@U_Mbstatet@@@2@V32@H@Z 00000001800129b0 f i node_snap7_client.obj
 0001:00011ac0       ?seekoff@?$basic_stringbuf@DU?$char_traits@D@std@@V?$allocator@D@2@@std@@MEAA?AV?$fpos@U_Mbstatet@@@2@_JHH@Z 0000000180012ac0 f i node_snap7_client.obj
 0001:00011c50       ?underflow@?$basic_stringbuf@DU?$char_traits@D@std@@V?$allocator@D@2@@std@@MEAAHXZ 0000000180012c50 f i node_snap7_client.obj
 0001:00011cb0       ?pbackfail@?$basic_stringbuf@DU?$char_traits@D@std@@V?$allocator@D@2@@std@@MEAAHH@Z 0000000180012cb0 f i node_snap7_client.obj
 0001:00011d00       ?overflow@?$basic_stringbuf@DU?$char_traits@D@std@@V?$allocator@D@2@@std@@MEAAHH@Z 0000000180012d00 f i node_snap7_client.obj
 0001:00011f70       ??6?$basic_ostream@DU?$char_traits@D@std@@@std@@QEAAAEAV01@H@Z 0000000180012f70 f i node_snap7_client.obj
 0001:00012140       ?sync@?$basic_streambuf@DU?$char_traits@D@std@@@std@@MEAAHXZ 0000000180013140 f i node_snap7_client.obj
 0001:00012140       ?showmanyc@?$basic_streambuf@DU?$char_traits@D@std@@@std@@MEAA_JXZ 0000000180013140 f i node_snap7_client.obj
 0001:00012150       ?setbuf@?$basic_streambuf@DU?$char_traits@D@std@@@std@@MEAAPEAV12@PEAD_J@Z 0000000180013150 f i node_snap7_client.obj
 0001:00012160       ?seekoff@?$basic_streambuf@DU?$char_traits@D@std@@@std@@MEAA?AV?$fpos@U_Mbstatet@@@2@_JHH@Z 0000000180013160 f i node_snap7_client.obj
 0001:00012160       ?seekpos@?$basic_streambuf@DU?$char_traits@D@std@@@std@@MEAA?AV?$fpos@U_Mbstatet@@@2@V32@H@Z 0000000180013160 f i node_snap7_client.obj
 0001:00012180       ?xsputn@?$basic_streambuf@DU?$char_traits@D@std@@@std@@MEAA_JPEBD_J@Z 0000000180013180 f i node_snap7_client.obj
 0001:00012240       ?xsgetn@?$basic_streambuf@DU?$char_traits@D@std@@@std@@MEAA_JPEAD_J@Z 0000000180013240 f i node_snap7_client.obj
 0001:00012340       ?uflow@?$basic_streambuf@DU?$char_traits@D@std@@@std@@MEAAHXZ 0000000180013340 f i node_snap7_client.obj
 0001:00012380       ?pbackfail@?$basic_streambuf@DU?$char_traits@D@std@@@std@@MEAAHH@Z 0000000180013380 f i node_snap7_client.obj
 0001:00012380       ?overflow@?$basic_streambuf@DU?$char_traits@D@std@@@std@@MEAAHH@Z 0000000180013380 f i node_snap7_client.obj
 0001:00012380       ?underflow@?$basic_streambuf@DU?$char_traits@D@std@@@std@@MEAAHXZ 0000000180013380 f i node_snap7_client.obj
 0001:00012390       ??_E?$basic_stringstream@DU?$char_traits@D@std@@V?$allocator@D@2@@std@@UEAAPEAXI@Z 0000000180013390 f i * CIL library *:* CIL module *
 0001:00012390       ??_G?$basic_stringstream@DU?$char_traits@D@std@@V?$allocator@D@2@@std@@UEAAPEAXI@Z 0000000180013390 f i node_snap7_client.obj
 0001:000123e0       ??_G?$basic_stringbuf@DU?$char_traits@D@std@@V?$allocator@D@2@@std@@UEAAPEAXI@Z 00000001800133e0 f i node_snap7_client.obj
 0001:000123e0       ??_E?$basic_stringbuf@DU?$char_traits@D@std@@V?$allocator@D@2@@std@@UEAAPEAXI@Z 00000001800133e0 f i * CIL library *:* CIL module *
 0001:00012470       ??_E?$basic_iostream@DU?$char_traits@D@std@@@std@@UEAAPEAXI@Z 0000000180013470 f i * CIL library *:* CIL module *
 0001:00012470       ??_G?$basic_iostream@DU?$char_traits@D@std@@@std@@UEAAPEAXI@Z 0000000180013470 f i node_snap7_client.obj
 0001:000124b0       ??_E?$basic_ostream@DU?$char_traits@D@std@@@std@@UEAAPEAXI@Z 00000001800134b0 f i * CIL library *:* CIL module *
 0001:000124b0       ??_G?$basic_ostream@DU?$char_traits@D@std@@@std@@UEAAPEAXI@Z 00000001800134b0 f i node_snap7_client.obj
 0001:00012520       ??_G?$basic_istream@DU?$char_traits@D@std@@@std@@UEAAPEAXI@Z 0000000180013520 f i node_snap7_client.obj
 0001:00012520       ??_E?$basic_istream@DU?$char_traits@D@std@@@std@@UEAAPEAXI@Z 0000000180013520 f i * CIL library *:* CIL module *
 0001:00012590       ??_G?$basic_streambuf@DU?$char_traits@D@std@@@std@@UEAAPEAXI@Z 0000000180013590 f i node_snap7_client.obj
 0001:00012590       ??_E?$basic_streambuf@DU?$char_traits@D@std@@@std@@UEAAPEAXI@Z 0000000180013590 f i * CIL library *:* CIL module *
 0001:00012610       ??_Glocale@std@@QEAAPEAXI@Z 0000000180013610 f i node_snap7_client.obj
 0001:00012670       ??_E?$basic_ios@DU?$char_traits@D@std@@@std@@UEAAPEAXI@Z 0000000180013670 f i * CIL library *:* CIL module *
 0001:00012670       ??_G?$basic_ios@DU?$char_traits@D@std@@@std@@UEAAPEAXI@Z 0000000180013670 f i node_snap7_client.obj
 0001:000126b0       ??_D?$basic_iostream@DU?$char_traits@D@std@@@std@@QEAAXXZ 00000001800136b0 f i node_snap7_client.obj
 0001:00012740       ??0sentry@?$basic_ostream@DU?$char_traits@D@std@@@std@@QEAA@AEAV12@@Z 0000000180013740 f i node_snap7_client.obj
 0001:000127c0       ?do_put@?$num_put@DV?$ostreambuf_iterator@DU?$char_traits@D@std@@@std@@@std@@MEBA?AV?$ostreambuf_iterator@DU?$char_traits@D@std@@@2@V32@AEAVios_base@2@DPEBX@Z 00000001800137c0 f i node_snap7_client.obj
 0001:00012860       ?do_put@?$num_put@DV?$ostreambuf_iterator@DU?$char_traits@D@std@@@std@@@std@@MEBA?AV?$ostreambuf_iterator@DU?$char_traits@D@std@@@2@V32@AEAVios_base@2@DO@Z 0000000180013860 f i node_snap7_client.obj
 0001:00012ad0       ?do_put@?$num_put@DV?$ostreambuf_iterator@DU?$char_traits@D@std@@@std@@@std@@MEBA?AV?$ostreambuf_iterator@DU?$char_traits@D@std@@@2@V32@AEAVios_base@2@DN@Z 0000000180013ad0 f i node_snap7_client.obj
 0001:00012d40       ?do_put@?$num_put@DV?$ostreambuf_iterator@DU?$char_traits@D@std@@@std@@@std@@MEBA?AV?$ostreambuf_iterator@DU?$char_traits@D@std@@@2@V32@AEAVios_base@2@D_K@Z 0000000180013d40 f i node_snap7_client.obj
 0001:00012e40       ?do_put@?$num_put@DV?$ostreambuf_iterator@DU?$char_traits@D@std@@@std@@@std@@MEBA?AV?$ostreambuf_iterator@DU?$char_traits@D@std@@@2@V32@AEAVios_base@2@D_J@Z 0000000180013e40 f i node_snap7_client.obj
 0001:00012f40       ?do_put@?$num_put@DV?$ostreambuf_iterator@DU?$char_traits@D@std@@@std@@@std@@MEBA?AV?$ostreambuf_iterator@DU?$char_traits@D@std@@@2@V32@AEAVios_base@2@DK@Z 0000000180013f40 f i node_snap7_client.obj
 0001:00013040       ?do_put@?$num_put@DV?$ostreambuf_iterator@DU?$char_traits@D@std@@@std@@@std@@MEBA?AV?$ostreambuf_iterator@DU?$char_traits@D@std@@@2@V32@AEAVios_base@2@DJ@Z 0000000180014040 f i node_snap7_client.obj
 0001:00013140       ?do_put@?$num_put@DV?$ostreambuf_iterator@DU?$char_traits@D@std@@@std@@@std@@MEBA?AV?$ostreambuf_iterator@DU?$char_traits@D@std@@@2@V32@AEAVios_base@2@D_N@Z 0000000180014140 f i node_snap7_client.obj
 0001:00013600       ?_Tidy@?$basic_string@DU?$char_traits@D@std@@V?$allocator@D@2@@std@@QEAAX_N_K@Z 0000000180014600 f i node_snap7_client.obj
 0001:000136b0       ?assign@?$basic_string@DU?$char_traits@D@std@@V?$allocator@D@2@@std@@QEAAAEAV12@_KD@Z 00000001800146b0 f i node_snap7_client.obj
 0001:000137b0       ?assign@?$basic_string@DU?$char_traits@D@std@@V?$allocator@D@2@@std@@QEAAAEAV12@PEBD_K@Z 00000001800147b0 f i node_snap7_client.obj
 0001:000138e0       ?assign@?$basic_string@DU?$char_traits@D@std@@V?$allocator@D@2@@std@@QEAAAEAV12@AEBV12@_K1@Z 00000001800148e0 f i node_snap7_client.obj
 0001:00013a10       ?append@?$basic_string@DU?$char_traits@D@std@@V?$allocator@D@2@@std@@QEAAAEAV12@PEBD_K@Z 0000000180014a10 f i node_snap7_client.obj
 0001:00013b60       ?append@?$basic_string@DU?$char_traits@D@std@@V?$allocator@D@2@@std@@QEAAAEAV12@AEBV12@_K1@Z 0000000180014b60 f i node_snap7_client.obj
 0001:00013c90       ?_Assign_rv@?$basic_string@DU?$char_traits@D@std@@V?$allocator@D@2@@std@@QEAAX$$QEAV12@@Z 0000000180014c90 f i node_snap7_client.obj
 0001:00013d10       ?_Tidy@?$basic_stringbuf@DU?$char_traits@D@std@@V?$allocator@D@2@@std@@IEAAXXZ 0000000180014d10 f i node_snap7_client.obj
 0001:00013dd0       ?str@?$basic_stringbuf@DU?$char_traits@D@std@@V?$allocator@D@2@@std@@QEBA?AV?$basic_string@DU?$char_traits@D@std@@V?$allocator@D@2@@2@XZ 0000000180014dd0 f i node_snap7_client.obj
 0001:00013f60       ?allocate@?$allocator@D@std@@QEAAPEAD_K@Z 0000000180014f60 f i node_snap7_client.obj
 0001:00013fc0       ?deallocate@?$allocator@D@std@@QEAAXPEAD_K@Z 0000000180014fc0 f i node_snap7_client.obj
 0001:00014020       ??0?$basic_iostream@DU?$char_traits@D@std@@@std@@QEAA@PEAV?$basic_streambuf@DU?$char_traits@D@std@@@1@@Z 0000000180015020 f i node_snap7_client.obj
 0001:000140b0       ?_Pnavail@?$basic_streambuf@DU?$char_traits@D@std@@@std@@IEBA_JXZ 00000001800150b0 f i node_snap7_client.obj
 0001:000140d0       ?_Gnavail@?$basic_streambuf@DU?$char_traits@D@std@@@std@@IEBA_JXZ 00000001800150d0 f i node_snap7_client.obj
 0001:000140f0       ??_G?$num_put@DV?$ostreambuf_iterator@DU?$char_traits@D@std@@@std@@@std@@MEAAPEAXI@Z 00000001800150f0 f i node_snap7_client.obj
 0001:000140f0       ??_E?$num_put@DV?$ostreambuf_iterator@DU?$char_traits@D@std@@@std@@@std@@MEAAPEAXI@Z 00000001800150f0 f i * CIL library *:* CIL module *
 0001:00014120       ?do_truename@?$numpunct@D@std@@MEBA?AV?$basic_string@DU?$char_traits@D@std@@V?$allocator@D@2@@2@XZ 0000000180015120 f i node_snap7_client.obj
 0001:00014170       ?do_falsename@?$numpunct@D@std@@MEBA?AV?$basic_string@DU?$char_traits@D@std@@V?$allocator@D@2@@2@XZ 0000000180015170 f i node_snap7_client.obj
 0001:000141c0       ?do_grouping@?$numpunct@D@std@@MEBA?AV?$basic_string@DU?$char_traits@D@std@@V?$allocator@D@2@@2@XZ 00000001800151c0 f i node_snap7_client.obj
 0001:00014210       ?do_thousands_sep@?$numpunct@D@std@@MEBADXZ 0000000180015210 f i node_snap7_client.obj
 0001:00014220       ?do_decimal_point@?$numpunct@D@std@@MEBADXZ 0000000180015220 f i node_snap7_client.obj
 0001:00014230       ?_Iput@?$num_put@DV?$ostreambuf_iterator@DU?$char_traits@D@std@@@std@@@std@@AEBA?AV?$ostreambuf_iterator@DU?$char_traits@D@std@@@2@V32@AEAVios_base@2@DPEAD_K@Z 0000000180015230 f i node_snap7_client.obj
 0001:00014910       ?_Fput@?$num_put@DV?$ostreambuf_iterator@DU?$char_traits@D@std@@@std@@@std@@AEBA?AV?$ostreambuf_iterator@DU?$char_traits@D@std@@@2@V32@AEAVios_base@2@DPEBD_K@Z 0000000180015910 f i node_snap7_client.obj
 0001:00015170       ?erase@?$basic_string@DU?$char_traits@D@std@@V?$allocator@D@2@@std@@QEAAAEAV12@_K0@Z 0000000180016170 f i node_snap7_client.obj
 0001:00015240       ?append@?$basic_string@DU?$char_traits@D@std@@V?$allocator@D@2@@std@@QEAAAEAV12@_KD@Z 0000000180016240 f i node_snap7_client.obj
 0001:00015350       ?assign@?$basic_string@DU?$char_traits@D@std@@V?$allocator@D@2@@std@@QEAAAEAV12@$$QEAV12@@Z 0000000180016350 f i node_snap7_client.obj
 0001:00015400       ?flush@?$basic_ostream@DU?$char_traits@D@std@@@std@@QEAAAEAV12@XZ 0000000180016400 f i node_snap7_client.obj
 0001:00015520       ??0?$basic_streambuf@DU?$char_traits@D@std@@@std@@IEAA@XZ 0000000180016520 f i node_snap7_client.obj
 0001:000155c0       ??_E?$numpunct@D@std@@MEAAPEAXI@Z 00000001800165c0 f i * CIL library *:* CIL module *
 0001:000155c0       ??_G?$numpunct@D@std@@MEAAPEAXI@Z 00000001800165c0 f i node_snap7_client.obj
 0001:00015620       ?_Copy@?$basic_string@DU?$char_traits@D@std@@V?$allocator@D@2@@std@@QEAAX_K0@Z 0000000180016620 f i node_snap7_client.obj
 0001:000157a0       ?insert@?$basic_string@DU?$char_traits@D@std@@V?$allocator@D@2@@std@@QEAAAEAV12@_K0D@Z 00000001800167a0 f i node_snap7_client.obj
 0001:00015910       ?init@?$basic_ios@DU?$char_traits@D@std@@@std@@IEAAXPEAV?$basic_streambuf@DU?$char_traits@D@std@@@2@_N@Z 0000000180016910 f i node_snap7_client.obj
 0001:000159b0       ?widen@?$basic_ios@DU?$char_traits@D@std@@@std@@QEBADD@Z 00000001800169b0 f i node_snap7_client.obj
 0001:00015a30       ??$use_facet@V?$ctype@D@std@@@std@@YAAEBV?$ctype@D@0@AEBVlocale@0@@Z 0000000180016a30 f i node_snap7_client.obj
 0001:00015b60       ??$_Immortalize@V_Iostream_error_category@std@@@std@@YAAEAV_Iostream_error_category@0@XZ 0000000180016b60 f i node_snap7_client.obj
 0001:00015be0       ??$New@VInteger@v8@@I@Nan@@YA?AV?$Local@VInteger@v8@@@v8@@I@Z 0000000180016be0 f i node_snap7_client.obj
 0001:00015c60       ??$Unwrap@VS7Client@node_snap7@@@ObjectWrap@Nan@@SAPEAVS7Client@node_snap7@@V?$Local@VObject@v8@@@v8@@@Z 0000000180016c60 f i node_snap7_client.obj
 0001:00015ce0       ??$?6U?$char_traits@D@std@@@std@@YAAEAV?$basic_ostream@DU?$char_traits@D@std@@@0@AEAV10@PEBD@Z 0000000180016ce0 f i node_snap7_client.obj
 0001:00015f60       ??$use_facet@V?$num_put@DV?$ostreambuf_iterator@DU?$char_traits@D@std@@@std@@@std@@@std@@YAAEBV?$num_put@DV?$ostreambuf_iterator@DU?$char_traits@D@std@@@std@@@0@AEBVlocale@0@@Z 0000000180016f60 f i node_snap7_client.obj
 0001:00016090       ??$use_facet@V?$numpunct@D@std@@@std@@YAAEBV?$numpunct@D@0@AEBVlocale@0@@Z 0000000180017090 f i node_snap7_client.obj
 0001:000161c0       ?_Getcat@?$numpunct@D@std@@SA_KPEAPEBVfacet@locale@2@PEBV42@@Z 00000001800171c0 f i node_snap7_client.obj
 0001:00016280       ?_Getcat@?$num_put@DV?$ostreambuf_iterator@DU?$char_traits@D@std@@@std@@@std@@SA_KPEAPEBVfacet@locale@2@PEBV42@@Z 0000000180017280 f i node_snap7_client.obj
 0001:00016330       ?_Init@?$numpunct@D@std@@IEAAXAEBV_Locinfo@2@_N@Z 0000000180017330 f i node_snap7_client.obj
 0001:000164b0       ?New@?$IntegerFactory@VInteger@v8@@@imp@Nan@@SA?AV?$Local@VInteger@v8@@@v8@@H@Z 00000001800174b0 f i node_snap7_client.obj
 0001:00016528       ??_E?$basic_ostream@DU?$char_traits@D@std@@@std@@$4PPPPPPPM@A@EAAPEAXI@Z 0000000180017528 f i node_snap7_client.obj
 0001:00016534       ??_E?$basic_stringstream@DU?$char_traits@D@std@@V?$allocator@D@2@@std@@$4PPPPPPPM@A@EAAPEAXI@Z 0000000180017534 f i node_snap7_client.obj
 0001:00016540       ??_E?$basic_istream@DU?$char_traits@D@std@@@std@@$4PPPPPPPM@A@EAAPEAXI@Z 0000000180017540 f i node_snap7_client.obj
 0001:0001654c       ??_E?$basic_iostream@DU?$char_traits@D@std@@@std@@$4PPPPPPPM@A@EAAPEAXI@Z 000000018001754c f i node_snap7_client.obj
 0001:00016560       ?ConnectTo@TS7Client@@QEAAHPEBDHH@Z 0000000180017560 f   snap7.obj
 0001:000165c0       ?PlcStatus@TS7Client@@QEAAHXZ 00000001800175c0 f   snap7.obj
 0001:00016690       DllMain                    0000000180017690 f   snap7:snap7_libmain.obj
 0001:000166b0       Cli_Create                 00000001800176b0 f   snap7:snap7_libmain.obj
 0001:00016710       Cli_Destroy                0000000180017710 f   snap7:snap7_libmain.obj
 0001:00016710       Par_Destroy                0000000180017710 f   snap7:snap7_libmain.obj
 0001:00016740       Cli_SetConnectionParams    0000000180017740 f   snap7:snap7_libmain.obj
 0001:00016780       Cli_SetConnectionType      0000000180017780 f   snap7:snap7_libmain.obj
 0001:000167a0       Cli_ConnectTo              00000001800177a0 f   snap7:snap7_libmain.obj
 0001:00016800       Cli_Connect                0000000180017800 f   snap7:snap7_libmain.obj
 0001:00016810       Cli_Disconnect             0000000180017810 f   snap7:snap7_libmain.obj
 0001:00016870       Cli_GetParam               0000000180017870 f   snap7:snap7_libmain.obj
 0001:00016880       Cli_SetParam               0000000180017880 f   snap7:snap7_libmain.obj
 0001:00016890       Cli_SetAsCallback          0000000180017890 f   snap7:snap7_libmain.obj
 0001:000168b0       Cli_ReadArea               00000001800178b0 f   snap7:snap7_libmain.obj
 0001:000168c0       Cli_WriteArea              00000001800178c0 f   snap7:snap7_libmain.obj
 0001:000168d0       Cli_ReadMultiVars          00000001800178d0 f   snap7:snap7_libmain.obj
 0001:00016950       Cli_WriteMultiVars         0000000180017950 f   snap7:snap7_libmain.obj
 0001:000169d0       Cli_DBRead                 00000001800179d0 f   snap7:snap7_libmain.obj
 0001:000169e0       Cli_DBWrite                00000001800179e0 f   snap7:snap7_libmain.obj
 0001:000169f0       Cli_MBRead                 00000001800179f0 f   snap7:snap7_libmain.obj
 0001:00016a00       Cli_MBWrite                0000000180017a00 f   snap7:snap7_libmain.obj
 0001:00016a10       Cli_EBRead                 0000000180017a10 f   snap7:snap7_libmain.obj
 0001:00016a20       Cli_EBWrite                0000000180017a20 f   snap7:snap7_libmain.obj
 0001:00016a30       Cli_ABRead                 0000000180017a30 f   snap7:snap7_libmain.obj
 0001:00016a40       Cli_ABWrite                0000000180017a40 f   snap7:snap7_libmain.obj
 0001:00016a50       Cli_TMRead                 0000000180017a50 f   snap7:snap7_libmain.obj
 0001:00016a60       Cli_TMWrite                0000000180017a60 f   snap7:snap7_libmain.obj
 0001:00016a70       Cli_CTRead                 0000000180017a70 f   snap7:snap7_libmain.obj
 0001:00016a80       Cli_CTWrite                0000000180017a80 f   snap7:snap7_libmain.obj
 0001:00016a90       Cli_ListBlocks             0000000180017a90 f   snap7:snap7_libmain.obj
 0001:00016b10       Cli_GetAgBlockInfo         0000000180017b10 f   snap7:snap7_libmain.obj
 0001:00016ba0       Cli_GetPgBlockInfo         0000000180017ba0 f   snap7:snap7_libmain.obj
 0001:00016bb0       Cli_ListBlocksOfType       0000000180017bb0 f   snap7:snap7_libmain.obj
 0001:00016bc0       Cli_Upload                 0000000180017bc0 f   snap7:snap7_libmain.obj
 0001:00016bd0       Cli_FullUpload             0000000180017bd0 f   snap7:snap7_libmain.obj
 0001:00016be0       Cli_Download               0000000180017be0 f   snap7:snap7_libmain.obj
 0001:00016bf0       Cli_Delete                 0000000180017bf0 f   snap7:snap7_libmain.obj
 0001:00016c70       Cli_DBGet                  0000000180017c70 f   snap7:snap7_libmain.obj
 0001:00016c80       Cli_DBFill                 0000000180017c80 f   snap7:snap7_libmain.obj
 0001:00016d00       Cli_GetPlcDateTime         0000000180017d00 f   snap7:snap7_libmain.obj
 0001:00016d80       Cli_SetPlcDateTime         0000000180017d80 f   snap7:snap7_libmain.obj
 0001:00016e00       Cli_SetPlcSystemDateTime   0000000180017e00 f   snap7:snap7_libmain.obj
 0001:00016e10       Cli_GetOrderCode           0000000180017e10 f   snap7:snap7_libmain.obj
 0001:00016e90       Cli_GetCpuInfo             0000000180017e90 f   snap7:snap7_libmain.obj
 0001:00016f10       Cli_GetCpInfo              0000000180017f10 f   snap7:snap7_libmain.obj
 0001:00016f90       Cli_ReadSZL                0000000180017f90 f   snap7:snap7_libmain.obj
 0001:00016fa0       Cli_ReadSZLList            0000000180017fa0 f   snap7:snap7_libmain.obj
 0001:00017030       Cli_PlcHotStart            0000000180018030 f   snap7:snap7_libmain.obj
 0001:000170a0       Cli_PlcColdStart           00000001800180a0 f   snap7:snap7_libmain.obj
 0001:00017110       Cli_PlcStop                0000000180018110 f   snap7:snap7_libmain.obj
 0001:00017180       Cli_CopyRamToRom           0000000180018180 f   snap7:snap7_libmain.obj
 0001:00017190       Cli_AsCompress             0000000180018190 f   snap7:snap7_libmain.obj
 0001:00017190       Cli_Compress               0000000180018190 f   snap7:snap7_libmain.obj
 0001:000171a0       Cli_GetPlcStatus           00000001800181a0 f   snap7:snap7_libmain.obj
 0001:00017220       Cli_GetProtection          0000000180018220 f   snap7:snap7_libmain.obj
 0001:000172a0       Cli_SetSessionPassword     00000001800182a0 f   snap7:snap7_libmain.obj
 0001:000172b0       Cli_ClearSessionPassword   00000001800182b0 f   snap7:snap7_libmain.obj
 0001:00017320       Cli_IsoExchangeBuffer      0000000180018320 f   snap7:snap7_libmain.obj
 0001:00017390       Cli_GetExecTime            0000000180018390 f   snap7:snap7_libmain.obj
 0001:000173b0       Cli_GetLastError           00000001800183b0 f   snap7:snap7_libmain.obj
 0001:000173b0       Par_GetLastError           00000001800183b0 f   snap7:snap7_libmain.obj
 0001:000173d0       Cli_GetPduLength           00000001800183d0 f   snap7:snap7_libmain.obj
 0001:000173f0       Cli_ErrorText              00000001800183f0 f   snap7:snap7_libmain.obj
 0001:000174d0       Cli_GetConnected           00000001800184d0 f   snap7:snap7_libmain.obj
 0001:000174f0       Cli_AsReadArea             00000001800184f0 f   snap7:snap7_libmain.obj
 0001:00017500       Cli_AsWriteArea            0000000180018500 f   snap7:snap7_libmain.obj
 0001:00017510       Cli_AsDBRead               0000000180018510 f   snap7:snap7_libmain.obj
 0001:00017520       Cli_AsDBWrite              0000000180018520 f   snap7:snap7_libmain.obj
 0001:00017560       Cli_AsMBRead               0000000180018560 f   snap7:snap7_libmain.obj
 0001:00017570       Cli_AsMBWrite              0000000180018570 f   snap7:snap7_libmain.obj
 0001:000175b0       Cli_AsEBRead               00000001800185b0 f   snap7:snap7_libmain.obj
 0001:000175c0       Cli_AsEBWrite              00000001800185c0 f   snap7:snap7_libmain.obj
 0001:00017600       Cli_AsABRead               0000000180018600 f   snap7:snap7_libmain.obj
 0001:00017610       Cli_AsABWrite              0000000180018610 f   snap7:snap7_libmain.obj
 0001:00017650       Cli_AsTMRead               0000000180018650 f   snap7:snap7_libmain.obj
 0001:00017660       Cli_AsTMWrite              0000000180018660 f   snap7:snap7_libmain.obj
 0001:000176a0       Cli_AsCTRead               00000001800186a0 f   snap7:snap7_libmain.obj
 0001:000176b0       Cli_AsCTWrite              00000001800186b0 f   snap7:snap7_libmain.obj
 0001:000176f0       Cli_AsListBlocksOfType     00000001800186f0 f   snap7:snap7_libmain.obj
 0001:00017770       Cli_AsReadSZL              0000000180018770 f   snap7:snap7_libmain.obj
 0001:00017780       Cli_AsReadSZLList          0000000180018780 f   snap7:snap7_libmain.obj
 0001:00017810       Cli_AsUpload               0000000180018810 f   snap7:snap7_libmain.obj
 0001:00017820       Cli_AsFullUpload           0000000180018820 f   snap7:snap7_libmain.obj
 0001:00017830       Cli_AsDownload             0000000180018830 f   snap7:snap7_libmain.obj
 0001:00017840       Cli_AsCopyRamToRom         0000000180018840 f   snap7:snap7_libmain.obj
 0001:00017850       Cli_AsDBGet                0000000180018850 f   snap7:snap7_libmain.obj
 0001:00017860       Cli_AsDBFill               0000000180018860 f   snap7:snap7_libmain.obj
 0001:000178e0       Cli_CheckAsCompletion      00000001800188e0 f   snap7:snap7_libmain.obj
 0001:00017930       Cli_WaitAsCompletion       0000000180018930 f   snap7:snap7_libmain.obj
 0001:00017940       Srv_Create                 0000000180018940 f   snap7:snap7_libmain.obj
 0001:00017960       Srv_Destroy                0000000180018960 f   snap7:snap7_libmain.obj
 0001:00017990       Srv_GetParam               0000000180018990 f   snap7:snap7_libmain.obj
 0001:000179f0       Srv_SetParam               00000001800189f0 f   snap7:snap7_libmain.obj
 0001:00017a00       Srv_StartTo                0000000180018a00 f   snap7:snap7_libmain.obj
 0001:00017a50       Srv_Start                  0000000180018a50 f   snap7:snap7_libmain.obj
 0001:00017a60       Srv_Stop                   0000000180018a60 f   snap7:snap7_libmain.obj
 0001:00017a80       Srv_RegisterArea           0000000180018a80 f   snap7:snap7_libmain.obj
 0001:00017ab0       Srv_UnregisterArea         0000000180018ab0 f   snap7:snap7_libmain.obj
 0001:00017ae0       Srv_LockArea               0000000180018ae0 f   snap7:snap7_libmain.obj
 0001:00017af0       Srv_UnlockArea             0000000180018af0 f   snap7:snap7_libmain.obj
 0001:00017b00       Srv_GetStatus              0000000180018b00 f   snap7:snap7_libmain.obj
 0001:00017b30       Srv_SetCpuStatus           0000000180018b30 f   snap7:snap7_libmain.obj
 0001:00017b50       Srv_ErrorText              0000000180018b50 f   snap7:snap7_libmain.obj
 0001:00017c30       Srv_EventText              0000000180018c30 f   snap7:snap7_libmain.obj
 0001:00017d10       Srv_PickEvent              0000000180018d10 f   snap7:snap7_libmain.obj
 0001:00017d50       Srv_ClearEvents            0000000180018d50 f   snap7:snap7_libmain.obj
 0001:00017d90       Srv_GetMask                0000000180018d90 f   snap7:snap7_libmain.obj
 0001:00017dd0       Srv_SetMask                0000000180018dd0 f   snap7:snap7_libmain.obj
 0001:00017e00       Srv_SetEventsCallback      0000000180018e00 f   snap7:snap7_libmain.obj
 0001:00017e20       Srv_SetReadEventsCallback  0000000180018e20 f   snap7:snap7_libmain.obj
 0001:00017e40       Srv_SetRWAreaCallback      0000000180018e40 f   snap7:snap7_libmain.obj
 0001:00017e70       Par_Create                 0000000180018e70 f   snap7:snap7_libmain.obj
 0001:00017ea0       Par_GetParam               0000000180018ea0 f   snap7:snap7_libmain.obj
 0001:00017eb0       Par_SetParam               0000000180018eb0 f   snap7:snap7_libmain.obj
 0001:00017ec0       Par_StartTo                0000000180018ec0 f   snap7:snap7_libmain.obj
 0001:00017f30       Par_Start                  0000000180018f30 f   snap7:snap7_libmain.obj
 0001:00017f40       Par_Stop                   0000000180018f40 f   snap7:snap7_libmain.obj
 0001:00017f50       Par_BSend                  0000000180018f50 f   snap7:snap7_libmain.obj
 0001:00017f80       Par_AsBSend                0000000180018f80 f   snap7:snap7_libmain.obj
 0001:00017f90       Par_CheckAsBSendCompletion 0000000180018f90 f   snap7:snap7_libmain.obj
 0001:00017fe0       Par_WaitAsBSendCompletion  0000000180018fe0 f   snap7:snap7_libmain.obj
 0001:00017ff0       Par_SetSendCallback        0000000180018ff0 f   snap7:snap7_libmain.obj
 0001:00018010       Par_BRecv                  0000000180019010 f   snap7:snap7_libmain.obj
 0001:00018020       Par_CheckAsBRecvCompletion 0000000180019020 f   snap7:snap7_libmain.obj
 0001:00018050       Par_SetRecvCallback        0000000180019050 f   snap7:snap7_libmain.obj
 0001:00018070       Par_GetTimes               0000000180019070 f   snap7:snap7_libmain.obj
 0001:00018090       Par_GetStats               0000000180019090 f   snap7:snap7_libmain.obj
 0001:000180d0       Par_GetStatus              00000001800190d0 f   snap7:snap7_libmain.obj
 0001:00018150       Par_ErrorText              0000000180019150 f   snap7:snap7_libmain.obj
 0001:00018230       ??_ETConnListenerThread@@UEAAPEAXI@Z 0000000180019230 f i * CIL library *:* CIL module *
 0001:00018230       ??_ETMsgListenerThread@@UEAAPEAXI@Z 0000000180019230 f i * CIL library *:* CIL module *
 0001:00018230       ??_GTMsgListenerThread@@UEAAPEAXI@Z 0000000180019230 f i snap7:snap_tcpsrvr.obj
 0001:00018230       ??_GTPartnerThread@@UEAAPEAXI@Z 0000000180019230 f i snap7:s7_partner.obj
 0001:00018230       ??_ETPartnerThread@@UEAAPEAXI@Z 0000000180019230 f i * CIL library *:* CIL module *
 0001:00018230       ??_GTConnListenerThread@@UEAAPEAXI@Z 0000000180019230 f i snap7:s7_partner.obj
 0001:000182a0       ?ServersManager_GetServer@@YAHIAEAPEAVTConnectionServer@@@Z 00000001800192a0 f   snap7:s7_partner.obj
 0001:00018340       ??1TServersManager@@QEAA@XZ 0000000180019340 f   snap7:s7_partner.obj
 0001:00018430       ?GetServer@TServersManager@@QEAAHIAEAPEAVTConnectionServer@@@Z 0000000180019430 f   snap7:s7_partner.obj
 0001:000185d0       ?RemovePartner@TServersManager@@QEAAXPEAVTConnectionServer@@PEAVTSnap7Partner@@@Z 00000001800195d0 f   snap7:s7_partner.obj
 0001:000186d0       ?Execute@TConnListenerThread@@UEAAXXZ 00000001800196d0 f   snap7:s7_partner.obj
 0001:00018780       ?Start@TConnectionServer@@IEAAHXZ 0000000180019780 f   snap7:s7_partner.obj
 0001:000188c0       ?Stop@TConnectionServer@@QEAAXXZ 00000001800198c0 f   snap7:s7_partner.obj
 0001:00018960       ?RegisterPartner@TConnectionServer@@QEAAHPEAVTSnap7Partner@@@Z 0000000180019960 f   snap7:s7_partner.obj
 0001:00018a30       ?Incoming@TConnectionServer@@IEAAX_K@Z 0000000180019a30 f   snap7:s7_partner.obj
 0001:00018b30       ?Execute@TPartnerThread@@MEAAXXZ 0000000180019b30 f   snap7:s7_partner.obj
 0001:00018df0       ??0TSnap7Partner@@QEAA@_N@Z 0000000180019df0 f   snap7:s7_partner.obj
 0001:00018f60       ??_GTSnap7Partner@@UEAAPEAXI@Z 0000000180019f60 f i snap7:s7_partner.obj
 0001:00018f60       ??_ETSnap7Partner@@UEAAPEAXI@Z 0000000180019f60 f i * CIL library *:* CIL module *
 0001:00018fa0       ??1TSnap7Partner@@UEAA@XZ  0000000180019fa0 f   snap7:s7_partner.obj
 0001:00019040       ?Start@TSnap7Partner@@QEAAHXZ 000000018001a040 f   snap7:s7_partner.obj
 0001:00019170       ?Stop@TSnap7Partner@@QEAAHXZ 000000018001a170 f   snap7:s7_partner.obj
 0001:00019250       ?GetParam@TSnap7Partner@@QEAAHHPEAX@Z 000000018001a250 f   snap7:s7_partner.obj
 0001:00019360       ?SetParam@TSnap7Partner@@QEAAHHPEAX@Z 000000018001a360 f   snap7:s7_partner.obj
 0001:00019470       ?PerformFunctionNegotiate@TSnap7Partner@@IEAA_NXZ 000000018001a470 f   snap7:s7_partner.obj
 0001:000195a0       ?CloseWorker@TSnap7Partner@@AEAAXXZ 000000018001a5a0 f   snap7:s7_partner.obj
 0001:00019670       ?BlockSend@TSnap7Partner@@AEAA_NXZ 000000018001a670 f   snap7:s7_partner.obj
 0001:000199d0       ?PickData@TSnap7Partner@@AEAA_NXZ 000000018001a9d0 f   snap7:s7_partner.obj
 0001:00019b80       ?BlockRecv@TSnap7Partner@@AEAA_NXZ 000000018001ab80 f   snap7:s7_partner.obj
 0001:00019d10       ?ConnectionConfirm@TSnap7Partner@@AEAA_NXZ 000000018001ad10 f   snap7:s7_partner.obj
 0001:00019da0       ?Execute@TSnap7Partner@@MEAA_NXZ 000000018001ada0 f   snap7:s7_partner.obj
 0001:00019ff0       ?AsBSend@TSnap7Partner@@QEAAHIPEAXH@Z 000000018001aff0 f   snap7:s7_partner.obj
 0001:0001a0c0       ?WaitAsBSendCompletion@TSnap7Partner@@QEAAHI@Z 000000018001b0c0 f   snap7:s7_partner.obj
 0001:0001a140       ?BRecv@TSnap7Partner@@QEAAHAEAIPEAXAEAHI@Z 000000018001b140 f   snap7:s7_partner.obj
 0001:0001a230       ?CheckAsBRecvCompletion@TSnap7Partner@@QEAA_NAEAHAEAIPEAX0@Z 000000018001b230 f   snap7:s7_partner.obj
 0001:0001a2d0       ??_GTClientThread@@UEAAPEAXI@Z 000000018001b2d0 f i snap7:s7_client.obj
 0001:0001a2d0       ??_ETClientThread@@UEAAPEAXI@Z 000000018001b2d0 f i * CIL library *:* CIL module *
 0001:0001a340       ??_ETSnap7Client@@UEAAPEAXI@Z 000000018001b340 f i * CIL library *:* CIL module *
 0001:0001a340       ??_GTSnap7Client@@UEAAPEAXI@Z 000000018001b340 f i snap7:s7_client.obj
 0001:0001a380       ??1TSnap7Client@@UEAA@XZ   000000018001b380 f   snap7:s7_client.obj
 0001:0001a470       ?CloseThread@TSnap7Client@@AEAAXXZ 000000018001b470 f   snap7:s7_client.obj
 0001:0001a550       ?OpenThread@TSnap7Client@@AEAAXXZ 000000018001b550 f   snap7:s7_client.obj
 0001:0001a5d0       ?DoCompletion@TSnap7Client@@IEAAXXZ 000000018001b5d0 f   snap7:s7_client.obj
 0001:0001a610       ?AsReadArea@TSnap7Client@@QEAAHHHHHHPEAX@Z 000000018001b610 f   snap7:s7_client.obj
 0001:0001a6b0       ?AsWriteArea@TSnap7Client@@QEAAHHHHHHPEAX@Z 000000018001b6b0 f   snap7:s7_client.obj
 0001:0001a7c0       ?AsReadSZL@TSnap7Client@@QEAAHHHPEAUTS7SZL@@AEAH@Z 000000018001b7c0 f   snap7:s7_client.obj
 0001:0001a860       ?AsUpload@TSnap7Client@@QEAAHHHPEAXAEAH@Z 000000018001b860 f   snap7:s7_client.obj
 0001:0001a900       ?AsFullUpload@TSnap7Client@@QEAAHHHPEAXAEAH@Z 000000018001b900 f   snap7:s7_client.obj
 0001:0001a9a0       ?AsDownload@TSnap7Client@@QEAAHHPEAXH@Z 000000018001b9a0 f   snap7:s7_client.obj
 0001:0001aa80       ?AsCopyRamToRom@TSnap7Client@@QEAAHH@Z 000000018001ba80 f   snap7:s7_client.obj
 0001:0001ab10       ?AsDBRead@TSnap7Client@@QEAAHHHHPEAX@Z 000000018001bb10 f   snap7:s7_client.obj
 0001:0001abb0       ?AsMBRead@TSnap7Client@@QEAAHHHPEAX@Z 000000018001bbb0 f   snap7:s7_client.obj
 0001:0001ac40       ?AsEBRead@TSnap7Client@@QEAAHHHPEAX@Z 000000018001bc40 f   snap7:s7_client.obj
 0001:0001acd0       ?AsABRead@TSnap7Client@@QEAAHHHPEAX@Z 000000018001bcd0 f   snap7:s7_client.obj
 0001:0001ad60       ?AsTMRead@TSnap7Client@@QEAAHHHPEAX@Z 000000018001bd60 f   snap7:s7_client.obj
 0001:0001adf0       ?AsCTRead@TSnap7Client@@QEAAHHHPEAX@Z 000000018001bdf0 f   snap7:s7_client.obj
 0001:0001ae80       ?AsDBGet@TSnap7Client@@QEAAHHPEAXAEAH@Z 000000018001be80 f   snap7:s7_client.obj
 0001:0001af30       ?StartAsyncJob@TSnap7Client@@AEAAXXZ 000000018001bf30 f   snap7:s7_client.obj
 0001:0001b000       ?WaitAsCompletion@TSnap7Client@@QEAAHK@Z 000000018001c000 f   snap7:s7_client.obj
 0001:0001b0a0       ?Execute@TClientThread@@UEAAXXZ 000000018001c0a0 f   snap7:s7_client.obj
 0001:0001b110       ??0TSnap7MicroClient@@QEAA@XZ 000000018001c110 f   snap7:s7_micro_client.obj
 0001:0001b1a0       ??_GTSnap7MicroClient@@UEAAPEAXI@Z 000000018001c1a0 f i snap7:s7_micro_client.obj
 0001:0001b1a0       ??_ETSnap7MicroClient@@UEAAPEAXI@Z 000000018001c1a0 f i * CIL library *:* CIL module *
 0001:0001b1f0       ?opReadArea@TSnap7MicroClient@@AEAAHXZ 000000018001c1f0 f   snap7:s7_micro_client.obj
 0001:0001b570       ?opWriteArea@TSnap7MicroClient@@AEAAHXZ 000000018001c570 f   snap7:s7_micro_client.obj
 0001:0001b9a0       ?opReadMultiVars@TSnap7MicroClient@@AEAAHXZ 000000018001c9a0 f   snap7:s7_micro_client.obj
 0001:0001bd30       ?opWriteMultiVars@TSnap7MicroClient@@AEAAHXZ 000000018001cd30 f   snap7:s7_micro_client.obj
 0001:0001c240       ?opListBlocks@TSnap7MicroClient@@AEAAHXZ 000000018001d240 f   snap7:s7_micro_client.obj
 0001:0001c4d0       ?opListBlocksOfType@TSnap7MicroClient@@AEAAHXZ 000000018001d4d0 f   snap7:s7_micro_client.obj
 0001:0001c840       ?FillTime@TSnap7MicroClient@@AEAAXGPEAD@Z 000000018001d840 f   snap7:s7_micro_client.obj
 0001:0001c8a0       ?opAgBlockInfo@TSnap7MicroClient@@AEAAHXZ 000000018001d8a0 f   snap7:s7_micro_client.obj
 0001:0001cbf0       ?opDBGet@TSnap7MicroClient@@AEAAHXZ 000000018001dbf0 f   snap7:s7_micro_client.obj
 0001:0001cce0       ?opDBFill@TSnap7MicroClient@@AEAAHXZ 000000018001dce0 f   snap7:s7_micro_client.obj
 0001:0001cdb0       ?opUpload@TSnap7MicroClient@@AEAAHXZ 000000018001ddb0 f   snap7:s7_micro_client.obj
 0001:0001d410       ?opDownload@TSnap7MicroClient@@AEAAHXZ 000000018001e410 f   snap7:s7_micro_client.obj
 0001:0001dc40       ?opDelete@TSnap7MicroClient@@AEAAHXZ 000000018001ec40 f   snap7:s7_micro_client.obj
 0001:0001de50       ?opReadSZL@TSnap7MicroClient@@AEAAHXZ 000000018001ee50 f   snap7:s7_micro_client.obj
 0001:0001e260       ?opReadSZLList@TSnap7MicroClient@@AEAAHXZ 000000018001f260 f   snap7:s7_micro_client.obj
 0001:0001e350       ?opGetDateTime@TSnap7MicroClient@@AEAAHXZ 000000018001f350 f   snap7:s7_micro_client.obj
 0001:0001e5a0       ?opSetDateTime@TSnap7MicroClient@@AEAAHXZ 000000018001f5a0 f   snap7:s7_micro_client.obj
 0001:0001e7d0       ?opGetOrderCode@TSnap7MicroClient@@AEAAHXZ 000000018001f7d0 f   snap7:s7_micro_client.obj
 0001:0001e870       ?opGetCpuInfo@TSnap7MicroClient@@AEAAHXZ 000000018001f870 f   snap7:s7_micro_client.obj
 0001:0001e950       ?opGetCpInfo@TSnap7MicroClient@@AEAAHXZ 000000018001f950 f   snap7:s7_micro_client.obj
 0001:0001e9f0       ?opGetPlcStatus@TSnap7MicroClient@@AEAAHXZ 000000018001f9f0 f   snap7:s7_micro_client.obj
 0001:0001ea70       ?opPlcStop@TSnap7MicroClient@@AEAAHXZ 000000018001fa70 f   snap7:s7_micro_client.obj
 0001:0001eb90       ?opPlcHotStart@TSnap7MicroClient@@AEAAHXZ 000000018001fb90 f   snap7:s7_micro_client.obj
 0001:0001ecc0       ?opPlcColdStart@TSnap7MicroClient@@AEAAHXZ 000000018001fcc0 f   snap7:s7_micro_client.obj
 0001:0001ee10       ?opCopyRamToRom@TSnap7MicroClient@@AEAAHXZ 000000018001fe10 f   snap7:s7_micro_client.obj
 0001:0001ef60       ?opCompress@TSnap7MicroClient@@AEAAHXZ 000000018001ff60 f   snap7:s7_micro_client.obj
 0001:0001f090       ?opGetProtection@TSnap7MicroClient@@AEAAHXZ 0000000180020090 f   snap7:s7_micro_client.obj
 0001:0001f150       ?opSetPassword@TSnap7MicroClient@@AEAAHXZ 0000000180020150 f   snap7:s7_micro_client.obj
 0001:0001f350       ?opClearPassword@TSnap7MicroClient@@AEAAHXZ 0000000180020350 f   snap7:s7_micro_client.obj
 0001:0001f470       ?CpuError@TSnap7MicroClient@@AEAAHH@Z 0000000180020470 f   snap7:s7_micro_client.obj
 0001:0001f510       ?DataSizeByte@TSnap7MicroClient@@IEAAHH@Z 0000000180020510 f   snap7:s7_micro_client.obj
 0001:0001f580       ?PerformOperation@TSnap7MicroClient@@IEAAHXZ 0000000180020580 f   snap7:s7_micro_client.obj
 0001:0001f7f0       ?Connect@TSnap7MicroClient@@QEAAHXZ 00000001800207f0 f   snap7:s7_micro_client.obj
 0001:0001f880       ?GetParam@TSnap7MicroClient@@QEAAHHPEAX@Z 0000000180020880 f   snap7:s7_micro_client.obj
 0001:0001f930       ?SetParam@TSnap7MicroClient@@QEAAHHPEAX@Z 0000000180020930 f   snap7:s7_micro_client.obj
 0001:0001fa00       ?ReadArea@TSnap7MicroClient@@QEAAHHHHHHPEAX@Z 0000000180020a00 f   snap7:s7_micro_client.obj
 0001:0001fa90       ?WriteArea@TSnap7MicroClient@@QEAAHHHHHHPEAX@Z 0000000180020a90 f   snap7:s7_micro_client.obj
 0001:0001fb20       ?DBRead@TSnap7MicroClient@@QEAAHHHHPEAX@Z 0000000180020b20 f   snap7:s7_micro_client.obj
 0001:0001fbb0       ?DBWrite@TSnap7MicroClient@@QEAAHHHHPEAX@Z 0000000180020bb0 f   snap7:s7_micro_client.obj
 0001:0001fc40       ?MBRead@TSnap7MicroClient@@QEAAHHHPEAX@Z 0000000180020c40 f   snap7:s7_micro_client.obj
 0001:0001fcd0       ?MBWrite@TSnap7MicroClient@@QEAAHHHPEAX@Z 0000000180020cd0 f   snap7:s7_micro_client.obj
 0001:0001fd60       ?EBRead@TSnap7MicroClient@@QEAAHHHPEAX@Z 0000000180020d60 f   snap7:s7_micro_client.obj
 0001:0001fdf0       ?EBWrite@TSnap7MicroClient@@QEAAHHHPEAX@Z 0000000180020df0 f   snap7:s7_micro_client.obj
 0001:0001fe80       ?ABRead@TSnap7MicroClient@@QEAAHHHPEAX@Z 0000000180020e80 f   snap7:s7_micro_client.obj
 0001:0001ff10       ?ABWrite@TSnap7MicroClient@@QEAAHHHPEAX@Z 0000000180020f10 f   snap7:s7_micro_client.obj
 0001:0001ffa0       ?TMRead@TSnap7MicroClient@@QEAAHHHPEAX@Z 0000000180020fa0 f   snap7:s7_micro_client.obj
 0001:00020030       ?TMWrite@TSnap7MicroClient@@QEAAHHHPEAX@Z 0000000180021030 f   snap7:s7_micro_client.obj
 0001:000200c0       ?CTRead@TSnap7MicroClient@@QEAAHHHPEAX@Z 00000001800210c0 f   snap7:s7_micro_client.obj
 0001:00020150       ?CTWrite@TSnap7MicroClient@@QEAAHHHPEAX@Z 0000000180021150 f   snap7:s7_micro_client.obj
 0001:000201e0       ?GetPgBlockInfo@TSnap7MicroClient@@QEAAHPEAXPEAUTS7BlockInfo@@H@Z 00000001800211e0 f   snap7:s7_micro_client.obj
 0001:000203b0       ?ListBlocksOfType@TSnap7MicroClient@@QEAAHHPEAY0CAAA@GAEAH@Z 00000001800213b0 f   snap7:s7_micro_client.obj
 0001:00020450       ?Upload@TSnap7MicroClient@@QEAAHHHPEAXAEAH@Z 0000000180021450 f   snap7:s7_micro_client.obj
 0001:00020510       ?FullUpload@TSnap7MicroClient@@QEAAHHHPEAXAEAH@Z 0000000180021510 f   snap7:s7_micro_client.obj
 0001:000205d0       ?Download@TSnap7MicroClient@@QEAAHHPEAXH@Z 00000001800215d0 f   snap7:s7_micro_client.obj
 0001:00020670       ?DBGet@TSnap7MicroClient@@QEAAHHPEAXAEAH@Z 0000000180021670 f   snap7:s7_micro_client.obj
 0001:00020710       ?SetPlcSystemDateTime@TSnap7MicroClient@@QEAAHXZ 0000000180021710 f   snap7:s7_micro_client.obj
 0001:00020790       ?ReadSZL@TSnap7MicroClient@@QEAAHHHPEAUTS7SZL@@AEAH@Z 0000000180021790 f   snap7:s7_micro_client.obj
 0001:00020820       ?CopyRamToRom@TSnap7MicroClient@@QEAAHH@Z 0000000180021820 f   snap7:s7_micro_client.obj
 0001:000208b0       ?Compress@TSnap7MicroClient@@QEAAHH@Z 00000001800218b0 f   snap7:s7_micro_client.obj
 0001:00020940       ?SetSessionPassword@TSnap7MicroClient@@QEAAHPEAD@Z 0000000180021940 f   snap7:s7_micro_client.obj
 0001:000209f0       ?NumToString@@YA?AV?$basic_string@DU?$char_traits@D@std@@V?$allocator@D@2@@std@@HHI@Z 00000001800219f0 f   snap7:s7_text.obj
 0001:00020b40       ?IntToString@@YA?AV?$basic_string@DU?$char_traits@D@std@@V?$allocator@D@2@@std@@H@Z 0000000180021b40 f   snap7:s7_text.obj
 0001:00020b70       ?TimeToString@@YA?AV?$basic_string@DU?$char_traits@D@std@@V?$allocator@D@2@@std@@_J@Z 0000000180021b70 f   snap7:s7_text.obj
 0001:00020d90       ?IpAddressToString@@YA?AV?$basic_string@DU?$char_traits@D@std@@V?$allocator@D@2@@std@@H@Z 0000000180021d90 f   snap7:s7_text.obj
 0001:00022130       ?ErrCliText@@YA?AV?$basic_string@DU?$char_traits@D@std@@V?$allocator@D@2@@std@@H@Z 0000000180023130 f   snap7:s7_text.obj
 0001:000222a0       ?ErrSrvText@@YA?AV?$basic_string@DU?$char_traits@D@std@@V?$allocator@D@2@@std@@H@Z 00000001800232a0 f   snap7:s7_text.obj
 0001:00022410       ?ErrParText@@YA?AV?$basic_string@DU?$char_traits@D@std@@V?$allocator@D@2@@std@@H@Z 0000000180023410 f   snap7:s7_text.obj
 0001:00024d70       ?EvtSrvText@@YA?AV?$basic_string@DU?$char_traits@D@std@@V?$allocator@D@2@@std@@AEAUTSrvEvent@@@Z 0000000180025d70 f   snap7:s7_text.obj
 0001:00025330       ??4?$basic_string@DU?$char_traits@D@std@@V?$allocator@D@2@@std@@QEAAAEAV01@$$QEAV01@@Z 0000000180026330 f i snap7:s7_text.obj
 0001:000253f0       ??$?HDU?$char_traits@D@std@@V?$allocator@D@1@@std@@YA?AV?$basic_string@DU?$char_traits@D@std@@V?$allocator@D@2@@0@PEBD$$QEAV10@@Z 00000001800263f0 f i snap7:s7_text.obj
 0001:00025470       ??$?HDU?$char_traits@D@std@@V?$allocator@D@1@@std@@YA?AV?$basic_string@DU?$char_traits@D@std@@V?$allocator@D@2@@0@PEBDAEBV10@@Z 0000000180026470 f i snap7:s7_text.obj
 0001:000254f0       ??$?HDU?$char_traits@D@std@@V?$allocator@D@1@@std@@YA?AV?$basic_string@DU?$char_traits@D@std@@V?$allocator@D@2@@0@$$QEAV10@PEBD@Z 00000001800264f0 f i snap7:s7_text.obj
 0001:00025570       ??$?HDU?$char_traits@D@std@@V?$allocator@D@1@@std@@YA?AV?$basic_string@DU?$char_traits@D@std@@V?$allocator@D@2@@0@AEBV10@PEBD@Z 0000000180026570 f i snap7:s7_text.obj
 0001:00025630       ??$?HDU?$char_traits@D@std@@V?$allocator@D@1@@std@@YA?AV?$basic_string@DU?$char_traits@D@std@@V?$allocator@D@2@@0@$$QEAV10@0@Z 0000000180026630 f i snap7:s7_text.obj
 0001:000256f0       ??$?HDU?$char_traits@D@std@@V?$allocator@D@1@@std@@YA?AV?$basic_string@DU?$char_traits@D@std@@V?$allocator@D@2@@0@$$QEAV10@AEBV10@@Z 00000001800266f0 f i snap7:s7_text.obj
 0001:00025760       ?reserve@?$basic_string@DU?$char_traits@D@std@@V?$allocator@D@2@@std@@QEAAX_K@Z 0000000180026760 f i snap7:s7_text.obj
 0001:00025810       ?insert@?$basic_string@DU?$char_traits@D@std@@V?$allocator@D@2@@std@@QEAAAEAV12@_KPEBD0@Z 0000000180026810 f i snap7:s7_text.obj
 0001:00025990       ?insert@?$basic_string@DU?$char_traits@D@std@@V?$allocator@D@2@@std@@QEAAAEAV12@_KAEBV12@00@Z 0000000180026990 f i snap7:s7_text.obj
 0001:00025b30       ??_ETS7Worker@@UEAAPEAXI@Z 0000000180026b30 f i * CIL library *:* CIL module *
 0001:00025b30       ??_GTS7Worker@@UEAAPEAXI@Z 0000000180026b30 f i snap7:s7_server.obj
 0001:00025b70       ?Execute@TMsgSocket@@UEAA_NXZ 0000000180026b70 f   snap7:snap_msgsock.obj
 0001:00025b70       ?ExecuteSend@TIsoTcpWorker@@MEAA_NXZ 0000000180026b70 f   snap7:s7_server.obj
 0001:00025b70       __acrt_uninitialize_command_line 0000000180026b70 f   libucrt:argv_data.obj
 0001:00025b80       ?ExecuteRecv@TIsoTcpWorker@@MEAA_NXZ 0000000180026b80 f   snap7:s7_server.obj
 0001:00025d10       ?Execute@TIsoTcpWorker@@UEAA_NXZ 0000000180026d10 f   snap7:s7_server.obj
 0001:00025d60       ??0TS7Worker@@QEAA@XZ      0000000180026d60 f   snap7:s7_server.obj
 0001:00025de0       ?ExecuteRecv@TS7Worker@@MEAA_NXZ 0000000180026de0 f   snap7:s7_server.obj
 0001:00025e00       ?FillTime@TS7Worker@@AEAAXPEAUTS7Time@@@Z 0000000180026e00 f   snap7:s7_server.obj
 0001:00025f20       ?IsoPerformCommand@TS7Worker@@MEAA_NAEAH@Z 0000000180026f20 f   snap7:s7_server.obj
 0001:00025ff0       ?PerformPDURequest@TS7Worker@@IEAA_NAEAH@Z 0000000180026ff0 f   snap7:s7_server.obj
 0001:000261d0       ?PerformPDUUsrData@TS7Worker@@IEAA_NAEAH@Z 00000001800271d0 f   snap7:s7_server.obj
 0001:00026320       ?GetArea@TS7Worker@@IEAAPEAUTS7Area@@EG@Z 0000000180027320 f   snap7:s7_server.obj
 0001:00026430       ?ReadArea@TS7Worker@@IEAAGPEAUTResFunReadItem@@PEAUTReqFunReadItem@@AEAHAEAUTEv@@@Z 0000000180027430 f   snap7:s7_server.obj
 0001:00026910       ?PerformFunctionRead@TS7Worker@@IEAA_NXZ 0000000180027910 f   snap7:s7_server.obj
 0001:00026bd0       ?WriteArea@TS7Worker@@IEAAEPEAUTReqFunWriteDataItem@@PEAUTReqFunWriteItem@@AEAUTEv@@@Z 0000000180027bd0 f   snap7:s7_server.obj
 0001:00026ef0       ?PerformFunctionWrite@TS7Worker@@IEAA_NXZ 0000000180027ef0 f   snap7:s7_server.obj
 0001:00027230       ?PerformFunctionNegotiate@TS7Worker@@IEAA_NXZ 0000000180028230 f   snap7:s7_server.obj
 0001:000273a0       ?PerformFunctionControl@TS7Worker@@IEAA_NE@Z 00000001800283a0 f   snap7:s7_server.obj
 0001:00027500       ?PerformFunctionUpload@TS7Worker@@IEAA_NXZ 0000000180028500 f   snap7:s7_server.obj
 0001:000275a0       ?PerformFunctionDownload@TS7Worker@@IEAA_NXZ 00000001800285a0 f   snap7:s7_server.obj
 0001:00027640       ?BLK_ListAll@TS7Worker@@IEAAXAEAUTCB@@@Z 0000000180028640 f   snap7:s7_server.obj
 0001:000277b0       ?BLK_ListBoT@TS7Worker@@IEAAXE_NAEAUTCB@@@Z 00000001800287b0 f   snap7:s7_server.obj
 0001:00027a60       ?BLK_DoBlockInfo_GetBlkInfo@TS7Worker@@IEAAXPEAUTS7Area@@PEAUTResDataBlockInfo@@AEAUTCB@@@Z 0000000180028a60 f   snap7:s7_server.obj
 0001:00027bd0       ?BLK_GetBlkInfo@TS7Worker@@IEAAXAEAUTCB@@@Z 0000000180028bd0 f   snap7:s7_server.obj
 0001:00027d70       ?PerformGroupBlockInfo@TS7Worker@@IEAA_NXZ 0000000180028d70 f   snap7:s7_server.obj
 0001:00027e30       ?SZLNotAvailable@TS7Worker@@IEAAXXZ 0000000180028e30 f   snap7:s7_server.obj
 0001:00027ea0       ?SZLData@TS7Worker@@IEAAXPEAXH@Z 0000000180028ea0 f   snap7:s7_server.obj
 0001:00027f40       ?SZL_ID131_IDX003@TS7Worker@@IEAAXXZ 0000000180028f40 f   snap7:s7_server.obj
 0001:00027ff0       ?PerformGroupSZL@TS7Worker@@IEAA_NXZ 0000000180028ff0 f   snap7:s7_server.obj
 0001:00029a50       ?PerformGroupSecurity@TS7Worker@@IEAA_NXZ 000000018002aa50 f   snap7:s7_server.obj
 0001:00029ba0       ?PerformGetClock@TS7Worker@@IEAA_NXZ 000000018002aba0 f   snap7:s7_server.obj
 0001:00029ce0       ?PerformSetClock@TS7Worker@@IEAA_NXZ 000000018002ace0 f   snap7:s7_server.obj
 0001:00029e00       ??0TSnap7Server@@QEAA@XZ   000000018002ae00 f   snap7:s7_server.obj
 0001:00029eb0       ??_ETSnap7Server@@UEAAPEAXI@Z 000000018002aeb0 f i * CIL library *:* CIL module *
 0001:00029eb0       ??_GTSnap7Server@@UEAAPEAXI@Z 000000018002aeb0 f i snap7:s7_server.obj
 0001:00029f30       ?CreateWorkerSocket@TSnap7Server@@MEAAPEAVTMsgSocket@@_K@Z 000000018002af30 f   snap7:s7_server.obj
 0001:00029fc0       ?FindDB@TSnap7Server@@IEAAPEAUTS7Area@@G@Z 000000018002afc0 f   snap7:s7_server.obj
 0001:0002a000       ?RegisterDB@TSnap7Server@@IEAAHGPEAXG@Z 000000018002b000 f   snap7:s7_server.obj
 0001:0002a120       ?DisposeAll@TSnap7Server@@AEAAXXZ 000000018002b120 f   snap7:s7_server.obj
 0001:0002a210       ?RegisterSys@TSnap7Server@@IEAAHHPEAXG@Z 000000018002b210 f   snap7:s7_server.obj
 0001:0002a2d0       ?UnregisterDB@TSnap7Server@@IEAAHG@Z 000000018002b2d0 f   snap7:s7_server.obj
 0001:0002a390       ?UnregisterSys@TSnap7Server@@IEAAHH@Z 000000018002b390 f   snap7:s7_server.obj
 0001:0002a3f0       ?SetParam@TSnap7Server@@QEAAHHPEAX@Z 000000018002b3f0 f   snap7:s7_server.obj
 0001:0002a490       ?LockArea@TSnap7Server@@QEAAHHG@Z 000000018002b490 f   snap7:s7_server.obj
 0001:0002a530       ?UnlockArea@TSnap7Server@@QEAAHHG@Z 000000018002b530 f   snap7:s7_server.obj
 0001:0002a5d0       ?DoReadEvent@TSnap7Server@@IEAAXHIGGGGG@Z 000000018002b5d0 f   snap7:s7_server.obj
 0001:0002a6c0       ?DoReadArea@TSnap7Server@@IEAA_NHHHHHHPEAX@Z 000000018002b6c0 f   snap7:s7_server.obj
 0001:0002a7b0       ?DoWriteArea@TSnap7Server@@IEAA_NHHHHHHPEAX@Z 000000018002b7b0 f   snap7:s7_server.obj
 0001:0002a8a0       ??_ETIsoTcpSocket@@UEAAPEAXI@Z 000000018002b8a0 f i * CIL library *:* CIL module *
 0001:0002a8a0       ??_GTIsoTcpSocket@@UEAAPEAXI@Z 000000018002b8a0 f i snap7:s7_isotcp.obj
 0001:0002a8e0       ?BuildControlPDU@TIsoTcpSocket@@MEAAHXZ 000000018002b8e0 f   snap7:s7_isotcp.obj
 0001:0002a9f0       ?isoConnect@TIsoTcpSocket@@QEAAHXZ 000000018002b9f0 f   snap7:s7_isotcp.obj
 0001:0002ab90       ?isoSendBuffer@TIsoTcpSocket@@QEAAHPEAXH@Z 000000018002bb90 f   snap7:s7_isotcp.obj
 0001:0002ac70       ?isoRecvBuffer@TIsoTcpSocket@@QEAAHPEAXAEAH@Z 000000018002bc70 f   snap7:s7_isotcp.obj
 0001:0002ad00       ?isoDisconnect@TIsoTcpSocket@@QEAAH_N@Z 000000018002bd00 f   snap7:s7_isotcp.obj
 0001:0002ad80       ?isoRecvFragment@TIsoTcpSocket@@AEAAHPEAXHAEAHAEA_N@Z 000000018002bd80 f   snap7:s7_isotcp.obj
 0001:0002aef0       ?isoRecvPDU@TIsoTcpSocket@@QEAAHPEAUTIsoDataPDU@@@Z 000000018002bef0 f   snap7:s7_isotcp.obj
 0001:0002aff0       ?Execute@TEcoTcpWorker@@UEAA_NXZ 000000018002bff0 f i snap7:snap_tcpsrvr.obj
 0001:0002b0f0       ??_GTMsgWorkerThread@@UEAAPEAXI@Z 000000018002c0f0 f i snap7:snap_tcpsrvr.obj
 0001:0002b0f0       ??_ETMsgWorkerThread@@UEAAPEAXI@Z 000000018002c0f0 f i * CIL library *:* CIL module *
 0001:0002b160       ?Execute@TMsgWorkerThread@@UEAAXXZ 000000018002c160 f   snap7:snap_tcpsrvr.obj
 0001:0002b2b0       ?Execute@TMsgListenerThread@@UEAAXXZ 000000018002c2b0 f   snap7:snap_tcpsrvr.obj
 0001:0002b360       ??0TCustomMsgServer@@QEAA@XZ 000000018002c360 f   snap7:snap_tcpsrvr.obj
 0001:0002b4a0       ??_GTCustomMsgServer@@UEAAPEAXI@Z 000000018002c4a0 f i snap7:snap_tcpsrvr.obj
 0001:0002b4a0       ??_ETCustomMsgServer@@UEAAPEAXI@Z 000000018002c4a0 f i * CIL library *:* CIL module *
 0001:0002b4e0       ??1TCustomMsgServer@@UEAA@XZ 000000018002c4e0 f   snap7:snap_tcpsrvr.obj
 0001:0002b590       ?StartListener@TCustomMsgServer@@AEAAHXZ 000000018002c590 f   snap7:snap_tcpsrvr.obj
 0001:0002b6e0       ?TerminateAll@TCustomMsgServer@@MEAAXXZ 000000018002c6e0 f   snap7:snap_tcpsrvr.obj
 0001:0002b790       ?KillAll@TCustomMsgServer@@IEAAXXZ 000000018002c790 f   snap7:snap_tcpsrvr.obj
 0001:0002b8b0       ?CanAccept@TCustomMsgServer@@MEAA_N_K@Z 000000018002c8b0 f   snap7:snap_tcpsrvr.obj
 0001:0002b8d0       ?CreateWorkerSocket@TCustomMsgServer@@MEAAPEAVTMsgSocket@@_K@Z 000000018002c8d0 f   snap7:snap_tcpsrvr.obj
 0001:0002b960       ??_ETMsgSocket@@UEAAPEAXI@Z 000000018002c960 f i * CIL library *:* CIL module *
 0001:0002b960       ??_GTEcoTcpWorker@@UEAAPEAXI@Z 000000018002c960 f i snap7:snap_tcpsrvr.obj
 0001:0002b960       ??_GTMsgSocket@@UEAAPEAXI@Z 000000018002c960 f i snap7:snap_msgsock.obj
 0001:0002b960       ??_ETEcoTcpWorker@@UEAAPEAXI@Z 000000018002c960 f i * CIL library *:* CIL module *
 0001:0002b9a0       ?DoEvent@TCustomMsgServer@@MEAAXHIGGGGG@Z 000000018002c9a0 f   snap7:snap_tcpsrvr.obj
 0001:0002bb00       ?Incoming@TCustomMsgServer@@MEAAX_K@Z 000000018002cb00 f   snap7:snap_tcpsrvr.obj
 0001:0002bd10       ?Start@TCustomMsgServer@@QEAAHXZ 000000018002cd10 f   snap7:snap_tcpsrvr.obj
 0001:0002bdd0       ?Stop@TCustomMsgServer@@QEAAXXZ 000000018002cdd0 f   snap7:snap_tcpsrvr.obj
 0001:0002bec0       ?PickEvent@TCustomMsgServer@@QEAA_NPEAX@Z 000000018002cec0 f   snap7:snap_tcpsrvr.obj
 0001:0002bf30       ??0TMsgSocket@@QEAA@XZ     000000018002cf30 f   snap7:snap_msgsock.obj
 0001:0002bfd0       ??1TMsgSocket@@UEAA@XZ     000000018002cfd0 f   snap7:snap_msgsock.obj
 0001:0002c040       ?GetLocal@TMsgSocket@@AEAAXXZ 000000018002d040 f   snap7:snap_msgsock.obj
 0001:0002c0c0       ?GetRemote@TMsgSocket@@AEAAXXZ 000000018002d0c0 f   snap7:snap_msgsock.obj
 0001:0002c140       ?Purge@TMsgSocket@@IEAAXXZ 000000018002d140 f   snap7:snap_msgsock.obj
 0001:0002c1b0       ?CreateSocket@TMsgSocket@@IEAAXXZ 000000018002d1b0 f   snap7:snap_msgsock.obj
 0001:0002c230       ?WaitForData@TMsgSocket@@IEAAHHH@Z 000000018002d230 f   snap7:snap_msgsock.obj
 0001:0002c360       ?SetSocketOptions@TMsgSocket@@AEAAXXZ 000000018002d360 f   snap7:snap_msgsock.obj
 0001:0002c3f0       ?CanWrite@TMsgSocket@@AEAA_NH@Z 000000018002d3f0 f   snap7:snap_msgsock.obj
 0001:0002c4b0       ?CanRead@TMsgSocket@@QEAA_NH@Z 000000018002d4b0 f   snap7:snap_msgsock.obj
 0001:0002c570       ?SckConnect@TMsgSocket@@QEAAHXZ 000000018002d570 f   snap7:snap_msgsock.obj
 0001:0002c670       ?SckDisconnect@TMsgSocket@@QEAAXXZ 000000018002d670 f   snap7:snap_msgsock.obj
 0001:0002c6c0       ?ForceClose@TMsgSocket@@QEAAXXZ 000000018002d6c0 f   snap7:snap_msgsock.obj
 0001:0002c710       ?SckBind@TMsgSocket@@QEAAHXZ 000000018002d710 f   snap7:snap_msgsock.obj
 0001:0002c810       ?SendPacket@TMsgSocket@@QEAAHPEAXH@Z 000000018002d810 f   snap7:snap_msgsock.obj
 0001:0002c8a0       ?RecvPacket@TMsgSocket@@QEAAHPEAXH@Z 000000018002d8a0 f   snap7:snap_msgsock.obj
 0001:0002c930       ?IcmpInit@@YA_NXZ          000000018002d930 f   snap7:snap_msgsock.obj
 0001:0002ca80       ?InitPacket@TRawSocketPinger@@AEAAXXZ 000000018002da80 f   snap7:snap_msgsock.obj
 0001:0002cb50       ?CanRead@TRawSocketPinger@@AEAA_NH@Z 000000018002db50 f   snap7:snap_msgsock.obj
 0001:0002cbf0       ?Ping@TRawSocketPinger@@QEAA_NIH@Z 000000018002dbf0 f   snap7:snap_msgsock.obj
 0001:0002cd00       ?RawPing@TPinger@@AEAA_NIH@Z 000000018002dd00 f   snap7:snap_msgsock.obj
 0001:0002cda0       ?WinPing@TPinger@@AEAA_NIH@Z 000000018002dda0 f   snap7:snap_msgsock.obj
 0001:0002ce90       ??0SocketsLayer@@QEAA@XZ   000000018002de90 f   snap7:snap_msgsock.obj
 0001:0002cf20       ??0TSnap7Peer@@QEAA@XZ     000000018002df20 f   snap7:s7_peer.obj
 0001:0002cfa0       ??_ETSnap7Peer@@UEAAPEAXI@Z 000000018002dfa0 f i * CIL library *:* CIL module *
 0001:0002cfa0       ??_GTSnap7Peer@@UEAAPEAXI@Z 000000018002dfa0 f i snap7:s7_peer.obj
 0001:0002cff0       ??1TSnap7Peer@@UEAA@XZ     000000018002dff0 f   snap7:s7_peer.obj
 0001:0002d010       ?NegotiatePDULength@TSnap7Peer@@IEAAHXZ 000000018002e010 f   snap7:s7_peer.obj
 0001:0002d190       ?PeerConnect@TSnap7Peer@@QEAAHXZ 000000018002e190 f   snap7:s7_peer.obj
 0001:0002d200       ?ThreadProc@@YAKPEAX@Z     000000018002e200 f   snap7:snap_threads.obj
 0001:0002d250       ??_ETSnapThread@@UEAAPEAXI@Z 000000018002e250 f i * CIL library *:* CIL module *
 0001:0002d250       ??_GTSnapThread@@UEAAPEAXI@Z 000000018002e250 f i snap7:snap_threads.obj
 0001:0002d2bb       __imp_load_node_module_register 000000018002e2bb f   node:node.exe
 0001:0002d2c7       __tailMerge_node_exe       000000018002e2c7 f i node:node.exe
 0001:0002d340       __imp_load_uv_mutex_unlock 000000018002e340 f   node:node.exe
 0001:0002d34c       __imp_load_uv_queue_work   000000018002e34c f   node:node.exe
 0001:0002d358       __imp_load_?Global@Context@v8@@QEAA?AV?$Local@VObject@v8@@@2@XZ 000000018002e358 f   node:node.exe
 0001:0002d364       __imp_load_?Value@External@v8@@QEBAPEAXXZ 000000018002e364 f   node:node.exe
 0001:0002d370       __imp_load_?New@External@v8@@SA?AV?$Local@VExternal@v8@@@2@PEAVIsolate@2@PEAX@Z 000000018002e370 f   node:node.exe
 0001:0002d37c       __imp_load_?NewFromUnsigned@Integer@v8@@SA?AV?$Local@VInteger@v8@@@2@PEAVIsolate@2@I@Z 000000018002e37c f   node:node.exe
 0001:0002d388       __imp_load_?New@Integer@v8@@SA?AV?$Local@VInteger@v8@@@2@PEAVIsolate@2@H@Z 000000018002e388 f   node:node.exe
 0001:0002d394       __imp_load_?New@Signature@v8@@SA?AV?$Local@VSignature@v8@@@2@PEAVIsolate@2@V?$Local@VFunctionTemplate@v8@@@2@@Z 000000018002e394 f   node:node.exe
 0001:0002d3a0       __imp_load_?ThrowException@Isolate@v8@@QEAA?AV?$Local@VValue@v8@@@2@V32@@Z 000000018002e3a0 f   node:node.exe
 0001:0002d3ac       __imp_load_?GetCurrentContext@Isolate@v8@@QEAA?AV?$Local@VContext@v8@@@2@XZ 000000018002e3ac f   node:node.exe
 0001:0002d3b8       __imp_load_?GetCurrent@Isolate@v8@@SAPEAV12@XZ 000000018002e3b8 f   node:node.exe
 0001:0002d3c4       __imp_load_?CreateHandle@HandleScope@v8@@KAPEAPEAVObject@internal@2@PEAVIsolate@42@PEAV342@@Z 000000018002e3c4 f   node:node.exe
 0001:0002d3d0       __imp_load_?CreateHandle@HandleScope@v8@@CAPEAPEAVObject@internal@2@PEAVHeapObject@42@PEAV342@@Z 000000018002e3d0 f   node:node.exe
 0001:0002d3dc       __imp_load_??1HandleScope@v8@@QEAA@XZ 000000018002e3dc f   node:node.exe
 0001:0002d3e8       __imp_load_??0HandleScope@v8@@QEAA@PEAVIsolate@1@@Z 000000018002e3e8 f   node:node.exe
 0001:0002d3f4       __imp_load_?Set@Template@v8@@QEAAXV?$Local@VName@v8@@@2@V?$Local@VData@v8@@@2@W4PropertyAttribute@2@@Z 000000018002e3f4 f   node:node.exe
 0001:0002d400       __imp_load_?Error@Exception@v8@@SA?AV?$Local@VValue@v8@@@2@V?$Local@VString@v8@@@2@@Z 000000018002e400 f   node:node.exe
 0001:0002d40c       __imp_load_?TypeError@Exception@v8@@SA?AV?$Local@VValue@v8@@@2@V?$Local@VString@v8@@@2@@Z 000000018002e40c f   node:node.exe
 0001:0002d418       __imp_load_?New@Array@v8@@SA?AV?$Local@VArray@v8@@@2@PEAVIsolate@2@H@Z 000000018002e418 f   node:node.exe
 0001:0002d424       __imp_load_?Length@Array@v8@@QEBAIXZ 000000018002e424 f   node:node.exe
 0001:0002d430       __imp_load_?New@Date@v8@@SA?AV?$MaybeLocal@VValue@v8@@@2@V?$Local@VContext@v8@@@2@N@Z 000000018002e430 f   node:node.exe
 0001:0002d43c       __imp_load_?SetClassName@FunctionTemplate@v8@@QEAAXV?$Local@VString@v8@@@2@@Z 000000018002e43c f   node:node.exe
 0001:0002d448       __imp_load_?PrototypeTemplate@FunctionTemplate@v8@@QEAA?AV?$Local@VObjectTemplate@v8@@@2@XZ 000000018002e448 f   node:node.exe
 0001:0002d454       __imp_load_?InstanceTemplate@FunctionTemplate@v8@@QEAA?AV?$Local@VObjectTemplate@v8@@@2@XZ 000000018002e454 f   node:node.exe
 0001:0002d460       __imp_load_?GetFunction@FunctionTemplate@v8@@QEAA?AV?$Local@VFunction@v8@@@2@XZ 000000018002e460 f   node:node.exe
 0001:0002d46c       __imp_load_?New@FunctionTemplate@v8@@SA?AV?$Local@VFunctionTemplate@v8@@@2@PEAVIsolate@2@P6AXAEBV?$FunctionCallbackInfo@VValue@v8@@@2@@ZV?$Local@VValue@v8@@@2@V?$Local@VSignature@v8@@@2@H@Z 000000018002e46c f   node:node.exe
 0001:0002d478       __imp_load_?ToLocalEmpty@V8@v8@@CAXXZ 000000018002e478 f   node:node.exe
 0001:0002d484       __imp_load_?FromJustIsNothing@V8@v8@@CAXXZ 000000018002e484 f   node:node.exe
 0001:0002d490       __imp_load_?ClearWeak@V8@v8@@CAPEAXPEAPEAVObject@internal@2@@Z 000000018002e490 f   node:node.exe
 0001:0002d49c       __imp_load_?MakeWeak@V8@v8@@CAXPEAPEAVObject@internal@2@PEAXP6AXAEBV?$WeakCallbackInfo@X@2@@ZW4WeakCallbackType@2@@Z 000000018002e49c f   node:node.exe
 0001:0002d4a8       __imp_load_?DisposeGlobal@V8@v8@@CAXPEAPEAVObject@internal@2@@Z 000000018002e4a8 f   node:node.exe
 0001:0002d4b4       __imp_load_?GlobalizeReference@V8@v8@@CAPEAPEAVObject@internal@2@PEAVIsolate@42@PEAPEAV342@@Z 000000018002e4b4 f   node:node.exe
 0001:0002d4c0       __imp_load_?Int32Value@Value@v8@@QEBAHXZ 000000018002e4c0 f   node:node.exe
 0001:0002d4cc       __imp_load_?Uint32Value@Value@v8@@QEBAIXZ 000000018002e4cc f   node:node.exe
 0001:0002d4d8       __imp_load_?NumberValue@Value@v8@@QEBANXZ 000000018002e4d8 f   node:node.exe
 0001:0002d4e4       __imp_load_?ToInteger@Value@v8@@QEBA?AV?$MaybeLocal@VInteger@v8@@@2@V?$Local@VContext@v8@@@2@@Z 000000018002e4e4 f   node:node.exe
 0001:0002d4f0       __imp_load_?IsDate@Value@v8@@QEBA_NXZ 000000018002e4f0 f   node:node.exe
 0001:0002d4fc       __imp_load_?IsUint32@Value@v8@@QEBA_NXZ 000000018002e4fc f   node:node.exe
 0001:0002d508       __imp_load_?IsInt32@Value@v8@@QEBA_NXZ 000000018002e508 f   node:node.exe
 0001:0002d514       __imp_load_?IsObject@Value@v8@@QEBA_NXZ 000000018002e514 f   node:node.exe
 0001:0002d520       __imp_load_?IsArray@Value@v8@@QEBA_NXZ 000000018002e520 f   node:node.exe
 0001:0002d52c       __imp_load_?IsFunction@Value@v8@@QEBA_NXZ 000000018002e52c f   node:node.exe
 0001:0002d538       __imp_load_?Escape@EscapableHandleScope@v8@@AEAAPEAPEAVObject@internal@2@PEAPEAV342@@Z 000000018002e538 f   node:node.exe
 0001:0002d544       __imp_load_??0EscapableHandleScope@v8@@QEAA@PEAVIsolate@1@@Z 000000018002e544 f   node:node.exe
 0001:0002d550       __imp_load_?NewFromUtf8@String@v8@@SA?AV?$MaybeLocal@VString@v8@@@2@PEAVIsolate@2@PEBDW4NewStringType@2@H@Z 000000018002e550 f   node:node.exe
 0001:0002d55c       __imp_load_?WriteUtf8@String@v8@@QEBAHPEADHPEAHH@Z 000000018002e55c f   node:node.exe
 0001:0002d568       __imp_load_?Length@String@v8@@QEBAHXZ 000000018002e568 f   node:node.exe
 0001:0002d574       __imp_load_?New@Number@v8@@SA?AV?$Local@VNumber@v8@@@2@PEAVIsolate@2@N@Z 000000018002e574 f   node:node.exe
 0001:0002d580       __imp_load_?SlowGetAlignedPointerFromInternalField@Object@v8@@AEAAPEAXH@Z 000000018002e580 f   node:node.exe
 0001:0002d58c       __imp_load_?SlowGetInternalField@Object@v8@@AEAA?AV?$Local@VValue@v8@@@2@H@Z 000000018002e58c f   node:node.exe
 0001:0002d598       __imp_load_?New@Object@v8@@SA?AV?$Local@VObject@v8@@@2@PEAVIsolate@2@@Z 000000018002e598 f   node:node.exe
 0001:0002d5a4       __imp_load_?SetAlignedPointerInInternalField@Object@v8@@QEAAXHPEAX@Z 000000018002e5a4 f   node:node.exe
 0001:0002d5b0       __imp_load_?SetInternalField@Object@v8@@QEAAXHV?$Local@VValue@v8@@@2@@Z 000000018002e5b0 f   node:node.exe
 0001:0002d5bc       __imp_load_?InternalFieldCount@Object@v8@@QEAAHXZ 000000018002e5bc f   node:node.exe
 0001:0002d5c8       __imp_load_?Has@Object@v8@@QEAA?AV?$Maybe@_N@2@V?$Local@VContext@v8@@@2@V?$Local@VValue@v8@@@2@@Z 000000018002e5c8 f   node:node.exe
 0001:0002d5d4       __imp_load_?Get@Object@v8@@QEAA?AV?$MaybeLocal@VValue@v8@@@2@V?$Local@VContext@v8@@@2@V?$Local@VValue@v8@@@2@@Z 000000018002e5d4 f   node:node.exe
 0001:0002d5e0       __imp_load_?Get@Object@v8@@QEAA?AV?$Local@VValue@v8@@@2@I@Z 000000018002e5e0 f   node:node.exe
 0001:0002d5ec       __imp_load_?Get@Object@v8@@QEAA?AV?$MaybeLocal@VValue@v8@@@2@V?$Local@VContext@v8@@@2@I@Z 000000018002e5ec f   node:node.exe
 0001:0002d5f8       __imp_load_?Set@Object@v8@@QEAA?AV?$Maybe@_N@2@V?$Local@VContext@v8@@@2@V?$Local@VValue@v8@@@2@1@Z 000000018002e5f8 f   node:node.exe
 0001:0002d604       __imp_load_?Set@Object@v8@@QEAA?AV?$Maybe@_N@2@V?$Local@VContext@v8@@@2@IV?$Local@VValue@v8@@@2@@Z 000000018002e604 f   node:node.exe
 0001:0002d610       __imp_load_?NewInstance@Function@v8@@QEBA?AV?$Local@VObject@v8@@@2@XZ 000000018002e610 f   node:node.exe
 0001:0002d61c       __imp_load_?SetInternalFieldCount@ObjectTemplate@v8@@QEAAXH@Z 000000018002e61c f   node:node.exe
 0001:0002d628       __imp_load_?NewInstance@ObjectTemplate@v8@@QEAA?AV?$MaybeLocal@VObject@v8@@@2@V?$Local@VContext@v8@@@2@@Z 000000018002e628 f   node:node.exe
 0001:0002d634       __imp_load_?New@ObjectTemplate@v8@@SA?AV?$Local@VObjectTemplate@v8@@@2@PEAVIsolate@2@V?$Local@VFunctionTemplate@v8@@@2@@Z 000000018002e634 f   node:node.exe
 0001:0002d640       __imp_load_uv_mutex_lock   000000018002e640 f   node:node.exe
 0001:0002d64c       __imp_load_?HasInstance@Buffer@node@@YA_NV?$Local@VValue@v8@@@v8@@@Z 000000018002e64c f   node:node.exe
 0001:0002d658       __imp_load_?New@Buffer@node@@YA?AV?$MaybeLocal@VObject@v8@@@v8@@PEAVIsolate@4@PEAD_KP6AX1PEAX@Z3@Z 000000018002e658 f   node:node.exe
 0001:0002d664       __imp_load_?Data@Buffer@node@@YAPEADV?$Local@VObject@v8@@@v8@@@Z 000000018002e664 f   node:node.exe
 0001:0002d670       __imp_load_?Length@Buffer@node@@YA_KV?$Local@VObject@v8@@@v8@@@Z 000000018002e670 f   node:node.exe
 0001:0002d67c       __imp_load_?MakeCallback@node@@YA?AV?$Local@VValue@v8@@@v8@@PEAVIsolate@3@V?$Local@VObject@v8@@@3@V?$Local@VFunction@v8@@@3@HPEAV23@@Z 000000018002e67c f   node:node.exe
 0001:0002d688       __imp_load_uv_mutex_destroy 000000018002e688 f   node:node.exe
 0001:0002d694       __imp_load_uv_mutex_init   000000018002e694 f   node:node.exe
 0001:0002d6a0       __imp_load_uv_default_loop 000000018002e6a0 f   node:node.exe
 0001:0002d6ac       __imp_load_?ToObject@Value@v8@@QEBA?AV?$Local@VObject@v8@@@2@XZ 000000018002e6ac f   node:node.exe
 0001:0002d6b8       __imp_load_?ToString@Value@v8@@QEBA?AV?$Local@VString@v8@@@2@XZ 000000018002e6b8 f   node:node.exe
 0001:0002d6c4       ??0_Init_locks@std@@QEAA@XZ 000000018002e6c4 f   libcpmt:xlock.obj
 0001:0002d710       ??0_Lockit@std@@QEAA@H@Z   000000018002e710 f   libcpmt:xlock.obj
 0001:0002d74c       ??1_Init_locks@std@@QEAA@XZ 000000018002e74c f   libcpmt:xlock.obj
 0001:0002d790       ??1_Lockit@std@@QEAA@XZ    000000018002e790 f   libcpmt:xlock.obj
 0001:0002d7c4       ??4?$_Yarn@D@std@@QEAAAEAV01@PEBD@Z 000000018002e7c4 f i libcpmt:locale0.obj
 0001:0002d83c       ??_G_Fac_node@std@@QEAAPEAXI@Z 000000018002e83c f i libcpmt:locale0.obj
 0001:0002d8c8       ??_E_Locimp@locale@std@@MEAAPEAXI@Z 000000018002e8c8 f i libcpmt:locale0.obj
 0001:0002d8c8       ??_G_Locimp@locale@std@@MEAAPEAXI@Z 000000018002e8c8 f i libcpmt:locale0.obj
 0001:0002d934       ?_Facet_Register@std@@YAXPEAV_Facet_base@1@@Z 000000018002e934 f   libcpmt:locale0.obj
 0001:0002d96c       ?_Getgloballocale@locale@std@@CAPEAV_Locimp@12@XZ 000000018002e96c f   libcpmt:locale0.obj
 0001:0002d974       ?_Init@locale@std@@CAPEAV_Locimp@12@_N@Z 000000018002e974 f   libcpmt:locale0.obj
 0001:0002da30       ?_Locimp_dtor@_Locimp@locale@std@@CAXPEAV123@@Z 000000018002ea30 f   libcpmt:locale0.obj
 0001:0002dad8       ?_Locinfo_ctor@_Locinfo@std@@SAXPEAV12@PEBD@Z 000000018002ead8 f   libcpmt:locale0.obj
 0001:0002db44       ?_Locinfo_dtor@_Locinfo@std@@SAXPEAV12@@Z 000000018002eb44 f   libcpmt:locale0.obj
 0001:0002db68       ?_New_Locimp@_Locimp@locale@std@@CAPEAV123@_N@Z 000000018002eb68 f   libcpmt:locale0.obj
 0001:0002dbd8       ?_Setgloballocale@locale@std@@CAXPEAX@Z 000000018002ebd8 f   libcpmt:locale0.obj
 0001:0002dc0c       _Deletegloballocale        000000018002ec0c f   libcpmt:locale0.obj
 0001:0002dc94       ??0bad_alloc@std@@QEAA@AEBV01@@Z 000000018002ec94 f i libcpmt:xthrow.obj
 0001:0002dcd4       ??0bad_alloc@std@@QEAA@XZ  000000018002ecd4 f i libcpmt:xthrow.obj
 0001:0002dcf4       ??0exception@std@@QEAA@AEBV01@@Z 000000018002ecf4 f i libcpmt:xthrow.obj
 0001:0002dd2c       ??0length_error@std@@QEAA@AEBV01@@Z 000000018002ed2c f i libcpmt:xthrow.obj
 0001:0002dd6c       ??0length_error@std@@QEAA@PEBD@Z 000000018002ed6c f i libcpmt:xthrow.obj
 0001:0002ddb8       ??0logic_error@std@@QEAA@AEBV01@@Z 000000018002edb8 f i libcpmt:xthrow.obj
 0001:0002ddf8       ??0out_of_range@std@@QEAA@AEBV01@@Z 000000018002edf8 f i libcpmt:xthrow.obj
 0001:0002de38       ??0out_of_range@std@@QEAA@PEBD@Z 000000018002ee38 f i libcpmt:xthrow.obj
 0001:0002de84       ??_Gbad_exception@std@@UEAAPEAXI@Z 000000018002ee84 f i libvcruntime:frame.obj
 0001:0002de84       ??_Glength_error@std@@UEAAPEAXI@Z 000000018002ee84 f i libcpmt:xthrow.obj
 0001:0002de84       ??_Gexception@std@@UEAAPEAXI@Z 000000018002ee84 f i libcpmt:xthrow.obj
 0001:0002de84       ??_Eexception@std@@UEAAPEAXI@Z 000000018002ee84 f i libcpmt:xthrow.obj
 0001:0002de84       ??_Elength_error@std@@UEAAPEAXI@Z 000000018002ee84 f i libcpmt:xthrow.obj
 0001:0002de84       ??_Elogic_error@std@@UEAAPEAXI@Z 000000018002ee84 f i libcpmt:xthrow.obj
 0001:0002de84       ??_Ebad_alloc@std@@UEAAPEAXI@Z 000000018002ee84 f i libcpmt:xthrow.obj
 0001:0002de84       ??_Gbad_alloc@std@@UEAAPEAXI@Z 000000018002ee84 f i libcpmt:xthrow.obj
 0001:0002de84       ??_Ebad_array_new_length@std@@UEAAPEAXI@Z 000000018002ee84 f i LIBCMT:throw_bad_alloc.obj
 0001:0002de84       ??_Glogic_error@std@@UEAAPEAXI@Z 000000018002ee84 f i libcpmt:xthrow.obj
 0001:0002de84       ??_Gout_of_range@std@@UEAAPEAXI@Z 000000018002ee84 f i libcpmt:xthrow.obj
 0001:0002de84       ??_Eout_of_range@std@@UEAAPEAXI@Z 000000018002ee84 f i libcpmt:xthrow.obj
 0001:0002de84       ??_Ebad_exception@std@@UEAAPEAXI@Z 000000018002ee84 f i libvcruntime:frame.obj
 0001:0002de84       ??_Gbad_array_new_length@std@@UEAAPEAXI@Z 000000018002ee84 f i LIBCMT:throw_bad_alloc.obj
 0001:0002dec8       ?_Xbad_alloc@std@@YAXXZ    000000018002eec8 f   libcpmt:xthrow.obj
 0001:0002dec8       ?__scrt_throw_std_bad_alloc@@YAXXZ 000000018002eec8 f   LIBCMT:throw_bad_alloc.obj
 0001:0002dee8       ?_Xlength_error@std@@YAXPEBD@Z 000000018002eee8 f   libcpmt:xthrow.obj
 0001:0002df0c       ?_Xout_of_range@std@@YAXPEBD@Z 000000018002ef0c f   libcpmt:xthrow.obj
 0001:0002df30       ?what@exception@std@@UEBAPEBDXZ 000000018002ef30 f i libcpmt:xthrow.obj
 0001:0002df44       ?_Ios_base_dtor@ios_base@std@@CAXPEAV12@@Z 000000018002ef44 f   libcpmt:ios.obj
 0001:0002df88       ?_Tidy@ios_base@std@@AEAAXXZ 000000018002ef88 f i libcpmt:ios.obj
 0001:0002e018       ?_Syserror_map@std@@YAPEBDH@Z 000000018002f018 f   libcpmt:syserror.obj
 0001:0002e040       _Getctype                  000000018002f040 f   libcpmt:_tolower.obj
 0001:0002e100       _Tolower                   000000018002f100 f   libcpmt:_tolower.obj
 0001:0002e228       _Getcvt                    000000018002f228 f   libcpmt:xwctomb.obj
 0001:0002e2b8       _Toupper                   000000018002f2b8 f   libcpmt:_toupper.obj
 0001:0002e3f0       _Mtxdst                    000000018002f3f0 f   libcpmt:xmtx.obj
 0001:0002e3f8       _Mtxinit                   000000018002f3f8 f   libcpmt:xmtx.obj
 0001:0002e408       _Mtxlock                   000000018002f408 f   libcpmt:xmtx.obj
 0001:0002e410       _Mtxunlock                 000000018002f410 f   libcpmt:xmtx.obj
 0001:0002e418       ?_Atexit@@YAXP6AXXZ@Z      000000018002f418 f   libcpmt:iosptrs.obj
 0001:0002e458       __crtLCMapStringA          000000018002f458 f   libcpmt:StlLCMapStringA.obj
 0001:0002ec14       __crtInitializeCriticalSectionEx 000000018002fc14 f   libcpmt:winapisupp.obj
 0001:0002ec74       GetTableIndexFromLocaleName 000000018002fc74 f   libcpmt:winapinls.obj
 0001:0002ed00       __crtDownlevelLocaleNameToLCID 000000018002fd00 f   libcpmt:winapinls.obj
 0001:0002ed34       __crtLCMapStringEx         000000018002fd34 f   libcpmt:winapinls.obj
 0001:0002edf0       __wcsnicmp_ascii           000000018002fdf0 f   libcpmt:winapinls.obj
 0001:0002ee60       __security_check_cookie    000000018002fe60 f   LIBCMT:_amdsecgs_.obj
 0001:0002efcc       _Init_thread_footer        000000018002ffcc f   LIBCMT:thread_safe_statics.obj
 0001:0002f02c       _Init_thread_header        000000018003002c f   LIBCMT:thread_safe_statics.obj
 0001:0002f094       _Init_thread_notify        0000000180030094 f   LIBCMT:thread_safe_statics.obj
 0001:0002f0f0       _Init_thread_wait          00000001800300f0 f   LIBCMT:thread_safe_statics.obj
 0001:0002f188       ??2@YAPEAX_K@Z             0000000180030188 f   LIBCMT:new_scalar.obj
 0001:0002f1c4       __scrt_acquire_startup_lock 00000001800301c4 f   LIBCMT:utility.obj
 0001:0002f200       __scrt_dllmain_after_initialize_c 0000000180030200 f   LIBCMT:utility.obj
 0001:0002f234       __scrt_dllmain_before_initialize_c 0000000180030234 f   LIBCMT:utility.obj
 0001:0002f24c       __scrt_dllmain_crt_thread_attach 000000018003024c f   LIBCMT:utility.obj
 0001:0002f274       __scrt_dllmain_crt_thread_detach 0000000180030274 f   LIBCMT:utility.obj
 0001:0002f28c       __scrt_dllmain_exception_filter 000000018003028c f   LIBCMT:utility.obj
 0001:0002f2f0       __scrt_dllmain_uninitialize_c 00000001800302f0 f   LIBCMT:utility.obj
 0001:0002f320       __scrt_dllmain_uninitialize_critical 0000000180030320 f   LIBCMT:utility.obj
 0001:0002f334       __scrt_initialize_crt      0000000180030334 f   LIBCMT:utility.obj
 0001:0002f380       __scrt_initialize_onexit_tables 0000000180030380 f   LIBCMT:utility.obj
 0001:0002f44c       __scrt_is_nonwritable_in_current_image 000000018003044c f   LIBCMT:utility.obj
 0001:0002f4e8       __scrt_release_startup_lock 00000001800304e8 f   LIBCMT:utility.obj
 0001:0002f50c       __scrt_uninitialize_crt    000000018003050c f   LIBCMT:utility.obj
 0001:0002f538       _onexit                    0000000180030538 f   LIBCMT:utility.obj
 0001:0002f588       atexit                     0000000180030588 f   LIBCMT:utility.obj
 0001:0002f5a0       ??3@YAXPEAX@Z              00000001800305a0 f   LIBCMT:delete_scalar.obj
 0001:0002f5a8       ??3@YAXPEAX_K@Z            00000001800305a8 f   LIBCMT:delete_scalar_size.obj
 0001:0002f5a8       ??_V@YAXPEAX@Z             00000001800305a8 f   LIBCMT:delete_array.obj
 0001:0002f5b0       ??_U@YAPEAX_K@Z            00000001800305b0 f   LIBCMT:new_array.obj
 0001:0002f904       _DllMainCRTStartup         0000000180030904 f   LIBCMT:dll_dllmain.obj
 0001:0002f944       _guard_check_icall         0000000180030944 f i LIBCMT:checkcfg.obj
 0001:0002f94c       ??_Gtype_info@@UEAAPEAXI@Z 000000018003094c f i LIBCMT:std_type_info_static.obj
 0001:0002f94c       ??_Etype_info@@UEAAPEAXI@Z 000000018003094c f i LIBCMT:std_type_info_static.obj
 0001:0002f978       __GSHandlerCheck           0000000180030978 f   LIBCMT:_gshandler_.obj
 0001:0002f998       __GSHandlerCheckCommon     0000000180030998 f   LIBCMT:_gshandler_.obj
 0001:0002f9f4       __GSHandlerCheck_EH        00000001800309f4 f   LIBCMT:gshandlereh.obj
 0001:0002fa90       __chkstk                   0000000180030a90 f   LIBCMT:_chkstk_.obj
 0001:0002fa90       _alloca_probe              0000000180030a90 f   LIBCMT:_chkstk_.obj
 0001:0002fae4       __raise_securityfailure    0000000180030ae4 f   LIBCMT:gs_report.obj
 0001:0002fb18       __report_gsfailure         0000000180030b18 f   LIBCMT:gs_report.obj
 0001:0002fbec       __report_rangecheckfailure 0000000180030bec f   LIBCMT:gs_report.obj
 0001:0002fc00       __report_securityfailure   0000000180030c00 f   LIBCMT:gs_report.obj
 0001:0002fd80       __crt_debugger_hook        0000000180030d80 f   LIBCMT:utility_desktop.obj
 0001:0002fd88       __scrt_fastfail            0000000180030d88 f   LIBCMT:utility_desktop.obj
 0001:0002fed0       ??0bad_array_new_length@std@@QEAA@AEBV01@@Z 0000000180030ed0 f i LIBCMT:throw_bad_alloc.obj
 0001:0002ff10       ??0bad_array_new_length@std@@QEAA@XZ 0000000180030f10 f i LIBCMT:throw_bad_alloc.obj
 0001:0002ff30       ?__scrt_throw_std_bad_array_new_length@@YAXXZ 0000000180030f30 f   LIBCMT:throw_bad_alloc.obj
 0001:0002ff50       __isa_available_init       0000000180030f50 f   LIBCMT:_cpu_disp_.obj
 0001:00030118       _get_startup_argv_mode     0000000180031118 f   LIBCMT:argv_mode.obj
 0001:00030120       __scrt_is_ucrt_dll_in_use  0000000180031120 f   LIBCMT:ucrt_detection.obj
 0001:0003012c       __security_init_cookie     000000018003112c f   LIBCMT:gs_support.obj
 0001:000301d8       ?__scrt_initialize_type_info@@YAXXZ 00000001800311d8 f   LIBCMT:tncleanup.obj
 0001:000301e8       ?__scrt_uninitialize_type_info@@YAXXZ 00000001800311e8 f   LIBCMT:tncleanup.obj
 0001:000301f4       __local_stdio_scanf_options 00000001800311f4 f i LIBCMT:default_local_stdio_options.obj
 0001:000301fc       __scrt_initialize_default_local_stdio_options 00000001800311fc f   LIBCMT:default_local_stdio_options.obj
 0001:00030218       __scrt_get_dyn_tls_init_callback 0000000180031218 f   LIBCMT:dyn_tls_init.obj
 0001:00030220       _RTC_Initialize            0000000180031220 f   LIBCMT:_initsect_.obj
 0001:0003026c       _RTC_Terminate             000000018003126c f   LIBCMT:_initsect_.obj
 0001:000302d0       memcpy                     00000001800312d0 f   libvcruntime:memcpy.obj
 0001:000302d0       memmove                    00000001800312d0 f   libvcruntime:memcpy.obj
 0001:00030708       _purecall                  0000000180031708 f   libvcruntime:purevirt.obj
 0001:00030744       __DestructExceptionObject  0000000180031744 f   libvcruntime:frame.obj
 0001:000307cc       ??0bad_exception@std@@QEAA@AEBV01@@Z 00000001800317cc f i libvcruntime:frame.obj
 0001:0003080c       ??0bad_exception@std@@QEAA@XZ 000000018003180c f i libvcruntime:frame.obj
 0001:0003082c       ??1length_error@std@@UEAA@XZ 000000018003182c f i libcpmt:xthrow.obj
 0001:0003082c       ??1bad_exception@std@@UEAA@XZ 000000018003182c f i libvcruntime:frame.obj
 0001:0003082c       ??1bad_array_new_length@std@@UEAA@XZ 000000018003182c f i LIBCMT:throw_bad_alloc.obj
 0001:0003082c       ??1out_of_range@std@@UEAA@XZ 000000018003182c f i libcpmt:xthrow.obj
 0001:0003082c       ??1bad_alloc@std@@UEAA@XZ  000000018003182c f i libcpmt:xthrow.obj
 0001:0003119c       ?_CallMemberFunction0@@YAXPEAXP6AX0@Z@Z 000000018003219c f i libvcruntime:frame.obj
 0001:000311a0       ?_CallMemberFunction1@@YAXPEAXP6AX0@Z0@Z 00000001800321a0 f i libvcruntime:frame.obj
 0001:000311ac       ?_CallMemberFunction2@@YAXPEAXP6AX0@Z0H@Z 00000001800321ac f i libvcruntime:frame.obj
 0001:000311bc       __AdjustPointer            00000001800321bc f   libvcruntime:frame.obj
 0001:000311e0       __BuildCatchObject         00000001800321e0 f   libvcruntime:frame.obj
 0001:000312a4       __BuildCatchObjectHelper   00000001800322a4 f   libvcruntime:frame.obj
 0001:00031484       __CxxCallCatchBlock        0000000180032484 f   libvcruntime:frame.obj
 0001:00031670       __FrameUnwindFilter        0000000180032670 f   libvcruntime:frame.obj
 0001:000316bc       __FrameUnwindToState       00000001800326bc f   libvcruntime:frame.obj
 0001:00031850       __InternalCxxFrameHandler  0000000180032850 f   libvcruntime:frame.obj
 0001:00031aa8       __TypeMatch                0000000180032aa8 f   libvcruntime:frame.obj
 0001:00031be8       __std_terminate            0000000180032be8 f   libvcruntime:frame.obj
 0001:00031bf4       ?_ExecutionInCatch@@YAHPEAU_xDISPATCHER_CONTEXT@@PEBU_s_FuncInfo@@@Z 0000000180032bf4 f   libvcruntime:trnsctrl.obj
 0001:00031c68       ?_GetEstablisherFrame@@YAPEA_KPEA_KPEAU_xDISPATCHER_CONTEXT@@PEBU_s_FuncInfo@@0@Z 0000000180032c68 f   libvcruntime:trnsctrl.obj
 0001:00031d34       ?_GetRangeOfTrysToCheck@@YAPEBU_s_TryBlockMapEntry@@PEA_KPEBU_s_FuncInfo@@HHPEAI2PEAU_xDISPATCHER_CONTEXT@@@Z 0000000180032d34 f   libvcruntime:trnsctrl.obj
 0001:00031e60       ?__FrameUnwindToEmptyState@@YAXPEA_KPEAU_xDISPATCHER_CONTEXT@@PEBU_s_FuncInfo@@@Z 0000000180032e60 f   libvcruntime:trnsctrl.obj
 0001:00031ef4       ?__SehTransFilter@@YAHPEAU_EXCEPTION_POINTERS@@PEAUEHExceptionRecord@@PEA_KPEAU_CONTEXT@@PEAU_xDISPATCHER_CONTEXT@@PEBU_s_FuncInfo@@PEAH@Z 0000000180032ef4 f   libvcruntime:trnsctrl.obj
 0001:00031f8c       _CallSETranslator          0000000180032f8c f   libvcruntime:trnsctrl.obj
 0001:00031fe4       _CreateFrameInfo           0000000180032fe4 f   libvcruntime:trnsctrl.obj
 0001:00032020       _FindAndUnlinkFrame        0000000180033020 f   libvcruntime:trnsctrl.obj
 0001:00032078       _GetImageBase              0000000180033078 f   libvcruntime:trnsctrl.obj
 0001:0003208c       _GetThrowImageBase         000000018003308c f   libvcruntime:trnsctrl.obj
 0001:000320a0       _IsExceptionObjectToBeDestroyed 00000001800330a0 f   libvcruntime:trnsctrl.obj
 0001:000320d0       _SetImageBase              00000001800330d0 f   libvcruntime:trnsctrl.obj
 0001:000320e8       _SetThrowImageBase         00000001800330e8 f   libvcruntime:trnsctrl.obj
 0001:00032100       _UnwindNestedFrames        0000000180033100 f   libvcruntime:trnsctrl.obj
 0001:00032224       __CxxFrameHandler3         0000000180033224 f   libvcruntime:trnsctrl.obj
 0001:000322a4       __std_exception_copy       00000001800332a4 f   libvcruntime:std_exception.obj
 0001:00032334       __std_exception_destroy    0000000180033334 f   libvcruntime:std_exception.obj
 0001:0003235c       _CxxThrowException         000000018003335c f   libvcruntime:throw.obj
 0001:00032450       memset                     0000000180033450 f   libvcruntime:memset.obj
 0001:00032600       memcmp                     0000000180033600 f   libvcruntime:memcmp.obj
 0001:00032890       __vcrt_FlsAlloc            0000000180033890 f   libvcruntime:winapi_downlevel.obj
 0001:000328e4       __vcrt_FlsFree             00000001800338e4 f   libvcruntime:winapi_downlevel.obj
 0001:00032938       __vcrt_FlsGetValue         0000000180033938 f   libvcruntime:winapi_downlevel.obj
 0001:0003298c       __vcrt_FlsSetValue         000000018003398c f   libvcruntime:winapi_downlevel.obj
 0001:000329f4       __vcrt_InitializeCriticalSectionEx 00000001800339f4 f   libvcruntime:winapi_downlevel.obj
 0001:00032a6c       __vcrt_initialize_winapi_thunks 0000000180033a6c f   libvcruntime:winapi_downlevel.obj
 0001:00032ab8       __vcrt_uninitialize_winapi_thunks 0000000180033ab8 f   libvcruntime:winapi_downlevel.obj
 0001:00032af8       __vcrt_initialize          0000000180033af8 f   libvcruntime:initialization.obj
 0001:00032b2c       __vcrt_thread_attach       0000000180033b2c f   libvcruntime:initialization.obj
 0001:00032b40       __vcrt_thread_detach       0000000180033b40 f   libvcruntime:initialization.obj
 0001:00032b54       __vcrt_uninitialize        0000000180033b54 f   libvcruntime:initialization.obj
 0001:00032b74       __vcrt_uninitialize_critical 0000000180033b74 f   libvcruntime:initialization.obj
 0001:00032b84       __C_specific_handler       0000000180033b84 f   libvcruntime:_chandler_.obj
 0001:00032d80       __std_type_info_compare    0000000180033d80 f   libvcruntime:std_type_info.obj
 0001:00032da8       __std_type_info_destroy_list 0000000180033da8 f   libvcruntime:std_type_info.obj
 0001:00032dd4       __vcrt_initialize_pure_virtual_call_handler 0000000180033dd4 f   libvcruntime:purevirt_data.obj
 0001:00032df8       __vcrt_freefls             0000000180033df8 f   libvcruntime:per_thread_data.obj
 0001:00032e18       __vcrt_freeptd             0000000180033e18 f   libvcruntime:per_thread_data.obj
 0001:00032e68       __vcrt_getptd              0000000180033e68 f   libvcruntime:per_thread_data.obj
 0001:00032e84       __vcrt_getptd_noexit       0000000180033e84 f   libvcruntime:per_thread_data.obj
 0001:00032f3c       __vcrt_initialize_ptd      0000000180033f3c f   libvcruntime:per_thread_data.obj
 0001:00032f7c       __vcrt_uninitialize_ptd    0000000180033f7c f   libvcruntime:per_thread_data.obj
 0001:00032fa0       ?__GetCurrentState@@YAHPEA_KPEAU_xDISPATCHER_CONTEXT@@PEBU_s_FuncInfo@@@Z 0000000180033fa0 f   libvcruntime:ehstate.obj
 0001:00032fc8       ?__GetUnwindTryBlock@@YAHPEA_KPEAU_xDISPATCHER_CONTEXT@@PEBU_s_FuncInfo@@@Z 0000000180033fc8 f   libvcruntime:ehstate.obj
 0001:00032ff4       ?__SetState@@YAXPEA_KPEAU_xDISPATCHER_CONTEXT@@PEBU_s_FuncInfo@@H@Z 0000000180033ff4 f   libvcruntime:ehstate.obj
 0001:00033000       ?__SetUnwindTryBlock@@YAXPEA_KPEAU_xDISPATCHER_CONTEXT@@PEBU_s_FuncInfo@@H@Z 0000000180034000 f   libvcruntime:ehstate.obj
 0001:0003303c       ?__StateFromControlPc@@YAHPEBU_s_FuncInfo@@PEAU_xDISPATCHER_CONTEXT@@@Z 000000018003403c f   libvcruntime:ehstate.obj
 0001:00033044       ?__StateFromIp@@YAHPEBU_s_FuncInfo@@PEAU_xDISPATCHER_CONTEXT@@_J@Z 0000000180034044 f   libvcruntime:ehstate.obj
 0001:000330c0       _CallSettingFrame          00000001800340c0 f   libvcruntime:handlers.obj
 0001:00033110       _local_unwind              0000000180034110 f   libvcruntime:_jmpuwind_.obj
 0001:00033140       _NLG_Notify                0000000180034140 f   libvcruntime:_jmpuwind_.obj
 0001:00033160       __NLG_Dispatch2            0000000180034160 f   libvcruntime:_jmpuwind_.obj
 0001:00033170       __NLG_Return2              0000000180034170 f   libvcruntime:_jmpuwind_.obj
 0001:00033174       __vcrt_initialize_locks    0000000180034174 f   libvcruntime:locks.obj
 0001:000331bc       __vcrt_uninitialize_locks  00000001800341bc f   libvcruntime:locks.obj
 0001:000331f4       abort                      00000001800341f4 f   libucrt:abort.obj
 0001:0003324c       calloc                     000000018003424c f   libucrt:calloc.obj
 0001:00033254       __acrt_call_reportfault    0000000180034254 f   libucrt:invalid_parameter.obj
 0001:000333b0       __acrt_initialize_invalid_parameter_handler 00000001800343b0 f   libucrt:invalid_parameter.obj
 0001:000333b8       _invalid_parameter         00000001800343b8 f   libucrt:invalid_parameter.obj
 0001:00033460       _invalid_parameter_noinfo  0000000180034460 f   libucrt:invalid_parameter.obj
 0001:00033480       _invalid_parameter_noinfo_noreturn 0000000180034480 f   libucrt:invalid_parameter.obj
 0001:000334b0       _invoke_watson             00000001800344b0 f   libucrt:invalid_parameter.obj
 0001:000334f8       ??$__crt_time_is_leap_year@_J@@YA_N_J@Z 00000001800344f8 f i libucrt:mktime.obj
 0001:000338cc       _mktime64                  00000001800348cc f   libucrt:mktime.obj
 0001:000338d4       strcspn                    00000001800348d4 f   libucrt:strcspn.obj
 0001:00033974       ??$?RV<lambda_7b91131dde12e1c3dfc74ff76b3f2eac>@@AEAV<lambda_dd75445284c072d0bd3768540cc698fa>@@V<lambda_16bc4ecb55b4718497c16bceaea2ceaf>@@@?$__crt_seh_guarded_call@H@@QEAAH$$QEAV<lambda_7b91131dde12e1c3dfc74ff76b3f2eac>@@AEAV<lambda_dd75445284c072d0bd3768540cc698fa>@@$$QEAV<lambda_16bc4ecb55b4718497c16bceaea2ceaf>@@@Z 0000000180034974 f i libucrt:output.obj
 0001:00033b5c       ??$ensure_buffer_is_big_enough@D@formatting_buffer@__crt_stdio_output@@QEAA_N_K@Z 0000000180034b5c f i libucrt:output.obj
 0001:00033c08       ??$is_wide_character_specifier@D@__crt_stdio_output@@YA_N_KDW4length_modifier@0@@Z 0000000180034c08 f i libucrt:output.obj
 0001:00033c38       ??$is_wide_character_specifier@_W@__crt_stdio_output@@YA_N_K_WW4length_modifier@0@@Z 0000000180034c38 f i libucrt:output.obj
 0001:00033c7c       ??$type_case_integer_parse_into_buffer@I@?$output_processor@_WV?$stream_output_adapter@_W@__crt_stdio_output@@V?$standard_base@_WV?$stream_output_adapter@_W@__crt_stdio_output@@@2@@__crt_stdio_output@@AEAAXII_N@Z 0000000180034c7c f i libucrt:output.obj
 0001:00033c7c       ??$type_case_integer_parse_into_buffer@I@?$output_processor@DV?$string_output_adapter@D@__crt_stdio_output@@V?$format_validation_base@DV?$string_output_adapter@D@__crt_stdio_output@@@2@@__crt_stdio_output@@AEAAXII_N@Z 0000000180034c7c f i libucrt:output.obj
 0001:00033c7c       ??$type_case_integer_parse_into_buffer@I@?$output_processor@_WV?$string_output_adapter@_W@__crt_stdio_output@@V?$standard_base@_WV?$string_output_adapter@_W@__crt_stdio_output@@@2@@__crt_stdio_output@@AEAAXII_N@Z 0000000180034c7c f i libucrt:output.obj
 0001:00033d18       ??$type_case_integer_parse_into_buffer@_K@?$output_processor@DV?$string_output_adapter@D@__crt_stdio_output@@V?$format_validation_base@DV?$string_output_adapter@D@__crt_stdio_output@@@2@@__crt_stdio_output@@AEAAX_KI_N@Z 0000000180034d18 f i libucrt:output.obj
 0001:00033d18       ??$type_case_integer_parse_into_buffer@_K@?$output_processor@_WV?$stream_output_adapter@_W@__crt_stdio_output@@V?$standard_base@_WV?$stream_output_adapter@_W@__crt_stdio_output@@@2@@__crt_stdio_output@@AEAAX_KI_N@Z 0000000180034d18 f i libucrt:output.obj
 0001:00033d18       ??$type_case_integer_parse_into_buffer@_K@?$output_processor@_WV?$string_output_adapter@_W@__crt_stdio_output@@V?$standard_base@_WV?$string_output_adapter@_W@__crt_stdio_output@@@2@@__crt_stdio_output@@AEAAX_KI_N@Z 0000000180034d18 f i libucrt:output.obj
 0001:00033db4       ??$write_multiple_characters@V?$stream_output_adapter@_W@__crt_stdio_output@@D@__crt_stdio_output@@YAXAEBV?$stream_output_adapter@_W@0@DHQEAH@Z 0000000180034db4 f i libucrt:output.obj
 0001:00033e44       ??$write_multiple_characters@V?$string_output_adapter@D@__crt_stdio_output@@D@__crt_stdio_output@@YAXAEBV?$string_output_adapter@D@0@DHQEAH@Z 0000000180034e44 f i libucrt:output.obj
 0001:00033ea0       ??$write_multiple_characters@V?$string_output_adapter@_W@__crt_stdio_output@@D@__crt_stdio_output@@YAXAEBV?$string_output_adapter@_W@0@DHQEAH@Z 0000000180034ea0 f i libucrt:output.obj
 0001:00033f10       ??0?$output_processor@DV?$string_output_adapter@D@__crt_stdio_output@@V?$format_validation_base@DV?$string_output_adapter@D@__crt_stdio_output@@@2@@__crt_stdio_output@@QEAA@AEBV?$string_output_adapter@D@1@_KQEBDQEAU__crt_locale_pointers@@QEAD@Z 0000000180034f10 f i libucrt:output.obj
 0001:00033f8c       ??0?$output_processor@_WV?$string_output_adapter@_W@__crt_stdio_output@@V?$standard_base@_WV?$string_output_adapter@_W@__crt_stdio_output@@@2@@__crt_stdio_output@@QEAA@AEBV?$string_output_adapter@_W@1@_KQEB_WQEAU__crt_locale_pointers@@QEAD@Z 0000000180034f8c f i libucrt:output.obj
 0001:00033f8c       ??0?$output_processor@_WV?$stream_output_adapter@_W@__crt_stdio_output@@V?$standard_base@_WV?$stream_output_adapter@_W@__crt_stdio_output@@@2@@__crt_stdio_output@@QEAA@AEBV?$stream_output_adapter@_W@1@_KQEB_WQEAU__crt_locale_pointers@@QEAD@Z 0000000180034f8c f i libucrt:output.obj
 0001:0003400c       ??0_LocaleUpdate@@QEAA@QEAU__crt_locale_pointers@@@Z 000000018003500c f i libucrt:output.obj
 0001:0003418c       ?force_decimal_point@__crt_stdio_output@@YAXPEADQEAU__crt_locale_pointers@@@Z 000000018003518c f i libucrt:output.obj
 0001:000341fc       ?parse_int_from_format_string@?$output_processor@DV?$string_output_adapter@D@__crt_stdio_output@@V?$format_validation_base@DV?$string_output_adapter@D@__crt_stdio_output@@@2@@__crt_stdio_output@@AEAA_NQEAH@Z 00000001800351fc f i libucrt:output.obj
 0001:00034280       ?parse_int_from_format_string@?$output_processor@_WV?$string_output_adapter@_W@__crt_stdio_output@@V?$standard_base@_WV?$string_output_adapter@_W@__crt_stdio_output@@@2@@__crt_stdio_output@@AEAA_NQEAH@Z 0000000180035280 f i libucrt:output.obj
 0001:00034280       ?parse_int_from_format_string@?$output_processor@_WV?$stream_output_adapter@_W@__crt_stdio_output@@V?$standard_base@_WV?$stream_output_adapter@_W@__crt_stdio_output@@@2@@__crt_stdio_output@@AEAA_NQEAH@Z 0000000180035280 f i libucrt:output.obj
 0001:00034300       ?process@?$output_processor@DV?$string_output_adapter@D@__crt_stdio_output@@V?$format_validation_base@DV?$string_output_adapter@D@__crt_stdio_output@@@2@@__crt_stdio_output@@QEAAHXZ 0000000180035300 f i libucrt:output.obj
 0001:00034514       ?process@?$output_processor@_WV?$stream_output_adapter@_W@__crt_stdio_output@@V?$standard_base@_WV?$stream_output_adapter@_W@__crt_stdio_output@@@2@@__crt_stdio_output@@QEAAHXZ 0000000180035514 f i libucrt:output.obj
 0001:0003478c       ?process@?$output_processor@_WV?$string_output_adapter@_W@__crt_stdio_output@@V?$standard_base@_WV?$string_output_adapter@_W@__crt_stdio_output@@@2@@__crt_stdio_output@@QEAAHXZ 000000018003578c f i libucrt:output.obj
 0001:00034a08       ?state_case_normal@?$output_processor@DV?$string_output_adapter@D@__crt_stdio_output@@V?$format_validation_base@DV?$string_output_adapter@D@__crt_stdio_output@@@2@@__crt_stdio_output@@AEAA_NXZ 0000000180035a08 f i libucrt:output.obj
 0001:00034a7c       ?state_case_normal_tchar@?$output_processor@DV?$string_output_adapter@D@__crt_stdio_output@@V?$format_validation_base@DV?$string_output_adapter@D@__crt_stdio_output@@@2@@__crt_stdio_output@@AEAA_ND@Z 0000000180035a7c f i libucrt:output.obj
 0001:00034b14       ?state_case_size@?$output_processor@DV?$string_output_adapter@D@__crt_stdio_output@@V?$format_validation_base@DV?$string_output_adapter@D@__crt_stdio_output@@@2@@__crt_stdio_output@@AEAA_NXZ 0000000180035b14 f i libucrt:output.obj
 0001:00034c90       ?state_case_size@?$output_processor@_WV?$stream_output_adapter@_W@__crt_stdio_output@@V?$standard_base@_WV?$stream_output_adapter@_W@__crt_stdio_output@@@2@@__crt_stdio_output@@AEAA_NXZ 0000000180035c90 f i libucrt:output.obj
 0001:00034e34       ?state_case_size@?$output_processor@_WV?$string_output_adapter@_W@__crt_stdio_output@@V?$standard_base@_WV?$string_output_adapter@_W@__crt_stdio_output@@@2@@__crt_stdio_output@@AEAA_NXZ 0000000180035e34 f i libucrt:output.obj
 0001:00034fd8       ?state_case_type@?$output_processor@DV?$string_output_adapter@D@__crt_stdio_output@@V?$format_validation_base@DV?$string_output_adapter@D@__crt_stdio_output@@@2@@__crt_stdio_output@@AEAA_NXZ 0000000180035fd8 f i libucrt:output.obj
 0001:00035254       ?state_case_type@?$output_processor@_WV?$stream_output_adapter@_W@__crt_stdio_output@@V?$standard_base@_WV?$stream_output_adapter@_W@__crt_stdio_output@@@2@@__crt_stdio_output@@AEAA_NXZ 0000000180036254 f i libucrt:output.obj
 0001:00035520       ?state_case_type@?$output_processor@_WV?$string_output_adapter@_W@__crt_stdio_output@@V?$standard_base@_WV?$string_output_adapter@_W@__crt_stdio_output@@@2@@__crt_stdio_output@@AEAA_NXZ 0000000180036520 f i libucrt:output.obj
 0001:000357ec       ?type_case_Z@?$output_processor@DV?$string_output_adapter@D@__crt_stdio_output@@V?$format_validation_base@DV?$string_output_adapter@D@__crt_stdio_output@@@2@@__crt_stdio_output@@AEAA_NXZ 00000001800367ec f i libucrt:output.obj
 0001:0003586c       ?type_case_Z@?$output_processor@_WV?$stream_output_adapter@_W@__crt_stdio_output@@V?$standard_base@_WV?$stream_output_adapter@_W@__crt_stdio_output@@@2@@__crt_stdio_output@@AEAA_NXZ 000000018003686c f i libucrt:output.obj
 0001:0003586c       ?type_case_Z@?$output_processor@_WV?$string_output_adapter@_W@__crt_stdio_output@@V?$standard_base@_WV?$string_output_adapter@_W@__crt_stdio_output@@@2@@__crt_stdio_output@@AEAA_NXZ 000000018003686c f i libucrt:output.obj
 0001:000358ec       ?type_case_a@?$output_processor@DV?$string_output_adapter@D@__crt_stdio_output@@V?$format_validation_base@DV?$string_output_adapter@D@__crt_stdio_output@@@2@@__crt_stdio_output@@AEAA_NXZ 00000001800368ec f i libucrt:output.obj
 0001:00035b08       ?type_case_a@?$output_processor@_WV?$stream_output_adapter@_W@__crt_stdio_output@@V?$standard_base@_WV?$stream_output_adapter@_W@__crt_stdio_output@@@2@@__crt_stdio_output@@AEAA_NXZ 0000000180036b08 f i libucrt:output.obj
 0001:00035b08       ?type_case_a@?$output_processor@_WV?$string_output_adapter@_W@__crt_stdio_output@@V?$standard_base@_WV?$string_output_adapter@_W@__crt_stdio_output@@@2@@__crt_stdio_output@@AEAA_NXZ 0000000180036b08 f i libucrt:output.obj
 0001:00035d4c       ?type_case_c_tchar@?$output_processor@DV?$string_output_adapter@D@__crt_stdio_output@@V?$format_validation_base@DV?$string_output_adapter@D@__crt_stdio_output@@@2@@__crt_stdio_output@@AEAA_ND@Z 0000000180036d4c f i libucrt:output.obj
 0001:00035e00       ?type_case_c_tchar@?$output_processor@_WV?$string_output_adapter@_W@__crt_stdio_output@@V?$standard_base@_WV?$string_output_adapter@_W@__crt_stdio_output@@@2@@__crt_stdio_output@@AEAA_N_W@Z 0000000180036e00 f i libucrt:output.obj
 0001:00035e00       ?type_case_c_tchar@?$output_processor@_WV?$stream_output_adapter@_W@__crt_stdio_output@@V?$standard_base@_WV?$stream_output_adapter@_W@__crt_stdio_output@@@2@@__crt_stdio_output@@AEAA_N_W@Z 0000000180036e00 f i libucrt:output.obj
 0001:00035ea8       ?type_case_integer@?$output_processor@_WV?$string_output_adapter@_W@__crt_stdio_output@@V?$standard_base@_WV?$string_output_adapter@_W@__crt_stdio_output@@@2@@__crt_stdio_output@@AEAA_NI_N@Z 0000000180036ea8 f i libucrt:output.obj
 0001:00035ea8       ?type_case_integer@?$output_processor@_WV?$stream_output_adapter@_W@__crt_stdio_output@@V?$standard_base@_WV?$stream_output_adapter@_W@__crt_stdio_output@@@2@@__crt_stdio_output@@AEAA_NI_N@Z 0000000180036ea8 f i libucrt:output.obj
 0001:00035ea8       ?type_case_integer@?$output_processor@DV?$string_output_adapter@D@__crt_stdio_output@@V?$format_validation_base@DV?$string_output_adapter@D@__crt_stdio_output@@@2@@__crt_stdio_output@@AEAA_NI_N@Z 0000000180036ea8 f i libucrt:output.obj
 0001:00036048       ?type_case_n@?$output_processor@DV?$string_output_adapter@D@__crt_stdio_output@@V?$format_validation_base@DV?$string_output_adapter@D@__crt_stdio_output@@@2@@__crt_stdio_output@@AEAA_NXZ 0000000180037048 f i libucrt:output.obj
 0001:00036048       ?type_case_n@?$output_processor@_WV?$string_output_adapter@_W@__crt_stdio_output@@V?$standard_base@_WV?$string_output_adapter@_W@__crt_stdio_output@@@2@@__crt_stdio_output@@AEAA_NXZ 0000000180037048 f i libucrt:output.obj
 0001:00036048       ?type_case_n@?$output_processor@_WV?$stream_output_adapter@_W@__crt_stdio_output@@V?$standard_base@_WV?$stream_output_adapter@_W@__crt_stdio_output@@@2@@__crt_stdio_output@@AEAA_NXZ 0000000180037048 f i libucrt:output.obj
 0001:00036124       ?type_case_s@?$output_processor@DV?$string_output_adapter@D@__crt_stdio_output@@V?$format_validation_base@DV?$string_output_adapter@D@__crt_stdio_output@@@2@@__crt_stdio_output@@AEAA_NXZ 0000000180037124 f i libucrt:output.obj
 0001:000361b4       ?type_case_s@?$output_processor@_WV?$stream_output_adapter@_W@__crt_stdio_output@@V?$standard_base@_WV?$stream_output_adapter@_W@__crt_stdio_output@@@2@@__crt_stdio_output@@AEAA_NXZ 00000001800371b4 f i libucrt:output.obj
 0001:000361b4       ?type_case_s@?$output_processor@_WV?$string_output_adapter@_W@__crt_stdio_output@@V?$standard_base@_WV?$string_output_adapter@_W@__crt_stdio_output@@@2@@__crt_stdio_output@@AEAA_NXZ 00000001800371b4 f i libucrt:output.obj
 0001:0003627c       ?write_stored_string_tchar@?$output_processor@DV?$string_output_adapter@D@__crt_stdio_output@@V?$format_validation_base@DV?$string_output_adapter@D@__crt_stdio_output@@@2@@__crt_stdio_output@@AEAA_ND@Z 000000018003727c f i libucrt:output.obj
 0001:00036354       ?write_stored_string_tchar@?$output_processor@_WV?$stream_output_adapter@_W@__crt_stdio_output@@V?$standard_base@_WV?$stream_output_adapter@_W@__crt_stdio_output@@@2@@__crt_stdio_output@@AEAA_N_W@Z 0000000180037354 f i libucrt:output.obj
 0001:00036440       ?write_stored_string_tchar@?$output_processor@_WV?$string_output_adapter@_W@__crt_stdio_output@@V?$standard_base@_WV?$string_output_adapter@_W@__crt_stdio_output@@@2@@__crt_stdio_output@@AEAA_N_W@Z 0000000180037440 f i libucrt:output.obj
 0001:00036530       ?write_string@?$stream_output_adapter@_W@__crt_stdio_output@@QEBAXQEB_WHQEAH1@Z 0000000180037530 f i libucrt:output.obj
 0001:0003663c       ?write_string@?$string_output_adapter@D@__crt_stdio_output@@QEBAXQEBDHQEAH1@Z 000000018003763c f i libucrt:output.obj
 0001:000366f8       ?write_string@?$string_output_adapter@_W@__crt_stdio_output@@QEBAXQEB_WHQEAH1@Z 00000001800376f8 f i libucrt:output.obj
 0001:000367b8       __stdio_common_vfwprintf   00000001800377b8 f   libucrt:output.obj
 0001:00036844       __stdio_common_vsprintf_s  0000000180037844 f   libucrt:output.obj
 0001:000368a8       __stdio_common_vswprintf   00000001800378a8 f   libucrt:output.obj
 0001:00036ae0       localeconv                 0000000180037ae0 f   libucrt:localeconv.obj
 0001:00036e30       _localtime64               0000000180037e30 f   libucrt:localtime.obj
 0001:00036e78       _localtime64_s             0000000180037e78 f   libucrt:localtime.obj
 0001:00036e80       free                       0000000180037e80 f   libucrt:free.obj
 0001:00036e88       frexp                      0000000180037e88 f   libucrt:frexp.obj
 0001:00037968       ??$ftprintf@PEAU_iobuf@@PEB_WAEBQEB_WAEBQEB_WAEBI@?$__crt_char_traits@_W@@SAH$$QEAPEAU_iobuf@@$$QEAPEB_WAEBQEB_W2AEBI@Z 0000000180038968 f i libucrt:assert.obj
 0001:00037990       _wassert                   0000000180038990 f   libucrt:assert.obj
 0001:00037a14       fwprintf                   0000000180038a14 f i libucrt:assert.obj
 0001:00037a58       swprintf                   0000000180038a58 f i libucrt:assert.obj
 0001:00037aac       malloc                     0000000180038aac f   libucrt:malloc.obj
 0001:00037ab4       __ascii_stricmp            0000000180038ab4 f   libucrt:stricmp.obj
 0001:00037af0       _stricmp                   0000000180038af0 f   libucrt:stricmp.obj
 0001:00037b38       _stricmp_l                 0000000180038b38 f   libucrt:stricmp.obj
 0001:00037c00       strncpy                    0000000180038c00 f   libucrt:strncpy.obj
 0001:00037d64       _Strftime_l                0000000180038d64 f   libucrt:strftime.obj
 0001:00037f0c       strftime                   0000000180038f0c f   libucrt:strftime.obj
 0001:00037fc0       _time64                    0000000180038fc0 f   libucrt:time.obj
 0001:00038000       __acrt_initialize_locks    0000000180039000 f   libucrt:locks.obj
 0001:00038048       __acrt_lock                0000000180039048 f   libucrt:locks.obj
 0001:00038064       __acrt_uninitialize_locks  0000000180039064 f   libucrt:locks.obj
 0001:0003809c       __acrt_unlock              000000018003909c f   libucrt:locks.obj
 0001:000380b8       _lock_locales              00000001800390b8 f   libucrt:locks.obj
 0001:000380c8       _unlock_locales            00000001800390c8 f   libucrt:locks.obj
 0001:000381c0       setlocale                  00000001800391c0 f   libucrt:setlocale.obj
 0001:0003838c       _calloc_base               000000018003938c f   libucrt:calloc_base.obj
 0001:00038404       __pctype_func              0000000180039404 f   libucrt:ctype.obj
 0001:00038434       isdigit                    0000000180039434 f i libucrt:_ctype.obj
 0001:000384a8       islower                    00000001800394a8 f i libucrt:_ctype.obj
 0001:0003851c       isupper                    000000018003951c f i libucrt:_ctype.obj
 0001:00038590       _wcsdup                    0000000180039590 f   libucrt:wcsdup.obj
 0001:00038614       ___lc_codepage_func        0000000180039614 f   libucrt:initctype.obj
 0001:00038644       ___lc_locale_name_func     0000000180039644 f   libucrt:initctype.obj
 0001:00038678       ___mb_cur_max_func         0000000180039678 f   libucrt:initctype.obj
 0001:000386a8       __acrt_locale_initialize_ctype 00000001800396a8 f   libucrt:initctype.obj
 0001:00038c7c       __acrt_errno_from_os_error 0000000180039c7c f   libucrt:errno.obj
 0001:00038cc4       __acrt_errno_map_os_error  0000000180039cc4 f   libucrt:errno.obj
 0001:00038d14       __doserrno                 0000000180039d14 f   libucrt:errno.obj
 0001:00038d34       _errno                     0000000180039d34 f   libucrt:errno.obj
 0001:00038dcc       _ismbblead                 0000000180039dcc f   libucrt:ismbbyte.obj
 0001:00038de0       _malloc_base               0000000180039de0 f   libucrt:malloc_base.obj
 0001:00038e40       _realloc_base              0000000180039e40 f   libucrt:realloc_base.obj
 0001:00038ec4       ??$make_c_string_character_source@DPEAPEAD@__crt_strtox@@YA?AV?$c_string_character_source@D@0@QEBDQEAPEAD@Z 0000000180039ec4 f i libucrt:strtod.obj
 0001:00038ec4       ??$make_c_string_character_source@_W$$T@__crt_strtox@@YA?AV?$c_string_character_source@_W@0@QEB_W$$T@Z 0000000180039ec4 f i libucrt:atox.obj
 0001:00038ec4       ??$make_c_string_character_source@D$$T@__crt_strtox@@YA?AV?$c_string_character_source@D@0@QEBD$$T@Z 0000000180039ec4 f i libucrt:atox.obj
 0001:00038ec4       ??$make_c_string_character_source@_WPEAPEA_W@__crt_strtox@@YA?AV?$c_string_character_source@_W@0@QEB_WQEAPEA_W@Z 0000000180039ec4 f i libucrt:strtod.obj
 0001:00038ee0       ?divide@__crt_strtox@@YA_KAEAUbig_integer@1@AEBU21@@Z 0000000180039ee0 f i libucrt:strtod.obj
 0001:000393b0       pow                        000000018003a3b0 f   libucrt:pow.obj
 0001:0003aa50       powf                       000000018003ba50 f   libucrt:powf.obj
 0001:0003b918       __strncnt                  000000018003c918 f   libucrt:strncnt.obj
 0001:0003b930       _free_base                 000000018003c930 f   libucrt:free_base.obj
 0001:0003b970       ??$__crt_time_is_leap_year@H@@YA_NH@Z 000000018003c970 f i libucrt:wcsftime.obj
 0001:0003d118       _Wcsftime_l                000000018003e118 f   libucrt:wcsftime.obj
 0001:0003d30c       _tolower_l                 000000018003e30c f   libucrt:tolower_toupper.obj
 0001:0003d44c       tolower                    000000018003e44c f   libucrt:tolower_toupper.obj
 0001:0003d478       wcscpy_s                   000000018003e478 f   libucrt:wcscpy_s.obj
 0001:0003d4e0       strnlen                    000000018003e4e0 f   libucrt:strnlen.obj
 0001:0003d63c       wcsnlen                    000000018003e63c f   libucrt:strnlen.obj
 0001:0003d82c       __acrt_initialize_new_handler 000000018003e82c f   libucrt:new_handler.obj
 0001:0003d834       _callnewh                  000000018003e834 f   libucrt:new_handler.obj
 0001:0003d874       _query_new_handler         000000018003e874 f   libucrt:new_handler.obj
 0001:0003d8a8       _seh_filter_dll            000000018003e8a8 f   libucrt:exception_filter.obj
 0001:0003d8bc       _seh_filter_exe            000000018003e8bc f   libucrt:exception_filter.obj
 0001:0003dc7c       __acrt_initialize_thread_local_exit_callback 000000018003ec7c f   libucrt:exit.obj
 0001:0003dc84       _cexit                     000000018003ec84 f   libucrt:exit.obj
 0001:0003dc94       _exit                      000000018003ec94 f   libucrt:exit.obj
 0001:0003dca0       _is_c_termination_complete 000000018003eca0 f   libucrt:exit.obj
 0001:0003de64       __acrt_allocate_buffer_for_argv 000000018003ee64 f   libucrt:argv_parsing.obj
 0001:0003dec8       _configure_narrow_argv     000000018003eec8 f   libucrt:argv_parsing.obj
 0001:0003e340       __dcrt_get_or_create_narrow_environment_nolock 000000018003f340 f   libucrt:environment_initialization.obj
 0001:0003e348       __dcrt_uninitialize_environments_nolock 000000018003f348 f   libucrt:environment_initialization.obj
 0001:0003e380       _initialize_narrow_environment 000000018003f380 f   libucrt:environment_initialization.obj
 0001:0003e388       ??$?RV<lambda_b8c45f8f788dd370798f47cfe8ac3a86>@@AEAV<lambda_4e60a939b0d047cfe11ddc22648dfba9>@@V<lambda_332c3edc96d0294ec56c57d38c1cdfd5>@@@?$__crt_seh_guarded_call@H@@QEAAH$$QEAV<lambda_b8c45f8f788dd370798f47cfe8ac3a86>@@AEAV<lambda_4e60a939b0d047cfe11ddc22648dfba9>@@$$QEAV<lambda_332c3edc96d0294ec56c57d38c1cdfd5>@@@Z 000000018003f388 f i libucrt:onexit.obj
 0001:0003e3c4       ??$?RV<lambda_e24bbb7b643b32fcea6fa61b31d4c984>@@AEAV<lambda_275893d493268fdec8709772e3fcec0e>@@V<lambda_9d71df4d7cf3f480f8d633942495c3b0>@@@?$__crt_seh_guarded_call@H@@QEAAH$$QEAV<lambda_e24bbb7b643b32fcea6fa61b31d4c984>@@AEAV<lambda_275893d493268fdec8709772e3fcec0e>@@$$QEAV<lambda_9d71df4d7cf3f480f8d633942495c3b0>@@@Z 000000018003f3c4 f i libucrt:onexit.obj
 0001:0003e740       _crt_atexit                000000018003f740 f   libucrt:onexit.obj
 0001:0003e750       _execute_onexit_table      000000018003f750 f   libucrt:onexit.obj
 0001:0003e78c       _initialize_onexit_table   000000018003f78c f   libucrt:onexit.obj
 0001:0003e7cc       _register_onexit_function  000000018003f7cc f   libucrt:onexit.obj
 0001:0003e948       __acrt_initialize          000000018003f948 f   libucrt:initialization.obj
 0001:0003e95c       __acrt_thread_attach       000000018003f95c f   libucrt:initialization.obj
 0001:0003e970       __acrt_thread_detach       000000018003f970 f   libucrt:initialization.obj
 0001:0003e980       __acrt_uninitialize        000000018003f980 f   libucrt:initialization.obj
 0001:0003e994       __acrt_uninitialize_critical 000000018003f994 f   libucrt:initialization.obj
 0001:0003e9a4       _initterm                  000000018003f9a4 f   libucrt:initterm.obj
 0001:0003ea1c       _initterm_e                000000018003fa1c f   libucrt:initterm.obj
 0001:0003ea68       terminate                  000000018003fa68 f   libucrt:terminate.obj
 0001:0003ec4c       itoa                       000000018003fc4c f   libucrt:xtoa.obj
 0001:0003ec4c       _itoa                      000000018003fc4c f   libucrt:xtoa.obj
 0001:0003ec7c       _itow_s                    000000018003fc7c f   libucrt:xtoa.obj
 0001:0003ec9c       strcpy_s                   000000018003fc9c f   libucrt:strcpy_s.obj
 0001:0003ecfc       ??$is_overflow_condition@K@__crt_strtox@@YA_NIK@Z 000000018003fcfc f i libucrt:atox.obj
 0001:0003ed28       ??$parse_integer@KV?$c_string_character_source@D@__crt_strtox@@@__crt_strtox@@YAKQEAU__crt_locale_pointers@@V?$c_string_character_source@D@0@H_N@Z 000000018003fd28 f i libucrt:atox.obj
 0001:0003f03c       ??$parse_integer@KV?$c_string_character_source@_W@__crt_strtox@@@__crt_strtox@@YAKQEAU__crt_locale_pointers@@V?$c_string_character_source@_W@0@H_N@Z 000000018004003c f i libucrt:atox.obj
 0001:0003f710       _wtol                      0000000180040710 f   libucrt:atox.obj
 0001:0003f73c       atol                       000000018004073c f   libucrt:atox.obj
 0001:0003f768       ??$?RV<lambda_c36588078e9f5dfd39652860aa6b3aaf>@@AEAV<lambda_ec61778202f4f5fc7e7711acc23c3bca>@@V<lambda_dc9d2797ccde5d239b4a0efae8ebd7db>@@@?$__crt_seh_guarded_call@P6AXH@Z@@QEAAP6AXH@Z$$QEAV<lambda_c36588078e9f5dfd39652860aa6b3aaf>@@AEAV<lambda_ec61778202f4f5fc7e7711acc23c3bca>@@$$QEAV<lambda_dc9d2797ccde5d239b4a0efae8ebd7db>@@@Z 0000000180040768 f i libucrt:signal.obj
 0001:0003f7b0       __acrt_get_sigabrt_handler 00000001800407b0 f   libucrt:signal.obj
 0001:0003f7e0       __acrt_initialize_signal_handlers 00000001800407e0 f   libucrt:signal.obj
 0001:0003f800       raise                      0000000180040800 f   libucrt:signal.obj
 0001:0003fa9c       ??$?RV<lambda_46352004c1216016012b18bd6f87e700>@@AEAV<lambda_3bd07e1a1191394380780325891bf33f>@@V<lambda_334532d3f185bcaa59b5be82d7d22bff>@@@?$__crt_seh_guarded_call@X@@QEAAX$$QEAV<lambda_46352004c1216016012b18bd6f87e700>@@AEAV<lambda_3bd07e1a1191394380780325891bf33f>@@$$QEAV<lambda_334532d3f185bcaa59b5be82d7d22bff>@@@Z 0000000180040a9c f i libucrt:per_thread_data.obj
 0001:0003fafc       ??$?RV<lambda_5e887d1dcbef67a5eb4283622ba103bf>@@AEAV<lambda_4466841279450cc726390878d4a41900>@@V<lambda_341c25c0346d94847f1f3c463c57e077>@@@?$__crt_seh_guarded_call@X@@QEAAX$$QEAV<lambda_5e887d1dcbef67a5eb4283622ba103bf>@@AEAV<lambda_4466841279450cc726390878d4a41900>@@$$QEAV<lambda_341c25c0346d94847f1f3c463c57e077>@@@Z 0000000180040afc f i libucrt:per_thread_data.obj
 0001:0003fb44       ??$?RV<lambda_72d1df2b273a38828b1ce30cbf4cdab5>@@AEAV<lambda_876a65b173b8412d3a47c70a915b0cf4>@@V<lambda_41932305e351933ebe8f8be3ed8bb5dc>@@@?$__crt_seh_guarded_call@X@@QEAAX$$QEAV<lambda_72d1df2b273a38828b1ce30cbf4cdab5>@@AEAV<lambda_876a65b173b8412d3a47c70a915b0cf4>@@$$QEAV<lambda_41932305e351933ebe8f8be3ed8bb5dc>@@@Z 0000000180040b44 f i libucrt:per_thread_data.obj
 0001:0003fb84       ??$?RV<lambda_fb3a7dec4e47f37f22dae91bb15c9095>@@AEAV<lambda_698284760c8add0bfb0756c19673e34b>@@V<lambda_dfb8eca1e75fef3034a8fb18dd509707>@@@?$__crt_seh_guarded_call@X@@QEAAX$$QEAV<lambda_fb3a7dec4e47f37f22dae91bb15c9095>@@AEAV<lambda_698284760c8add0bfb0756c19673e34b>@@$$QEAV<lambda_dfb8eca1e75fef3034a8fb18dd509707>@@@Z 0000000180040b84 f i libucrt:per_thread_data.obj
 0001:0003fe14       __acrt_freeptd             0000000180040e14 f   libucrt:per_thread_data.obj
 0001:0003fe58       __acrt_getptd              0000000180040e58 f   libucrt:per_thread_data.obj
 0001:0003feec       __acrt_getptd_noexit       0000000180040eec f   libucrt:per_thread_data.obj
 0001:0003ff8c       __acrt_initialize_ptd      0000000180040f8c f   libucrt:per_thread_data.obj
 0001:0003ffc8       __acrt_uninitialize_ptd    0000000180040fc8 f   libucrt:per_thread_data.obj
 0001:0003ffec       __acrt_initialize_timeset  0000000180040fec f   libucrt:timeset.obj
 0001:0004001c       __daylight                 000000018004101c f   libucrt:timeset.obj
 0001:00040024       __dstbias                  0000000180041024 f   libucrt:timeset.obj
 0001:0004002c       __timezone                 000000018004102c f   libucrt:timeset.obj
 0001:00040034       __tzname                   0000000180041034 f   libucrt:timeset.obj
 0001:0004003c       _get_daylight              000000018004103c f   libucrt:timeset.obj
 0001:0004006c       _get_dstbias               000000018004106c f   libucrt:timeset.obj
 0001:0004009c       _get_timezone              000000018004109c f   libucrt:timeset.obj
 0001:00040344       __getgmtimebuf             0000000180041344 f   libucrt:gmtime.obj
 0001:00040390       _gmtime64_s                0000000180041390 f   libucrt:gmtime.obj
 0001:00040dd4       __tzset                    0000000180041dd4 f   libucrt:tzset.obj
 0001:00040e10       _isindst                   0000000180041e10 f   libucrt:tzset.obj
 0001:00040e40       strtol                     0000000180041e40 f   libucrt:strtox.obj
 0001:00040e70       wcstol                     0000000180041e70 f   libucrt:strtox.obj
 0001:00040ea0       _mbtowc_l                  0000000180041ea0 f   libucrt:mbtowc.obj
 0001:00040fe8       mbtowc                     0000000180041fe8 f   libucrt:mbtowc.obj
 0001:00040ff0       _wctomb_s_l                0000000180041ff0 f   libucrt:wctomb.obj
 0001:00041174       wctomb_s                   0000000180042174 f   libucrt:wctomb.obj
 0001:00041188       __acrt_update_locale_info  0000000180042188 f   libucrt:locale_update.obj
 0001:000411bc       __acrt_update_multibyte_info 00000001800421bc f   libucrt:locale_update.obj
 0001:000411f0       ?__acrt_fp_classify@@YA?AW4__acrt_fp_class@@AEBN@Z 00000001800421f0 f i libucrt:cvt.obj
 0001:00041c28       __acrt_fp_format           0000000180042c28 f   libucrt:cvt.obj
 0001:00041e6c       _fputwc_nolock             0000000180042e6c f   libucrt:fputwc.obj
 0001:00041fe8       _fileno                    0000000180042fe8 f   libucrt:fileno.obj
 0001:00042010       __acrt_initialize_stdio    0000000180043010 f   libucrt:_file.obj
 0001:00042130       __acrt_iob_func            0000000180043130 f   libucrt:_file.obj
 0001:00042144       __acrt_uninitialize_stdio  0000000180043144 f   libucrt:_file.obj
 0001:000421a0       _lock_file                 00000001800431a0 f   libucrt:_file.obj
 0001:000421ac       _unlock_file               00000001800431ac f   libucrt:_file.obj
 0001:000421b8       _fputc_nolock              00000001800431b8 f   libucrt:fputc.obj
 0001:000421d0       _get_printf_count_output   00000001800431d0 f   libucrt:printf_count_output.obj
 0001:000421e8       __acrt_stdio_begin_temporary_buffering_nolock 00000001800431e8 f   libucrt:_sftbuf.obj
 0001:000422b8       __acrt_stdio_end_temporary_buffering_nolock 00000001800432b8 f   libucrt:_sftbuf.obj
 0001:000422f4       ??$?RV<lambda_5df02c53a8f32f81fd64e5bbb78039f1>@@AEAV<lambda_2af78c5f5901b1372d98f9ab3177dfa6>@@AEAV<lambda_f51fe5fd7c79a33db34fc9310f277369>@@@?$__crt_seh_guarded_call@X@@QEAAX$$QEAV<lambda_5df02c53a8f32f81fd64e5bbb78039f1>@@AEAV<lambda_2af78c5f5901b1372d98f9ab3177dfa6>@@AEAV<lambda_f51fe5fd7c79a33db34fc9310f277369>@@@Z 00000001800432f4 f i libucrt:wsetlocale.obj
 0001:00042320       ??$?RV<lambda_d67e8342c384adda8f857579ab50b2ae>@@AEAV<lambda_30712929f77e709619002f448b6a9510>@@V<lambda_4525336fd7e478d965fb7ca7a337cad8>@@@?$__crt_seh_guarded_call@X@@QEAAX$$QEAV<lambda_d67e8342c384adda8f857579ab50b2ae>@@AEAV<lambda_30712929f77e709619002f448b6a9510>@@$$QEAV<lambda_4525336fd7e478d965fb7ca7a337cad8>@@@Z 0000000180043320 f i libucrt:wsetlocale.obj
 0001:000424ec       __acrt_copy_locale_name    00000001800434ec f   libucrt:wsetlocale.obj
 0001:00042570       __acrt_set_locale_changed  0000000180043570 f   libucrt:wsetlocale.obj
 0001:0004257c       __acrt_uninitialize_locale 000000018004357c f   libucrt:wsetlocale.obj
 0001:000425c4       __lc_lctowcs               00000001800435c4 f   libucrt:wsetlocale.obj
 0001:00042668       __lc_wcstolc               0000000180043668 f   libucrt:wsetlocale.obj
 0001:000428e0       _expandlocale              00000001800438e0 f   libucrt:wsetlocale.obj
 0001:00042cdc       _wcscats                   0000000180043cdc f   libucrt:wsetlocale.obj
 0001:00042d44       _wsetlocale                0000000180043d44 f   libucrt:wsetlocale.obj
 0001:00043778       __acrt_initialize_lowio    0000000180044778 f   libucrt:ioinit.obj
 0001:000437b4       __acrt_uninitialize_lowio  00000001800447b4 f   libucrt:ioinit.obj
 0001:000437f4       _dsign                     00000001800447f4 f   libucrt:nan.obj
 0001:0004380c       _errcode                   000000018004480c f   libucrt:fpexcept.obj
 0001:00043850       _except1                   0000000180044850 f   libucrt:fpexcept.obj
 0001:00043944       _handle_exc                0000000180044944 f   libucrt:fpexcept.obj
 0001:00043bac       _raise_exc                 0000000180044bac f   libucrt:fpexcept.obj
 0001:00043bd4       _raise_exc_ex              0000000180044bd4 f   libucrt:fpexcept.obj
 0001:00043edc       _raise_excf                0000000180044edc f   libucrt:fpexcept.obj
 0001:00043f08       _set_errno_from_matherr    0000000180044f08 f   libucrt:fpexcept.obj
 0001:00043f38       _umatherr                  0000000180044f38 f   libucrt:fpexcept.obj
 0001:0004400c       _decomp                    000000018004500c f   libucrt:util.obj
 0001:00044140       _sptype                    0000000180045140 f   libucrt:util.obj
 0001:000441b4       _clrfp                     00000001800451b4 f   libucrt:fpctrl.obj
 0001:000441d4       _ctrlfp                    00000001800451d4 f   libucrt:fpctrl.obj
 0001:00044250       _set_statfp                0000000180045250 f   libucrt:fpctrl.obj
 0001:00044270       _statfp                    0000000180045270 f   libucrt:fpctrl.obj
 0001:00044284       _query_app_type            0000000180045284 f   libucrt:report_runtime_error.obj
 0001:0004428c       _set_error_mode            000000018004528c f   libucrt:set_error_mode.obj
 0001:000442cc       wcscat_s                   00000001800452cc f   libucrt:wcscat_s.obj
 0001:0004434c       wcsncat_s                  000000018004534c f   libucrt:wcsncat_s.obj
 0001:00044474       __acrt_show_wide_message_box 0000000180045474 f   libucrt:crtmbox.obj
 0001:00044590       __acrt_stdio_flush_nolock  0000000180045590 f   libucrt:fflush.obj
 0001:00044608       _fflush_nolock             0000000180045608 f   libucrt:fflush.obj
 0001:00044654       _flushall                  0000000180045654 f   libucrt:fflush.obj
 0001:00044744       fflush                     0000000180045744 f   libucrt:fflush.obj
 0001:00044788       ??$?RV<lambda_7a5ef57ff966f610505f1d28a3d40618>@@AEAV<lambda_b721fa326cdb32351d23dfa67958c160>@@V<lambda_5e0fb27672408a07956fe59e48ccb2aa>@@@?$__crt_seh_guarded_call@H@@QEAAH$$QEAV<lambda_7a5ef57ff966f610505f1d28a3d40618>@@AEAV<lambda_b721fa326cdb32351d23dfa67958c160>@@$$QEAV<lambda_5e0fb27672408a07956fe59e48ccb2aa>@@@Z 0000000180045788 f i libucrt:setvbuf.obj
 0001:000448b8       setvbuf                    00000001800458b8 f   libucrt:setvbuf.obj
 0001:0004499c       ??$?RV<lambda_630b2aca97f6d20d5b5ea6529ea6b6af>@@AEAV<lambda_af91936f1d075d609f72d9d8cba980af>@@V<lambda_e82fa975f615b5c7c7b0e4d178fdae67>@@@?$__crt_seh_guarded_call@H@@QEAAH$$QEAV<lambda_630b2aca97f6d20d5b5ea6529ea6b6af>@@AEAV<lambda_af91936f1d075d609f72d9d8cba980af>@@$$QEAV<lambda_e82fa975f615b5c7c7b0e4d178fdae67>@@@Z 000000018004599c f i libucrt:winapi_thunks.obj
 0001:00044bd4       __acrt_CompareStringEx     0000000180045bd4 f   libucrt:winapi_thunks.obj
 0001:00044cc4       __acrt_EnumSystemLocalesEx 0000000180045cc4 f   libucrt:winapi_thunks.obj
 0001:00044d6c       __acrt_FlsAlloc            0000000180045d6c f   libucrt:winapi_thunks.obj
 0001:00044dc4       __acrt_FlsFree             0000000180045dc4 f   libucrt:winapi_thunks.obj
 0001:00044e1c       __acrt_FlsGetValue         0000000180045e1c f   libucrt:winapi_thunks.obj
 0001:00044e74       __acrt_FlsSetValue         0000000180045e74 f   libucrt:winapi_thunks.obj
 0001:00044edc       __acrt_GetDateFormatEx     0000000180045edc f   libucrt:winapi_thunks.obj
 0001:00044fa8       __acrt_GetLocaleInfoEx     0000000180045fa8 f   libucrt:winapi_thunks.obj
 0001:00045040       __acrt_GetSystemTimePreciseAsFileTime 0000000180046040 f   libucrt:winapi_thunks.obj
 0001:00045098       __acrt_GetTimeFormatEx     0000000180046098 f   libucrt:winapi_thunks.obj
 0001:00045154       __acrt_GetUserDefaultLocaleName 0000000180046154 f   libucrt:winapi_thunks.obj
 0001:000451c8       __acrt_InitializeCriticalSectionEx 00000001800461c8 f   libucrt:winapi_thunks.obj
 0001:00045240       __acrt_IsValidLocaleName   0000000180046240 f   libucrt:winapi_thunks.obj
 0001:000452a8       __acrt_LCIDToLocaleName    00000001800462a8 f   libucrt:winapi_thunks.obj
 0001:00045334       __acrt_LCMapStringEx       0000000180046334 f   libucrt:winapi_thunks.obj
 0001:00045424       __acrt_LocaleNameToLCID    0000000180046424 f   libucrt:winapi_thunks.obj
 0001:0004548c       __acrt_MessageBoxW         000000018004648c f   libucrt:winapi_thunks.obj
 0001:00045514       __acrt_can_show_message_box 0000000180046514 f   libucrt:winapi_thunks.obj
 0001:00045570       __acrt_can_use_vista_locale_apis 0000000180046570 f   libucrt:winapi_thunks.obj
 0001:000455a0       __acrt_get_parent_window   00000001800465a0 f   libucrt:winapi_thunks.obj
 0001:00045630       __acrt_initialize_winapi_thunks 0000000180046630 f   libucrt:winapi_thunks.obj
 0001:00045668       __acrt_is_interactive      0000000180046668 f   libucrt:winapi_thunks.obj
 0001:0004573c       __acrt_is_packaged_app     000000018004673c f   libucrt:winapi_thunks.obj
 0001:000457c4       __acrt_uninitialize_winapi_thunks 00000001800467c4 f   libucrt:winapi_thunks.obj
 0001:000459e4       _mbstowcs_s_l              00000001800469e4 f   libucrt:mbstowcs.obj
 0001:00045b14       mbstowcs_s                 0000000180046b14 f   libucrt:mbstowcs.obj
 0001:00045e68       _wcstombs_s_l              0000000180046e68 f   libucrt:wcstombs.obj
 0001:00045f54       _query_new_mode            0000000180046f54 f   libucrt:new_mode.obj
 0001:00045f5c       __acrt_initialize_heap     0000000180046f5c f   libucrt:heap_handle.obj
 0001:00045f78       __acrt_uninitialize_heap   0000000180046f78 f   libucrt:heap_handle.obj
 0001:00045f84       _isctype_l                 0000000180046f84 f   libucrt:isctype.obj
 0001:00046234       __acrt_GetLocaleInfoA      0000000180047234 f   libucrt:getlocaleinfoa.obj
 0001:000463fc       __acrt_GetStringTypeA      00000001800473fc f   libucrt:getstringtypea.obj
 0001:0004690c       __acrt_LCMapStringA        000000018004790c f   libucrt:lcmapstringa.obj
 0001:000469a4       iswctype                   00000001800479a4 f   libucrt:iswctype.obj
 0001:00046a20       __acrt_initialize_fma3     0000000180047a20 f   libucrt:fma3_available.obj
 0001:00046a90       _pow_special               0000000180047a90 f   libucrt:pow_special.obj
 0001:00046bb4       _powf_special              0000000180047bb4 f   libucrt:pow_special.obj
 0001:00046d40       _wcsicmp                   0000000180047d40 f   libucrt:wcsicmp.obj
 0001:00046dc8       _wcsicmp_l                 0000000180047dc8 f   libucrt:wcsicmp.obj
 0001:00046eb8       _isleadbyte_l              0000000180047eb8 f i libucrt:_wctype.obj
 0001:000473d4       ?expand_if_necessary@?$argument_list@D@?A0xca0879c4@@AEAAHXZ 00000001800483d4 f i libucrt:argv_wildcards.obj
 0001:0004749c       __acrt_expand_narrow_argv_wildcards 000000018004849c f   libucrt:argv_wildcards.obj
 0001:000474a4       ??$?RV<lambda_99476a1ad63dd22509b5d3e65b0ffc95>@@AEAV<lambda_ad1ced32f4ac17aa236e5ef05d6b3b7c>@@V<lambda_f7424dd8d45958661754dc4f2697e9c3>@@@?$__crt_seh_guarded_call@X@@QEAAX$$QEAV<lambda_99476a1ad63dd22509b5d3e65b0ffc95>@@AEAV<lambda_ad1ced32f4ac17aa236e5ef05d6b3b7c>@@$$QEAV<lambda_f7424dd8d45958661754dc4f2697e9c3>@@@Z 00000001800484a4 f i libucrt:mbctype.obj
 0001:00047ba0       __acrt_initialize_multibyte 0000000180048ba0 f   libucrt:mbctype.obj
 0001:00047bc8       __acrt_update_thread_multibyte_data 0000000180048bc8 f   libucrt:mbctype.obj
 0001:00047c88       _setmbcp_nolock            0000000180048c88 f   libucrt:mbctype.obj
 0001:00047f30       __acrt_initialize_command_line 0000000180048f30 f   libucrt:argv_data.obj
 0001:00047f58       __dcrt_get_narrow_environment_from_os 0000000180048f58 f   libucrt:get_environment_from_os.obj
 0001:00048438       __dcrt_set_variable_in_narrow_environment_nolock 0000000180049438 f   libucrt:setenv.obj
 0001:00048440       _recalloc                  0000000180049440 f   libucrt:recalloc.obj
 0001:00048448       _recalloc_base             0000000180049448 f   libucrt:recalloc.obj
 0001:000484e0       __acrt_execute_initializers 00000001800494e0 f   libucrt:shared_initialization.obj
 0001:00048574       __acrt_execute_uninitializers 0000000180049574 f   libucrt:shared_initialization.obj
 0001:000485c4       __acrt_has_user_matherr    00000001800495c4 f   libucrt:matherr.obj
 0001:000485e4       __acrt_initialize_user_matherr 00000001800495e4 f   libucrt:matherr.obj
 0001:000485ec       __acrt_invoke_user_matherr 00000001800495ec f   libucrt:matherr.obj
 0001:00048634       __acrt_add_locale_ref      0000000180049634 f   libucrt:locale_refcounting.obj
 0001:000486c0       __acrt_free_locale         00000001800496c0 f   libucrt:locale_refcounting.obj
 0001:00048838       __acrt_locale_add_lc_time_reference 0000000180049838 f   libucrt:locale_refcounting.obj
 0001:00048860       __acrt_locale_free_lc_time_if_unreferenced 0000000180049860 f   libucrt:locale_refcounting.obj
 0001:00048898       __acrt_locale_release_lc_time_reference 0000000180049898 f   libucrt:locale_refcounting.obj
 0001:000488c0       __acrt_release_locale_ref  00000001800498c0 f   libucrt:locale_refcounting.obj
 0001:00048968       __acrt_update_thread_locale_data 0000000180049968 f   libucrt:locale_refcounting.obj
 0001:000489d8       _updatetlocinfoEx_nolock   00000001800499d8 f   libucrt:locale_refcounting.obj
 0001:00048bc8       getenv_s                   0000000180049bc8 f   libucrt:getenv.obj
 0001:00048bd0       strncpy_s                  0000000180049bd0 f   libucrt:strncpy_s.obj
 0001:00048ca4       __acrt_fp_strflt_to_string 0000000180049ca4 f   libucrt:_fptostr.obj
 0001:00048d64       __acrt_fltout              0000000180049d64 f   libucrt:cfout.obj
 0001:0004a368       __acrt_stdio_flush_and_write_narrow_nolock 000000018004b368 f   libucrt:_flsbuf.obj
 0001:0004a450       __acrt_stdio_flush_and_write_wide_nolock 000000018004b450 f   libucrt:_flsbuf.obj
 0001:0004a53c       _fcloseall                 000000018004b53c f   libucrt:closeall.obj
 0001:0004a5f0       __acrt_stdio_free_buffer_nolock 000000018004b5f0 f   libucrt:_freebuf.obj
 0001:0004a630       _isatty                    000000018004b630 f   libucrt:isatty.obj
 0001:0004a690       __acrt_locale_free_monetary 000000018004b690 f   libucrt:initmon.obj
 0001:0004a79c       __acrt_locale_initialize_monetary 000000018004b79c f   libucrt:initmon.obj
 0001:0004acd4       __acrt_locale_free_numeric 000000018004bcd4 f   libucrt:initnum.obj
 0001:0004ad40       __acrt_locale_initialize_numeric 000000018004bd40 f   libucrt:initnum.obj
 0001:0004b3c4       __acrt_locale_free_time    000000018004c3c4 f   libucrt:inittime.obj
 0001:0004b4cc       __acrt_locale_initialize_time 000000018004c4cc f   libucrt:inittime.obj
 0001:0004b560       wcsncpy_s                  000000018004c560 f   libucrt:wcsncpy_s.obj
 0001:0004b644       wcscspn                    000000018004c644 f   libucrt:wcscspn.obj
 0001:0004b684       wcsncmp                    000000018004c684 f   libucrt:wcsncmp.obj
 0001:0004b6b0       wcspbrk                    000000018004c6b0 f   libucrt:wcspbrk.obj
 0001:0004bf54       __acrt_get_qualified_locale 000000018004cf54 f   libucrt:get_qualified_locale.obj
 0001:0004c940       __acrt_get_qualified_locale_downlevel 000000018004d940 f   libucrt:getqloc_downlevel.obj
 0001:0004cbd0       __acrt_lowio_create_handle_array 000000018004dbd0 f   libucrt:osfinfo.obj
 0001:0004cc68       __acrt_lowio_destroy_handle_array 000000018004dc68 f   libucrt:osfinfo.obj
 0001:0004ccb8       __acrt_lowio_ensure_fh_exists 000000018004dcb8 f   libucrt:osfinfo.obj
 0001:0004cd70       __acrt_lowio_lock_fh       000000018004dd70 f   libucrt:osfinfo.obj
 0001:0004cd94       __acrt_lowio_unlock_fh     000000018004dd94 f   libucrt:osfinfo.obj
 0001:0004cdb8       _free_osfhnd               000000018004ddb8 f   libucrt:osfinfo.obj
 0001:0004ce74       _get_osfhandle             000000018004de74 f   libucrt:osfinfo.obj
 0001:0004cf00       _get_fpsr                  000000018004df00 f   libucrt:fpsr.obj
 0001:0004cf10       _set_fpsr                  000000018004df10 f   libucrt:fpsr.obj
 0001:0004cf1a       _fclrf                     000000018004df1a f   libucrt:fpsr.obj
 0001:0004cf2e       _frnd                      000000018004df2e f   libucrt:fpsr.obj
 0001:0004cf50       ??$?RV<lambda_b521505b218e5242e90febf6bfebc422>@@AEAV<lambda_6978c1fb23f02e42e1d9e99668cc68aa>@@V<lambda_314360699dd331753a4119843814e9a7>@@@?$__crt_seh_guarded_call@H@@QEAAH$$QEAV<lambda_b521505b218e5242e90febf6bfebc422>@@AEAV<lambda_6978c1fb23f02e42e1d9e99668cc68aa>@@$$QEAV<lambda_314360699dd331753a4119843814e9a7>@@@Z 000000018004df50 f i libucrt:commit.obj
 0001:0004cfdc       _commit                    000000018004dfdc f   libucrt:commit.obj
 0001:0004d610       _write                     000000018004e610 f   libucrt:write.obj
 0001:0004d6fc       _write_nolock              000000018004e6fc f   libucrt:write.obj
 0001:0004daa8       __acrt_DownlevelLCIDToLocaleName 000000018004eaa8 f   libucrt:lcidtoname_downlevel.obj
 0001:0004db8c       __acrt_DownlevelLocaleNameToLCID 000000018004eb8c f   libucrt:lcidtoname_downlevel.obj
 0001:0004dbc0       _getfpcontrolword          000000018004ebc0 f   libucrt:_fenvutils.obj
 0001:0004dbd8       _getfpstatusword           000000018004ebd8 f   libucrt:_fenvutils.obj
 0001:0004dbec       _setfpcontrolword          000000018004ebec f   libucrt:_fenvutils.obj
 0001:0004dbf8       _setfpstatusword           000000018004ebf8 f   libucrt:_fenvutils.obj
 0001:0004dd6c       _handle_error              000000018004ed6c f   libucrt:libm_error.obj
 0001:0004de94       _handle_errorf             000000018004ee94 f   libucrt:libm_error.obj
 0001:0004dfc8       _handle_nan                000000018004efc8 f   libucrt:libm_error.obj
 0001:0004dfe4       _handle_nanf               000000018004efe4 f   libucrt:libm_error.obj
 0001:0004dff4       _towlower_l                000000018004eff4 f   libucrt:towlower.obj
 0001:0004e190       qsort                      000000018004f190 f   libucrt:qsort.obj
 0001:0004e4c4       strpbrk                    000000018004f4c4 f   libucrt:strpbrk.obj
 0001:0004e564       _mbsdec                    000000018004f564 f   libucrt:mbsdec.obj
 0001:0004e56c       _mbsdec_l                  000000018004f56c f   libucrt:mbsdec.obj
 0001:0004e61c       _strnicoll                 000000018004f61c f   libucrt:strnicol.obj
 0001:0004e634       _strnicoll_l               000000018004f634 f   libucrt:strnicol.obj
 0001:0004e734       _msize                     000000018004f734 f   libucrt:msize.obj
 0001:0004e770       fegetenv                   000000018004f770 f   libucrt:fegetenv.obj
 0001:0004e790       fesetenv                   000000018004f790 f   libucrt:fesetenv.obj
 0001:0004e7dc       feholdexcept               000000018004f7dc f   libucrt:feholdexcept.obj
 0001:0004e82c       ceil                       000000018004f82c f   libucrt:ceil.obj
 0001:0004e8f0       log10                      000000018004f8f0 f   libucrt:log10.obj
 0001:0004f028       _lseeki64                  0000000180050028 f   libucrt:lseek.obj
 0001:0004f030       _lseeki64_nolock           0000000180050030 f   libucrt:lseek.obj
 0001:0004f038       __acrt_stdio_allocate_buffer_nolock 0000000180050038 f   libucrt:_getbuf.obj
 0001:0004f09c       _fclose_nolock             000000018005009c f   libucrt:fclose.obj
 0001:0004f120       fclose                     0000000180050120 f   libucrt:fclose.obj
 0001:0004f18c       _wcsnicmp                  000000018005018c f   libucrt:wcsnicmp.obj
 0001:0004f228       _wcsnicmp_l                0000000180050228 f   libucrt:wcsnicmp.obj
 0001:0004f340       wcscmp                     0000000180050340 f   libucrt:wcscmp.obj
 0001:0004f378       _putwch_nolock             0000000180050378 f   libucrt:putwch.obj
 0001:0004f3d4       _clearfp                   00000001800503d4 f   libucrt:ieee.obj
 0001:0004f428       _controlfp                 0000000180050428 f   libucrt:ieee.obj
 0001:0004f434       _statusfp                  0000000180050434 f   libucrt:ieee.obj
 0001:0004f714       __acrt_LCMapStringW        0000000180050714 f   libucrt:lcmapstringw.obj
 0001:0004f79c       __ascii_strnicmp           000000018005079c f   libucrt:strnicmp.obj
 0001:0004f7e4       _strnicmp                  00000001800507e4 f   libucrt:strnicmp.obj
 0001:0004f834       _strnicmp_l                0000000180050834 f   libucrt:strnicmp.obj
 0001:0004fca4       __acrt_CompareStringA      0000000180050ca4 f   libucrt:comparestringa.obj
 0001:0004fd30       _log10_special             0000000180050d30 f   libucrt:log_special.obj
 0001:0004fde8       ??$?RV<lambda_bfedae4ebbf01fab1bb6dcc6a9e276e0>@@AEAV<lambda_2fe9b910cf3cbf4a0ab98a02ba45b3ec>@@V<lambda_237c231691f317818eb88cc1d5d642d6>@@@?$__crt_seh_guarded_call@H@@QEAAH$$QEAV<lambda_bfedae4ebbf01fab1bb6dcc6a9e276e0>@@AEAV<lambda_2fe9b910cf3cbf4a0ab98a02ba45b3ec>@@$$QEAV<lambda_237c231691f317818eb88cc1d5d642d6>@@@Z 0000000180050de8 f i libucrt:close.obj
 0001:0004fe5c       _close                     0000000180050e5c f   libucrt:close.obj
 0001:0004ff00       _close_nolock              0000000180050f00 f   libucrt:close.obj
 0001:0004ffbc       ?__acrt_stdio_free_stream@@YAXV__crt_stdio_stream@@@Z 0000000180050fbc f   libucrt:stream.obj
 0001:00050000       __dcrt_lowio_initialize_console_output 0000000180051000 f   libucrt:initcon.obj
 0001:0005003c       __dcrt_terminate_console_output 000000018005103c f   libucrt:initcon.obj
 0001:0005005c       IsProcessorFeaturePresent  000000018005105c f   kernel32:KERNEL32.dll
 0001:00050062       RtlUnwindEx                0000000180051062 f   kernel32:KERNEL32.dll
 0001:00050068       ?DloadAcquireSectionWriteAccess@@YAXXZ 0000000180051068 f i DelayImp:delayhlp.obj
 0001:00050124       ?DloadGetSRWLockFunctionPointers@@YAEXZ 0000000180051124 f i DelayImp:delayhlp.obj
 0001:000501c0       ?DloadMakePermanentImageCommit@@YAXPEAX_K@Z 00000001800511c0 f i DelayImp:delayhlp.obj
 0001:00050258       ?DloadObtainSection@@YAPEAXPEAK0@Z 0000000180051258 f i DelayImp:delayhlp.obj
 0001:000502f0       ?DloadProtectSection@@YAXKPEAK@Z 00000001800512f0 f i DelayImp:delayhlp.obj
 0001:00050380       ?DloadReleaseSectionWriteAccess@@YAXXZ 0000000180051380 f i DelayImp:delayhlp.obj
 0001:00050424       __delayLoadHelper2         0000000180051424 f   DelayImp:delayhlp.obj
 0001:00050720       _FindPESection             0000000180051720 f   LIBCMT:pesect.obj
 0001:00050770       _IsNonwritableInCurrentImage 0000000180051770 f   LIBCMT:pesect.obj
 0001:000507c0       _ValidateImageBase         00000001800517c0 f   LIBCMT:pesect.obj
 0001:000507f0       strrchr                    00000001800517f0 f   libvcruntime:strrchr.obj
 0001:00050930       strchr                     0000000180051930 f   libvcruntime:strchr.obj
 0001:000509bc       wcschr                     00000001800519bc f   libvcruntime:wcschr.obj
 0001:00050a60       _guard_dispatch_icall_nop  0000000180051a60 f   LIBCMT:_guard_dispatch_.obj
 0001:000518c0       ??__F_Static@?1???$_Immortalize@V_Iostream_error_category@std@@@std@@YAAEAV_Iostream_error_category@0@XZ@YAXXZ 00000001800528c0 f i node_snap7_client.obj
 0002:00000000       __imp_GetModuleHandleA     0000000180053000     kernel32:KERNEL32.dll
 0002:00000008       __imp_EnterCriticalSection 0000000180053008     kernel32:KERNEL32.dll
 0002:00000010       __imp_LeaveCriticalSection 0000000180053010     kernel32:KERNEL32.dll
 0002:00000018       __imp_InitializeCriticalSection 0000000180053018     kernel32:KERNEL32.dll
 0002:00000020       __imp_WaitForSingleObject  0000000180053020     kernel32:KERNEL32.dll
 0002:00000028       __imp_SetEvent             0000000180053028     kernel32:KERNEL32.dll
 0002:00000030       __imp_CloseHandle          0000000180053030     kernel32:KERNEL32.dll
 0002:00000038       __imp_ResetEvent           0000000180053038     kernel32:KERNEL32.dll
 0002:00000040       __imp_DeleteCriticalSection 0000000180053040     kernel32:KERNEL32.dll
 0002:00000048       __imp_CreateEventA         0000000180053048     kernel32:KERNEL32.dll
 0002:00000050       __imp_GetSystemDirectoryA  0000000180053050     kernel32:KERNEL32.dll
 0002:00000058       __imp_LoadLibraryA         0000000180053058     kernel32:KERNEL32.dll
 0002:00000060       __imp_GetProcAddress       0000000180053060     kernel32:KERNEL32.dll
 0002:00000068       __imp_FreeLibrary          0000000180053068     kernel32:KERNEL32.dll
 0002:00000070       __imp_Sleep                0000000180053070     kernel32:KERNEL32.dll
 0002:00000078       __imp_ExitThread           0000000180053078     kernel32:KERNEL32.dll
 0002:00000080       __imp_TerminateThread      0000000180053080     kernel32:KERNEL32.dll
 0002:00000088       __imp_CreateThread         0000000180053088     kernel32:KERNEL32.dll
 0002:00000090       __imp_WideCharToMultiByte  0000000180053090     kernel32:KERNEL32.dll
 0002:00000098       __imp_EncodePointer        0000000180053098     kernel32:KERNEL32.dll
 0002:000000a0       __imp_DecodePointer        00000001800530a0     kernel32:KERNEL32.dll
 0002:000000a8       __imp_MultiByteToWideChar  00000001800530a8     kernel32:KERNEL32.dll
 0002:000000b0       __imp_SetLastError         00000001800530b0     kernel32:KERNEL32.dll
 0002:000000b8       __imp_InitializeCriticalSectionAndSpinCount 00000001800530b8     kernel32:KERNEL32.dll
 0002:000000c0       __imp_CreateEventW         00000001800530c0     kernel32:KERNEL32.dll
 0002:000000c8       __imp_TlsAlloc             00000001800530c8     kernel32:KERNEL32.dll
 0002:000000d0       __imp_TlsGetValue          00000001800530d0     kernel32:KERNEL32.dll
 0002:000000d8       __imp_TlsSetValue          00000001800530d8     kernel32:KERNEL32.dll
 0002:000000e0       __imp_TlsFree              00000001800530e0     kernel32:KERNEL32.dll
 0002:000000e8       __imp_GetSystemTimeAsFileTime 00000001800530e8     kernel32:KERNEL32.dll
 0002:000000f0       __imp_GetModuleHandleW     00000001800530f0     kernel32:KERNEL32.dll
 0002:000000f8       __imp_CompareStringW       00000001800530f8     kernel32:KERNEL32.dll
 0002:00000100       __imp_LCMapStringW         0000000180053100     kernel32:KERNEL32.dll
 0002:00000108       __imp_GetLocaleInfoW       0000000180053108     kernel32:KERNEL32.dll
 0002:00000110       __imp_GetStringTypeW       0000000180053110     kernel32:KERNEL32.dll
 0002:00000118       __imp_GetCPInfo            0000000180053118     kernel32:KERNEL32.dll
 0002:00000120       __imp_WaitForSingleObjectEx 0000000180053120     kernel32:KERNEL32.dll
 0002:00000128       __imp_RtlCaptureContext    0000000180053128     kernel32:KERNEL32.dll
 0002:00000130       __imp_RtlLookupFunctionEntry 0000000180053130     kernel32:KERNEL32.dll
 0002:00000138       __imp_RtlVirtualUnwind     0000000180053138     kernel32:KERNEL32.dll
 0002:00000140       __imp_UnhandledExceptionFilter 0000000180053140     kernel32:KERNEL32.dll
 0002:00000148       __imp_SetUnhandledExceptionFilter 0000000180053148     kernel32:KERNEL32.dll
 0002:00000150       __imp_GetCurrentProcess    0000000180053150     kernel32:KERNEL32.dll
 0002:00000158       __imp_TerminateProcess     0000000180053158     kernel32:KERNEL32.dll
 0002:00000160       __imp_IsProcessorFeaturePresent 0000000180053160     kernel32:KERNEL32.dll
 0002:00000168       __imp_IsDebuggerPresent    0000000180053168     kernel32:KERNEL32.dll
 0002:00000170       __imp_GetStartupInfoW      0000000180053170     kernel32:KERNEL32.dll
 0002:00000178       __imp_QueryPerformanceCounter 0000000180053178     kernel32:KERNEL32.dll
 0002:00000180       __imp_GetCurrentProcessId  0000000180053180     kernel32:KERNEL32.dll
 0002:00000188       __imp_GetCurrentThreadId   0000000180053188     kernel32:KERNEL32.dll
 0002:00000190       __imp_InitializeSListHead  0000000180053190     kernel32:KERNEL32.dll
 0002:00000198       __imp_RtlPcToFileHeader    0000000180053198     kernel32:KERNEL32.dll
 0002:000001a0       __imp_RaiseException       00000001800531a0     kernel32:KERNEL32.dll
 0002:000001a8       __imp_RtlUnwindEx          00000001800531a8     kernel32:KERNEL32.dll
 0002:000001b0       __imp_GetLastError         00000001800531b0     kernel32:KERNEL32.dll
 0002:000001b8       __imp_LoadLibraryExW       00000001800531b8     kernel32:KERNEL32.dll
 0002:000001c0       __imp_InterlockedFlushSList 00000001800531c0     kernel32:KERNEL32.dll
 0002:000001c8       __imp_GetStdHandle         00000001800531c8     kernel32:KERNEL32.dll
 0002:000001d0       __imp_GetFileType          00000001800531d0     kernel32:KERNEL32.dll
 0002:000001d8       __imp_GetModuleFileNameA   00000001800531d8     kernel32:KERNEL32.dll
 0002:000001e0       __imp_GetModuleFileNameW   00000001800531e0     kernel32:KERNEL32.dll
 0002:000001e8       __imp_GetModuleHandleExW   00000001800531e8     kernel32:KERNEL32.dll
 0002:000001f0       __imp_WriteConsoleW        00000001800531f0     kernel32:KERNEL32.dll
 0002:000001f8       __imp_HeapAlloc            00000001800531f8     kernel32:KERNEL32.dll
 0002:00000200       __imp_HeapReAlloc          0000000180053200     kernel32:KERNEL32.dll
 0002:00000208       __imp_HeapFree             0000000180053208     kernel32:KERNEL32.dll
 0002:00000210       __imp_ExitProcess          0000000180053210     kernel32:KERNEL32.dll
 0002:00000218       __imp_GetTimeZoneInformation 0000000180053218     kernel32:KERNEL32.dll
 0002:00000220       __imp_GetACP               0000000180053220     kernel32:KERNEL32.dll
 0002:00000228       __imp_WriteFile            0000000180053228     kernel32:KERNEL32.dll
 0002:00000230       __imp_OutputDebugStringW   0000000180053230     kernel32:KERNEL32.dll
 0002:00000238       __imp_GetDateFormatW       0000000180053238     kernel32:KERNEL32.dll
 0002:00000240       __imp_GetTimeFormatW       0000000180053240     kernel32:KERNEL32.dll
 0002:00000248       __imp_IsValidLocale        0000000180053248     kernel32:KERNEL32.dll
 0002:00000250       __imp_GetUserDefaultLCID   0000000180053250     kernel32:KERNEL32.dll
 0002:00000258       __imp_EnumSystemLocalesW   0000000180053258     kernel32:KERNEL32.dll
 0002:00000260       __imp_GetProcessHeap       0000000180053260     kernel32:KERNEL32.dll
 0002:00000268       __imp_FindClose            0000000180053268     kernel32:KERNEL32.dll
 0002:00000270       __imp_FindFirstFileExA     0000000180053270     kernel32:KERNEL32.dll
 0002:00000278       __imp_FindNextFileA        0000000180053278     kernel32:KERNEL32.dll
 0002:00000280       __imp_IsValidCodePage      0000000180053280     kernel32:KERNEL32.dll
 0002:00000288       __imp_GetOEMCP             0000000180053288     kernel32:KERNEL32.dll
 0002:00000290       __imp_GetCommandLineA      0000000180053290     kernel32:KERNEL32.dll
 0002:00000298       __imp_GetCommandLineW      0000000180053298     kernel32:KERNEL32.dll
 0002:000002a0       __imp_GetEnvironmentStringsW 00000001800532a0     kernel32:KERNEL32.dll
 0002:000002a8       __imp_FreeEnvironmentStringsW 00000001800532a8     kernel32:KERNEL32.dll
 0002:000002b0       __imp_SetEnvironmentVariableA 00000001800532b0     kernel32:KERNEL32.dll
 0002:000002b8       __imp_SetStdHandle         00000001800532b8     kernel32:KERNEL32.dll
 0002:000002c0       __imp_FlushFileBuffers     00000001800532c0     kernel32:KERNEL32.dll
 0002:000002c8       __imp_GetConsoleCP         00000001800532c8     kernel32:KERNEL32.dll
 0002:000002d0       __imp_GetConsoleMode       00000001800532d0     kernel32:KERNEL32.dll
 0002:000002d8       __imp_HeapSize             00000001800532d8     kernel32:KERNEL32.dll
 0002:000002e0       __imp_SetFilePointerEx     00000001800532e0     kernel32:KERNEL32.dll
 0002:000002e8       __imp_CreateFileW          00000001800532e8     kernel32:KERNEL32.dll
 0002:000002f0       __imp_VirtualQuery         00000001800532f0     kernel32:KERNEL32.dll
 0002:000002f8       __imp_VirtualProtect       00000001800532f8     kernel32:KERNEL32.dll
 0002:00000300       __imp_GetSystemInfo        0000000180053300     kernel32:KERNEL32.dll
 0002:00000308       __imp_LoadLibraryExA       0000000180053308     kernel32:KERNEL32.dll
 0002:00000310       \177KERNEL32_NULL_THUNK_DATA 0000000180053310     kernel32:KERNEL32.dll
 0002:00000318       __imp_timeGetTime          0000000180053318     winmm:WINMM.dll
 0002:00000320       __imp_timeBeginPeriod      0000000180053320     winmm:WINMM.dll
 0002:00000328       __imp_timeEndPeriod        0000000180053328     winmm:WINMM.dll
 0002:00000330       \177WINMM_NULL_THUNK_DATA  0000000180053330     winmm:WINMM.dll
 0002:00000338       __imp_socket               0000000180053338     ws2_32:WS2_32.dll
 0002:00000340       __imp_send                 0000000180053340     ws2_32:WS2_32.dll
 0002:00000348       __imp_getsockname          0000000180053348     ws2_32:WS2_32.dll
 0002:00000350       __imp_getpeername          0000000180053350     ws2_32:WS2_32.dll
 0002:00000358       __imp_WSAStartup           0000000180053358     ws2_32:WS2_32.dll
 0002:00000360       __imp_listen               0000000180053360     ws2_32:WS2_32.dll
 0002:00000368       __imp_connect              0000000180053368     ws2_32:WS2_32.dll
 0002:00000370       __imp_select               0000000180053370     ws2_32:WS2_32.dll
 0002:00000378       __imp_closesocket          0000000180053378     ws2_32:WS2_32.dll
 0002:00000380       __imp_bind                 0000000180053380     ws2_32:WS2_32.dll
 0002:00000388       __imp_accept               0000000180053388     ws2_32:WS2_32.dll
 0002:00000390       __imp_WSACleanup           0000000180053390     ws2_32:WS2_32.dll
 0002:00000398       __imp_recv                 0000000180053398     ws2_32:WS2_32.dll
 0002:000003a0       __imp_htons                00000001800533a0     ws2_32:WS2_32.dll
 0002:000003a8       __imp_ioctlsocket          00000001800533a8     ws2_32:WS2_32.dll
 0002:000003b0       __imp_shutdown             00000001800533b0     ws2_32:WS2_32.dll
 0002:000003b8       __imp_WSAGetLastError      00000001800533b8     ws2_32:WS2_32.dll
 0002:000003c0       __imp_inet_addr            00000001800533c0     ws2_32:WS2_32.dll
 0002:000003c8       __imp_inet_ntoa            00000001800533c8     ws2_32:WS2_32.dll
 0002:000003d0       __imp_setsockopt           00000001800533d0     ws2_32:WS2_32.dll
 0002:000003d8       \177WS2_32_NULL_THUNK_DATA 00000001800533d8     ws2_32:WS2_32.dll
 0002:000003e0       __guard_check_icall_fptr   00000001800533e0     LIBCMT:guard_support.obj
 0002:000003e8       __guard_dispatch_icall_fptr 00000001800533e8     LIBCMT:guard_support.obj
 0002:000003f0       __xc_a                     00000001800533f0     LIBCMT:initializers.obj
 0002:00000420       _register_node_snap7_      0000000180053420     node_snap7.obj
 0002:00000438       __xc_z                     0000000180053438     LIBCMT:initializers.obj
 0002:00000440       __xi_a                     0000000180053440     LIBCMT:initializers.obj
 0002:00000458       __acrt_timeset_initializer 0000000180053458     libucrt:timeset_initializer.obj
 0002:00000460       __acrt_stdio_initializer   0000000180053460     libucrt:stdio_initializer.obj
 0002:00000468       __acrt_tran_fma3_initializer 0000000180053468     libucrt:fma3_initializer.obj
 0002:00000470       __acrt_multibyte_initializer 0000000180053470     libucrt:multibyte_initializer.obj
 0002:00000478       __xi_z                     0000000180053478     LIBCMT:initializers.obj
 0002:00000480       __xl_a                     0000000180053480     LIBCMT:tlssup.obj
 0002:00000488       __xl_z                     0000000180053488     LIBCMT:tlssup.obj
 0002:00000490       __xp_a                     0000000180053490     LIBCMT:initializers.obj
 0002:00000498       __acrt_locale_terminator   0000000180053498     libucrt:locale_initializer.obj
 0002:000004a0       __dcrt_console_output_terminator 00000001800534a0     libucrt:console_output_initializer.obj
 0002:000004a8       __acrt_stdio_terminator    00000001800534a8     libucrt:stdio_initializer.obj
 0002:000004b0       __xp_z                     00000001800534b0     LIBCMT:initializers.obj
 0002:000004b8       __xt_a                     00000001800534b8     LIBCMT:initializers.obj
 0002:000004c0       __xt_z                     00000001800534c0     LIBCMT:initializers.obj
 0002:000004d0       __sz_node_exe              00000001800534d0     node:node.exe
 0002:000005b0       ??_7_Facet_base@std@@6B@   00000001800535b0     libcpmt:locale0.obj
 0002:000005d0       ??_7_Locimp@locale@std@@6B@ 00000001800535d0     libcpmt:locale0.obj
 0002:000005e8       ??_C@_01NBENCBCI@?$CK?$AA@ 00000001800535e8     libcpmt:locale0.obj
 0002:000005ec       ??_C@_01GFHCPBMG@C?$AA@    00000001800535ec     libcpmt:locale0.obj
 0002:000005f8       ??_7exception@std@@6B@     00000001800535f8     libcpmt:xthrow.obj
 0002:00000608       ??_C@_0BC@EOODALEL@Unknown?5exception?$AA@ 0000000180053608     libcpmt:xthrow.obj
 0002:00000628       ??_7bad_alloc@std@@6B@     0000000180053628     libcpmt:xthrow.obj
 0002:00000638       ??_C@_0P@GHFPNOJB@bad?5allocation?$AA@ 0000000180053638     libcpmt:xthrow.obj
 0002:00000650       ??_7logic_error@std@@6B@   0000000180053650     libcpmt:xthrow.obj
 0002:00000668       ??_7length_error@std@@6B@  0000000180053668     libcpmt:xthrow.obj
 0002:00000680       ??_7out_of_range@std@@6B@  0000000180053680     libcpmt:xthrow.obj
 0002:00000698       ??_7runtime_error@std@@6B@ 0000000180053698     libcpmt:xthrow.obj
 0002:000006a8       ?_BADOFF@std@@3_JB         00000001800536a8     libcpmt:ios.obj
 0002:00000de0       ??_C@_0BN@LKKBCCDB@address?5family?5not?5supported?$AA@ 0000000180053de0     libcpmt:syserror.obj
 0002:00000e00       ??_C@_0P@LDMLAFHI@address?5in?5use?$AA@ 0000000180053e00     libcpmt:syserror.obj
 0002:00000e10       ??_C@_0BG@DHPCNBJB@address?5not?5available?$AA@ 0000000180053e10     libcpmt:syserror.obj
 0002:00000e28       ??_C@_0BC@DFIBIBIL@already?5connected?$AA@ 0000000180053e28     libcpmt:syserror.obj
 0002:00000e40       ??_C@_0BH@CAKOHOMI@argument?5list?5too?5long?$AA@ 0000000180053e40     libcpmt:syserror.obj
 0002:00000e58       ??_C@_0BH@CGIMPKIM@argument?5out?5of?5domain?$AA@ 0000000180053e58     libcpmt:syserror.obj
 0002:00000e70       ??_C@_0M@KGHGGJGL@bad?5address?$AA@ 0000000180053e70     libcpmt:syserror.obj
 0002:00000e80       ??_C@_0BE@MPJPGCEO@bad?5file?5descriptor?$AA@ 0000000180053e80     libcpmt:syserror.obj
 0002:00000e98       ??_C@_0M@PMMIEFCP@bad?5message?$AA@ 0000000180053e98     libcpmt:syserror.obj
 0002:00000ea8       ??_C@_0M@KPHOFDBE@broken?5pipe?$AA@ 0000000180053ea8     libcpmt:syserror.obj
 0002:00000eb8       ??_C@_0BD@MGNDDEGM@connection?5aborted?$AA@ 0000000180053eb8     libcpmt:syserror.obj
 0002:00000ed0       ??_C@_0BP@KAIHPOGN@connection?5already?5in?5progress?$AA@ 0000000180053ed0     libcpmt:syserror.obj
 0002:00000ef0       ??_C@_0BD@PJLIIJEL@connection?5refused?$AA@ 0000000180053ef0     libcpmt:syserror.obj
 0002:00000f08       ??_C@_0BB@IECNJNOI@connection?5reset?$AA@ 0000000180053f08     libcpmt:syserror.obj
 0002:00000f20       ??_C@_0BC@PPHBOELF@cross?5device?5link?$AA@ 0000000180053f20     libcpmt:syserror.obj
 0002:00000f38       ??_C@_0BN@KDMIFEIP@destination?5address?5required?$AA@ 0000000180053f38     libcpmt:syserror.obj
 0002:00000f58       ??_C@_0BI@NGCEHDD@device?5or?5resource?5busy?$AA@ 0000000180053f58     libcpmt:syserror.obj
 0002:00000f70       ??_C@_0BE@JIDOCPHM@directory?5not?5empty?$AA@ 0000000180053f70     libcpmt:syserror.obj
 0002:00000f88       ??_C@_0BI@BNCLIGPB@executable?5format?5error?$AA@ 0000000180053f88     libcpmt:syserror.obj
 0002:00000fa0       ??_C@_0M@MIDIAGJP@file?5exists?$AA@ 0000000180053fa0     libcpmt:syserror.obj
 0002:00000fb0       ??_C@_0P@DNAJLBJK@file?5too?5large?$AA@ 0000000180053fb0     libcpmt:syserror.obj
 0002:00000fc0       ??_C@_0BC@EJHOMAAK@filename?5too?5long?$AA@ 0000000180053fc0     libcpmt:syserror.obj
 0002:00000fd8       ??_C@_0BH@KEFGLDAF@function?5not?5supported?$AA@ 0000000180053fd8     libcpmt:syserror.obj
 0002:00000ff0       ??_C@_0BB@DHFDFGDM@host?5unreachable?$AA@ 0000000180053ff0     libcpmt:syserror.obj
 0002:00001008       ??_C@_0BD@JPHBMONG@identifier?5removed?$AA@ 0000000180054008     libcpmt:syserror.obj
 0002:00001020       ??_C@_0BG@CDNPAGJK@illegal?5byte?5sequence?$AA@ 0000000180054020     libcpmt:syserror.obj
 0002:00001038       ??_C@_0CD@BNPLBMNA@inappropriate?5io?5control?5operati@ 0000000180054038     libcpmt:syserror.obj
 0002:00001060       ??_C@_0M@EGEKIIMP@interrupted?$AA@ 0000000180054060     libcpmt:syserror.obj
 0002:00001070       ??_C@_0BB@FCMFBGOM@invalid?5argument?$AA@ 0000000180054070     libcpmt:syserror.obj
 0002:00001088       ??_C@_0N@OHAFKDEK@invalid?5seek?$AA@ 0000000180054088     libcpmt:syserror.obj
 0002:00001098       ??_C@_08GLNPIFBN@io?5error?$AA@ 0000000180054098     libcpmt:syserror.obj
 0002:000010a8       ??_C@_0P@FLLDBIDK@is?5a?5directory?$AA@ 00000001800540a8     libcpmt:syserror.obj
 0002:000010b8       ??_C@_0N@IFLPBIOP@message?5size?$AA@ 00000001800540b8     libcpmt:syserror.obj
 0002:000010c8       ??_C@_0N@KIIEAAIO@network?5down?$AA@ 00000001800540c8     libcpmt:syserror.obj
 0002:000010d8       ??_C@_0O@FNPDBHEE@network?5reset?$AA@ 00000001800540d8     libcpmt:syserror.obj
 0002:000010e8       ??_C@_0BE@IFNCKGE@network?5unreachable?$AA@ 00000001800540e8     libcpmt:syserror.obj
 0002:00001100       ??_C@_0BA@PFFCAOFK@no?5buffer?5space?$AA@ 0000000180054100     libcpmt:syserror.obj
 0002:00001110       ??_C@_0BB@IEPBLJHK@no?5child?5process?$AA@ 0000000180054110     libcpmt:syserror.obj
 0002:00001128       ??_C@_07PLECNNKG@no?5link?$AA@ 0000000180054128     libcpmt:syserror.obj
 0002:00001130       ??_C@_0BC@NJECKMKE@no?5lock?5available?$AA@ 0000000180054130     libcpmt:syserror.obj
 0002:00001148       ??_C@_0BF@PBGGPKKE@no?5message?5available?$AA@ 0000000180054148     libcpmt:syserror.obj
 0002:00001160       ??_C@_0L@EDOLMPAK@no?5message?$AA@ 0000000180054160     libcpmt:syserror.obj
 0002:00001170       ??_C@_0BD@EAMBFIDF@no?5protocol?5option?$AA@ 0000000180054170     libcpmt:syserror.obj
 0002:00001188       ??_C@_0BD@IJDJKDEA@no?5space?5on?5device?$AA@ 0000000180054188     libcpmt:syserror.obj
 0002:000011a0       ??_C@_0BE@MKFDAFMP@no?5stream?5resources?$AA@ 00000001800541a0     libcpmt:syserror.obj
 0002:000011b8       ??_C@_0BK@IMCPHCBI@no?5such?5device?5or?5address?$AA@ 00000001800541b8     libcpmt:syserror.obj
 0002:000011d8       ??_C@_0P@FDINDDOK@no?5such?5device?$AA@ 00000001800541d8     libcpmt:syserror.obj
 0002:000011e8       ??_C@_0BK@NDOCBPGE@no?5such?5file?5or?5directory?$AA@ 00000001800541e8     libcpmt:syserror.obj
 0002:00001208       ??_C@_0BA@ENLPPKBN@no?5such?5process?$AA@ 0000000180054208     libcpmt:syserror.obj
 0002:00001218       ??_C@_0BA@DOCPFFJG@not?5a?5directory?$AA@ 0000000180054218     libcpmt:syserror.obj
 0002:00001228       ??_C@_0N@POEIPGGF@not?5a?5socket?$AA@ 0000000180054228     libcpmt:syserror.obj
 0002:00001238       ??_C@_0N@LGAPMMPI@not?5a?5stream?$AA@ 0000000180054238     libcpmt:syserror.obj
 0002:00001248       ??_C@_0O@GLMIBBEG@not?5connected?$AA@ 0000000180054248     libcpmt:syserror.obj
 0002:00001258       ??_C@_0BC@ENOOLCNF@not?5enough?5memory?$AA@ 0000000180054258     libcpmt:syserror.obj
 0002:00001270       ??_C@_0O@NHEDABJP@not?5supported?$AA@ 0000000180054270     libcpmt:syserror.obj
 0002:00001280       ??_C@_0BD@MOLBPMEA@operation?5canceled?$AA@ 0000000180054280     libcpmt:syserror.obj
 0002:00001298       ??_C@_0BG@KDKHOPCO@operation?5in?5progress?$AA@ 0000000180054298     libcpmt:syserror.obj
 0002:000012b0       ??_C@_0BI@OHIEJAAB@operation?5not?5permitted?$AA@ 00000001800542b0     libcpmt:syserror.obj
 0002:000012c8       ??_C@_0BI@LNEGIFLN@operation?5not?5supported?$AA@ 00000001800542c8     libcpmt:syserror.obj
 0002:000012e0       ??_C@_0BG@OEMDKMEE@operation?5would?5block?$AA@ 00000001800542e0     libcpmt:syserror.obj
 0002:000012f8       ??_C@_0L@BLPOFLNJ@owner?5dead?$AA@ 00000001800542f8     libcpmt:syserror.obj
 0002:00001308       ??_C@_0BC@CIJDGCDI@permission?5denied?$AA@ 0000000180054308     libcpmt:syserror.obj
 0002:00001320       ??_C@_0P@FNPOCJBE@protocol?5error?$AA@ 0000000180054320     libcpmt:syserror.obj
 0002:00001330       ??_C@_0BH@JPPPLHJB@protocol?5not?5supported?$AA@ 0000000180054330     libcpmt:syserror.obj
 0002:00001348       ??_C@_0BG@EICBIHDP@read?5only?5file?5system?$AA@ 0000000180054348     libcpmt:syserror.obj
 0002:00001360       ??_C@_0BO@BJBOMOEJ@resource?5deadlock?5would?5occur?$AA@ 0000000180054360     libcpmt:syserror.obj
 0002:00001380       ??_C@_0BP@LKNGHENJ@resource?5unavailable?5try?5again?$AA@ 0000000180054380     libcpmt:syserror.obj
 0002:000013a0       ??_C@_0BE@GOIPJJHG@result?5out?5of?5range?$AA@ 00000001800543a0     libcpmt:syserror.obj
 0002:000013b8       ??_C@_0BG@MPLKFPAE@state?5not?5recoverable?$AA@ 00000001800543b8     libcpmt:syserror.obj
 0002:000013d0       ??_C@_0P@DIIFGFCG@stream?5timeout?$AA@ 00000001800543d0     libcpmt:syserror.obj
 0002:000013e0       ??_C@_0P@IPFDMIFL@text?5file?5busy?$AA@ 00000001800543e0     libcpmt:syserror.obj
 0002:000013f0       ??_C@_09KJPPMAOI@timed?5out?$AA@ 00000001800543f0     libcpmt:syserror.obj
 0002:00001400       ??_C@_0BO@HACHBEKI@too?5many?5files?5open?5in?5system?$AA@ 0000000180054400     libcpmt:syserror.obj
 0002:00001420       ??_C@_0BE@GHAFMPAH@too?5many?5files?5open?$AA@ 0000000180054420     libcpmt:syserror.obj
 0002:00001438       ??_C@_0P@HCOMKFCC@too?5many?5links?$AA@ 0000000180054438     libcpmt:syserror.obj
 0002:00001448       ??_C@_0BO@EFGOJEF@too?5many?5symbolic?5link?5levels?$AA@ 0000000180054448     libcpmt:syserror.obj
 0002:00001468       ??_C@_0BA@KGKGOOJA@value?5too?5large?$AA@ 0000000180054468     libcpmt:syserror.obj
 0002:00001478       ??_C@_0BE@MIEJDDNH@wrong?5protocol?5type?$AA@ 0000000180054478     libcpmt:syserror.obj
 0002:00001490       ??_C@_0O@BFJCFAAK@unknown?5error?$AA@ 0000000180054490     libcpmt:syserror.obj
 0002:000014d0       ??_7?$ctype@D@std@@6B@     00000001800544d0     libcpmt:locale.obj
 0002:00001530       ??_7?$num_put@DV?$ostreambuf_iterator@DU?$char_traits@D@std@@@std@@@std@@6B@ 0000000180054530     libcpmt:locale.obj
 0002:00001590       ??_7?$numpunct@D@std@@6B@  0000000180054590     libcpmt:locale.obj
 0002:000015d0       ??_C@_1BK@MGMFAEKH@?$AAk?$AAe?$AAr?$AAn?$AAe?$AAl?$AA3?$AA2?$AA?4?$AAd?$AAl?$AAl?$AA?$AA@ 00000001800545d0     libcpmt:winapisupp.obj
 0002:000015f0       ??_C@_08KNHFBNJ@FlsAlloc?$AA@ 00000001800545f0     libcpmt:winapisupp.obj
 0002:00001600       ??_C@_07PEJMOBNF@FlsFree?$AA@ 0000000180054600     libcpmt:winapisupp.obj
 0002:00001608       ??_C@_0M@GDNOONDI@FlsGetValue?$AA@ 0000000180054608     libcpmt:winapisupp.obj
 0002:00001618       ??_C@_0M@JCPCPOEF@FlsSetValue?$AA@ 0000000180054618     libcpmt:winapisupp.obj
 0002:00001628       ??_C@_0BM@HCFOFFN@InitializeCriticalSectionEx?$AA@ 0000000180054628     libcpmt:winapisupp.obj
 0002:00001648       ??_C@_0BE@GPLMMCMH@InitOnceExecuteOnce?$AA@ 0000000180054648     libcpmt:winapisupp.obj
 0002:00001660       ??_C@_0P@DLHPPCNH@CreateEventExW?$AA@ 0000000180054660     libcpmt:winapisupp.obj
 0002:00001670       ??_C@_0BB@MEFPJLHN@CreateSemaphoreW?$AA@ 0000000180054670     libcpmt:winapisupp.obj
 0002:00001688       ??_C@_0BD@KIEEOEEH@CreateSemaphoreExW?$AA@ 0000000180054688     libcpmt:winapisupp.obj
 0002:000016a0       ??_C@_0BG@OGFAJCKC@CreateThreadpoolTimer?$AA@ 00000001800546a0     libcpmt:winapisupp.obj
 0002:000016b8       ??_C@_0BD@LPLEMMDI@SetThreadpoolTimer?$AA@ 00000001800546b8     libcpmt:winapisupp.obj
 0002:000016d0       ??_C@_0CA@FMNJENH@WaitForThreadpoolTimerCallbacks?$AA@ 00000001800546d0     libcpmt:winapisupp.obj
 0002:000016f0       ??_C@_0BF@DCFCCNOC@CloseThreadpoolTimer?$AA@ 00000001800546f0     libcpmt:winapisupp.obj
 0002:00001708       ??_C@_0BF@FLABGKKM@CreateThreadpoolWait?$AA@ 0000000180054708     libcpmt:winapisupp.obj
 0002:00001720       ??_C@_0BC@MGCOHNA@SetThreadpoolWait?$AA@ 0000000180054720     libcpmt:winapisupp.obj
 0002:00001738       ??_C@_0BE@OCIOMIMP@CloseThreadpoolWait?$AA@ 0000000180054738     libcpmt:winapisupp.obj
 0002:00001750       ??_C@_0BJ@LKGHFHBO@FlushProcessWriteBuffers?$AA@ 0000000180054750     libcpmt:winapisupp.obj
 0002:00001770       ??_C@_0BP@KALKKPMO@FreeLibraryWhenCallbackReturns?$AA@ 0000000180054770     libcpmt:winapisupp.obj
 0002:00001790       ??_C@_0BK@DFNBACLA@GetCurrentProcessorNumber?$AA@ 0000000180054790     libcpmt:winapisupp.obj
 0002:000017b0       ??_C@_0BE@FKKLLFLM@CreateSymbolicLinkW?$AA@ 00000001800547b0     libcpmt:winapisupp.obj
 0002:000017c8       ??_C@_0BE@JOGNEJCI@GetCurrentPackageId?$AA@ 00000001800547c8     libcpmt:winapisupp.obj
 0002:000017e0       ??_C@_0P@CDHHOHKP@GetTickCount64?$AA@ 00000001800547e0     libcpmt:winapisupp.obj
 0002:000017f0       ??_C@_0BN@NEEHBBPO@GetFileInformationByHandleEx?$AA@ 00000001800547f0     libcpmt:winapisupp.obj
 0002:00001810       ??_C@_0BL@KBBHGKCM@SetFileInformationByHandle?$AA@ 0000000180054810     libcpmt:winapisupp.obj
 0002:00001830       ??_C@_0BP@FPNJPEJC@GetSystemTimePreciseAsFileTime?$AA@ 0000000180054830     libcpmt:winapisupp.obj
 0002:00001850       ??_C@_0BM@HLJJNPAH@InitializeConditionVariable?$AA@ 0000000180054850     libcpmt:winapisupp.obj
 0002:00001870       ??_C@_0BG@BFNILBLN@WakeConditionVariable?$AA@ 0000000180054870     libcpmt:winapisupp.obj
 0002:00001888       ??_C@_0BJ@PGPPEPCC@WakeAllConditionVariable?$AA@ 0000000180054888     libcpmt:winapisupp.obj
 0002:000018a8       ??_C@_0BJ@JEBJOJFJ@SleepConditionVariableCS?$AA@ 00000001800548a8     libcpmt:winapisupp.obj
 0002:000018c8       ??_C@_0BC@MMLHEBPB@InitializeSRWLock?$AA@ 00000001800548c8     libcpmt:winapisupp.obj
 0002:000018e0       ??_C@_0BI@OMNLIJDB@AcquireSRWLockExclusive?$AA@ 00000001800548e0     libcpmt:winapisupp.obj
 0002:000018f8       ??_C@_0BL@OGHFEMNA@TryAcquireSRWLockExclusive?$AA@ 00000001800548f8     libcpmt:winapisupp.obj
 0002:00001918       ??_C@_0BI@HMIEPCNJ@ReleaseSRWLockExclusive?$AA@ 0000000180054918     libcpmt:winapisupp.obj
 0002:00001930       ??_C@_0BK@LGACAGIC@SleepConditionVariableSRW?$AA@ 0000000180054930     libcpmt:winapisupp.obj
 0002:00001950       ??_C@_0BF@GGPHFPJA@CreateThreadpoolWork?$AA@ 0000000180054950     libcpmt:winapisupp.obj
 0002:00001968       ??_C@_0BF@NHDAIMMO@SubmitThreadpoolWork?$AA@ 0000000180054968     libcpmt:winapisupp.obj
 0002:00001980       ??_C@_0BE@NPHIPNPD@CloseThreadpoolWork?$AA@ 0000000180054980     libcpmt:winapisupp.obj
 0002:00001998       ??_C@_0BA@IHGNDAEB@CompareStringEx?$AA@ 0000000180054998     libcpmt:winapisupp.obj
 0002:000019a8       ??_C@_0BA@ONOKGCMP@GetLocaleInfoEx?$AA@ 00000001800549a8     libcpmt:winapisupp.obj
 0002:000019b8       ??_C@_0O@KKBNKAPF@LCMapStringEx?$AA@ 00000001800549b8     libcpmt:winapisupp.obj
 0002:000019c8       ??_C@_11LOCGONAA@?$AA?$AA@ 00000001800549c8     libcpmt:wlocale.obj
 0002:000019cc       ??_C@_13IMODFHAA@?$AA?9?$AA?$AA@ 00000001800549cc     libcpmt:wlocale.obj
 0002:000019d0       ??_C@_01JOAMLHOP@?9?$AA@   00000001800549d0     libcpmt:wlocale.obj
 0002:000019e0       __xmm@80000000000000008000000000000000 00000001800549e0     libcpmt:wlocale.obj
 0002:00001a90       ??_C@_1M@JKFFICHJ@?$AAe?$AAs?$AA?9?$AAv?$AAe?$AA?$AA@ 0000000180054a90     libcpmt:winapinls.obj
 0002:00001aa0       ??_C@_1M@PNMLOJDF@?$AAe?$AAt?$AA?9?$AAe?$AAe?$AA?$AA@ 0000000180054aa0     libcpmt:winapinls.obj
 0002:00001ab0       ??_C@_1M@GHHLIKEI@?$AAe?$AAu?$AA?9?$AAe?$AAs?$AA?$AA@ 0000000180054ab0     libcpmt:winapinls.obj
 0002:00001ac0       ??_C@_1M@PBNONODE@?$AAf?$AAa?$AA?9?$AAi?$AAr?$AA?$AA@ 0000000180054ac0     libcpmt:winapinls.obj
 0002:00001ad0       ??_C@_1M@JEEHPMIL@?$AAf?$AAi?$AA?9?$AAf?$AAi?$AA?$AA@ 0000000180054ad0     libcpmt:winapinls.obj
 0002:00001ae0       ??_C@_1M@LMDCNDBA@?$AAf?$AAo?$AA?9?$AAf?$AAo?$AA?$AA@ 0000000180054ae0     libcpmt:winapinls.obj
 0002:00001af0       ??_C@_1M@JKEOHLDK@?$AAf?$AAr?$AA?9?$AAb?$AAe?$AA?$AA@ 0000000180054af0     libcpmt:winapinls.obj
 0002:00001b00       ??_C@_1M@NOHADPMI@?$AAf?$AAr?$AA?9?$AAc?$AAa?$AA?$AA@ 0000000180054b00     libcpmt:winapinls.obj
 0002:00001b10       ??_C@_1M@KDHIHAEC@?$AAf?$AAr?$AA?9?$AAc?$AAh?$AA?$AA@ 0000000180054b10     libcpmt:winapinls.obj
 0002:00001b20       ??_C@_1M@MMBBFGAK@?$AAf?$AAr?$AA?9?$AAf?$AAr?$AA?$AA@ 0000000180054b20     libcpmt:winapinls.obj
 0002:00001b30       ??_C@_1M@PAFNENNF@?$AAf?$AAr?$AA?9?$AAl?$AAu?$AA?$AA@ 0000000180054b30     libcpmt:winapinls.obj
 0002:00001b40       ??_C@_1M@EOHDJGDD@?$AAf?$AAr?$AA?9?$AAm?$AAc?$AA?$AA@ 0000000180054b40     libcpmt:winapinls.obj
 0002:00001b50       ??_C@_1M@FAPLLOPF@?$AAg?$AAl?$AA?9?$AAe?$AAs?$AA?$AA@ 0000000180054b50     libcpmt:winapinls.obj
 0002:00001b60       ??_C@_1M@FOPBFLOO@?$AAg?$AAu?$AA?9?$AAi?$AAn?$AA?$AA@ 0000000180054b60     libcpmt:winapinls.obj
 0002:00001b70       ??_C@_1M@KBMCINPM@?$AAh?$AAe?$AA?9?$AAi?$AAl?$AA?$AA@ 0000000180054b70     libcpmt:winapinls.obj
 0002:00001b80       ??_C@_1M@BBPHKFPJ@?$AAh?$AAi?$AA?9?$AAi?$AAn?$AA?$AA@ 0000000180054b80     libcpmt:winapinls.obj
 0002:00001b90       ??_C@_1M@PMBNDPHD@?$AAh?$AAr?$AA?9?$AAb?$AAa?$AA?$AA@ 0000000180054b90     libcpmt:winapinls.obj
 0002:00001ba0       ??_C@_1M@BPCKOEGE@?$AAh?$AAr?$AA?9?$AAh?$AAr?$AA?$AA@ 0000000180054ba0     libcpmt:winapinls.obj
 0002:00001bb0       ??_C@_1M@GACBMHKE@?$AAh?$AAu?$AA?9?$AAh?$AAu?$AA?$AA@ 0000000180054bb0     libcpmt:winapinls.obj
 0002:00001bc0       ??_C@_1M@MILPAJJC@?$AAh?$AAy?$AA?9?$AAa?$AAm?$AA?$AA@ 0000000180054bc0     libcpmt:winapinls.obj
 0002:00001bd0       ??_C@_1M@BABBICEC@?$AAi?$AAd?$AA?9?$AAi?$AAd?$AA?$AA@ 0000000180054bd0     libcpmt:winapinls.obj
 0002:00001be0       ??_C@_1M@BIKNHHPF@?$AAi?$AAs?$AA?9?$AAi?$AAs?$AA?$AA@ 0000000180054be0     libcpmt:winapinls.obj
 0002:00001bf0       ??_C@_1M@NMPCJPHE@?$AAi?$AAt?$AA?9?$AAc?$AAh?$AA?$AA@ 0000000180054bf0     libcpmt:winapinls.obj
 0002:00001c00       ??_C@_1M@GHKGFEDF@?$AAi?$AAt?$AA?9?$AAi?$AAt?$AA?$AA@ 0000000180054c00     libcpmt:winapinls.obj
 0002:00001c10       ??_C@_1M@NIEJCJJA@?$AAj?$AAa?$AA?9?$AAj?$AAp?$AA?$AA@ 0000000180054c10     libcpmt:winapinls.obj
 0002:00001c20       ??_C@_1M@JILFNBIM@?$AAk?$AAa?$AA?9?$AAg?$AAe?$AA?$AA@ 0000000180054c20     libcpmt:winapinls.obj
 0002:00001c30       ??_C@_1M@PACPMGPH@?$AAk?$AAk?$AA?9?$AAk?$AAz?$AA?$AA@ 0000000180054c30     libcpmt:winapinls.obj
 0002:00001c40       ??_C@_1M@IELFGMHA@?$AAk?$AAn?$AA?9?$AAi?$AAn?$AA?$AA@ 0000000180054c40     libcpmt:winapinls.obj
 0002:00001c50       ??_C@_1M@DMHAEOGC@?$AAk?$AAo?$AA?9?$AAk?$AAr?$AA?$AA@ 0000000180054c50     libcpmt:winapinls.obj
 0002:00001c60       ??_C@_1O@IBBJHCH@?$AAk?$AAo?$AAk?$AA?9?$AAi?$AAn?$AA?$AA@ 0000000180054c60     libcpmt:winapinls.obj
 0002:00001c70       ??_C@_1M@HBAHBIGA@?$AAk?$AAy?$AA?9?$AAk?$AAg?$AA?$AA@ 0000000180054c70     libcpmt:winapinls.obj
 0002:00001c80       ??_C@_1M@KPMILCJG@?$AAl?$AAt?$AA?9?$AAl?$AAt?$AA?$AA@ 0000000180054c80     libcpmt:winapinls.obj
 0002:00001c90       ??_C@_1M@BDEKKCA@?$AAl?$AAv?$AA?9?$AAl?$AAv?$AA?$AA@ 0000000180054c90     libcpmt:winapinls.obj
 0002:00001ca0       ??_C@_1M@ELCKCCJJ@?$AAm?$AAi?$AA?9?$AAn?$AAz?$AA?$AA@ 0000000180054ca0     libcpmt:winapinls.obj
 0002:00001cb0       ??_C@_1M@CBOOLAPA@?$AAm?$AAk?$AA?9?$AAm?$AAk?$AA?$AA@ 0000000180054cb0     libcpmt:winapinls.obj
 0002:00001cc0       ??_C@_1M@GPHNBJKN@?$AAm?$AAl?$AA?9?$AAi?$AAn?$AA?$AA@ 0000000180054cc0     libcpmt:winapinls.obj
 0002:00001cd0       ??_C@_1M@PABJILIG@?$AAm?$AAn?$AA?9?$AAm?$AAn?$AA?$AA@ 0000000180054cd0     libcpmt:winapinls.obj
 0002:00001ce0       ??_C@_1M@FGBKKIPG@?$AAm?$AAr?$AA?9?$AAi?$AAn?$AA?$AA@ 0000000180054ce0     libcpmt:winapinls.obj
 0002:00001cf0       ??_C@_1M@NDBPDDAL@?$AAm?$AAs?$AA?9?$AAb?$AAn?$AA?$AA@ 0000000180054cf0     libcpmt:winapinls.obj
 0002:00001d00       ??_C@_1M@OPIHOOPI@?$AAm?$AAs?$AA?9?$AAm?$AAy?$AA?$AA@ 0000000180054d00     libcpmt:winapinls.obj
 0002:00001d10       ??_C@_1M@PPDBCNFM@?$AAm?$AAt?$AA?9?$AAm?$AAt?$AA?$AA@ 0000000180054d10     libcpmt:winapinls.obj
 0002:00001d20       ??_C@_1M@KDJDKMDD@?$AAn?$AAb?$AA?9?$AAn?$AAo?$AA?$AA@ 0000000180054d20     libcpmt:winapinls.obj
 0002:00001d30       ??_C@_1M@KFCFLMJP@?$AAn?$AAl?$AA?9?$AAb?$AAe?$AA?$AA@ 0000000180054d30     libcpmt:winapinls.obj
 0002:00001d40       ??_C@_1M@KPOPDDGO@?$AAn?$AAl?$AA?9?$AAn?$AAl?$AA?$AA@ 0000000180054d40     libcpmt:winapinls.obj
 0002:00001d50       ??_C@_1M@LJKPEMLN@?$AAn?$AAn?$AA?9?$AAn?$AAo?$AA?$AA@ 0000000180054d50     libcpmt:winapinls.obj
 0002:00001d60       ??_C@_1M@BDGHHBFL@?$AAn?$AAs?$AA?9?$AAz?$AAa?$AA?$AA@ 0000000180054d60     libcpmt:winapinls.obj
 0002:00001d70       ??_C@_1M@IDEHOAP@?$AAp?$AAa?$AA?9?$AAi?$AAn?$AA?$AA@ 0000000180054d70     libcpmt:winapinls.obj
 0002:00001d80       ??_C@_1M@HDBKGOGH@?$AAp?$AAl?$AA?9?$AAp?$AAl?$AA?$AA@ 0000000180054d80     libcpmt:winapinls.obj
 0002:00001d90       ??_C@_1M@LJLLCMEH@?$AAp?$AAt?$AA?9?$AAb?$AAr?$AA?$AA@ 0000000180054d90     libcpmt:winapinls.obj
 0002:00001da0       ??_C@_1M@NCMONAAL@?$AAp?$AAt?$AA?9?$AAp?$AAt?$AA?$AA@ 0000000180054da0     libcpmt:winapinls.obj
 0002:00001db0       ??_C@_1O@EAKMAJDN@?$AAq?$AAu?$AAz?$AA?9?$AAb?$AAo?$AA?$AA@ 0000000180054db0     libcpmt:winapinls.obj
 0002:00001dc0       ??_C@_1O@BHHPIGDN@?$AAq?$AAu?$AAz?$AA?9?$AAe?$AAc?$AA?$AA@ 0000000180054dc0     libcpmt:winapinls.obj
 0002:00001dd0       ??_C@_1O@GBAPEKMJ@?$AAq?$AAu?$AAz?$AA?9?$AAp?$AAe?$AA?$AA@ 0000000180054dd0     libcpmt:winapinls.obj
 0002:00001de0       ??_C@_1M@CLGLEFBO@?$AAr?$AAo?$AA?9?$AAr?$AAo?$AA?$AA@ 0000000180054de0     libcpmt:winapinls.obj
 0002:00001df0       ??_C@_1M@CEEDODME@?$AAr?$AAu?$AA?9?$AAr?$AAu?$AA?$AA@ 0000000180054df0     libcpmt:winapinls.obj
 0002:00001e00       ??_C@_1M@HPKKKMPP@?$AAs?$AAa?$AA?9?$AAi?$AAn?$AA?$AA@ 0000000180054e00     libcpmt:winapinls.obj
 0002:00001e10       ??_C@_1M@BKMAIGOJ@?$AAs?$AAe?$AA?9?$AAf?$AAi?$AA?$AA@ 0000000180054e10     libcpmt:winapinls.obj
 0002:00001e20       ??_C@_1M@NDPIFLFI@?$AAs?$AAe?$AA?9?$AAn?$AAo?$AA?$AA@ 0000000180054e20     libcpmt:winapinls.obj
 0002:00001e30       ??_C@_1M@DANKKHJ@?$AAs?$AAe?$AA?9?$AAs?$AAe?$AA?$AA@ 0000000180054e30     libcpmt:winapinls.obj
 0002:00001e40       ??_C@_1M@PNBLONPJ@?$AAs?$AAk?$AA?9?$AAs?$AAk?$AA?$AA@ 0000000180054e40     libcpmt:winapinls.obj
 0002:00001e50       ??_C@_1M@LFMODOAL@?$AAs?$AAl?$AA?9?$AAs?$AAi?$AA?$AA@ 0000000180054e50     libcpmt:winapinls.obj
 0002:00001e60       ??_C@_1O@DFKOMPG@?$AAs?$AAm?$AAa?$AA?9?$AAn?$AAo?$AA?$AA@ 0000000180054e60     libcpmt:winapinls.obj
 0002:00001e70       ??_C@_1O@NDKPBNNH@?$AAs?$AAm?$AAa?$AA?9?$AAs?$AAe?$AA?$AA@ 0000000180054e70     libcpmt:winapinls.obj
 0002:00001e80       ??_C@_1O@PLLKBHAB@?$AAs?$AAm?$AAj?$AA?9?$AAn?$AAo?$AA?$AA@ 0000000180054e80     libcpmt:winapinls.obj
 0002:00001e90       ??_C@_1O@CLEPOGCA@?$AAs?$AAm?$AAj?$AA?9?$AAs?$AAe?$AA?$AA@ 0000000180054e90     libcpmt:winapinls.obj
 0002:00001ea0       ??_C@_1O@DLGJGKMK@?$AAs?$AAm?$AAn?$AA?9?$AAf?$AAi?$AA?$AA@ 0000000180054ea0     libcpmt:winapinls.obj
 0002:00001eb0       ??_C@_1O@OJDJGAJC@?$AAs?$AAm?$AAs?$AA?9?$AAf?$AAi?$AA?$AA@ 0000000180054eb0     libcpmt:winapinls.obj
 0002:00001ec0       ??_C@_1M@BOFOGHPB@?$AAs?$AAq?$AA?9?$AAa?$AAl?$AA?$AA@ 0000000180054ec0     libcpmt:winapinls.obj
 0002:00001ed0       ??_C@_1BG@LJBBIPGB@?$AAs?$AAr?$AA?9?$AAb?$AAa?$AA?9?$AAc?$AAy?$AAr?$AAl?$AA?$AA@ 0000000180054ed0     libcpmt:winapinls.obj
 0002:00001ee8       ??_C@_1BG@JLBENFOE@?$AAs?$AAr?$AA?9?$AAb?$AAa?$AA?9?$AAl?$AAa?$AAt?$AAn?$AA?$AA@ 0000000180054ee8     libcpmt:winapinls.obj
 0002:00001f00       ??_C@_1BG@KODPNHE@?$AAs?$AAr?$AA?9?$AAs?$AAp?$AA?9?$AAc?$AAy?$AAr?$AAl?$AA?$AA@ 0000000180054f00     libcpmt:winapinls.obj
 0002:00001f18       ??_C@_1BG@CIOGKHPB@?$AAs?$AAr?$AA?9?$AAs?$AAp?$AA?9?$AAl?$AAa?$AAt?$AAn?$AA?$AA@ 0000000180054f18     libcpmt:winapinls.obj
 0002:00001f30       ??_C@_1M@NGFJLMAC@?$AAs?$AAv?$AA?9?$AAf?$AAi?$AA?$AA@ 0000000180054f30     libcpmt:winapinls.obj
 0002:00001f40       ??_C@_1M@MPJEJAJC@?$AAs?$AAv?$AA?9?$AAs?$AAe?$AA?$AA@ 0000000180054f40     libcpmt:winapinls.obj
 0002:00001f50       ??_C@_1M@MPNDHLFK@?$AAs?$AAw?$AA?9?$AAk?$AAe?$AA?$AA@ 0000000180054f50     libcpmt:winapinls.obj
 0002:00001f60       ??_C@_1O@KOHBJJI@?$AAs?$AAy?$AAr?$AA?9?$AAs?$AAy?$AA?$AA@ 0000000180054f60     libcpmt:winapinls.obj
 0002:00001f70       ??_C@_1M@LDCEFHA@?$AAt?$AAa?$AA?9?$AAi?$AAn?$AA?$AA@ 0000000180054f70     libcpmt:winapinls.obj
 0002:00001f80       ??_C@_1M@CNJOFAK@?$AAt?$AAe?$AA?9?$AAi?$AAn?$AA?$AA@ 0000000180054f80     libcpmt:winapinls.obj
 0002:00001f90       ??_C@_1M@GNAECACD@?$AAt?$AAh?$AA?9?$AAt?$AAh?$AA?$AA@ 0000000180054f90     libcpmt:winapinls.obj
 0002:00001fa0       ??_C@_1M@CHBIHOJO@?$AAt?$AAn?$AA?9?$AAz?$AAa?$AA?$AA@ 0000000180054fa0     libcpmt:winapinls.obj
 0002:00001fb0       ??_C@_1M@GCCMIGPJ@?$AAt?$AAr?$AA?9?$AAt?$AAr?$AA?$AA@ 0000000180054fb0     libcpmt:winapinls.obj
 0002:00001fc0       ??_C@_1M@CELMCNBK@?$AAt?$AAt?$AA?9?$AAr?$AAu?$AA?$AA@ 0000000180054fc0     libcpmt:winapinls.obj
 0002:00001fd0       ??_C@_1M@KLMCELGA@?$AAu?$AAk?$AA?9?$AAu?$AAa?$AA?$AA@ 0000000180054fd0     libcpmt:winapinls.obj
 0002:00001fe0       ??_C@_1M@EPAJJAJF@?$AAu?$AAr?$AA?9?$AAp?$AAk?$AA?$AA@ 0000000180054fe0     libcpmt:winapinls.obj
 0002:00001ff0       ??_C@_1BG@GEGPMCDJ@?$AAu?$AAz?$AA?9?$AAu?$AAz?$AA?9?$AAc?$AAy?$AAr?$AAl?$AA?$AA@ 0000000180054ff0     libcpmt:winapinls.obj
 0002:00002008       ??_C@_1BG@EGGKJILM@?$AAu?$AAz?$AA?9?$AAu?$AAz?$AA?9?$AAl?$AAa?$AAt?$AAn?$AA?$AA@ 0000000180055008     libcpmt:winapinls.obj
 0002:00002020       ??_C@_1M@GFOCLFF@?$AAv?$AAi?$AA?9?$AAv?$AAn?$AA?$AA@ 0000000180055020     libcpmt:winapinls.obj
 0002:00002030       ??_C@_1M@CPAMEDFI@?$AAx?$AAh?$AA?9?$AAz?$AAa?$AA?$AA@ 0000000180055030     libcpmt:winapinls.obj
 0002:00002040       ??_C@_1O@EBKIFIGN@?$AAz?$AAh?$AA?9?$AAc?$AAh?$AAs?$AA?$AA@ 0000000180055040     libcpmt:winapinls.obj
 0002:00002050       ??_C@_1O@NMHPGANE@?$AAz?$AAh?$AA?9?$AAc?$AAh?$AAt?$AA?$AA@ 0000000180055050     libcpmt:winapinls.obj
 0002:00002060       ??_C@_1M@LPINJOMC@?$AAz?$AAh?$AA?9?$AAc?$AAn?$AA?$AA@ 0000000180055060     libcpmt:winapinls.obj
 0002:00002070       ??_C@_1M@OCJEJODD@?$AAz?$AAh?$AA?9?$AAh?$AAk?$AA?$AA@ 0000000180055070     libcpmt:winapinls.obj
 0002:00002080       ??_C@_1M@DNDLJINH@?$AAz?$AAh?$AA?9?$AAm?$AAo?$AA?$AA@ 0000000180055080     libcpmt:winapinls.obj
 0002:00002090       ??_C@_1M@MBFDNDND@?$AAz?$AAh?$AA?9?$AAs?$AAg?$AA?$AA@ 0000000180055090     libcpmt:winapinls.obj
 0002:000020a0       ??_C@_1M@IMEPLEPE@?$AAz?$AAh?$AA?9?$AAt?$AAw?$AA?$AA@ 00000001800550a0     libcpmt:winapinls.obj
 0002:000020b0       ??_C@_1M@BBGHNHJP@?$AAz?$AAu?$AA?9?$AAz?$AAa?$AA?$AA@ 00000001800550b0     libcpmt:winapinls.obj
 0002:00003d40       ??_C@_15EMKDOKLE@?$AAa?$AAr?$AA?$AA@ 0000000180056d40     libcpmt:winapinls.obj
 0002:00003d48       ??_C@_15KNPADPLH@?$AAb?$AAg?$AA?$AA@ 0000000180056d48     libcpmt:winapinls.obj
 0002:00003d50       ??_C@_15EDMHLDMO@?$AAc?$AAa?$AA?$AA@ 0000000180056d50     libcpmt:winapinls.obj
 0002:00003d58       ??_C@_1O@BPEAJADD@?$AAz?$AAh?$AA?9?$AAC?$AAH?$AAS?$AA?$AA@ 0000000180056d58     libcpmt:winapinls.obj
 0002:00003d68       ??_C@_15LJNHCMNK@?$AAc?$AAs?$AA?$AA@ 0000000180056d68     libcpmt:winapinls.obj
 0002:00003d70       ??_C@_15FOMCIDHG@?$AAd?$AAa?$AA?$AA@ 0000000180056d70     libcpmt:winapinls.obj
 0002:00003d78       ??_C@_15NBKABECB@?$AAd?$AAe?$AA?$AA@ 0000000180056d78     libcpmt:winapinls.obj
 0002:00003d80       ??_C@_15GHPEIIAO@?$AAe?$AAl?$AA?$AA@ 0000000180056d80     libcpmt:winapinls.obj
 0002:00003d88       ??_C@_15MNPNEAIF@?$AAe?$AAn?$AA?$AA@ 0000000180056d88     libcpmt:winapinls.obj
 0002:00003d90       ??_C@_15GPIOMPMH@?$AAe?$AAs?$AA?$AA@ 0000000180056d90     libcpmt:winapinls.obj
 0002:00003d98       ??_C@_15NGLOAKJC@?$AAf?$AAi?$AA?$AA@ 0000000180056d98     libcpmt:winapinls.obj
 0002:00003da0       ??_C@_15FBKGNKAM@?$AAf?$AAr?$AA?$AA@ 0000000180056da0     libcpmt:winapinls.obj
 0002:00003da8       ??_C@_15KGGCNEFK@?$AAh?$AAe?$AA?$AA@ 0000000180056da8     libcpmt:winapinls.obj
 0002:00003db0       ??_C@_15PGHLIDMF@?$AAh?$AAu?$AA?$AA@ 0000000180056db0     libcpmt:winapinls.obj
 0002:00003db8       ??_C@_15BIEMAPLM@?$AAi?$AAs?$AA?$AA@ 0000000180056db8     libcpmt:winapinls.obj
 0002:00003dc0       ??_C@_15IFJLDHAF@?$AAi?$AAt?$AA?$AA@ 0000000180056dc0     libcpmt:winapinls.obj
 0002:00003dc8       ??_C@_15GEMIOCAG@?$AAj?$AAa?$AA?$AA@ 0000000180056dc8     libcpmt:winapinls.obj
 0002:00003dd0       ??_C@_15EPELEGJA@?$AAk?$AAo?$AA?$AA@ 0000000180056dd0     libcpmt:winapinls.obj
 0002:00003dd8       ??_C@_15NDDHIMN@?$AAn?$AAl?$AA?$AA@ 0000000180056dd8     libcpmt:winapinls.obj
 0002:00003de0       ??_C@_15BPIGNHCD@?$AAn?$AAo?$AA?$AA@ 0000000180056de0     libcpmt:winapinls.obj
 0002:00003de8       ??_C@_15DEOPBLCG@?$AAp?$AAl?$AA?$AA@ 0000000180056de8     libcpmt:winapinls.obj
 0002:00003df0       ??_C@_15KBECGEFG@?$AAp?$AAt?$AA?$AA@ 0000000180056df0     libcpmt:winapinls.obj
 0002:00003df8       ??_C@_15GLJCBFMD@?$AAr?$AAo?$AA?$AA@ 0000000180056df8     libcpmt:winapinls.obj
 0002:00003e00       ??_C@_15FEDGKCDI@?$AAr?$AAu?$AA?$AA@ 0000000180056e00     libcpmt:winapinls.obj
 0002:00003e08       ??_C@_15GLKMLLHM@?$AAh?$AAr?$AA?$AA@ 0000000180056e08     libcpmt:winapinls.obj
 0002:00003e10       ??_C@_15CPKMFBDB@?$AAs?$AAk?$AA?$AA@ 0000000180056e10     libcpmt:winapinls.obj
 0002:00003e18       ??_C@_15BAAIOGMK@?$AAs?$AAq?$AA?$AA@ 0000000180056e18     libcpmt:winapinls.obj
 0002:00003e20       ??_C@_15INNPNOHD@?$AAs?$AAv?$AA?$AA@ 0000000180056e20     libcpmt:winapinls.obj
 0002:00003e28       ??_C@_15CABMMOGH@?$AAt?$AAh?$AA?$AA@ 0000000180056e28     libcpmt:winapinls.obj
 0002:00003e30       ??_C@_15BPLIHJJM@?$AAt?$AAr?$AA?$AA@ 0000000180056e30     libcpmt:winapinls.obj
 0002:00003e38       ??_C@_15NEOEKKDJ@?$AAu?$AAr?$AA?$AA@ 0000000180056e38     libcpmt:winapinls.obj
 0002:00003e40       ??_C@_15NFICGAJK@?$AAi?$AAd?$AA?$AA@ 0000000180056e40     libcpmt:winapinls.obj
 0002:00003e48       ??_C@_15PJPFLCCM@?$AAu?$AAk?$AA?$AA@ 0000000180056e48     libcpmt:winapinls.obj
 0002:00003e50       ??_C@_15HPJPHDM@?$AAb?$AAe?$AA?$AA@ 0000000180056e50     libcpmt:winapinls.obj
 0002:00003e58       ??_C@_15LCHLGJII@?$AAs?$AAl?$AA?$AA@ 0000000180056e58     libcpmt:winapinls.obj
 0002:00003e60       ??_C@_15PCFJPHHO@?$AAe?$AAt?$AA?$AA@ 0000000180056e60     libcpmt:winapinls.obj
 0002:00003e68       ??_C@_15HPFPGODN@?$AAl?$AAv?$AA?$AA@ 0000000180056e68     libcpmt:winapinls.obj
 0002:00003e70       ??_C@_15NFFGKGLG@?$AAl?$AAt?$AA?$AA@ 0000000180056e70     libcpmt:winapinls.obj
 0002:00003e78       ??_C@_15BDAKCCHN@?$AAf?$AAa?$AA?$AA@ 0000000180056e78     libcpmt:winapinls.obj
 0002:00003e80       ??_C@_15NFGIAIAJ@?$AAv?$AAi?$AA?$AA@ 0000000180056e80     libcpmt:winapinls.obj
 0002:00003e88       ??_C@_15LMKNDMHN@?$AAh?$AAy?$AA?$AA@ 0000000180056e88     libcpmt:winapinls.obj
 0002:00003e90       ??_C@_15IJBHMCFL@?$AAa?$AAz?$AA?$AA@ 0000000180056e90     libcpmt:winapinls.obj
 0002:00003e98       ??_C@_15EKOFJABL@?$AAe?$AAu?$AA?$AA@ 0000000180056e98     libcpmt:winapinls.obj
 0002:00003ea0       ??_C@_15BGHADCNK@?$AAm?$AAk?$AA?$AA@ 0000000180056ea0     libcpmt:winapinls.obj
 0002:00003ea8       ??_C@_15JDNICKHM@?$AAa?$AAf?$AA?$AA@ 0000000180056ea8     libcpmt:winapinls.obj
 0002:00003eb0       ??_C@_15KPJEDBKD@?$AAk?$AAa?$AA?$AA@ 0000000180056eb0     libcpmt:winapinls.obj
 0002:00003eb8       ??_C@_15PDNFFFEO@?$AAf?$AAo?$AA?$AA@ 0000000180056eb8     libcpmt:winapinls.obj
 0002:00003ec0       ??_C@_15OMLEGLOC@?$AAh?$AAi?$AA?$AA@ 0000000180056ec0     libcpmt:winapinls.obj
 0002:00003ec8       ??_C@_15IDNNENKK@?$AAm?$AAs?$AA?$AA@ 0000000180056ec8     libcpmt:winapinls.obj
 0002:00003ed0       ??_C@_15MACJNBMH@?$AAk?$AAk?$AA?$AA@ 0000000180056ed0     libcpmt:winapinls.obj
 0002:00003ed8       ??_C@_15DKDJEOND@?$AAk?$AAy?$AA?$AA@ 0000000180056ed8     libcpmt:winapinls.obj
 0002:00003ee0       ??_C@_15DFGDLJBG@?$AAs?$AAw?$AA?$AA@ 0000000180056ee0     libcpmt:winapinls.obj
 0002:00003ee8       ??_C@_15BBFAICNG@?$AAu?$AAz?$AA?$AA@ 0000000180056ee8     libcpmt:winapinls.obj
 0002:00003ef0       ??_C@_15DKNDCGEA@?$AAt?$AAt?$AA?$AA@ 0000000180056ef0     libcpmt:winapinls.obj
 0002:00003ef8       ??_C@_15MGIFMDPL@?$AAp?$AAa?$AA?$AA@ 0000000180056ef8     libcpmt:winapinls.obj
 0002:00003f00       ??_C@_15HCNDBBA@?$AAg?$AAu?$AA?$AA@ 0000000180056f00     libcpmt:winapinls.obj
 0002:00003f08       ??_C@_15FNBEIBON@?$AAt?$AAa?$AA?$AA@ 0000000180056f08     libcpmt:winapinls.obj
 0002:00003f10       ??_C@_15NCHGBGLK@?$AAt?$AAe?$AA?$AA@ 0000000180056f10     libcpmt:winapinls.obj
 0002:00003f18       ??_C@_15PHPHCBPF@?$AAk?$AAn?$AA?$AA@ 0000000180056f18     libcpmt:winapinls.obj
 0002:00003f20       ??_C@_15DLGBCKMP@?$AAm?$AAr?$AA?$AA@ 0000000180056f20     libcpmt:winapinls.obj
 0002:00003f28       ??_C@_15EABBLBFF@?$AAs?$AAa?$AA?$AA@ 0000000180056f28     libcpmt:winapinls.obj
 0002:00003f30       ??_C@_15CBKOMCOI@?$AAm?$AAn?$AA?$AA@ 0000000180056f30     libcpmt:winapinls.obj
 0002:00003f38       ??_C@_15CKDMCJAF@?$AAg?$AAl?$AA?$AA@ 0000000180056f38     libcpmt:winapinls.obj
 0002:00003f40       ??_C@_17CNJFBPG@?$AAk?$AAo?$AAk?$AA?$AA@ 0000000180056f40     libcpmt:winapinls.obj
 0002:00003f48       ??_C@_17FFBJICPL@?$AAs?$AAy?$AAr?$AA?$AA@ 0000000180056f48     libcpmt:winapinls.obj
 0002:00003f50       ??_C@_17KPNDCPAF@?$AAd?$AAi?$AAv?$AA?$AA@ 0000000180056f50     libcpmt:winapinls.obj
 0002:00003f58       ??_C@_1M@OKAHONE@?$AAa?$AAr?$AA?9?$AAS?$AAA?$AA?$AA@ 0000000180056f58     libcpmt:winapinls.obj
 0002:00003f68       ??_C@_1M@FFFIGIGK@?$AAb?$AAg?$AA?9?$AAB?$AAG?$AA?$AA@ 0000000180056f68     libcpmt:winapinls.obj
 0002:00003f78       ??_C@_1M@BJNKEDC@?$AAc?$AAa?$AA?9?$AAE?$AAS?$AA?$AA@ 0000000180056f78     libcpmt:winapinls.obj
 0002:00003f88       ??_C@_1M@CLNBBOPM@?$AAz?$AAh?$AA?9?$AAT?$AAW?$AA?$AA@ 0000000180056f88     libcpmt:winapinls.obj
 0002:00003f98       ??_C@_1M@IJJHFJHA@?$AAc?$AAs?$AA?9?$AAC?$AAZ?$AA?$AA@ 0000000180056f98     libcpmt:winapinls.obj
 0002:00003fa8       ??_C@_1M@CLPEOBGI@?$AAd?$AAa?$AA?9?$AAD?$AAK?$AA?$AA@ 0000000180056fa8     libcpmt:winapinls.obj
 0002:00003fb8       ??_C@_1M@MCMADGCB@?$AAd?$AAe?$AA?9?$AAD?$AAE?$AA?$AA@ 0000000180056fb8     libcpmt:winapinls.obj
 0002:00003fc8       ??_C@_1M@OOCKEMAM@?$AAe?$AAl?$AA?9?$AAG?$AAR?$AA?$AA@ 0000000180056fc8     libcpmt:winapinls.obj
 0002:00003fd8       ??_C@_1M@BMHNFIME@?$AAe?$AAn?$AA?9?$AAU?$AAS?$AA?$AA@ 0000000180056fd8     libcpmt:winapinls.obj
 0002:00003fe8       ??_C@_1M@DDNJFGID@?$AAf?$AAi?$AA?9?$AAF?$AAI?$AA?$AA@ 0000000180056fe8     libcpmt:winapinls.obj
 0002:00003ff8       ??_C@_1M@GLIPPMAC@?$AAf?$AAr?$AA?9?$AAF?$AAR?$AA?$AA@ 0000000180056ff8     libcpmt:winapinls.obj
 0002:00004008       ??_C@_1M@GFMCHPE@?$AAh?$AAe?$AA?9?$AAI?$AAL?$AA?$AA@ 0000000180057008     libcpmt:winapinls.obj
 0002:00004018       ??_C@_1M@MHLPGNKM@?$AAh?$AAu?$AA?9?$AAH?$AAU?$AA?$AA@ 0000000180057018     libcpmt:winapinls.obj
 0002:00004028       ??_C@_1M@LPDDNNPN@?$AAi?$AAs?$AA?9?$AAI?$AAS?$AA?$AA@ 0000000180057028     libcpmt:winapinls.obj
 0002:00004038       ??_C@_1M@MADIPODN@?$AAi?$AAt?$AA?9?$AAI?$AAT?$AA?$AA@ 0000000180057038     libcpmt:winapinls.obj
 0002:00004048       ??_C@_1M@HPNHIDJI@?$AAj?$AAa?$AA?9?$AAJ?$AAP?$AA?$AA@ 0000000180057048     libcpmt:winapinls.obj
 0002:00004058       ??_C@_1M@JLOOOEGK@?$AAk?$AAo?$AA?9?$AAK?$AAR?$AA?$AA@ 0000000180057058     libcpmt:winapinls.obj
 0002:00004068       ??_C@_1M@IHBJJGG@?$AAn?$AAl?$AA?9?$AAN?$AAL?$AA?$AA@ 0000000180057068     libcpmt:winapinls.obj
 0002:00004078       ??_C@_1M@EANAGDL@?$AAn?$AAb?$AA?9?$AAN?$AAO?$AA?$AA@ 0000000180057078     libcpmt:winapinls.obj
 0002:00004088       ??_C@_1M@NEIEMEGP@?$AAp?$AAl?$AA?9?$AAP?$AAL?$AA?$AA@ 0000000180057088     libcpmt:winapinls.obj
 0002:00004098       ??_C@_1M@BOCFIGEP@?$AAp?$AAt?$AA?9?$AAB?$AAR?$AA?$AA@ 0000000180057098     libcpmt:winapinls.obj
 0002:000040a8       ??_C@_1M@IMPFOPBG@?$AAr?$AAo?$AA?9?$AAR?$AAO?$AA?$AA@ 00000001800570a8     libcpmt:winapinls.obj
 0002:000040b8       ??_C@_1M@IDNNEJMM@?$AAr?$AAu?$AA?9?$AAR?$AAU?$AA?$AA@ 00000001800570b8     libcpmt:winapinls.obj
 0002:000040c8       ??_C@_1M@LILEEOGM@?$AAh?$AAr?$AA?9?$AAH?$AAR?$AA?$AA@ 00000001800570c8     libcpmt:winapinls.obj
 0002:000040d8       ??_C@_1M@FKIFEHPB@?$AAs?$AAk?$AA?9?$AAS?$AAK?$AA?$AA@ 00000001800570d8     libcpmt:winapinls.obj
 0002:000040e8       ??_C@_1M@LJMAMNPJ@?$AAs?$AAq?$AA?9?$AAA?$AAL?$AA?$AA@ 00000001800570e8     libcpmt:winapinls.obj
 0002:000040f8       ??_C@_1M@GIAKDKJK@?$AAs?$AAv?$AA?9?$AAS?$AAE?$AA?$AA@ 00000001800570f8     libcpmt:winapinls.obj
 0002:00004108       ??_C@_1M@MKJKIKCL@?$AAt?$AAh?$AA?9?$AAT?$AAH?$AA?$AA@ 0000000180057108     libcpmt:winapinls.obj
 0002:00004118       ??_C@_1M@MFLCCMPB@?$AAt?$AAr?$AA?9?$AAT?$AAR?$AA?$AA@ 0000000180057118     libcpmt:winapinls.obj
 0002:00004128       ??_C@_1M@OIJHDKJN@?$AAu?$AAr?$AA?9?$AAP?$AAK?$AA?$AA@ 0000000180057128     libcpmt:winapinls.obj
 0002:00004138       ??_C@_1M@LHIPCIEK@?$AAi?$AAd?$AA?9?$AAI?$AAD?$AA?$AA@ 0000000180057138     libcpmt:winapinls.obj
 0002:00004148       ??_C@_1M@MFMOBGI@?$AAu?$AAk?$AA?9?$AAU?$AAA?$AA?$AA@ 0000000180057148     libcpmt:winapinls.obj
 0002:00004158       ??_C@_1M@OBGLJIPL@?$AAb?$AAe?$AA?9?$AAB?$AAY?$AA?$AA@ 0000000180057158     libcpmt:winapinls.obj
 0002:00004168       ??_C@_1M@BCFAJEAD@?$AAs?$AAl?$AA?9?$AAS?$AAI?$AA?$AA@ 0000000180057168     libcpmt:winapinls.obj
 0002:00004178       ??_C@_1M@FKFFEDDN@?$AAe?$AAt?$AA?9?$AAE?$AAE?$AA?$AA@ 0000000180057178     libcpmt:winapinls.obj
 0002:00004188       ??_C@_1M@KGKKAACI@?$AAl?$AAv?$AA?9?$AAL?$AAV?$AA?$AA@ 0000000180057188     libcpmt:winapinls.obj
 0002:00004198       ??_C@_1M@IFGBIJO@?$AAl?$AAt?$AA?9?$AAL?$AAT?$AA?$AA@ 0000000180057198     libcpmt:winapinls.obj
 0002:000041a8       ??_C@_1M@FGEAHEDM@?$AAf?$AAa?$AA?9?$AAI?$AAR?$AA?$AA@ 00000001800571a8     libcpmt:winapinls.obj
 0002:000041b8       ??_C@_1M@KBMAIBFN@?$AAv?$AAi?$AA?9?$AAV?$AAN?$AA?$AA@ 00000001800571b8     libcpmt:winapinls.obj
 0002:000041c8       ??_C@_1M@GPCBKDJK@?$AAh?$AAy?$AA?9?$AAA?$AAM?$AA?$AA@ 00000001800571c8     libcpmt:winapinls.obj
 0002:000041d8       ??_C@_1BG@BECMDDJB@?$AAa?$AAz?$AA?9?$AAA?$AAZ?$AA?9?$AAL?$AAa?$AAt?$AAn?$AA?$AA@ 00000001800571d8     libcpmt:winapinls.obj
 0002:000041f0       ??_C@_1M@MAOFCAEA@?$AAe?$AAu?$AA?9?$AAE?$AAS?$AA?$AA@ 00000001800571f0     libcpmt:winapinls.obj
 0002:00004200       ??_C@_1M@IGHABKPI@?$AAm?$AAk?$AA?9?$AAM?$AAK?$AA?$AA@ 0000000180057200     libcpmt:winapinls.obj
 0002:00004210       ??_C@_1M@IAIGNEJG@?$AAt?$AAn?$AA?9?$AAZ?$AAA?$AA?$AA@ 0000000180057210     libcpmt:winapinls.obj
 0002:00004220       ??_C@_1M@IIJCOJFA@?$AAx?$AAh?$AA?9?$AAZ?$AAA?$AA?$AA@ 0000000180057220     libcpmt:winapinls.obj
 0002:00004230       ??_C@_1M@LGPJHNJH@?$AAz?$AAu?$AA?9?$AAZ?$AAA?$AA?$AA@ 0000000180057230     libcpmt:winapinls.obj
 0002:00004240       ??_C@_1M@HOKAOIO@?$AAa?$AAf?$AA?9?$AAZ?$AAA?$AA?$AA@ 0000000180057240     libcpmt:winapinls.obj
 0002:00004250       ??_C@_1M@DPCLHLIE@?$AAk?$AAa?$AA?9?$AAG?$AAE?$AA?$AA@ 0000000180057250     libcpmt:winapinls.obj
 0002:00004260       ??_C@_1M@BLKMHJBI@?$AAf?$AAo?$AA?9?$AAF?$AAO?$AA?$AA@ 0000000180057260     libcpmt:winapinls.obj
 0002:00004270       ??_C@_1M@LGGJAPPB@?$AAh?$AAi?$AA?9?$AAI?$AAN?$AA?$AA@ 0000000180057270     libcpmt:winapinls.obj
 0002:00004280       ??_C@_1M@FIKPIHFE@?$AAm?$AAt?$AA?9?$AAM?$AAT?$AA?$AA@ 0000000180057280     libcpmt:winapinls.obj
 0002:00004290       ??_C@_1M@HEGGPBFA@?$AAs?$AAe?$AA?9?$AAN?$AAO?$AA?$AA@ 0000000180057290     libcpmt:winapinls.obj
 0002:000042a0       ??_C@_1M@EIBJEEPA@?$AAm?$AAs?$AA?9?$AAM?$AAY?$AA?$AA@ 00000001800572a0     libcpmt:winapinls.obj
 0002:000042b0       ??_C@_1M@FHLBGMPP@?$AAk?$AAk?$AA?9?$AAK?$AAZ?$AA?$AA@ 00000001800572b0     libcpmt:winapinls.obj
 0002:000042c0       ??_C@_1M@NGJJLCGI@?$AAk?$AAy?$AA?9?$AAK?$AAG?$AA?$AA@ 00000001800572c0     libcpmt:winapinls.obj
 0002:000042d0       ??_C@_1M@GIENNBFC@?$AAs?$AAw?$AA?9?$AAK?$AAE?$AA?$AA@ 00000001800572d0     libcpmt:winapinls.obj
 0002:000042e0       ??_C@_1BG@NDGMJIMJ@?$AAu?$AAz?$AA?9?$AAU?$AAZ?$AA?9?$AAL?$AAa?$AAt?$AAn?$AA?$AA@ 00000001800572e0     libcpmt:winapinls.obj
 0002:000042f8       ??_C@_1M@IDCCIHBC@?$AAt?$AAt?$AA?9?$AAR?$AAU?$AA?$AA@ 00000001800572f8     libcpmt:winapinls.obj
 0002:00004308       ??_C@_1M@LOICPMOJ@?$AAb?$AAn?$AA?9?$AAI?$AAN?$AA?$AA@ 0000000180057308     libcpmt:winapinls.obj
 0002:00004318       ??_C@_1M@KPKKNEAH@?$AAp?$AAa?$AA?9?$AAI?$AAN?$AA?$AA@ 0000000180057318     libcpmt:winapinls.obj
 0002:00004328       ??_C@_1M@PJGPPBOG@?$AAg?$AAu?$AA?9?$AAI?$AAN?$AA?$AA@ 0000000180057328     libcpmt:winapinls.obj
 0002:00004338       ??_C@_1M@KMKMOPHI@?$AAt?$AAa?$AA?9?$AAI?$AAN?$AA?$AA@ 0000000180057338     libcpmt:winapinls.obj
 0002:00004348       ??_C@_1M@KFEHEPAC@?$AAt?$AAe?$AA?9?$AAI?$AAN?$AA?$AA@ 0000000180057348     libcpmt:winapinls.obj
 0002:00004358       ??_C@_1M@CDCLMGHI@?$AAk?$AAn?$AA?9?$AAI?$AAN?$AA?$AA@ 0000000180057358     libcpmt:winapinls.obj
 0002:00004368       ??_C@_1M@MIODLDKF@?$AAm?$AAl?$AA?9?$AAI?$AAN?$AA?$AA@ 0000000180057368     libcpmt:winapinls.obj
 0002:00004378       ??_C@_1M@PBIEACPO@?$AAm?$AAr?$AA?9?$AAI?$AAN?$AA?$AA@ 0000000180057378     libcpmt:winapinls.obj
 0002:00004388       ??_C@_1M@NIDEAGPH@?$AAs?$AAa?$AA?9?$AAI?$AAN?$AA?$AA@ 0000000180057388     libcpmt:winapinls.obj
 0002:00004398       ??_C@_1M@FHIHCBIO@?$AAm?$AAn?$AA?9?$AAM?$AAN?$AA?$AA@ 0000000180057398     libcpmt:winapinls.obj
 0002:000043a8       ??_C@_1M@JAIJPENP@?$AAc?$AAy?$AA?9?$AAG?$AAB?$AA?$AA@ 00000001800573a8     libcpmt:winapinls.obj
 0002:000043b8       ??_C@_1M@PHGFBEPN@?$AAg?$AAl?$AA?9?$AAE?$AAS?$AA?$AA@ 00000001800573b8     libcpmt:winapinls.obj
 0002:000043c8       ??_C@_1O@KPIPDNCP@?$AAk?$AAo?$AAk?$AA?9?$AAI?$AAN?$AA?$AA@ 00000001800573c8     libcpmt:winapinls.obj
 0002:000043d8       ??_C@_1O@KNHJLDJA@?$AAs?$AAy?$AAr?$AA?9?$AAS?$AAY?$AA?$AA@ 00000001800573d8     libcpmt:winapinls.obj
 0002:000043e8       ??_C@_1O@MKEKBLAH@?$AAd?$AAi?$AAv?$AA?9?$AAM?$AAV?$AA?$AA@ 00000001800573e8     libcpmt:winapinls.obj
 0002:000043f8       ??_C@_1O@OHDCKDDF@?$AAq?$AAu?$AAz?$AA?9?$AAB?$AAO?$AA?$AA@ 00000001800573f8     libcpmt:winapinls.obj
 0002:00004408       ??_C@_1M@LEPJNLFD@?$AAn?$AAs?$AA?9?$AAZ?$AAA?$AA?$AA@ 0000000180057408     libcpmt:winapinls.obj
 0002:00004418       ??_C@_1M@OMLEIIJB@?$AAm?$AAi?$AA?9?$AAN?$AAZ?$AA?$AA@ 0000000180057418     libcpmt:winapinls.obj
 0002:00004428       ??_C@_1M@PMPEAILG@?$AAa?$AAr?$AA?9?$AAI?$AAQ?$AA?$AA@ 0000000180057428     libcpmt:winapinls.obj
 0002:00004438       ??_C@_1M@BIBDDEMK@?$AAz?$AAh?$AA?9?$AAC?$AAN?$AA?$AA@ 0000000180057438     libcpmt:winapinls.obj
 0002:00004448       ??_C@_1M@CNKPNOEE@?$AAd?$AAe?$AA?9?$AAC?$AAH?$AA?$AA@ 0000000180057448     libcpmt:winapinls.obj
 0002:00004458       ??_C@_1M@LKMGMLKO@?$AAe?$AAn?$AA?9?$AAG?$AAB?$AA?$AA@ 0000000180057458     libcpmt:winapinls.obj
 0002:00004468       ??_C@_1M@PGKJFFGL@?$AAe?$AAs?$AA?9?$AAM?$AAX?$AA?$AA@ 0000000180057468     libcpmt:winapinls.obj
 0002:00004478       ??_C@_1M@DNNANBDC@?$AAf?$AAr?$AA?9?$AAB?$AAE?$AA?$AA@ 0000000180057478     libcpmt:winapinls.obj
 0002:00004488       ??_C@_1M@HLGMDFHM@?$AAi?$AAt?$AA?9?$AAC?$AAH?$AA?$AA@ 0000000180057488     libcpmt:winapinls.obj
 0002:00004498       ??_C@_1M@CLLBGJH@?$AAn?$AAl?$AA?9?$AAB?$AAE?$AA?$AA@ 0000000180057498     libcpmt:winapinls.obj
 0002:000044a8       ??_C@_1M@BODBOGLF@?$AAn?$AAn?$AA?9?$AAN?$AAO?$AA?$AA@ 00000001800574a8     libcpmt:winapinls.obj
 0002:000044b8       ??_C@_1M@HFFAHKAD@?$AAp?$AAt?$AA?9?$AAP?$AAT?$AA?$AA@ 00000001800574b8     libcpmt:winapinls.obj
 0002:000044c8       ??_C@_1BG@LNOAKHIE@?$AAs?$AAr?$AA?9?$AAS?$AAP?$AA?9?$AAL?$AAa?$AAt?$AAn?$AA?$AA@ 00000001800574c8     libcpmt:winapinls.obj
 0002:000044e0       ??_C@_1M@HBMHBGAK@?$AAs?$AAv?$AA?9?$AAF?$AAI?$AA?$AA@ 00000001800574e0     libcpmt:winapinls.obj
 0002:000044f0       ??_C@_1BG@DGCJGJBE@?$AAa?$AAz?$AA?9?$AAA?$AAZ?$AA?9?$AAC?$AAy?$AAr?$AAl?$AA?$AA@ 00000001800574f0     libcpmt:winapinls.obj
 0002:00004508       ??_C@_1M@KEJDAAHB@?$AAs?$AAe?$AA?9?$AAS?$AAE?$AA?$AA@ 0000000180057508     libcpmt:winapinls.obj
 0002:00004518       ??_C@_1M@HEIBJJAD@?$AAm?$AAs?$AA?9?$AAB?$AAN?$AA?$AA@ 0000000180057518     libcpmt:winapinls.obj
 0002:00004528       ??_C@_1BG@PBGJMCEM@?$AAu?$AAz?$AA?9?$AAU?$AAZ?$AA?9?$AAC?$AAy?$AAr?$AAl?$AA?$AA@ 0000000180057528     libcpmt:winapinls.obj
 0002:00004540       ??_C@_1O@LAOBCMDF@?$AAq?$AAu?$AAz?$AA?9?$AAE?$AAC?$AA?$AA@ 0000000180057540     libcpmt:winapinls.obj
 0002:00004550       ??_C@_1M@POEEMAIO@?$AAa?$AAr?$AA?9?$AAE?$AAG?$AA?$AA@ 0000000180057550     libcpmt:winapinls.obj
 0002:00004560       ??_C@_1M@EFAKDEDL@?$AAz?$AAh?$AA?9?$AAH?$AAK?$AA?$AA@ 0000000180057560     libcpmt:winapinls.obj
 0002:00004570       ??_C@_1M@HKKIJHGI@?$AAd?$AAe?$AA?9?$AAA?$AAT?$AA?$AA@ 0000000180057570     libcpmt:winapinls.obj
 0002:00004580       ??_C@_1M@KBFBEHJF@?$AAe?$AAn?$AA?9?$AAA?$AAU?$AA?$AA@ 0000000180057580     libcpmt:winapinls.obj
 0002:00004590       ??_C@_1M@MNPLFAAH@?$AAe?$AAs?$AA?9?$AAE?$AAS?$AA?$AA@ 0000000180057590     libcpmt:winapinls.obj
 0002:000045a0       ??_C@_1M@HJOOJFMA@?$AAf?$AAr?$AA?9?$AAC?$AAA?$AA?$AA@ 00000001800575a0     libcpmt:winapinls.obj
 0002:000045b0       ??_C@_1BG@JPOFPNAB@?$AAs?$AAr?$AA?9?$AAS?$AAP?$AA?9?$AAC?$AAy?$AAr?$AAl?$AA?$AA@ 00000001800575b0     libcpmt:winapinls.obj
 0002:000045c8       ??_C@_1M@LNFOCMOB@?$AAs?$AAe?$AA?9?$AAF?$AAI?$AA?$AA@ 00000001800575c8     libcpmt:winapinls.obj
 0002:000045d8       ??_C@_1O@MGJBOAMB@?$AAq?$AAu?$AAz?$AA?9?$AAP?$AAE?$AA?$AA@ 00000001800575d8     libcpmt:winapinls.obj
 0002:000045e8       ??_C@_1M@GJINLBOK@?$AAa?$AAr?$AA?9?$AAL?$AAY?$AA?$AA@ 00000001800575e8     libcpmt:winapinls.obj
 0002:000045f8       ??_C@_1M@GGMNHJNL@?$AAz?$AAh?$AA?9?$AAS?$AAG?$AA?$AA@ 00000001800575f8     libcpmt:winapinls.obj
 0002:00004608       ??_C@_1M@HOIKODND@?$AAd?$AAe?$AA?9?$AAL?$AAU?$AA?$AA@ 0000000180057608     libcpmt:winapinls.obj
 0002:00004618       ??_C@_1M@DDOCCGFG@?$AAe?$AAn?$AA?9?$AAC?$AAA?$AA?$AA@ 0000000180057618     libcpmt:winapinls.obj
 0002:00004628       ??_C@_1M@BNOEMJLF@?$AAe?$AAs?$AA?9?$AAG?$AAT?$AA?$AA@ 0000000180057628     libcpmt:winapinls.obj
 0002:00004638       ??_C@_1M@EOGNKEK@?$AAf?$AAr?$AA?9?$AAC?$AAH?$AA?$AA@ 0000000180057638     libcpmt:winapinls.obj
 0002:00004648       ??_C@_1M@FLIDJFHL@?$AAh?$AAr?$AA?9?$AAB?$AAA?$AA?$AA@ 0000000180057648     libcpmt:winapinls.obj
 0002:00004658       ??_C@_1O@FMCELNAJ@?$AAs?$AAm?$AAj?$AA?9?$AAN?$AAO?$AA?$AA@ 0000000180057658     libcpmt:winapinls.obj
 0002:00004668       ??_C@_1M@JHGLJMGJ@?$AAa?$AAr?$AA?9?$AAD?$AAZ?$AA?$AA@ 0000000180057668     libcpmt:winapinls.obj
 0002:00004678       ??_C@_1M@JKKFDCNP@?$AAz?$AAh?$AA?9?$AAM?$AAO?$AA?$AA@ 0000000180057678     libcpmt:winapinls.obj
 0002:00004688       ??_C@_1M@GEEFALPE@?$AAd?$AAe?$AA?9?$AAL?$AAI?$AA?$AA@ 0000000180057688     libcpmt:winapinls.obj
 0002:00004698       ??_C@_1M@IGEOFBG@?$AAe?$AAn?$AA?9?$AAN?$AAZ?$AA?$AA@ 0000000180057698     libcpmt:winapinls.obj
 0002:000046a8       ??_C@_1M@KDBONEHP@?$AAe?$AAs?$AA?9?$AAC?$AAR?$AA?$AA@ 00000001800576a8     libcpmt:winapinls.obj
 0002:000046b8       ??_C@_1M@FHMDOHNN@?$AAf?$AAr?$AA?9?$AAL?$AAU?$AA?$AA@ 00000001800576b8     libcpmt:winapinls.obj
 0002:000046c8       ??_C@_1BG@NFKKMAFG@?$AAb?$AAs?$AA?9?$AAB?$AAA?$AA?9?$AAL?$AAa?$AAt?$AAn?$AA?$AA@ 00000001800576c8     libcpmt:winapinls.obj
 0002:000046e0       ??_C@_1O@IMNBEMCI@?$AAs?$AAm?$AAj?$AA?9?$AAS?$AAE?$AA?$AA@ 00000001800576e0     libcpmt:winapinls.obj
 0002:000046f0       ??_C@_1M@DHHMBNDP@?$AAa?$AAr?$AA?9?$AAM?$AAA?$AA?$AA@ 00000001800576f0     libcpmt:winapinls.obj
 0002:00004700       ??_C@_1M@BNBLJCGH@?$AAe?$AAn?$AA?9?$AAI?$AAE?$AA?$AA@ 0000000180057700     libcpmt:winapinls.obj
 0002:00004710       ??_C@_1M@GEPAFMDL@?$AAe?$AAs?$AA?9?$AAP?$AAA?$AA?$AA@ 0000000180057710     libcpmt:winapinls.obj
 0002:00004720       ??_C@_1M@OJONDMDL@?$AAf?$AAr?$AA?9?$AAM?$AAC?$AA?$AA@ 0000000180057720     libcpmt:winapinls.obj
 0002:00004730       ??_C@_1BG@OBCNFJB@?$AAs?$AAr?$AA?9?$AAB?$AAA?$AA?9?$AAL?$AAa?$AAt?$AAn?$AA?$AA@ 0000000180057730     libcpmt:winapinls.obj
 0002:00004748       ??_C@_1O@KEMEEGPO@?$AAs?$AAm?$AAa?$AA?9?$AAN?$AAO?$AA?$AA@ 0000000180057748     libcpmt:winapinls.obj
 0002:00004758       ??_C@_1M@ELMGFODK@?$AAa?$AAr?$AA?9?$AAT?$AAN?$AA?$AA@ 0000000180057758     libcpmt:winapinls.obj
 0002:00004768       ??_C@_1M@BHDLHFAF@?$AAe?$AAn?$AA?9?$AAZ?$AAA?$AA?$AA@ 0000000180057768     libcpmt:winapinls.obj
 0002:00004778       ??_C@_1M@BMGIGLIF@?$AAe?$AAs?$AA?9?$AAD?$AAO?$AA?$AA@ 0000000180057778     libcpmt:winapinls.obj
 0002:00004788       ??_C@_1BG@CMBHIPBE@?$AAs?$AAr?$AA?9?$AAB?$AAA?$AA?9?$AAC?$AAy?$AAr?$AAl?$AA?$AA@ 0000000180057788     libcpmt:winapinls.obj
 0002:000047a0       ??_C@_1O@HEDBLHNP@?$AAs?$AAm?$AAa?$AA?9?$AAS?$AAE?$AA?$AA@ 00000001800577a0     libcpmt:winapinls.obj
 0002:000047b0       ??_C@_1M@DAGCADIM@?$AAa?$AAr?$AA?9?$AAO?$AAM?$AA?$AA@ 00000001800577b0     libcpmt:winapinls.obj
 0002:000047c0       ??_C@_1M@FODLMICG@?$AAe?$AAn?$AA?9?$AAJ?$AAM?$AA?$AA@ 00000001800577c0     libcpmt:winapinls.obj
 0002:000047d0       ??_C@_1M@DNMLCIHB@?$AAe?$AAs?$AA?9?$AAV?$AAE?$AA?$AA@ 00000001800577d0     libcpmt:winapinls.obj
 0002:000047e0       ??_C@_1O@EOKHMKJK@?$AAs?$AAm?$AAs?$AA?9?$AAF?$AAI?$AA?$AA@ 00000001800577e0     libcpmt:winapinls.obj
 0002:000047f0       ??_C@_1M@CAFJMKOF@?$AAa?$AAr?$AA?9?$AAY?$AAE?$AA?$AA@ 00000001800577f0     libcpmt:winapinls.obj
 0002:00004800       ??_C@_1M@CBFHIJLI@?$AAe?$AAn?$AA?9?$AAC?$AAB?$AA?$AA@ 0000000180057800     libcpmt:winapinls.obj
 0002:00004810       ??_C@_1M@BGNFLDN@?$AAe?$AAs?$AA?9?$AAC?$AAO?$AA?$AA@ 0000000180057810     libcpmt:winapinls.obj
 0002:00004820       ??_C@_1O@JMPHMAMC@?$AAs?$AAm?$AAn?$AA?9?$AAF?$AAI?$AA?$AA@ 0000000180057820     libcpmt:winapinls.obj
 0002:00004830       ??_C@_1M@JLANABKE@?$AAa?$AAr?$AA?9?$AAS?$AAY?$AA?$AA@ 0000000180057830     libcpmt:winapinls.obj
 0002:00004840       ??_C@_1M@HPKGCFGN@?$AAe?$AAn?$AA?9?$AAB?$AAZ?$AA?$AA@ 0000000180057840     libcpmt:winapinls.obj
 0002:00004850       ??_C@_1M@OLJCMLGM@?$AAe?$AAs?$AA?9?$AAP?$AAE?$AA?$AA@ 0000000180057850     libcpmt:winapinls.obj
 0002:00004860       ??_C@_1M@MKKGFKLE@?$AAa?$AAr?$AA?9?$AAJ?$AAO?$AA?$AA@ 0000000180057860     libcpmt:winapinls.obj
 0002:00004870       ??_C@_1M@EKPGLDNI@?$AAe?$AAn?$AA?9?$AAT?$AAT?$AA?$AA@ 0000000180057870     libcpmt:winapinls.obj
 0002:00004880       ??_C@_1M@OONGHFHE@?$AAe?$AAs?$AA?9?$AAA?$AAR?$AA?$AA@ 0000000180057880     libcpmt:winapinls.obj
 0002:00004890       ??_C@_1M@OOJFGBHE@?$AAa?$AAr?$AA?9?$AAL?$AAB?$AA?$AA@ 0000000180057890     libcpmt:winapinls.obj
 0002:000048a0       ??_C@_1M@GCEJHNEG@?$AAe?$AAn?$AA?9?$AAZ?$AAW?$AA?$AA@ 00000001800578a0     libcpmt:winapinls.obj
 0002:000048b0       ??_C@_1M@JNOCAHJI@?$AAe?$AAs?$AA?9?$AAE?$AAC?$AA?$AA@ 00000001800578b0     libcpmt:winapinls.obj
 0002:000048c0       ??_C@_1M@JEFHPGGB@?$AAa?$AAr?$AA?9?$AAK?$AAW?$AA?$AA@ 00000001800578c0     libcpmt:winapinls.obj
 0002:000048d0       ??_C@_1M@MLKIBJOJ@?$AAe?$AAn?$AA?9?$AAP?$AAH?$AA?$AA@ 00000001800578d0     libcpmt:winapinls.obj
 0002:000048e0       ??_C@_1M@BDNIPEND@?$AAe?$AAs?$AA?9?$AAC?$AAL?$AA?$AA@ 00000001800578e0     libcpmt:winapinls.obj
 0002:000048f0       ??_C@_1M@MPNMEKBD@?$AAa?$AAr?$AA?9?$AAA?$AAE?$AA?$AA@ 00000001800578f0     libcpmt:winapinls.obj
 0002:00004900       ??_C@_1M@KBJALCPI@?$AAe?$AAs?$AA?9?$AAU?$AAY?$AA?$AA@ 0000000180057900     libcpmt:winapinls.obj
 0002:00004910       ??_C@_1M@LLCCOAGA@?$AAa?$AAr?$AA?9?$AAB?$AAH?$AA?$AA@ 0000000180057910     libcpmt:winapinls.obj
 0002:00004920       ??_C@_1M@PBFNCDEL@?$AAe?$AAs?$AA?9?$AAP?$AAY?$AA?$AA@ 0000000180057920     libcpmt:winapinls.obj
 0002:00004930       ??_C@_1M@EDGINPNP@?$AAa?$AAr?$AA?9?$AAQ?$AAA?$AA?$AA@ 0000000180057930     libcpmt:winapinls.obj
 0002:00004940       ??_C@_1M@MKDBIIJI@?$AAe?$AAs?$AA?9?$AAB?$AAO?$AA?$AA@ 0000000180057940     libcpmt:winapinls.obj
 0002:00004950       ??_C@_1M@CPKKEBLD@?$AAe?$AAs?$AA?9?$AAS?$AAV?$AA?$AA@ 0000000180057950     libcpmt:winapinls.obj
 0002:00004960       ??_C@_1M@NDBGMMJL@?$AAe?$AAs?$AA?9?$AAH?$AAN?$AA?$AA@ 0000000180057960     libcpmt:winapinls.obj
 0002:00004970       ??_C@_1M@JIJIBHDP@?$AAe?$AAs?$AA?9?$AAN?$AAI?$AA?$AA@ 0000000180057970     libcpmt:winapinls.obj
 0002:00004980       ??_C@_1M@CGFMKEEK@?$AAe?$AAs?$AA?9?$AAP?$AAR?$AA?$AA@ 0000000180057980     libcpmt:winapinls.obj
 0002:00004990       ??_C@_1O@ICJHKIIK@?$AAz?$AAh?$AA?9?$AAC?$AAH?$AAT?$AA?$AA@ 0000000180057990     libcpmt:winapinls.obj
 0002:000049a0       ??_C@_15CLNEJCE@?$AAs?$AAr?$AA?$AA@ 00000001800579a0     libcpmt:winapinls.obj
 0002:000049a8       ??_C@_1M@KAHEKEIG@?$AAa?$AAf?$AA?9?$AAz?$AAa?$AA?$AA@ 00000001800579a8     libcpmt:winapinls.obj
 0002:000049b8       ??_C@_1M@GIECOABL@?$AAa?$AAr?$AA?9?$AAa?$AAe?$AA?$AA@ 00000001800579b8     libcpmt:winapinls.obj
 0002:000049c8       ??_C@_1M@BMLMEKGI@?$AAa?$AAr?$AA?9?$AAb?$AAh?$AA?$AA@ 00000001800579c8     libcpmt:winapinls.obj
 0002:000049d8       ??_C@_1M@DAPFDGGB@?$AAa?$AAr?$AA?9?$AAd?$AAz?$AA?$AA@ 00000001800579d8     libcpmt:winapinls.obj
 0002:000049e8       ??_C@_1M@FJNKGKIG@?$AAa?$AAr?$AA?9?$AAe?$AAg?$AA?$AA@ 00000001800579e8     libcpmt:winapinls.obj
 0002:000049f8       ??_C@_1M@FLGKKCLO@?$AAa?$AAr?$AA?9?$AAi?$AAq?$AA?$AA@ 00000001800579f8     libcpmt:winapinls.obj
 0002:00004a08       ??_C@_1M@GNDIPALM@?$AAa?$AAr?$AA?9?$AAj?$AAo?$AA?$AA@ 0000000180057a08     libcpmt:winapinls.obj
 0002:00004a18       ??_C@_1M@DDMJFMGJ@?$AAa?$AAr?$AA?9?$AAk?$AAw?$AA?$AA@ 0000000180057a18     libcpmt:winapinls.obj
 0002:00004a28       ??_C@_1M@EJALMLHM@?$AAa?$AAr?$AA?9?$AAl?$AAb?$AA?$AA@ 0000000180057a28     libcpmt:winapinls.obj
 0002:00004a38       ??_C@_1M@MOBDBLOC@?$AAa?$AAr?$AA?9?$AAl?$AAy?$AA?$AA@ 0000000180057a38     libcpmt:winapinls.obj
 0002:00004a48       ??_C@_1M@JAOCLHDH@?$AAa?$AAr?$AA?9?$AAm?$AAa?$AA?$AA@ 0000000180057a48     libcpmt:winapinls.obj
 0002:00004a58       ??_C@_1M@JHPMKJIE@?$AAa?$AAr?$AA?9?$AAo?$AAm?$AA?$AA@ 0000000180057a58     libcpmt:winapinls.obj
 0002:00004a68       ??_C@_1M@OEPGHFNH@?$AAa?$AAr?$AA?9?$AAq?$AAa?$AA?$AA@ 0000000180057a68     libcpmt:winapinls.obj
 0002:00004a78       ??_C@_1M@KJDONENM@?$AAa?$AAr?$AA?9?$AAs?$AAa?$AA?$AA@ 0000000180057a78     libcpmt:winapinls.obj
 0002:00004a88       ??_C@_1M@DMJDKLKM@?$AAa?$AAr?$AA?9?$AAs?$AAy?$AA?$AA@ 0000000180057a88     libcpmt:winapinls.obj
 0002:00004a98       ??_C@_1M@OMFIPEDC@?$AAa?$AAr?$AA?9?$AAt?$AAn?$AA?$AA@ 0000000180057a98     libcpmt:winapinls.obj
 0002:00004aa8       ??_C@_1M@IHMHGAON@?$AAa?$AAr?$AA?9?$AAy?$AAe?$AA?$AA@ 0000000180057aa8     libcpmt:winapinls.obj
 0002:00004ab8       ??_C@_1BG@KDCPGJGB@?$AAa?$AAz?$AA?9?$AAa?$AAz?$AA?9?$AAc?$AAy?$AAr?$AAl?$AA?$AA@ 0000000180057ab8     libcpmt:winapinls.obj
 0002:00004ad0       ??_C@_1BG@IBCKDDOE@?$AAa?$AAz?$AA?9?$AAa?$AAz?$AA?9?$AAl?$AAa?$AAt?$AAn?$AA?$AA@ 0000000180057ad0     libcpmt:winapinls.obj
 0002:00004ae8       ??_C@_1M@EGPFDCPD@?$AAb?$AAe?$AA?9?$AAb?$AAy?$AA?$AA@ 0000000180057ae8     libcpmt:winapinls.obj
 0002:00004af8       ??_C@_1M@PCMGMCGC@?$AAb?$AAg?$AA?9?$AAb?$AAg?$AA?$AA@ 0000000180057af8     libcpmt:winapinls.obj
 0002:00004b08       ??_C@_1M@BJBMFGOB@?$AAb?$AAn?$AA?9?$AAi?$AAn?$AA?$AA@ 0000000180057b08     libcpmt:winapinls.obj
 0002:00004b18       ??_C@_1BG@EAKMMACD@?$AAb?$AAs?$AA?9?$AAb?$AAa?$AA?9?$AAl?$AAa?$AAt?$AAn?$AA?$AA@ 0000000180057b18     libcpmt:winapinls.obj
 0002:00004b30       ??_C@_1M@KGADAODK@?$AAc?$AAa?$AA?9?$AAe?$AAs?$AA?$AA@ 0000000180057b30     libcpmt:winapinls.obj
 0002:00004b40       ??_C@_1M@COAJPDHI@?$AAc?$AAs?$AA?9?$AAc?$AAz?$AA?$AA@ 0000000180057b40     libcpmt:winapinls.obj
 0002:00004b50       ??_C@_1M@DHBHFONH@?$AAc?$AAy?$AA?9?$AAg?$AAb?$AA?$AA@ 0000000180057b50     libcpmt:winapinls.obj
 0002:00004b60       ??_C@_1M@IMGKELGA@?$AAd?$AAa?$AA?9?$AAd?$AAk?$AA?$AA@ 0000000180057b60     libcpmt:winapinls.obj
 0002:00004b70       ??_C@_1M@NNDGDNGA@?$AAd?$AAe?$AA?9?$AAa?$AAt?$AA?$AA@ 0000000180057b70     libcpmt:winapinls.obj
 0002:00004b80       ??_C@_1M@IKDBHEEM@?$AAd?$AAe?$AA?9?$AAc?$AAh?$AA?$AA@ 0000000180057b80     libcpmt:winapinls.obj
 0002:00004b90       ??_C@_1M@GFFOJMCJ@?$AAd?$AAe?$AA?9?$AAd?$AAe?$AA?$AA@ 0000000180057b90     libcpmt:winapinls.obj
 0002:00004ba0       ??_C@_1M@MDNLKBPM@?$AAd?$AAe?$AA?9?$AAl?$AAi?$AA?$AA@ 0000000180057ba0     libcpmt:winapinls.obj
 0002:00004bb0       ??_C@_1M@NJBEEJNL@?$AAd?$AAe?$AA?9?$AAl?$AAu?$AA?$AA@ 0000000180057bb0     libcpmt:winapinls.obj
 0002:00004bc0       ??_C@_1O@GNNELBAP@?$AAd?$AAi?$AAv?$AA?9?$AAm?$AAv?$AA?$AA@ 0000000180057bc0     libcpmt:winapinls.obj
 0002:00004bd0       ??_C@_1M@EJLEOGAE@?$AAe?$AAl?$AA?9?$AAg?$AAr?$AA?$AA@ 0000000180057bd0     libcpmt:winapinls.obj
 0002:00004be0       ??_C@_1M@GMPONJN@?$AAe?$AAn?$AA?9?$AAa?$AAu?$AA?$AA@ 0000000180057be0     libcpmt:winapinls.obj
 0002:00004bf0       ??_C@_1M@NIDIIPGF@?$AAe?$AAn?$AA?9?$AAb?$AAz?$AA?$AA@ 0000000180057bf0     libcpmt:winapinls.obj
 0002:00004c00       ??_C@_1M@JEHMIMFO@?$AAe?$AAn?$AA?9?$AAc?$AAa?$AA?$AA@ 0000000180057c00     libcpmt:winapinls.obj
 0002:00004c10       ??_C@_1M@IGMJCDLA@?$AAe?$AAn?$AA?9?$AAc?$AAb?$AA?$AA@ 0000000180057c10     libcpmt:winapinls.obj
 0002:00004c20       ??_C@_1M@BNFIGBKG@?$AAe?$AAn?$AA?9?$AAg?$AAb?$AA?$AA@ 0000000180057c20     libcpmt:winapinls.obj
 0002:00004c30       ??_C@_1M@LKIFDIGP@?$AAe?$AAn?$AA?9?$AAi?$AAe?$AA?$AA@ 0000000180057c30     libcpmt:winapinls.obj
 0002:00004c40       ??_C@_1M@PJKFGCCO@?$AAe?$AAn?$AA?9?$AAj?$AAm?$AA?$AA@ 0000000180057c40     libcpmt:winapinls.obj
 0002:00004c50       ??_C@_1M@KPPKEPBO@?$AAe?$AAn?$AA?9?$AAn?$AAz?$AA?$AA@ 0000000180057c50     libcpmt:winapinls.obj
 0002:00004c60       ??_C@_1M@GMDGLDOB@?$AAe?$AAn?$AA?9?$AAp?$AAh?$AA?$AA@ 0000000180057c60     libcpmt:winapinls.obj
 0002:00004c70       ??_C@_1M@ONGIBJNA@?$AAe?$AAn?$AA?9?$AAt?$AAt?$AA?$AA@ 0000000180057c70     libcpmt:winapinls.obj
 0002:00004c80       ??_C@_1M@LLODPCMM@?$AAe?$AAn?$AA?9?$AAu?$AAs?$AA?$AA@ 0000000180057c80     libcpmt:winapinls.obj
 0002:00004c90       ??_C@_1M@LAKFNPAN@?$AAe?$AAn?$AA?9?$AAz?$AAa?$AA?$AA@ 0000000180057c90     libcpmt:winapinls.obj
 0002:00004ca0       ??_C@_1M@MFNHNHEO@?$AAe?$AAn?$AA?9?$AAz?$AAw?$AA?$AA@ 0000000180057ca0     libcpmt:winapinls.obj
 0002:00004cb0       ??_C@_1M@EJEINPHM@?$AAe?$AAs?$AA?9?$AAa?$AAr?$AA?$AA@ 0000000180057cb0     libcpmt:winapinls.obj
 0002:00004cc0       ??_C@_1M@GNKPCCJA@?$AAe?$AAs?$AA?9?$AAb?$AAo?$AA?$AA@ 0000000180057cc0     libcpmt:winapinls.obj
 0002:00004cd0       ??_C@_1M@LEEGFONL@?$AAe?$AAs?$AA?9?$AAc?$AAl?$AA?$AA@ 0000000180057cd0     libcpmt:winapinls.obj
 0002:00004ce0       ??_C@_1M@KGPDPBDF@?$AAe?$AAs?$AA?9?$AAc?$AAo?$AA?$AA@ 0000000180057ce0     libcpmt:winapinls.obj
 0002:00004cf0       ??_C@_1M@EIAHOHH@?$AAe?$AAs?$AA?9?$AAc?$AAr?$AA?$AA@ 0000000180057cf0     libcpmt:winapinls.obj
 0002:00004d00       ??_C@_1M@LLPGMBIN@?$AAe?$AAs?$AA?9?$AAd?$AAo?$AA?$AA@ 0000000180057d00     libcpmt:winapinls.obj
 0002:00004d10       ??_C@_1M@DKHMKNJA@?$AAe?$AAs?$AA?9?$AAe?$AAc?$AA?$AA@ 0000000180057d10     libcpmt:winapinls.obj
 0002:00004d20       ??_C@_1M@GKGFPKAP@?$AAe?$AAs?$AA?9?$AAe?$AAs?$AA?$AA@ 0000000180057d20     libcpmt:winapinls.obj
 0002:00004d30       ??_C@_1M@LKHKGDLN@?$AAe?$AAs?$AA?9?$AAg?$AAt?$AA?$AA@ 0000000180057d30     libcpmt:winapinls.obj
 0002:00004d40       ??_C@_1M@HEIIGGJD@?$AAe?$AAs?$AA?9?$AAh?$AAn?$AA?$AA@ 0000000180057d40     libcpmt:winapinls.obj
 0002:00004d50       ??_C@_1M@FBDHPPGD@?$AAe?$AAs?$AA?9?$AAm?$AAx?$AA?$AA@ 0000000180057d50     libcpmt:winapinls.obj
 0002:00004d60       ??_C@_1M@DPAGLNDH@?$AAe?$AAs?$AA?9?$AAn?$AAi?$AA?$AA@ 0000000180057d60     libcpmt:winapinls.obj
 0002:00004d70       ??_C@_1M@MDGOPGDD@?$AAe?$AAs?$AA?9?$AAp?$AAa?$AA?$AA@ 0000000180057d70     libcpmt:winapinls.obj
 0002:00004d80       ??_C@_1M@EMAMGBGE@?$AAe?$AAs?$AA?9?$AAp?$AAe?$AA?$AA@ 0000000180057d80     libcpmt:winapinls.obj
 0002:00004d90       ??_C@_1M@IBMCAOEC@?$AAe?$AAs?$AA?9?$AAp?$AAr?$AA?$AA@ 0000000180057d90     libcpmt:winapinls.obj
 0002:00004da0       ??_C@_1M@FGMDIJED@?$AAe?$AAs?$AA?9?$AAp?$AAy?$AA?$AA@ 0000000180057da0     libcpmt:winapinls.obj
 0002:00004db0       ??_C@_1M@IIDEOLLL@?$AAe?$AAs?$AA?9?$AAs?$AAv?$AA?$AA@ 0000000180057db0     libcpmt:winapinls.obj
 0002:00004dc0       ??_C@_1M@GAOBIPA@?$AAe?$AAs?$AA?9?$AAu?$AAy?$AA?$AA@ 0000000180057dc0     libcpmt:winapinls.obj
 0002:00004dd0       _pDefaultRawDllMain        0000000180057dd0     LIBCMT:dll_dllmain.obj
 0002:00004dd0       _pRawDllMain               0000000180057dd0     LIBCMT:dll_dllmain.obj
 0002:00004de0       ??_7type_info@@6B@         0000000180057de0     LIBCMT:std_type_info_static.obj
 0002:00004e00       ??_7bad_array_new_length@std@@6B@ 0000000180057e00     LIBCMT:throw_bad_alloc.obj
 0002:00004e10       ??_C@_0BF@KINCDENJ@bad?5array?5new?5length?$AA@ 0000000180057e10     LIBCMT:throw_bad_alloc.obj
 0002:00004e28       _pDestructExceptionObject  0000000180057e28     libvcruntime:frame.obj
 0002:00004e38       ??_7bad_exception@std@@6B@ 0000000180057e38     libvcruntime:frame.obj
 0002:00004e48       ??_C@_0O@DPKOEFFH@bad?5exception?$AA@ 0000000180057e48     libvcruntime:frame.obj
 0002:00004f60       ??_C@_1BC@DNHGCMLG@?$AAa?$AAd?$AAv?$AAa?$AAp?$AAi?$AA3?$AA2?$AA?$AA@ 0000000180057f60     libvcruntime:winapi_downlevel.obj
 0002:00004f78       ??_C@_1DM@KHCHBNEB@?$AAa?$AAp?$AAi?$AA?9?$AAm?$AAs?$AA?9?$AAw?$AAi?$AAn?$AA?9?$AAc?$AAo?$AAr?$AAe?$AA?9?$AAf?$AAi?$AAb?$AAe?$AAr?$AAs?$AA?9?$AAl?$AA1?$AA?9?$AA1?$AA?9?$AA1?$AA?$AA@ 0000000180057f78     libvcruntime:winapi_downlevel.obj
 0002:00004fb8       ??_C@_1DK@LPPGFMPP@?$AAa?$AAp?$AAi?$AA?9?$AAm?$AAs?$AA?9?$AAw?$AAi?$AAn?$AA?9?$AAc?$AAo?$AAr?$AAe?$AA?9?$AAs?$AAy?$AAn?$AAc?$AAh?$AA?9?$AAl?$AA1?$AA?9?$AA2?$AA?9?$AA0?$AA?$AA@ 0000000180057fb8     libvcruntime:winapi_downlevel.obj
 0002:00004ff8       ??_C@_1BC@GDMECMAK@?$AAk?$AAe?$AAr?$AAn?$AAe?$AAl?$AA3?$AA2?$AA?$AA@ 0000000180057ff8     libvcruntime:winapi_downlevel.obj
 0002:00005360       ??_C@_08EHJDFFNH@__based?$CI?$AA@ 0000000180058360     libvcruntime:undname.obj
 0002:00005370       ??_C@_07KOLFKCDI@__cdecl?$AA@ 0000000180058370     libvcruntime:undname.obj
 0002:00005378       ??_C@_08GHMPAG@__pascal?$AA@ 0000000180058378     libvcruntime:undname.obj
 0002:00005388       ??_C@_09IFJBGAPI@__stdcall?$AA@ 0000000180058388     libvcruntime:undname.obj
 0002:00005398       ??_C@_0L@NPHFGOKO@__thiscall?$AA@ 0000000180058398     libvcruntime:undname.obj
 0002:000053a8       ??_C@_0L@JMKHOMEK@__fastcall?$AA@ 00000001800583a8     libvcruntime:undname.obj
 0002:000053b8       ??_C@_0N@BCKKPABJ@__vectorcall?$AA@ 00000001800583b8     libvcruntime:undname.obj
 0002:000053c8       ??_C@_09HIJEGCPM@__clrcall?$AA@ 00000001800583c8     libvcruntime:undname.obj
 0002:000053d4       ??_C@_06GHPCKEAG@__eabi?$AA@ 00000001800583d4     libvcruntime:undname.obj
 0002:000053e0       ??_C@_07JOMMBBKO@__ptr64?$AA@ 00000001800583e0     libvcruntime:undname.obj
 0002:000053e8       ??_C@_0L@PILCLIHE@__restrict?$AA@ 00000001800583e8     libvcruntime:undname.obj
 0002:000053f8       ??_C@_0M@GFIIJFMG@__unaligned?$AA@ 00000001800583f8     libvcruntime:undname.obj
 0002:00005408       ??_C@_09DHDLOLLB@restrict?$CI?$AA@ 0000000180058408     libvcruntime:undname.obj
 0002:00005414       ??_C@_04NIHEBCM@?5new?$AA@ 0000000180058414     libvcruntime:undname.obj
 0002:00005420       ??_C@_07FPCDHGMM@?5delete?$AA@ 0000000180058420     libvcruntime:undname.obj
 0002:00005428       ??_C@_01NEMOKFLO@?$DN?$AA@ 0000000180058428     libvcruntime:undname.obj
 0002:0000542c       ??_C@_02GPIOPFAK@?$DO?$DO?$AA@ 000000018005842c     libvcruntime:undname.obj
 0002:00005430       ??_C@_02FODMEDOG@?$DM?$DM?$AA@ 0000000180058430     libvcruntime:undname.obj
 0002:00005434       ??_C@_01DCLJPIOD@?$CB?$AA@ 0000000180058434     libvcruntime:undname.obj
 0002:00005438       ??_C@_02EGOFBIJA@?$DN?$DN?$AA@ 0000000180058438     libvcruntime:undname.obj
 0002:0000543c       ??_C@_02FDNJECIE@?$CB?$DN?$AA@ 000000018005843c     libvcruntime:undname.obj
 0002:00005440       ??_C@_02GPECMEKF@?$FL?$FN?$AA@ 0000000180058440     libvcruntime:undname.obj
 0002:00005448       ??_C@_08LHJFAFGD@operator?$AA@ 0000000180058448     libvcruntime:undname.obj
 0002:00005454       ??_C@_02HBOOOICD@?9?$DO?$AA@ 0000000180058454     libvcruntime:undname.obj
 0002:00005458       ??_C@_02ECNGHCIF@?$CL?$CL?$AA@ 0000000180058458     libvcruntime:undname.obj
 0002:0000545c       ??_C@_02BAABKJLB@?9?9?$AA@ 000000018005845c     libvcruntime:undname.obj
 0002:00005460       ??_C@_01MIFGBAGJ@?$CL?$AA@ 0000000180058460     libvcruntime:undname.obj
 0002:00005464       ??_C@_01HNPIGOCE@?$CG?$AA@ 0000000180058464     libvcruntime:undname.obj
 0002:00005468       ??_C@_03MNHNFDLC@?9?$DO?$CK?$AA@ 0000000180058468     libvcruntime:undname.obj
 0002:0000546c       ??_C@_01KMDKNFGN@?1?$AA@   000000018005846c     libvcruntime:undname.obj
 0002:00005470       ??_C@_01FGNFDNOH@?$CF?$AA@ 0000000180058470     libvcruntime:undname.obj
 0002:00005474       ??_C@_01MNNFJEPP@?$DM?$AA@ 0000000180058474     libvcruntime:undname.obj
 0002:00005478       ??_C@_02EHCHHCKH@?$DM?$DN?$AA@ 0000000180058478     libvcruntime:undname.obj
 0002:0000547c       ??_C@_01PPODPGHN@?$DO?$AA@ 000000018005847c     libvcruntime:undname.obj
 0002:00005480       ??_C@_02EEKDKGMJ@?$DO?$DN?$AA@ 0000000180058480     libvcruntime:undname.obj
 0002:00005484       ??_C@_01IHBHIGKO@?0?$AA@   0000000180058484     libvcruntime:undname.obj
 0002:00005488       ??_C@_02HCKGKOFO@?$CI?$CJ?$AA@ 0000000180058488     libvcruntime:undname.obj
 0002:0000548c       ??_C@_01PJKLJHI@?$HO?$AA@  000000018005848c     libvcruntime:undname.obj
 0002:00005490       ??_C@_01JKBOJNNK@?$FO?$AA@ 0000000180058490     libvcruntime:undname.obj
 0002:00005494       ??_C@_01DNKMNLPK@?$HM?$AA@ 0000000180058494     libvcruntime:undname.obj
 0002:00005498       ??_C@_02PPKAJPJL@?$CG?$CG?$AA@ 0000000180058498     libvcruntime:undname.obj
 0002:0000549c       ??_C@_02NONPIBCD@?$HM?$HM?$AA@ 000000018005849c     libvcruntime:undname.obj
 0002:000054a0       ??_C@_02FPIMKNGF@?$CK?$DN?$AA@ 00000001800584a0     libvcruntime:undname.obj
 0002:000054a4       ??_C@_02FOEOMHFC@?$CL?$DN?$AA@ 00000001800584a4     libvcruntime:undname.obj
 0002:000054a8       ??_C@_02FKMDLLOA@?9?$DN?$AA@ 00000001800584a8     libvcruntime:undname.obj
 0002:000054ac       ??_C@_02FJEHGPIO@?1?$DN?$AA@ 00000001800584ac     libvcruntime:undname.obj
 0002:000054b0       ??_C@_02FENAOKFI@?$CF?$DN?$AA@ 00000001800584b0     libvcruntime:undname.obj
 0002:000054b4       ??_C@_03IKFCCPFF@?$DO?$DO?$DN?$AA@ 00000001800584b4     libvcruntime:undname.obj
 0002:000054b8       ??_C@_03CDNPDDLA@?$DM?$DM?$DN?$AA@ 00000001800584b8     libvcruntime:undname.obj
 0002:000054bc       ??_C@_02FGJGFEAB@?$CG?$DN?$AA@ 00000001800584bc     libvcruntime:undname.obj
 0002:000054c0       ??_C@_02DHLNPPGH@?$HM?$DN?$AA@ 00000001800584c0     libvcruntime:undname.obj
 0002:000054c4       ??_C@_02MHEGNOJ@?$FO?$DN?$AA@ 00000001800584c4     libvcruntime:undname.obj
 0002:000054c8       ??_C@_09IFPLHPGF@?$GAvftable?8?$AA@ 00000001800584c8     libvcruntime:undname.obj
 0002:000054d8       ??_C@_09BLBHBJP@?$GAvbtable?8?$AA@ 00000001800584d8     libvcruntime:undname.obj
 0002:000054e8       ??_C@_07FEEIOKP@?$GAvcall?8?$AA@ 00000001800584e8     libvcruntime:undname.obj
 0002:000054f0       ??_C@_08LLFFHHDJ@?$GAtypeof?8?$AA@ 00000001800584f0     libvcruntime:undname.obj
 0002:00005500       ??_C@_0BF@KDPPACIK@?$GAlocal?5static?5guard?8?$AA@ 0000000180058500     libvcruntime:undname.obj
 0002:00005518       ??_C@_08OBABFOLI@?$GAstring?8?$AA@ 0000000180058518     libvcruntime:undname.obj
 0002:00005528       ??_C@_0BD@JDLKDPAB@?$GAvbase?5destructor?8?$AA@ 0000000180058528     libvcruntime:undname.obj
 0002:00005540       ??_C@_0BN@DEGPLNFK@?$GAvector?5deleting?5destructor?8?$AA@ 0000000180058540     libvcruntime:undname.obj
 0002:00005560       ??_C@_0BO@OBMKPJIG@?$GAdefault?5constructor?5closure?8?$AA@ 0000000180058560     libvcruntime:undname.obj
 0002:00005580       ??_C@_0BN@IMDCHIKM@?$GAscalar?5deleting?5destructor?8?$AA@ 0000000180058580     libvcruntime:undname.obj
 0002:000055a0       ??_C@_0BO@PFGOCPJJ@?$GAvector?5constructor?5iterator?8?$AA@ 00000001800585a0     libvcruntime:undname.obj
 0002:000055c0       ??_C@_0BN@LFPFMEDL@?$GAvector?5destructor?5iterator?8?$AA@ 00000001800585c0     libvcruntime:undname.obj
 0002:000055e0       ??_C@_0CE@IKBNEHA@?$GAvector?5vbase?5constructor?5iterat@ 00000001800585e0     libvcruntime:undname.obj
 0002:00005608       ??_C@_0BL@NILFHHPC@?$GAvirtual?5displacement?5map?8?$AA@ 0000000180058608     libvcruntime:undname.obj
 0002:00005628       ??_C@_0CB@JONCMFFK@?$GAeh?5vector?5constructor?5iterator?8@ 0000000180058628     libvcruntime:undname.obj
 0002:00005650       ??_C@_0CA@GCEOPDGL@?$GAeh?5vector?5destructor?5iterator?8?$AA@ 0000000180058650     libvcruntime:undname.obj
 0002:00005670       ??_C@_0CH@OOJPLCPH@?$GAeh?5vector?5vbase?5constructor?5ite@ 0000000180058670     libvcruntime:undname.obj
 0002:00005698       ??_C@_0BL@LLKPOHJI@?$GAcopy?5constructor?5closure?8?$AA@ 0000000180058698     libvcruntime:undname.obj
 0002:000056b8       ??_C@_0BA@KBCDOMBN@?$GAudt?5returning?8?$AA@ 00000001800586b8     libvcruntime:undname.obj
 0002:000056c8       ??_C@_03KLGMFNMG@?$GAEH?$AA@ 00000001800586c8     libvcruntime:undname.obj
 0002:000056cc       ??_C@_05KHLCHHI@?$GARTTI?$AA@ 00000001800586cc     libvcruntime:undname.obj
 0002:000056d8       ??_C@_0BA@KKLDJDLB@?$GAlocal?5vftable?8?$AA@ 00000001800586d8     libvcruntime:undname.obj
 0002:000056e8       ??_C@_0CE@IIHCMGGL@?$GAlocal?5vftable?5constructor?5closu@ 00000001800586e8     libvcruntime:undname.obj
 0002:0000570c       ??_C@_06FHBGPFGH@?5new?$FL?$FN?$AA@ 000000018005870c     libvcruntime:undname.obj
 0002:00005718       ??_C@_09LBNFPBCA@?5delete?$FL?$FN?$AA@ 0000000180058718     libvcruntime:undname.obj
 0002:00005728       ??_C@_0P@HJKNJFNN@?$GAomni?5callsig?8?$AA@ 0000000180058728     libvcruntime:undname.obj
 0002:00005738       ??_C@_0BL@CNOONJFP@?$GAplacement?5delete?5closure?8?$AA@ 0000000180058738     libvcruntime:undname.obj
 0002:00005758       ??_C@_0BN@CKNJLHMB@?$GAplacement?5delete?$FL?$FN?5closure?8?$AA@ 0000000180058758     libvcruntime:undname.obj
 0002:00005778       ??_C@_0CG@CFDHKGGD@?$GAmanaged?5vector?5constructor?5iter@ 0000000180058778     libvcruntime:undname.obj
 0002:000057a0       ??_C@_0CF@IMGKMJNO@?$GAmanaged?5vector?5destructor?5itera@ 00000001800587a0     libvcruntime:undname.obj
 0002:000057c8       ??_C@_0CG@HLDDJMAG@?$GAeh?5vector?5copy?5constructor?5iter@ 00000001800587c8     libvcruntime:undname.obj
 0002:000057f0       ??_C@_0CM@FCBBDIGB@?$GAeh?5vector?5vbase?5copy?5constructo@ 00000001800587f0     libvcruntime:undname.obj
 0002:00005820       ??_C@_0BL@CLIPGLGB@?$GAdynamic?5initializer?5for?5?8?$AA@ 0000000180058820     libvcruntime:undname.obj
 0002:00005840       ??_C@_0CB@PDBIFEP@?$GAdynamic?5atexit?5destructor?5for?5?8@ 0000000180058840     libvcruntime:undname.obj
 0002:00005868       ??_C@_0CD@CGAJBKEJ@?$GAvector?5copy?5constructor?5iterato@ 0000000180058868     libvcruntime:undname.obj
 0002:00005890       ??_C@_0CJ@GJELGAMM@?$GAvector?5vbase?5copy?5constructor?5i@ 0000000180058890     libvcruntime:undname.obj
 0002:000058c0       ??_C@_0CL@FGIJHLCE@?$GAmanaged?5vector?5copy?5constructor@ 00000001800588c0     libvcruntime:undname.obj
 0002:000058f0       ??_C@_0BM@PMGGMLDN@?$GAlocal?5static?5thread?5guard?8?$AA@ 00000001800588f0     libvcruntime:undname.obj
 0002:00005910       ??_C@_0N@BDNMDMOL@operator?5?$CC?$CC?5?$AA@ 0000000180058910     libvcruntime:undname.obj
 0002:00005920       ??_C@_0BC@DAFEJGAK@?5Type?5Descriptor?8?$AA@ 0000000180058920     libvcruntime:undname.obj
 0002:00005938       ??_C@_0BM@LDKODKLH@?5Base?5Class?5Descriptor?5at?5?$CI?$AA@ 0000000180058938     libvcruntime:undname.obj
 0002:00005958       ??_C@_0BD@LGICGFMM@?5Base?5Class?5Array?8?$AA@ 0000000180058958     libvcruntime:undname.obj
 0002:00005970       ??_C@_0BN@MECKDCOJ@?5Class?5Hierarchy?5Descriptor?8?$AA@ 0000000180058970     libvcruntime:undname.obj
 0002:00005990       ??_C@_0BK@CFCOFLF@?5Complete?5Object?5Locator?8?$AA@ 0000000180058990     libvcruntime:undname.obj
 0002:000059b0       standard_lookup_table      00000001800589b0     libucrt:output.obj
 0002:00005a10       format_validation_lookup_table 0000000180058a10     libucrt:output.obj
 0002:00005a6c       ??_C@_06OJHGLDPL@?$CInull?$CJ?$AA@ 0000000180058a6c     libucrt:output.obj
 0002:00005a78       ??_C@_1O@CEDCILHN@?$AA?$CI?$AAn?$AAu?$AAl?$AAl?$AA?$CJ?$AA?$AA@ 0000000180058a78     libucrt:output.obj
 0002:00005a88       __real@0000000000000000    0000000180058a88     libucrt:frexp.obj
 0002:00005a90       __real@3ff0000000000000    0000000180058a90     libucrt:frexp.obj
 0002:00005a98       __real@8000000000000000    0000000180058a98     libucrt:frexp.obj
 0002:00005aa0       ??_C@_1EK@MBDPDCGA@?$AAM?$AAi?$AAc?$AAr?$AAo?$AAs?$AAo?$AAf?$AAt?$AA?5?$AAV?$AAi?$AAs?$AAu?$AAa?$AAl?$AA?5?$AAC?$AA?$CL?$AA?$CL?$AA?5?$AAR?$AAu?$AAn?$AAt?$AAi?$AAm?$AAe?$AA?5?$AAL?$AAi?$AAb@ 0000000180058aa0     libucrt:assert.obj
 0002:00005af0       ??_C@_1FE@LHBLIKM@?$AAA?$AAs?$AAs?$AAe?$AAr?$AAt?$AAi?$AAo?$AAn?$AA?5?$AAf?$AAa?$AAi?$AAl?$AAe?$AAd?$AA?3?$AA?5?$AA?$CF?$AAT?$AAs?$AA?0?$AA?5?$AAf?$AAi?$AAl?$AAe?$AA?5?$AA?$CF?$AAT?$AAs?$AA?0@ 0000000180058af0     libucrt:assert.obj
 0002:00005b48       ??_C@_1CE@OJBNHDMO@?$AAA?$AAs?$AAs?$AAe?$AAr?$AAt?$AAi?$AAo?$AAn?$AA?5?$AAf?$AAa?$AAi?$AAl?$AAe?$AAd?$AA?$CB?$AA?$AA@ 0000000180058b48     libucrt:assert.obj
 0002:00005b70       ??_C@_1BE@PHKBBGE@?$AAP?$AAr?$AAo?$AAg?$AAr?$AAa?$AAm?$AA?3?$AA?5?$AA?$AA@ 0000000180058b70     libucrt:assert.obj
 0002:00005b88       ??_C@_1O@HEMHKNDC@?$AAF?$AAi?$AAl?$AAe?$AA?3?$AA?5?$AA?$AA@ 0000000180058b88     libucrt:assert.obj
 0002:00005b98       ??_C@_1O@KCAFKHJE@?$AAL?$AAi?$AAn?$AAe?$AA?3?$AA?5?$AA?$AA@ 0000000180058b98     libucrt:assert.obj
 0002:00005ba8       ??_C@_1BK@PEDCIPMA@?$AAE?$AAx?$AAp?$AAr?$AAe?$AAs?$AAs?$AAi?$AAo?$AAn?$AA?3?$AA?5?$AA?$AA@ 0000000180058ba8     libucrt:assert.obj
 0002:00005bd0       ??_C@_1OA@EGMLFBHJ@?$AAF?$AAo?$AAr?$AA?5?$AAi?$AAn?$AAf?$AAo?$AAr?$AAm?$AAa?$AAt?$AAi?$AAo?$AAn?$AA?5?$AAo?$AAn?$AA?5?$AAh?$AAo?$AAw?$AA?5?$AAy?$AAo?$AAu?$AAr?$AA?5?$AAp?$AAr?$AAo?$AAg@ 0000000180058bd0     libucrt:assert.obj
 0002:00005cb0       ??_C@_1HK@POCJMFGK@?$AA?$CI?$AAP?$AAr?$AAe?$AAs?$AAs?$AA?5?$AAR?$AAe?$AAt?$AAr?$AAy?$AA?5?$AAt?$AAo?$AA?5?$AAd?$AAe?$AAb?$AAu?$AAg?$AA?5?$AAt?$AAh?$AAe?$AA?5?$AAa?$AAp?$AAp?$AAl?$AAi?$AAc@ 0000000180058cb0     libucrt:assert.obj
 0002:00005d30       ??_C@_17LGKOMLJ@?$AA?4?$AA?4?$AA?4?$AA?$AA@ 0000000180058d30     libucrt:assert.obj
 0002:00005d38       ??_C@_13LBAGMAIH@?$AA?6?$AA?$AA@ 0000000180058d38     libucrt:assert.obj
 0002:00005d3c       ??_C@_15IABLJNFO@?$AA?6?$AA?6?$AA?$AA@ 0000000180058d3c     libucrt:assert.obj
 0002:00005d48       ??_C@_1CO@EAEJAADC@?$AA?$DM?$AAp?$AAr?$AAo?$AAg?$AAr?$AAa?$AAm?$AA?5?$AAn?$AAa?$AAm?$AAe?$AA?5?$AAu?$AAn?$AAk?$AAn?$AAo?$AAw?$AAn?$AA?$DO?$AA?$AA@ 0000000180058d48     libucrt:assert.obj
 0002:00005d80       __newctype                 0000000180058d80     libucrt:ctype.obj
 0002:00006080       __newclmap                 0000000180059080     libucrt:ctype.obj
 0002:00006200       __newcumap                 0000000180059200     libucrt:ctype.obj
 0002:00006380       _wctype                    0000000180059380     libucrt:ctype.obj
 0002:00006700       ?large_power_data@?1??multiply_by_power_of_ten@__crt_strtox@@YA_NAEAUbig_integer@2@I@Z@4QBIB 0000000180059700     libucrt:strtod.obj
 0002:00007010       ?large_power_indices@?1??multiply_by_power_of_ten@__crt_strtox@@YA_NAEAUbig_integer@2@I@Z@4QBUunpack_index@?1??12@YA_N0I@Z@B 000000018005a010     libucrt:strtod.obj
 0002:000070a8       ?small_powers_of_ten@?6??multiply_by_power_of_ten@__crt_strtox@@YA_NAEAUbig_integer@2@I@Z@4QBIB 000000018005a0a8     libucrt:strtod.obj
 0002:00008d78       ??_C@_1M@PBPMMENC@?$AAa?$AAm?$AA?1?$AAp?$AAm?$AA?$AA@ 000000018005bd78     libucrt:wcsftime.obj
 0002:00008d88       ??_C@_17BLFJJHMM@?$AAa?$AA?1?$AAp?$AA?$AA@ 000000018005bd88     libucrt:wcsftime.obj
 0002:00008d90       ??_C@_13HOIJIPNN@?$AA?5?$AA?$AA@ 000000018005bd90     libucrt:wcsftime.obj
 0002:00008d94       ??_C@_13CGOKJPIL@?$AA?1?$AA?$AA@ 000000018005bd94     libucrt:wcsftime.obj
 0002:00008d98       ??_C@_13EBCNDICG@?$AA?3?$AA?$AA@ 000000018005bd98     libucrt:wcsftime.obj
 0002:00008d9c       ??_C@_13KDLDGPGJ@?$AA?7?$AA?$AA@ 000000018005bd9c     libucrt:wcsftime.obj
 0002:00008da0       ??_C@_13KJIIAINM@?$AA?$CL?$AA?$AA@ 000000018005bda0     libucrt:wcsftime.obj
 0002:00008da4       ??_C@_13EJFHHPOP@?$AA?$CF?$AA?$AA@ 000000018005bda4     libucrt:wcsftime.obj
 0002:00008db0       __acrt_exception_action_table 000000018005bdb0     libucrt:exception_filter.obj
 0002:00008e70       __acrt_signal_action_table_count 000000018005be70     libucrt:exception_filter.obj
 0002:00008e78       __acrt_signal_action_first_fpe_index 000000018005be78     libucrt:exception_filter.obj
 0002:00008e80       __acrt_signal_action_fpe_count 000000018005be80     libucrt:exception_filter.obj
 0002:00008e88       ??_C@_1BI@BGOHAHKC@?$AAm?$AAs?$AAc?$AAo?$AAr?$AAe?$AAe?$AA?4?$AAd?$AAl?$AAl?$AA?$AA@ 000000018005be88     libucrt:exit.obj
 0002:00008ea0       ??_C@_0P@MIGLKIOC@CorExitProcess?$AA@ 000000018005bea0     libucrt:exit.obj
 0002:00008fa0       ??_C@_02CLFPBFFP@TZ?$AA@   000000018005bfa0     libucrt:tzset.obj
 0002:00008fa8       _days                      000000018005bfa8     libucrt:days.obj
 0002:00008fe0       _lpdays                    000000018005bfe0     libucrt:days.obj
 0002:00009014       ??_C@_03OEIAHPBN@INF?$AA@  000000018005c014     libucrt:cvt.obj
 0002:00009018       ??_C@_03OJHLLCGB@inf?$AA@  000000018005c018     libucrt:cvt.obj
 0002:0000901c       ??_C@_03LKNCIKJB@NAN?$AA@  000000018005c01c     libucrt:cvt.obj
 0002:00009020       ??_C@_03LHCJEHON@nan?$AA@  000000018005c020     libucrt:cvt.obj
 0002:00009028       ??_C@_09OFJJIMPC@NAN?$CISNAN?$CJ?$AA@ 000000018005c028     libucrt:cvt.obj
 0002:00009038       ??_C@_09IPFBKMDL@nan?$CIsnan?$CJ?$AA@ 000000018005c038     libucrt:cvt.obj
 0002:00009048       ??_C@_08IKHNHAJ@NAN?$CIIND?$CJ?$AA@ 000000018005c048     libucrt:cvt.obj
 0002:00009058       ??_C@_08OFCDMILK@nan?$CIind?$CJ?$AA@ 000000018005c058     libucrt:cvt.obj
 0002:00009064       ??_C@_05KLBDPFGC@e?$CL000?$AA@ 000000018005c064     libucrt:cvt.obj
 0002:00009070       __lc_category              000000018005c070     libucrt:wsetlocale.obj
 0002:00009100       ??_C@_1O@GIFLHMA@?$AAL?$AAC?$AA_?$AAA?$AAL?$AAL?$AA?$AA@ 000000018005c100     libucrt:wsetlocale.obj
 0002:00009110       ??_C@_1BG@PPOMIBNJ@?$AAL?$AAC?$AA_?$AAC?$AAO?$AAL?$AAL?$AAA?$AAT?$AAE?$AA?$AA@ 000000018005c110     libucrt:wsetlocale.obj
 0002:00009128       ??_C@_1BC@FFJGAPJM@?$AAL?$AAC?$AA_?$AAC?$AAT?$AAY?$AAP?$AAE?$AA?$AA@ 000000018005c128     libucrt:wsetlocale.obj
 0002:00009140       ??_C@_1BI@PCKFNJFB@?$AAL?$AAC?$AA_?$AAM?$AAO?$AAN?$AAE?$AAT?$AAA?$AAR?$AAY?$AA?$AA@ 000000018005c140     libucrt:wsetlocale.obj
 0002:00009158       ??_C@_1BG@ENIEDKID@?$AAL?$AAC?$AA_?$AAN?$AAU?$AAM?$AAE?$AAR?$AAI?$AAC?$AA?$AA@ 000000018005c158     libucrt:wsetlocale.obj
 0002:00009170       ??_C@_1BA@HAAOMIIG@?$AAL?$AAC?$AA_?$AAT?$AAI?$AAM?$AAE?$AA?$AA@ 000000018005c170     libucrt:wsetlocale.obj
 0002:00009200       ??_C@_15NBPDDFIP@?$AA?$DN?$AA?$DL?$AA?$AA@ 000000018005c200     libucrt:wsetlocale.obj
 0002:00009208       ??_C@_13PJJBFPED@?$AA?$DL?$AA?$AA@ 000000018005c208     libucrt:wsetlocale.obj
 0002:0000920c       ??_C@_13NMPKAAJP@?$AA?$DN?$AA?$AA@ 000000018005c20c     libucrt:wsetlocale.obj
 0002:00009210       ??_C@_13FHBKNHDA@?$AAC?$AA?$AA@ 000000018005c210     libucrt:wsetlocale.obj
 0002:00009218       ??_C@_17MBJJLFDM@?$AA_?$AA?4?$AA?0?$AA?$AA@ 000000018005c218     libucrt:wsetlocale.obj
 0002:00009220       ??_C@_13ENNFDPBH@?$AA_?$AA?$AA@ 000000018005c220     libucrt:wsetlocale.obj
 0002:00009224       ??_C@_13JOFGPIOO@?$AA?4?$AA?$AA@ 000000018005c224     libucrt:wsetlocale.obj
 0002:00009230       __lc_time_c                000000018005c230     libucrt:nlsdata.obj
 0002:000094f0       ??_C@_03KOEHGMDN@Sun?$AA@  000000018005c4f0     libucrt:nlsdata.obj
 0002:000094f4       ??_C@_03PDAGKDH@Mon?$AA@   000000018005c4f4     libucrt:nlsdata.obj
 0002:000094f8       ??_C@_03NAGEINEP@Tue?$AA@  000000018005c4f8     libucrt:nlsdata.obj
 0002:000094fc       ??_C@_03MHOMLAJA@Wed?$AA@  000000018005c4fc     libucrt:nlsdata.obj
 0002:00009500       ??_C@_03IOFIKPDN@Thu?$AA@  000000018005c500     libucrt:nlsdata.obj
 0002:00009504       ??_C@_03IDIOELNC@Fri?$AA@  000000018005c504     libucrt:nlsdata.obj
 0002:00009508       ??_C@_03FEFJNEK@Sat?$AA@   000000018005c508     libucrt:nlsdata.obj
 0002:0000950c       ??_C@_06OOPIFAJ@Sunday?$AA@ 000000018005c50c     libucrt:nlsdata.obj
 0002:00009514       ??_C@_06JLEDEDGH@Monday?$AA@ 000000018005c514     libucrt:nlsdata.obj
 0002:00009520       ??_C@_07BAAGCFCM@Tuesday?$AA@ 000000018005c520     libucrt:nlsdata.obj
 0002:00009528       ??_C@_09DLIGFAKA@Wednesday?$AA@ 000000018005c528     libucrt:nlsdata.obj
 0002:00009538       ??_C@_08HACCIKIA@Thursday?$AA@ 000000018005c538     libucrt:nlsdata.obj
 0002:00009544       ??_C@_06JECMNKMI@Friday?$AA@ 000000018005c544     libucrt:nlsdata.obj
 0002:00009550       ??_C@_08INBOOONO@Saturday?$AA@ 000000018005c550     libucrt:nlsdata.obj
 0002:0000955c       ??_C@_03JIHJHPIE@Jan?$AA@  000000018005c55c     libucrt:nlsdata.obj
 0002:00009560       ??_C@_03HJBDCHOM@Feb?$AA@  000000018005c560     libucrt:nlsdata.obj
 0002:00009564       ??_C@_03ODNJBKGA@Mar?$AA@  000000018005c564     libucrt:nlsdata.obj
 0002:00009568       ??_C@_03LEOLGMJP@Apr?$AA@  000000018005c568     libucrt:nlsdata.obj
 0002:0000956c       ??_C@_03CNMDKL@May?$AA@    000000018005c56c     libucrt:nlsdata.obj
 0002:00009570       ??_C@_03IDFGHECI@Jun?$AA@  000000018005c570     libucrt:nlsdata.obj
 0002:00009574       ??_C@_03LBGABGKK@Jul?$AA@  000000018005c574     libucrt:nlsdata.obj
 0002:00009578       ??_C@_03IFJFEIGA@Aug?$AA@  000000018005c578     libucrt:nlsdata.obj
 0002:0000957c       ??_C@_03GGCAPAJC@Sep?$AA@  000000018005c57c     libucrt:nlsdata.obj
 0002:00009580       ??_C@_03BMAOKBAD@Oct?$AA@  000000018005c580     libucrt:nlsdata.obj
 0002:00009584       ??_C@_03JPJOFNIA@Nov?$AA@  000000018005c584     libucrt:nlsdata.obj
 0002:00009588       ??_C@_03MKABNOCG@Dec?$AA@  000000018005c588     libucrt:nlsdata.obj
 0002:00009590       ??_C@_07CGJPFGJA@January?$AA@ 000000018005c590     libucrt:nlsdata.obj
 0002:00009598       ??_C@_08GNJGEPFN@February?$AA@ 000000018005c598     libucrt:nlsdata.obj
 0002:000095a4       ??_C@_05HPCKOFNC@March?$AA@ 000000018005c5a4     libucrt:nlsdata.obj
 0002:000095ac       ??_C@_05DMJDNLEJ@April?$AA@ 000000018005c5ac     libucrt:nlsdata.obj
 0002:000095b4       ??_C@_04CNLMGBGM@June?$AA@ 000000018005c5b4     libucrt:nlsdata.obj
 0002:000095bc       ??_C@_04MIEPOIFP@July?$AA@ 000000018005c5bc     libucrt:nlsdata.obj
 0002:000095c4       ??_C@_06LBBHFDDG@August?$AA@ 000000018005c5c4     libucrt:nlsdata.obj
 0002:000095d0       ??_C@_09BHHEALKD@September?$AA@ 000000018005c5d0     libucrt:nlsdata.obj
 0002:000095e0       ??_C@_07JJNFCEND@October?$AA@ 000000018005c5e0     libucrt:nlsdata.obj
 0002:000095e8       ??_C@_08HCHEGEOA@November?$AA@ 000000018005c5e8     libucrt:nlsdata.obj
 0002:000095f8       ??_C@_08EDHMEBNP@December?$AA@ 000000018005c5f8     libucrt:nlsdata.obj
 0002:00009604       ??_C@_02DEDBPAFC@AM?$AA@   000000018005c604     libucrt:nlsdata.obj
 0002:00009608       ??_C@_02CJNFDJBF@PM?$AA@   000000018005c608     libucrt:nlsdata.obj
 0002:00009610       ??_C@_08BPBNCDIB@MM?1dd?1yy?$AA@ 000000018005c610     libucrt:nlsdata.obj
 0002:00009620       ??_C@_0BE@CKGJFCPC@dddd?0?5MMMM?5dd?0?5yyyy?$AA@ 000000018005c620     libucrt:nlsdata.obj
 0002:00009638       ??_C@_08JCCMCCIL@HH?3mm?3ss?$AA@ 000000018005c638     libucrt:nlsdata.obj
 0002:00009648       ??_C@_17MBGCMIPB@?$AAS?$AAu?$AAn?$AA?$AA@ 000000018005c648     libucrt:nlsdata.obj
 0002:00009650       ??_C@_17KBOMKBF@?$AAM?$AAo?$AAn?$AA?$AA@ 000000018005c650     libucrt:nlsdata.obj
 0002:00009658       ??_C@_17BMKGEGOJ@?$AAT?$AAu?$AAe?$AA?$AA@ 000000018005c658     libucrt:nlsdata.obj
 0002:00009660       ??_C@_17CJEDCEPE@?$AAW?$AAe?$AAd?$AA?$AA@ 000000018005c660     libucrt:nlsdata.obj
 0002:00009668       ??_C@_17PDPHAADD@?$AAT?$AAh?$AAu?$AA?$AA@ 000000018005c668     libucrt:nlsdata.obj
 0002:00009670       ??_C@_17HFOLPPLP@?$AAF?$AAr?$AAi?$AA?$AA@ 000000018005c670     libucrt:nlsdata.obj
 0002:00009678       ??_C@_17GGIBDPIH@?$AAS?$AAa?$AAt?$AA?$AA@ 000000018005c678     libucrt:nlsdata.obj
 0002:00009680       ??_C@_1O@IHNHDHPB@?$AAS?$AAu?$AAn?$AAd?$AAa?$AAy?$AA?$AA@ 000000018005c680     libucrt:nlsdata.obj
 0002:00009690       ??_C@_1O@MMNBFLIA@?$AAM?$AAo?$AAn?$AAd?$AAa?$AAy?$AA?$AA@ 000000018005c690     libucrt:nlsdata.obj
 0002:000096a0       ??_C@_1BA@ENFBFFEK@?$AAT?$AAu?$AAe?$AAs?$AAd?$AAa?$AAy?$AA?$AA@ 000000018005c6a0     libucrt:nlsdata.obj
 0002:000096b0       ??_C@_1BE@EBOGMDOH@?$AAW?$AAe?$AAd?$AAn?$AAe?$AAs?$AAd?$AAa?$AAy?$AA?$AA@ 000000018005c6b0     libucrt:nlsdata.obj
 0002:000096c8       ??_C@_1BC@HHMNLIHE@?$AAT?$AAh?$AAu?$AAr?$AAs?$AAd?$AAa?$AAy?$AA?$AA@ 000000018005c6c8     libucrt:nlsdata.obj
 0002:000096e0       ??_C@_1O@PDICJHAG@?$AAF?$AAr?$AAi?$AAd?$AAa?$AAy?$AA?$AA@ 000000018005c6e0     libucrt:nlsdata.obj
 0002:000096f0       ??_C@_1BC@ENMNNPAJ@?$AAS?$AAa?$AAt?$AAu?$AAr?$AAd?$AAa?$AAy?$AA?$AA@ 000000018005c6f0     libucrt:nlsdata.obj
 0002:00009708       ??_C@_17DKNBKCHM@?$AAJ?$AAa?$AAn?$AA?$AA@ 000000018005c708     libucrt:nlsdata.obj
 0002:00009710       ??_C@_17LMDJEKJN@?$AAF?$AAe?$AAb?$AA?$AA@ 000000018005c710     libucrt:nlsdata.obj
 0002:00009718       ??_C@_17CKNLEDEC@?$AAM?$AAa?$AAr?$AA?$AA@ 000000018005c718     libucrt:nlsdata.obj
 0002:00009720       ??_C@_17LFPOIHDD@?$AAA?$AAp?$AAr?$AA?$AA@ 000000018005c720     libucrt:nlsdata.obj
 0002:00009728       ??_C@_17PNNKMEED@?$AAM?$AAa?$AAy?$AA?$AA@ 000000018005c728     libucrt:nlsdata.obj
 0002:00009730       ??_C@_17KCJGOCPB@?$AAJ?$AAu?$AAn?$AA?$AA@ 000000018005c730     libucrt:nlsdata.obj
 0002:00009738       ??_C@_17IJPCKHK@?$AAJ?$AAu?$AAl?$AA?$AA@ 000000018005c738     libucrt:nlsdata.obj
 0002:00009740       ??_C@_17ICPELBCN@?$AAA?$AAu?$AAg?$AA?$AA@ 000000018005c740     libucrt:nlsdata.obj
 0002:00009748       ??_C@_17HCHCOKMG@?$AAS?$AAe?$AAp?$AA?$AA@ 000000018005c748     libucrt:nlsdata.obj
 0002:00009750       ??_C@_17FNLKOI@?$AAO?$AAc?$AAt?$AA?$AA@ 000000018005c750     libucrt:nlsdata.obj
 0002:00009758       ??_C@_17BBDMLCIG@?$AAN?$AAo?$AAv?$AA?$AA@ 000000018005c758     libucrt:nlsdata.obj
 0002:00009760       ??_C@_17EGKACKIF@?$AAD?$AAe?$AAc?$AA?$AA@ 000000018005c760     libucrt:nlsdata.obj
 0002:00009768       ??_C@_1BA@EFMEIEBA@?$AAJ?$AAa?$AAn?$AAu?$AAa?$AAr?$AAy?$AA?$AA@ 000000018005c768     libucrt:nlsdata.obj
 0002:00009778       ??_C@_1BC@JGDDFFAM@?$AAF?$AAe?$AAb?$AAr?$AAu?$AAa?$AAr?$AAy?$AA?$AA@ 000000018005c778     libucrt:nlsdata.obj
 0002:00009790       ??_C@_1M@IKEENEDF@?$AAM?$AAa?$AAr?$AAc?$AAh?$AA?$AA@ 000000018005c790     libucrt:nlsdata.obj
 0002:000097a0       ??_C@_1M@GJNLMHFD@?$AAA?$AAp?$AAr?$AAi?$AAl?$AA?$AA@ 000000018005c7a0     libucrt:nlsdata.obj
 0002:000097b0       ??_C@_19EPFLPGAP@?$AAJ?$AAu?$AAn?$AAe?$AA?$AA@ 000000018005c7b0     libucrt:nlsdata.obj
 0002:000097c0       ??_C@_19BIFMLPCD@?$AAJ?$AAu?$AAl?$AAy?$AA?$AA@ 000000018005c7c0     libucrt:nlsdata.obj
 0002:000097d0       ??_C@_1O@PAHLKOAC@?$AAA?$AAu?$AAg?$AAu?$AAs?$AAt?$AA?$AA@ 000000018005c7d0     libucrt:nlsdata.obj
 0002:000097e0       ??_C@_1BE@DKAAMBJL@?$AAS?$AAe?$AAp?$AAt?$AAe?$AAm?$AAb?$AAe?$AAr?$AA?$AA@ 000000018005c7e0     libucrt:nlsdata.obj
 0002:000097f8       ??_C@_1BA@EPANDLNG@?$AAO?$AAc?$AAt?$AAo?$AAb?$AAe?$AAr?$AA?$AA@ 000000018005c7f8     libucrt:nlsdata.obj
 0002:00009808       ??_C@_1BC@BGLIFPF@?$AAN?$AAo?$AAv?$AAe?$AAm?$AAb?$AAe?$AAr?$AA?$AA@ 000000018005c808     libucrt:nlsdata.obj
 0002:00009820       ??_C@_1BC@FEMKIFH@?$AAD?$AAe?$AAc?$AAe?$AAm?$AAb?$AAe?$AAr?$AA?$AA@ 000000018005c820     libucrt:nlsdata.obj
 0002:00009834       ??_C@_15ODEHAHHF@?$AAA?$AAM?$AA?$AA@ 000000018005c834     libucrt:nlsdata.obj
 0002:0000983c       ??_C@_15CLMNNGEL@?$AAP?$AAM?$AA?$AA@ 000000018005c83c     libucrt:nlsdata.obj
 0002:00009848       ??_C@_1BC@IEBCMHCM@?$AAM?$AAM?$AA?1?$AAd?$AAd?$AA?1?$AAy?$AAy?$AA?$AA@ 000000018005c848     libucrt:nlsdata.obj
 0002:00009860       ??_C@_1CI@KNAKOEBC@?$AAd?$AAd?$AAd?$AAd?$AA?0?$AA?5?$AAM?$AAM?$AAM?$AAM?$AA?5?$AAd?$AAd?$AA?0?$AA?5?$AAy?$AAy?$AAy?$AAy?$AA?$AA@ 000000018005c860     libucrt:nlsdata.obj
 0002:00009888       ??_C@_1BC@GDGBMEMK@?$AAH?$AAH?$AA?3?$AAm?$AAm?$AA?3?$AAs?$AAs?$AA?$AA@ 000000018005c888     libucrt:nlsdata.obj
 0002:00009a70       ??_C@_03KHJOGHMM@exp?$AA@  000000018005ca70     libucrt:fpexcept.obj
 0002:00009a74       ??_C@_03JGHBODFD@pow?$AA@  000000018005ca74     libucrt:fpexcept.obj
 0002:00009a78       ??_C@_03MGHMBJCF@log?$AA@  000000018005ca78     libucrt:fpexcept.obj
 0002:00009a7c       ??_C@_05HGHHAHAP@log10?$AA@ 000000018005ca7c     libucrt:fpexcept.obj
 0002:00009a84       ??_C@_04COOMCNPB@sinh?$AA@ 000000018005ca84     libucrt:fpexcept.obj
 0002:00009a8c       ??_C@_04HPJJNFIM@cosh?$AA@ 000000018005ca8c     libucrt:fpexcept.obj
 0002:00009a94       ??_C@_04FJHINJAO@tanh?$AA@ 000000018005ca94     libucrt:fpexcept.obj
 0002:00009a9c       ??_C@_04FIHNOPOL@asin?$AA@ 000000018005ca9c     libucrt:fpexcept.obj
 0002:00009aa4       ??_C@_04PDIFKINK@acos?$AA@ 000000018005caa4     libucrt:fpexcept.obj
 0002:00009aac       ??_C@_04MLLJIGOK@atan?$AA@ 000000018005caac     libucrt:fpexcept.obj
 0002:00009ab4       ??_C@_05KNGEOGJB@atan2?$AA@ 000000018005cab4     libucrt:fpexcept.obj
 0002:00009abc       ??_C@_04EIAKFFMI@sqrt?$AA@ 000000018005cabc     libucrt:fpexcept.obj
 0002:00009ac4       ??_C@_03BLEJJJBH@sin?$AA@  000000018005cac4     libucrt:fpexcept.obj
 0002:00009ac8       ??_C@_03LALBNOCG@cos?$AA@  000000018005cac8     libucrt:fpexcept.obj
 0002:00009acc       ??_C@_03IIINPABG@tan?$AA@  000000018005cacc     libucrt:fpexcept.obj
 0002:00009ad0       ??_C@_04GFPJNGEK@ceil?$AA@ 000000018005cad0     libucrt:fpexcept.obj
 0002:00009ad8       ??_C@_05PBJFFIGL@floor?$AA@ 000000018005cad8     libucrt:fpexcept.obj
 0002:00009ae0       ??_C@_04ODHECPBC@fabs?$AA@ 000000018005cae0     libucrt:fpexcept.obj
 0002:00009ae8       ??_C@_04EHEDPDJG@modf?$AA@ 000000018005cae8     libucrt:fpexcept.obj
 0002:00009af0       ??_C@_05CEJMAHNP@ldexp?$AA@ 000000018005caf0     libucrt:fpexcept.obj
 0002:00009af8       ??_C@_05KBKMEMPO@_cabs?$AA@ 000000018005caf8     libucrt:fpexcept.obj
 0002:00009b00       ??_C@_06MEIMCGCF@_hypot?$AA@ 000000018005cb00     libucrt:fpexcept.obj
 0002:00009b08       ??_C@_04KEPJIHGP@fmod?$AA@ 000000018005cb08     libucrt:fpexcept.obj
 0002:00009b10       ??_C@_05GKKHEGJL@frexp?$AA@ 000000018005cb10     libucrt:fpexcept.obj
 0002:00009b18       ??_C@_03MJLDFKDL@_y0?$AA@  000000018005cb18     libucrt:fpexcept.obj
 0002:00009b1c       ??_C@_03NAKIGLHK@_y1?$AA@  000000018005cb1c     libucrt:fpexcept.obj
 0002:00009b20       ??_C@_03ONILCKOB@_yn?$AA@  000000018005cb20     libucrt:fpexcept.obj
 0002:00009b24       ??_C@_05JGDBENOH@_logb?$AA@ 000000018005cb24     libucrt:fpexcept.obj
 0002:00009b30       ??_C@_0L@KDOEJCKC@_nextafter?$AA@ 000000018005cb30     libucrt:fpexcept.obj
 0002:00009b40       _d_inf                     000000018005cb40     libucrt:util.obj
 0002:00009b48       _d_max                     000000018005cb48     libucrt:util.obj
 0002:00009bf0       ??_C@_1EG@CNNIPFIM@?$AAa?$AAp?$AAi?$AA?9?$AAm?$AAs?$AA?9?$AAw?$AAi?$AAn?$AA?9?$AAa?$AAp?$AAp?$AAm?$AAo?$AAd?$AAe?$AAl?$AA?9?$AAr?$AAu?$AAn?$AAt?$AAi?$AAm?$AAe?$AA?9?$AAl?$AA1?$AA?9?$AA1@ 000000018005cbf0     libucrt:winapi_thunks.obj
 0002:00009c40       ??_C@_1EA@JGEFHKEI@?$AAa?$AAp?$AAi?$AA?9?$AAm?$AAs?$AA?9?$AAw?$AAi?$AAn?$AA?9?$AAc?$AAo?$AAr?$AAe?$AA?9?$AAd?$AAa?$AAt?$AAe?$AAt?$AAi?$AAm?$AAe?$AA?9?$AAl?$AA1?$AA?9?$AA1?$AA?9?$AA1?$AA?$AA@ 000000018005cc40     libucrt:winapi_thunks.obj
 0002:00009c80       ??_C@_1DI@GCIAAENM@?$AAa?$AAp?$AAi?$AA?9?$AAm?$AAs?$AA?9?$AAw?$AAi?$AAn?$AA?9?$AAc?$AAo?$AAr?$AAe?$AA?9?$AAf?$AAi?$AAl?$AAe?$AA?9?$AAl?$AA2?$AA?9?$AA1?$AA?9?$AA1?$AA?$AA@ 000000018005cc80     libucrt:winapi_thunks.obj
 0002:00009cc0       ??_C@_1EI@MPIAOHOC@?$AAa?$AAp?$AAi?$AA?9?$AAm?$AAs?$AA?9?$AAw?$AAi?$AAn?$AA?9?$AAc?$AAo?$AAr?$AAe?$AA?9?$AAl?$AAo?$AAc?$AAa?$AAl?$AAi?$AAz?$AAa?$AAt?$AAi?$AAo?$AAn?$AA?9?$AAl?$AA1?$AA?9@ 000000018005ccc0     libucrt:winapi_thunks.obj
 0002:00009d10       ??_C@_1FK@FPHCKFIE@?$AAa?$AAp?$AAi?$AA?9?$AAm?$AAs?$AA?9?$AAw?$AAi?$AAn?$AA?9?$AAc?$AAo?$AAr?$AAe?$AA?9?$AAl?$AAo?$AAc?$AAa?$AAl?$AAi?$AAz?$AAa?$AAt?$AAi?$AAo?$AAn?$AA?9?$AAo?$AAb?$AAs@ 000000018005cd10     libucrt:winapi_thunks.obj
 0002:00009d70       ??_C@_1EM@DILCGIIO@?$AAa?$AAp?$AAi?$AA?9?$AAm?$AAs?$AA?9?$AAw?$AAi?$AAn?$AA?9?$AAc?$AAo?$AAr?$AAe?$AA?9?$AAp?$AAr?$AAo?$AAc?$AAe?$AAs?$AAs?$AAt?$AAh?$AAr?$AAe?$AAa?$AAd?$AAs?$AA?9?$AAl@ 000000018005cd70     libucrt:winapi_thunks.obj
 0002:00009dc0       ??_C@_1DM@LNCGDDPN@?$AAa?$AAp?$AAi?$AA?9?$AAm?$AAs?$AA?9?$AAw?$AAi?$AAn?$AA?9?$AAc?$AAo?$AAr?$AAe?$AA?9?$AAs?$AAt?$AAr?$AAi?$AAn?$AAg?$AA?9?$AAl?$AA1?$AA?9?$AA1?$AA?9?$AA0?$AA?$AA@ 000000018005cdc0     libucrt:winapi_thunks.obj
 0002:00009e00       ??_C@_1DO@FPAPJEMD@?$AAa?$AAp?$AAi?$AA?9?$AAm?$AAs?$AA?9?$AAw?$AAi?$AAn?$AA?9?$AAc?$AAo?$AAr?$AAe?$AA?9?$AAs?$AAy?$AAs?$AAi?$AAn?$AAf?$AAo?$AA?9?$AAl?$AA1?$AA?9?$AA2?$AA?9?$AA1?$AA?$AA@ 000000018005ce00     libucrt:winapi_thunks.obj
 0002:00009e40       ??_C@_1DK@NDHNAHIO@?$AAa?$AAp?$AAi?$AA?9?$AAm?$AAs?$AA?9?$AAw?$AAi?$AAn?$AA?9?$AAc?$AAo?$AAr?$AAe?$AA?9?$AAw?$AAi?$AAn?$AAr?$AAt?$AA?9?$AAl?$AA1?$AA?9?$AA1?$AA?9?$AA0?$AA?$AA@ 000000018005ce40     libucrt:winapi_thunks.obj
 0002:00009e80       ??_C@_1DM@KGHDGBCM@?$AAa?$AAp?$AAi?$AA?9?$AAm?$AAs?$AA?9?$AAw?$AAi?$AAn?$AA?9?$AAc?$AAo?$AAr?$AAe?$AA?9?$AAx?$AAs?$AAt?$AAa?$AAt?$AAe?$AA?9?$AAl?$AA2?$AA?9?$AA1?$AA?9?$AA0?$AA?$AA@ 000000018005ce80     libucrt:winapi_thunks.obj
 0002:00009ec0       ??_C@_1EO@IJIOEFOH@?$AAa?$AAp?$AAi?$AA?9?$AAm?$AAs?$AA?9?$AAw?$AAi?$AAn?$AA?9?$AAr?$AAt?$AAc?$AAo?$AAr?$AAe?$AA?9?$AAn?$AAt?$AAu?$AAs?$AAe?$AAr?$AA?9?$AAw?$AAi?$AAn?$AAd?$AAo?$AAw?$AA?9@ 000000018005cec0     libucrt:winapi_thunks.obj
 0002:00009f10       ??_C@_1FG@HHGEKANL@?$AAa?$AAp?$AAi?$AA?9?$AAm?$AAs?$AA?9?$AAw?$AAi?$AAn?$AA?9?$AAs?$AAe?$AAc?$AAu?$AAr?$AAi?$AAt?$AAy?$AA?9?$AAs?$AAy?$AAs?$AAt?$AAe?$AAm?$AAf?$AAu?$AAn?$AAc?$AAt?$AAi@ 000000018005cf10     libucrt:winapi_thunks.obj
 0002:00009f70       ??_C@_1FG@NCKKOLKO@?$AAe?$AAx?$AAt?$AA?9?$AAm?$AAs?$AA?9?$AAw?$AAi?$AAn?$AA?9?$AAk?$AAe?$AAr?$AAn?$AAe?$AAl?$AA3?$AA2?$AA?9?$AAp?$AAa?$AAc?$AAk?$AAa?$AAg?$AAe?$AA?9?$AAc?$AAu?$AAr?$AAr@ 000000018005cf70     libucrt:winapi_thunks.obj
 0002:00009fd0       ??_C@_1EG@DBIOJECG@?$AAe?$AAx?$AAt?$AA?9?$AAm?$AAs?$AA?9?$AAw?$AAi?$AAn?$AA?9?$AAn?$AAt?$AAu?$AAs?$AAe?$AAr?$AA?9?$AAd?$AAi?$AAa?$AAl?$AAo?$AAg?$AAb?$AAo?$AAx?$AA?9?$AAl?$AA1?$AA?9?$AA1@ 000000018005cfd0     libucrt:winapi_thunks.obj
 0002:0000a020       ??_C@_1EO@FIHMJCLF@?$AAe?$AAx?$AAt?$AA?9?$AAm?$AAs?$AA?9?$AAw?$AAi?$AAn?$AA?9?$AAn?$AAt?$AAu?$AAs?$AAe?$AAr?$AA?9?$AAw?$AAi?$AAn?$AAd?$AAo?$AAw?$AAs?$AAt?$AAa?$AAt?$AAi?$AAo?$AAn?$AA?9@ 000000018005d020     libucrt:winapi_thunks.obj
 0002:0000a070       ??_C@_1O@BCCLBEOE@?$AAu?$AAs?$AAe?$AAr?$AA3?$AA2?$AA?$AA@ 000000018005d070     libucrt:winapi_thunks.obj
 0002:0000a090       ??_C@_0BE@LJANKFHF@EnumSystemLocalesEx?$AA@ 000000018005d090     libucrt:winapi_thunks.obj
 0002:0000a0d0       ??_C@_0BA@HNOPNCHB@GetActiveWindow?$AA@ 000000018005d0d0     libucrt:winapi_thunks.obj
 0002:0000a0f0       ??_C@_0BA@EPCJIIPD@GetDateFormatEx?$AA@ 000000018005d0f0     libucrt:winapi_thunks.obj
 0002:0000a108       ??_C@_0BD@HHGDFDBJ@GetLastActivePopup?$AA@ 000000018005d108     libucrt:winapi_thunks.obj
 0002:0000a130       ??_C@_0BI@DFKBFLJE@GetProcessWindowStation?$AA@ 000000018005d130     libucrt:winapi_thunks.obj
 0002:0000a158       ??_C@_0BA@CIJJKCJJ@GetTimeFormatEx?$AA@ 000000018005d158     libucrt:winapi_thunks.obj
 0002:0000a170       ??_C@_0BJ@PBCCBIPI@GetUserDefaultLocaleName?$AA@ 000000018005d170     libucrt:winapi_thunks.obj
 0002:0000a198       ??_C@_0BK@DEKFELLI@GetUserObjectInformationW?$AA@ 000000018005d198     libucrt:winapi_thunks.obj
 0002:0000a1c8       ??_C@_0BC@CELBKLLA@IsValidLocaleName?$AA@ 000000018005d1c8     libucrt:winapi_thunks.obj
 0002:0000a1f0       ??_C@_0BB@CDHDDLLP@LCIDToLocaleName?$AA@ 000000018005d1f0     libucrt:winapi_thunks.obj
 0002:0000a210       ??_C@_0BB@HBDEELFH@LocaleNameToLCID?$AA@ 000000018005d210     libucrt:winapi_thunks.obj
 0002:0000a230       ??_C@_0M@CHKKJDAI@MessageBoxA?$AA@ 000000018005d230     libucrt:winapi_thunks.obj
 0002:0000a248       ??_C@_0M@DLDCCGNP@MessageBoxW?$AA@ 000000018005d248     libucrt:winapi_thunks.obj
 0002:0000a260       __log_256_lead             000000018005d260     libucrt:log_256_lead_tail_table.obj
 0002:0000aa70       __log_256_tail             000000018005da70     libucrt:log_256_lead_tail_table.obj
 0002:0000b280       __two_to_jby64_head_table  000000018005e280     libucrt:two_to_jby64_head_tail_table.obj
 0002:0000b480       __two_to_jby64_tail_table  000000018005e480     libucrt:two_to_jby64_head_tail_table.obj
 0002:0000b680       ??_C@_04MBFDLNIM@powf?$AA@ 000000018005e680     libucrt:pow_special.obj
 0002:0000b690       __two_to_jby64_table       000000018005e690     libucrt:two_to_jby64_table.obj
 0002:0000b890       __log_F_inv_qword          000000018005e890     libucrt:log_f_inv_qword_table.obj
 0002:0000c0c0       ??_C@_05DNEBIAHO@1?$CDINF?$AA@ 000000018005f0c0     libucrt:cfout.obj
 0002:0000c0c8       ??_C@_06IMKFLFPG@1?$CDQNAN?$AA@ 000000018005f0c8     libucrt:cfout.obj
 0002:0000c0d0       ??_C@_06PGGFOGJG@1?$CDSNAN?$AA@ 000000018005f0d0     libucrt:cfout.obj
 0002:0000c0d8       ??_C@_05PHHOCPM@1?$CDIND?$AA@ 000000018005f0d8     libucrt:cfout.obj
 0002:0000c0e0       __acrt_rg_language         000000018005f0e0     libucrt:get_qualified_locale.obj
 0002:0000c4f0       __acrt_rg_language_count   000000018005f4f0     libucrt:get_qualified_locale.obj
 0002:0000c500       __acrt_rg_country          000000018005f500     libucrt:get_qualified_locale.obj
 0002:0000c670       __acrt_rg_country_count    000000018005f670     libucrt:get_qualified_locale.obj
 0002:0000c678       ??_C@_1BC@LLOKLNP@?$AAa?$AAm?$AAe?$AAr?$AAi?$AAc?$AAa?$AAn?$AA?$AA@ 000000018005f678     libucrt:get_qualified_locale.obj
 0002:0000c690       ??_C@_1CC@HEIGCDGG@?$AAa?$AAm?$AAe?$AAr?$AAi?$AAc?$AAa?$AAn?$AA?5?$AAe?$AAn?$AAg?$AAl?$AAi?$AAs?$AAh?$AA?$AA@ 000000018005f690     libucrt:get_qualified_locale.obj
 0002:0000c6b8       ??_C@_1CC@IHCNOMIN@?$AAa?$AAm?$AAe?$AAr?$AAi?$AAc?$AAa?$AAn?$AA?9?$AAe?$AAn?$AAg?$AAl?$AAi?$AAs?$AAh?$AA?$AA@ 000000018005f6b8     libucrt:get_qualified_locale.obj
 0002:0000c6e0       ??_C@_1BG@GKAGPCGG@?$AAa?$AAu?$AAs?$AAt?$AAr?$AAa?$AAl?$AAi?$AAa?$AAn?$AA?$AA@ 000000018005f6e0     libucrt:get_qualified_locale.obj
 0002:0000c6f8       ??_C@_1BA@GMENCENF@?$AAb?$AAe?$AAl?$AAg?$AAi?$AAa?$AAn?$AA?$AA@ 000000018005f6f8     libucrt:get_qualified_locale.obj
 0002:0000c708       ??_C@_1BC@PJMIIAAN@?$AAc?$AAa?$AAn?$AAa?$AAd?$AAi?$AAa?$AAn?$AA?$AA@ 000000018005f708     libucrt:get_qualified_locale.obj
 0002:0000c720       ??_C@_17NOIMNFBF@?$AAc?$AAh?$AAh?$AA?$AA@ 000000018005f720     libucrt:get_qualified_locale.obj
 0002:0000c728       ??_C@_17GGDALCHA@?$AAc?$AAh?$AAi?$AA?$AA@ 000000018005f728     libucrt:get_qualified_locale.obj
 0002:0000c730       ??_C@_1BA@NPNJKIBL@?$AAc?$AAh?$AAi?$AAn?$AAe?$AAs?$AAe?$AA?$AA@ 000000018005f730     libucrt:get_qualified_locale.obj
 0002:0000c740       ??_C@_1CC@DINBAMMJ@?$AAc?$AAh?$AAi?$AAn?$AAe?$AAs?$AAe?$AA?9?$AAh?$AAo?$AAn?$AAg?$AAk?$AAo?$AAn?$AAg?$AA?$AA@ 000000018005f740     libucrt:get_qualified_locale.obj
 0002:0000c768       ??_C@_1CG@IOBJPACO@?$AAc?$AAh?$AAi?$AAn?$AAe?$AAs?$AAe?$AA?9?$AAs?$AAi?$AAm?$AAp?$AAl?$AAi?$AAf?$AAi?$AAe?$AAd?$AA?$AA@ 000000018005f768     libucrt:get_qualified_locale.obj
 0002:0000c790       ??_C@_1CE@GAJNDCKG@?$AAc?$AAh?$AAi?$AAn?$AAe?$AAs?$AAe?$AA?9?$AAs?$AAi?$AAn?$AAg?$AAa?$AAp?$AAo?$AAr?$AAe?$AA?$AA@ 000000018005f790     libucrt:get_qualified_locale.obj
 0002:0000c7b8       ??_C@_1CI@PAJPIOOD@?$AAc?$AAh?$AAi?$AAn?$AAe?$AAs?$AAe?$AA?9?$AAt?$AAr?$AAa?$AAd?$AAi?$AAt?$AAi?$AAo?$AAn?$AAa?$AAl?$AA?$AA@ 000000018005f7b8     libucrt:get_qualified_locale.obj
 0002:0000c7e0       ??_C@_1BM@NILJBMMD@?$AAd?$AAu?$AAt?$AAc?$AAh?$AA?9?$AAb?$AAe?$AAl?$AAg?$AAi?$AAa?$AAn?$AA?$AA@ 000000018005f7e0     libucrt:get_qualified_locale.obj
 0002:0000c800       ??_C@_1CC@OOJPJNEJ@?$AAe?$AAn?$AAg?$AAl?$AAi?$AAs?$AAh?$AA?9?$AAa?$AAm?$AAe?$AAr?$AAi?$AAc?$AAa?$AAn?$AA?$AA@ 000000018005f800     libucrt:get_qualified_locale.obj
 0002:0000c828       ??_C@_1BI@IOLFEEM@?$AAe?$AAn?$AAg?$AAl?$AAi?$AAs?$AAh?$AA?9?$AAa?$AAu?$AAs?$AA?$AA@ 000000018005f828     libucrt:get_qualified_locale.obj
 0002:0000c840       ??_C@_1BO@HFFNLENJ@?$AAe?$AAn?$AAg?$AAl?$AAi?$AAs?$AAh?$AA?9?$AAb?$AAe?$AAl?$AAi?$AAz?$AAe?$AA?$AA@ 000000018005f840     libucrt:get_qualified_locale.obj
 0002:0000c860       ??_C@_1BI@HAPKJMPO@?$AAe?$AAn?$AAg?$AAl?$AAi?$AAs?$AAh?$AA?9?$AAc?$AAa?$AAn?$AA?$AA@ 000000018005f860     libucrt:get_qualified_locale.obj
 0002:0000c878       ??_C@_1CE@HLNDMIOJ@?$AAe?$AAn?$AAg?$AAl?$AAi?$AAs?$AAh?$AA?9?$AAc?$AAa?$AAr?$AAi?$AAb?$AAb?$AAe?$AAa?$AAn?$AA?$AA@ 000000018005f878     libucrt:get_qualified_locale.obj
 0002:0000c8a0       ??_C@_1BI@LDHJHHAC@?$AAe?$AAn?$AAg?$AAl?$AAi?$AAs?$AAh?$AA?9?$AAi?$AAr?$AAe?$AA?$AA@ 000000018005f8a0     libucrt:get_qualified_locale.obj
 0002:0000c8b8       ??_C@_1CA@NJMMCFOC@?$AAe?$AAn?$AAg?$AAl?$AAi?$AAs?$AAh?$AA?9?$AAj?$AAa?$AAm?$AAa?$AAi?$AAc?$AAa?$AA?$AA@ 000000018005f8b8     libucrt:get_qualified_locale.obj
 0002:0000c8d8       ??_C@_1BG@BHJEBBGG@?$AAe?$AAn?$AAg?$AAl?$AAi?$AAs?$AAh?$AA?9?$AAn?$AAz?$AA?$AA@ 000000018005f8d8     libucrt:get_qualified_locale.obj
 0002:0000c8f0       ??_C@_1CK@FGOEJJCO@?$AAe?$AAn?$AAg?$AAl?$AAi?$AAs?$AAh?$AA?9?$AAs?$AAo?$AAu?$AAt?$AAh?$AA?5?$AAa?$AAf?$AAr?$AAi?$AAc?$AAa?$AA?$AA@ 000000018005f8f0     libucrt:get_qualified_locale.obj
 0002:0000c920       ??_C@_1DE@PDBJPCJ@?$AAe?$AAn?$AAg?$AAl?$AAi?$AAs?$AAh?$AA?9?$AAt?$AAr?$AAi?$AAn?$AAi?$AAd?$AAa?$AAd?$AA?5?$AAy?$AA?5?$AAt?$AAo?$AAb?$AAa?$AAg?$AAo?$AA?$AA@ 000000018005f920     libucrt:get_qualified_locale.obj
 0002:0000c958       ??_C@_1BG@JGCANDME@?$AAe?$AAn?$AAg?$AAl?$AAi?$AAs?$AAh?$AA?9?$AAu?$AAk?$AA?$AA@ 000000018005f958     libucrt:get_qualified_locale.obj
 0002:0000c970       ??_C@_1BG@DINKMLE@?$AAe?$AAn?$AAg?$AAl?$AAi?$AAs?$AAh?$AA?9?$AAu?$AAs?$AA?$AA@ 000000018005f970     libucrt:get_qualified_locale.obj
 0002:0000c988       ??_C@_1BI@NMFDBHJE@?$AAe?$AAn?$AAg?$AAl?$AAi?$AAs?$AAh?$AA?9?$AAu?$AAs?$AAa?$AA?$AA@ 000000018005f988     libucrt:get_qualified_locale.obj
 0002:0000c9a0       ??_C@_1BO@OIHKJKII@?$AAf?$AAr?$AAe?$AAn?$AAc?$AAh?$AA?9?$AAb?$AAe?$AAl?$AAg?$AAi?$AAa?$AAn?$AA?$AA@ 000000018005f9a0     libucrt:get_qualified_locale.obj
 0002:0000c9c0       ??_C@_1CA@NKAELJKI@?$AAf?$AAr?$AAe?$AAn?$AAc?$AAh?$AA?9?$AAc?$AAa?$AAn?$AAa?$AAd?$AAi?$AAa?$AAn?$AA?$AA@ 000000018005f9c0     libucrt:get_qualified_locale.obj
 0002:0000c9e0       ??_C@_1CE@MGKCNLGN@?$AAf?$AAr?$AAe?$AAn?$AAc?$AAh?$AA?9?$AAl?$AAu?$AAx?$AAe?$AAm?$AAb?$AAo?$AAu?$AAr?$AAg?$AA?$AA@ 000000018005f9e0     libucrt:get_qualified_locale.obj
 0002:0000ca08       ??_C@_1BK@CEGEAILM@?$AAf?$AAr?$AAe?$AAn?$AAc?$AAh?$AA?9?$AAs?$AAw?$AAi?$AAs?$AAs?$AA?$AA@ 000000018005fa08     libucrt:get_qualified_locale.obj
 0002:0000ca28       ??_C@_1CA@PAFKEOCC@?$AAg?$AAe?$AAr?$AAm?$AAa?$AAn?$AA?9?$AAa?$AAu?$AAs?$AAt?$AAr?$AAi?$AAa?$AAn?$AA?$AA@ 000000018005fa28     libucrt:get_qualified_locale.obj
 0002:0000ca48       ??_C@_1CI@HCFHGOFD@?$AAg?$AAe?$AAr?$AAm?$AAa?$AAn?$AA?9?$AAl?$AAi?$AAc?$AAh?$AAt?$AAe?$AAn?$AAs?$AAt?$AAe?$AAi?$AAn?$AA?$AA@ 000000018005fa48     libucrt:get_qualified_locale.obj
 0002:0000ca70       ??_C@_1CE@FEDDNPDG@?$AAg?$AAe?$AAr?$AAm?$AAa?$AAn?$AA?9?$AAl?$AAu?$AAx?$AAe?$AAm?$AAb?$AAo?$AAu?$AAr?$AAg?$AA?$AA@ 000000018005fa70     libucrt:get_qualified_locale.obj
 0002:0000ca98       ??_C@_1BK@LIMINNMN@?$AAg?$AAe?$AAr?$AAm?$AAa?$AAn?$AA?9?$AAs?$AAw?$AAi?$AAs?$AAs?$AA?$AA@ 000000018005fa98     libucrt:get_qualified_locale.obj
 0002:0000cab8       ??_C@_1BM@LGMDBEPD@?$AAi?$AAr?$AAi?$AAs?$AAh?$AA?9?$AAe?$AAn?$AAg?$AAl?$AAi?$AAs?$AAh?$AA?$AA@ 000000018005fab8     libucrt:get_qualified_locale.obj
 0002:0000cad8       ??_C@_1BM@NNCFBAEE@?$AAi?$AAt?$AAa?$AAl?$AAi?$AAa?$AAn?$AA?9?$AAs?$AAw?$AAi?$AAs?$AAs?$AA?$AA@ 000000018005fad8     libucrt:get_qualified_locale.obj
 0002:0000caf8       ??_C@_1BE@FEDJNPIB@?$AAn?$AAo?$AAr?$AAw?$AAe?$AAg?$AAi?$AAa?$AAn?$AA?$AA@ 000000018005faf8     libucrt:get_qualified_locale.obj
 0002:0000cb10       ??_C@_1CC@CILKDEIE@?$AAn?$AAo?$AAr?$AAw?$AAe?$AAg?$AAi?$AAa?$AAn?$AA?9?$AAb?$AAo?$AAk?$AAm?$AAa?$AAl?$AA?$AA@ 000000018005fb10     libucrt:get_qualified_locale.obj
 0002:0000cb38       ??_C@_1CE@DHMMHEPL@?$AAn?$AAo?$AAr?$AAw?$AAe?$AAg?$AAi?$AAa?$AAn?$AA?9?$AAn?$AAy?$AAn?$AAo?$AAr?$AAs?$AAk?$AA?$AA@ 000000018005fb38     libucrt:get_qualified_locale.obj
 0002:0000cb60       ??_C@_1CK@OPNMHECD@?$AAp?$AAo?$AAr?$AAt?$AAu?$AAg?$AAu?$AAe?$AAs?$AAe?$AA?9?$AAb?$AAr?$AAa?$AAz?$AAi?$AAl?$AAi?$AAa?$AAn?$AA?$AA@ 000000018005fb60     libucrt:get_qualified_locale.obj
 0002:0000cb90       ??_C@_1CE@KEEHCDB@?$AAs?$AAp?$AAa?$AAn?$AAi?$AAs?$AAh?$AA?9?$AAa?$AAr?$AAg?$AAe?$AAn?$AAt?$AAi?$AAn?$AAa?$AA?$AA@ 000000018005fb90     libucrt:get_qualified_locale.obj
 0002:0000cbb8       ??_C@_1CA@GIAOLHJD@?$AAs?$AAp?$AAa?$AAn?$AAi?$AAs?$AAh?$AA?9?$AAb?$AAo?$AAl?$AAi?$AAv?$AAi?$AAa?$AA?$AA@ 000000018005fbb8     libucrt:get_qualified_locale.obj
 0002:0000cbd8       ??_C@_1BM@OJNDFNPD@?$AAs?$AAp?$AAa?$AAn?$AAi?$AAs?$AAh?$AA?9?$AAc?$AAh?$AAi?$AAl?$AAe?$AA?$AA@ 000000018005fbd8     libucrt:get_qualified_locale.obj
 0002:0000cbf8       ??_C@_1CC@OCOLPALL@?$AAs?$AAp?$AAa?$AAn?$AAi?$AAs?$AAh?$AA?9?$AAc?$AAo?$AAl?$AAo?$AAm?$AAb?$AAi?$AAa?$AA?$AA@ 000000018005fbf8     libucrt:get_qualified_locale.obj
 0002:0000cc20       ??_C@_1CG@BPOFMKBB@?$AAs?$AAp?$AAa?$AAn?$AAi?$AAs?$AAh?$AA?9?$AAc?$AAo?$AAs?$AAt?$AAa?$AA?5?$AAr?$AAi?$AAc?$AAa?$AA?$AA@ 000000018005fc20     libucrt:get_qualified_locale.obj
 0002:0000cc48       ??_C@_1DG@IGOBAPBB@?$AAs?$AAp?$AAa?$AAn?$AAi?$AAs?$AAh?$AA?9?$AAd?$AAo?$AAm?$AAi?$AAn?$AAi?$AAc?$AAa?$AAn?$AA?5?$AAr?$AAe?$AAp?$AAu?$AAb?$AAl?$AAi?$AAc?$AA?$AA@ 000000018005fc48     libucrt:get_qualified_locale.obj
 0002:0000cc80       ??_C@_1CA@JHAPGEGI@?$AAs?$AAp?$AAa?$AAn?$AAi?$AAs?$AAh?$AA?9?$AAe?$AAc?$AAu?$AAa?$AAd?$AAo?$AAr?$AA?$AA@ 000000018005fc80     libucrt:get_qualified_locale.obj
 0002:0000cca0       ??_C@_1CI@LAPALJPP@?$AAs?$AAp?$AAa?$AAn?$AAi?$AAs?$AAh?$AA?9?$AAe?$AAl?$AA?5?$AAs?$AAa?$AAl?$AAv?$AAa?$AAd?$AAo?$AAr?$AA?$AA@ 000000018005fca0     libucrt:get_qualified_locale.obj
 0002:0000ccc8       ??_C@_1CE@PDGBOFOM@?$AAs?$AAp?$AAa?$AAn?$AAi?$AAs?$AAh?$AA?9?$AAg?$AAu?$AAa?$AAt?$AAe?$AAm?$AAa?$AAl?$AAa?$AA?$AA@ 000000018005fcc8     libucrt:get_qualified_locale.obj
 0002:0000ccf0       ??_C@_1CC@NBEBAODI@?$AAs?$AAp?$AAa?$AAn?$AAi?$AAs?$AAh?$AA?9?$AAh?$AAo?$AAn?$AAd?$AAu?$AAr?$AAa?$AAs?$AA?$AA@ 000000018005fcf0     libucrt:get_qualified_locale.obj
 0002:0000cd18       ??_C@_1CA@LLKGHBMF@?$AAs?$AAp?$AAa?$AAn?$AAi?$AAs?$AAh?$AA?9?$AAm?$AAe?$AAx?$AAi?$AAc?$AAa?$AAn?$AA?$AA@ 000000018005fd18     libucrt:get_qualified_locale.obj
 0002:0000cd38       ??_C@_1BO@LKNDOIGD@?$AAs?$AAp?$AAa?$AAn?$AAi?$AAs?$AAh?$AA?9?$AAm?$AAo?$AAd?$AAe?$AAr?$AAn?$AA?$AA@ 000000018005fd38     libucrt:get_qualified_locale.obj
 0002:0000cd58       ??_C@_1CE@NMDMOEEB@?$AAs?$AAp?$AAa?$AAn?$AAi?$AAs?$AAh?$AA?9?$AAn?$AAi?$AAc?$AAa?$AAr?$AAa?$AAg?$AAu?$AAa?$AA?$AA@ 000000018005fd58     libucrt:get_qualified_locale.obj
 0002:0000cd80       ??_C@_1BO@LLCBEJGB@?$AAs?$AAp?$AAa?$AAn?$AAi?$AAs?$AAh?$AA?9?$AAp?$AAa?$AAn?$AAa?$AAm?$AAa?$AA?$AA@ 000000018005fd80     libucrt:get_qualified_locale.obj
 0002:0000cda0       ??_C@_1CC@FKPGGIHO@?$AAs?$AAp?$AAa?$AAn?$AAi?$AAs?$AAh?$AA?9?$AAp?$AAa?$AAr?$AAa?$AAg?$AAu?$AAa?$AAy?$AA?$AA@ 000000018005fda0     libucrt:get_qualified_locale.obj
 0002:0000cdc8       ??_C@_1BK@CDEIHOOP@?$AAs?$AAp?$AAa?$AAn?$AAi?$AAs?$AAh?$AA?9?$AAp?$AAe?$AAr?$AAu?$AA?$AA@ 000000018005fdc8     libucrt:get_qualified_locale.obj
 0002:0000cde8       ??_C@_1CI@GAHAKKGP@?$AAs?$AAp?$AAa?$AAn?$AAi?$AAs?$AAh?$AA?9?$AAp?$AAu?$AAe?$AAr?$AAt?$AAo?$AA?5?$AAr?$AAi?$AAc?$AAo?$AA?$AA@ 000000018005fde8     libucrt:get_qualified_locale.obj
 0002:0000ce10       ??_C@_1CA@NKJBCAGP@?$AAs?$AAp?$AAa?$AAn?$AAi?$AAs?$AAh?$AA?9?$AAu?$AAr?$AAu?$AAg?$AAu?$AAa?$AAy?$AA?$AA@ 000000018005fe10     libucrt:get_qualified_locale.obj
 0002:0000ce30       ??_C@_1CE@ODILCONM@?$AAs?$AAp?$AAa?$AAn?$AAi?$AAs?$AAh?$AA?9?$AAv?$AAe?$AAn?$AAe?$AAz?$AAu?$AAe?$AAl?$AAa?$AA?$AA@ 000000018005fe30     libucrt:get_qualified_locale.obj
 0002:0000ce58       ??_C@_1CA@OBNMCGFO@?$AAs?$AAw?$AAe?$AAd?$AAi?$AAs?$AAh?$AA?9?$AAf?$AAi?$AAn?$AAl?$AAa?$AAn?$AAd?$AA?$AA@ 000000018005fe58     libucrt:get_qualified_locale.obj
 0002:0000ce78       ??_C@_1M@PIPDDPPI@?$AAs?$AAw?$AAi?$AAs?$AAs?$AA?$AA@ 000000018005fe78     libucrt:get_qualified_locale.obj
 0002:0000ce84       ??_C@_15GMFIMNFM@?$AAu?$AAs?$AA?$AA@ 000000018005fe84     libucrt:get_qualified_locale.obj
 0002:0000ce90       ??_C@_17HAEBFAGL@?$AAu?$AAs?$AAa?$AA?$AA@ 000000018005fe90     libucrt:get_qualified_locale.obj
 0002:0000ce98       ??_C@_1BA@DPFJEPHB@?$AAa?$AAm?$AAe?$AAr?$AAi?$AAc?$AAa?$AA?$AA@ 000000018005fe98     libucrt:get_qualified_locale.obj
 0002:0000cea8       ??_C@_1BA@ELOGGFK@?$AAb?$AAr?$AAi?$AAt?$AAa?$AAi?$AAn?$AA?$AA@ 000000018005fea8     libucrt:get_qualified_locale.obj
 0002:0000ceb8       ??_C@_1M@GHBGIGDA@?$AAc?$AAh?$AAi?$AAn?$AAa?$AA?$AA@ 000000018005feb8     libucrt:get_qualified_locale.obj
 0002:0000cec8       ??_C@_1M@NCHEJOPO@?$AAc?$AAz?$AAe?$AAc?$AAh?$AA?$AA@ 000000018005fec8     libucrt:get_qualified_locale.obj
 0002:0000ced8       ??_C@_1BA@BKPAPBLA@?$AAe?$AAn?$AAg?$AAl?$AAa?$AAn?$AAd?$AA?$AA@ 000000018005fed8     libucrt:get_qualified_locale.obj
 0002:0000cee8       ??_C@_1BM@HKBCKIPC@?$AAg?$AAr?$AAe?$AAa?$AAt?$AA?5?$AAb?$AAr?$AAi?$AAt?$AAa?$AAi?$AAn?$AA?$AA@ 000000018005fee8     libucrt:get_qualified_locale.obj
 0002:0000cf08       ??_C@_1BA@PPCHPGJB@?$AAh?$AAo?$AAl?$AAl?$AAa?$AAn?$AAd?$AA?$AA@ 000000018005ff08     libucrt:get_qualified_locale.obj
 0002:0000cf18       ??_C@_1BE@JBMPEGDG@?$AAh?$AAo?$AAn?$AAg?$AA?9?$AAk?$AAo?$AAn?$AAg?$AA?$AA@ 000000018005ff18     libucrt:get_qualified_locale.obj
 0002:0000cf30       ??_C@_1BI@KOELBBPJ@?$AAn?$AAe?$AAw?$AA?9?$AAz?$AAe?$AAa?$AAl?$AAa?$AAn?$AAd?$AA?$AA@ 000000018005ff30     libucrt:get_qualified_locale.obj
 0002:0000cf48       ??_C@_15HIEBHAIO@?$AAn?$AAz?$AA?$AA@ 000000018005ff48     libucrt:get_qualified_locale.obj
 0002:0000cf50       ??_C@_1BC@CHBCPFPI@?$AAp?$AAr?$AA?5?$AAc?$AAh?$AAi?$AAn?$AAa?$AA?$AA@ 000000018005ff50     libucrt:get_qualified_locale.obj
 0002:0000cf68       ??_C@_1BC@JAOIIFKD@?$AAp?$AAr?$AA?9?$AAc?$AAh?$AAi?$AAn?$AAa?$AA?$AA@ 000000018005ff68     libucrt:get_qualified_locale.obj
 0002:0000cf80       ??_C@_1BI@BEHPPHKC@?$AAp?$AAu?$AAe?$AAr?$AAt?$AAo?$AA?9?$AAr?$AAi?$AAc?$AAo?$AA?$AA@ 000000018005ff80     libucrt:get_qualified_locale.obj
 0002:0000cf98       ??_C@_1O@PAEOFKDI@?$AAs?$AAl?$AAo?$AAv?$AAa?$AAk?$AA?$AA@ 000000018005ff98     libucrt:get_qualified_locale.obj
 0002:0000cfa8       ??_C@_1BK@FIHMCKAM@?$AAs?$AAo?$AAu?$AAt?$AAh?$AA?5?$AAa?$AAf?$AAr?$AAi?$AAc?$AAa?$AA?$AA@ 000000018005ffa8     libucrt:get_qualified_locale.obj
 0002:0000cfc8       ??_C@_1BI@NAEOODKB@?$AAs?$AAo?$AAu?$AAt?$AAh?$AA?5?$AAk?$AAo?$AAr?$AAe?$AAa?$AA?$AA@ 000000018005ffc8     libucrt:get_qualified_locale.obj
 0002:0000cfe0       ??_C@_1BK@FBDGGIFF@?$AAs?$AAo?$AAu?$AAt?$AAh?$AA?9?$AAa?$AAf?$AAr?$AAi?$AAc?$AAa?$AA?$AA@ 000000018005ffe0     libucrt:get_qualified_locale.obj
 0002:0000d000       ??_C@_1BI@GHLEJDPK@?$AAs?$AAo?$AAu?$AAt?$AAh?$AA?9?$AAk?$AAo?$AAr?$AAe?$AAa?$AA?$AA@ 0000000180060000     libucrt:get_qualified_locale.obj
 0002:0000d018       ??_C@_1CE@PLHLOMJF@?$AAt?$AAr?$AAi?$AAn?$AAi?$AAd?$AAa?$AAd?$AA?5?$AA?$CG?$AA?5?$AAt?$AAo?$AAb?$AAa?$AAg?$AAo?$AA?$AA@ 0000000180060018     libucrt:get_qualified_locale.obj
 0002:0000d040       ??_C@_1BO@MODIMHHI@?$AAu?$AAn?$AAi?$AAt?$AAe?$AAd?$AA?9?$AAk?$AAi?$AAn?$AAg?$AAd?$AAo?$AAm?$AA?$AA@ 0000000180060040     libucrt:get_qualified_locale.obj
 0002:0000d060       ??_C@_1BM@FFHJONBJ@?$AAu?$AAn?$AAi?$AAt?$AAe?$AAd?$AA?9?$AAs?$AAt?$AAa?$AAt?$AAe?$AAs?$AA?$AA@ 0000000180060060     libucrt:get_qualified_locale.obj
 0002:0000d080       ??_C@_17DNCLJFIF@?$AAA?$AAC?$AAP?$AA?$AA@ 0000000180060080     libucrt:get_qualified_locale.obj
 0002:0000d088       ??_C@_17CIKBIHLH@?$AAO?$AAC?$AAP?$AA?$AA@ 0000000180060088     libucrt:get_qualified_locale.obj
 0002:0000d090       __rglangidNotDefault       0000000180060090     libucrt:getqloc_downlevel.obj
 0002:0000ef90       __log10_256_lead           0000000180061f90     libucrt:log10_256_lead_tail_table.obj
 0002:0000f7a0       __log10_256_tail           00000001800627a0     libucrt:log10_256_lead_tail_table.obj
 0002:0000ffa8       ??_C@_1BA@BALFACEM@?$AAC?$AAO?$AAN?$AAO?$AAU?$AAT?$AA$?$AA?$AA@ 0000000180062fa8     libucrt:initcon.obj
 0002:0000ffb8       ??_C@_1BK@DBDEIDLH@?$AAK?$AAE?$AAR?$AAN?$AAE?$AAL?$AA3?$AA2?$AA?4?$AAD?$AAL?$AAL?$AA?$AA@ 0000000180062fb8     DelayImp:delayhlp.obj
 0002:0000ffd8       __pfnDliFailureHook2       0000000180062fd8     DelayImp:delayhk1.obj
 0002:0000ffe0       _load_config_used          0000000180062fe0     LIBCMT:loadcfg.obj
 0002:00010078       ??_C@_0BG@KCAIGPHN@?4?4?2src?2node_snap7?4cpp?$AA@ 0000000180063078     node_snap7.obj
 0002:00010090       ??_C@_0L@BGPHKFLI@node_snap7?$AA@ 0000000180063090     node_snap7.obj
 0002:000100a0       ??_C@_0BC@BDKFLDHL@unknown?5exception?$AA@ 00000001800630a0     node_snap7_client.obj
 0002:000100b8       ??_C@_0BA@ELKIONDK@bad?5locale?5name?$AA@ 00000001800630b8     node_snap7_client.obj
 0002:000100c8       ??_C@_05LAPONLG@false?$AA@ 00000001800630c8     node_snap7_client.obj
 0002:000100d0       ??_C@_04LOAJBDKD@true?$AA@ 00000001800630d0     node_snap7_client.obj
 0002:000100d5       ??_C@_00CNPNBAHC@?$AA@     00000001800630d5     node_snap7_client.obj
 0002:000100d8       ??_C@_02LMMGGCAJ@?3?5?$AA@ 00000001800630d8     node_snap7_client.obj
 0002:000100e0       ??_C@_08LLGCOLLL@iostream?$AA@ 00000001800630e0     node_snap7_client.obj
 0002:000100f0       ??_C@_0BG@PADBLCHM@iostream?5stream?5error?$AA@ 00000001800630f0     node_snap7_client.obj
 0002:00010108       ??_C@_0BF@PHHKMMFD@ios_base?3?3badbit?5set?$AA@ 0000000180063108     node_snap7_client.obj
 0002:00010120       ??_C@_0BG@FMKFHCIL@ios_base?3?3failbit?5set?$AA@ 0000000180063120     node_snap7_client.obj
 0002:00010138       ??_C@_0BF@OOHOMBOF@ios_base?3?3eofbit?5set?$AA@ 0000000180063138     node_snap7_client.obj
 0002:00010150       ??_C@_1DG@OKCGPKIB@?$AAp?$AAe?$AAr?$AAs?$AAi?$AAs?$AAt?$AAe?$AAn?$AAt?$AA?$CI?$AA?$CJ?$AA?4?$AAI?$AAs?$AAN?$AAe?$AAa?$AAr?$AAD?$AAe?$AAa?$AAt?$AAh?$AA?$CI?$AA?$CJ?$AA?$AA@ 0000000180063150     node_snap7_client.obj
 0002:00010188       ??_C@_1CO@EGNPJLKI@?$AAp?$AAe?$AAr?$AAs?$AAi?$AAs?$AAt?$AAe?$AAn?$AAt?$AA?$CI?$AA?$CJ?$AA?4?$AAI?$AAs?$AAE?$AAm?$AAp?$AAt?$AAy?$AA?$CI?$AA?$CJ?$AA?$AA@ 0000000180063188     node_snap7_client.obj
 0002:000101b8       ??_C@_1DA@FBGAEOIO@?$AA?$CB?$AAp?$AAe?$AAr?$AAs?$AAi?$AAs?$AAt?$AAe?$AAn?$AAt?$AA?$CI?$AA?$CJ?$AA?4?$AAI?$AAs?$AAE?$AAm?$AAp?$AAt?$AAy?$AA?$CI?$AA?$CJ?$AA?$AA@ 00000001800631b8     node_snap7_client.obj
 0002:000101e8       ??_C@_1CO@JCKLEFMA@?$AA?$CB?$AAp?$AAe?$AAr?$AAs?$AAi?$AAs?$AAt?$AAe?$AAn?$AAt?$AA?$CI?$AA?$CJ?$AA?4?$AAI?$AAs?$AAW?$AAe?$AAa?$AAk?$AA?$CI?$AA?$CJ?$AA?$AA@ 00000001800631e8     node_snap7_client.obj
 0002:00010218       ??_C@_1BE@GMLLOIPJ@?$AAr?$AAe?$AAf?$AAs?$AA_?$AA?5?$AA?$DO?$AA?5?$AA0?$AA?$AA@ 0000000180063218     node_snap7_client.obj
 0002:00010230       ??_C@_1CC@GBFLAAPF@?$AAw?$AAr?$AAa?$AAp?$AA?9?$AA?$DO?$AAr?$AAe?$AAf?$AAs?$AA_?$AA?5?$AA?$DN?$AA?$DN?$AA?5?$AA0?$AA?$AA@ 0000000180063230     node_snap7_client.obj
 0002:00010258       ??_C@_0BA@JFNIOLAK@string?5too?5long?$AA@ 0000000180063258     node_snap7_client.obj
 0002:00010270       ??_C@_1IA@DFPCBNN@?$AAD?$AA?3?$AA?2?$AAx?$AAa?$AAm?$AAp?$AAp?$AA?2?$AAh?$AAt?$AAd?$AAo?$AAc?$AAs?$AA?2?$AAb?$AAm?$AAa?$AA?2?$AAb?$AAm?$AAa?$AA?9?$AAd?$AAi?$AAn?$AAe?$AAx?$AA?9?$AAr?$AAe@ 0000000180063270     node_snap7_client.obj
 0002:000102f0       ??_C@_1GA@PFOOBIAG@?$AAl?$AAe?$AAn?$AAg?$AAt?$AAh?$AA?5?$AA?$DM?$AA?$DN?$AA?5?$AAi?$AAm?$AAp?$AA?3?$AA?3?$AAk?$AAM?$AAa?$AAx?$AAL?$AAe?$AAn?$AAg?$AAt?$AAh?$AA?5?$AA?$CG?$AA?$CG?$AA?5?$AA?$CC?$AAt?$AAo@ 00000001800632f0     node_snap7_client.obj
 0002:00010350       ??_C@_1BO@OPFMAOCA@?$AAl?$AAe?$AAn?$AA?5?$AA?$DM?$AA?$DN?$AA?5?$AAI?$AAN?$AAT?$AA_?$AAM?$AAA?$AAX?$AA?$AA@ 0000000180063350     node_snap7_client.obj
 0002:00010370       ??_C@_1BE@CKDJNAPC@?$AAs?$AAt?$AAr?$AA_?$AA?5?$AA?$CB?$AA?$DN?$AA?5?$AA0?$AA?$AA@ 0000000180063370     node_snap7_client.obj
 0002:00010390       ??_C@_1JI@OHEJNKDK@?$AAd?$AA?3?$AA?2?$AAx?$AAa?$AAm?$AAp?$AAp?$AA?2?$AAh?$AAt?$AAd?$AAo?$AAc?$AAs?$AA?2?$AAb?$AAm?$AAa?$AA?2?$AAb?$AAm?$AAa?$AA?9?$AAd?$AAi?$AAn?$AAe?$AAx?$AA?9?$AAr?$AAe@ 0000000180063390     node_snap7_client.obj
 0002:00010430       ??_C@_1EC@MGGLMBLC@?$AAo?$AAb?$AAj?$AAe?$AAc?$AAt?$AA?9?$AA?$DO?$AAI?$AAn?$AAt?$AAe?$AAr?$AAn?$AAa?$AAl?$AAF?$AAi?$AAe?$AAl?$AAd?$AAC?$AAo?$AAu?$AAn?$AAt?$AA?$CI?$AA?$CJ?$AA?5?$AA?$DO?$AA?5?$AA0@ 0000000180063430     node_snap7_client.obj
 0002:00010478       ??_C@_1DI@ELDBKNAK@?$AAw?$AAr?$AAa?$AAp?$AA?9?$AA?$DO?$AAh?$AAa?$AAn?$AAd?$AAl?$AAe?$AA_?$AA?4?$AAI?$AAs?$AAN?$AAe?$AAa?$AAr?$AAD?$AAe?$AAa?$AAt?$AAh?$AA?$CI?$AA?$CJ?$AA?$AA@ 0000000180063478     node_snap7_client.obj
 0002:000104b0       ??_C@_08EGDECEJG@S7Client?$AA@ 00000001800634b0     node_snap7_client.obj
 0002:000104c0       ??_C@_07FJPHLACI@Connect?$AA@ 00000001800634c0     node_snap7_client.obj
 0002:000104c8       ??_C@_09BPOMLFNF@ConnectTo?$AA@ 00000001800634c8     node_snap7_client.obj
 0002:000104d8       ??_C@_0BE@IBENGEPE@SetConnectionParams?$AA@ 00000001800634d8     node_snap7_client.obj
 0002:000104f0       ??_C@_0BC@PPIOEJFO@SetConnectionType?$AA@ 00000001800634f0     node_snap7_client.obj
 0002:00010508       ??_C@_0L@CMGJAGDM@Disconnect?$AA@ 0000000180063508     node_snap7_client.obj
 0002:00010518       ??_C@_08NDIFFFJI@GetParam?$AA@ 0000000180063518     node_snap7_client.obj
 0002:00010528       ??_C@_08CCKJEGOF@SetParam?$AA@ 0000000180063528     node_snap7_client.obj
 0002:00010538       ??_C@_08PFKCGMKA@ReadArea?$AA@ 0000000180063538     node_snap7_client.obj
 0002:00010548       ??_C@_09IAANHKGJ@WriteArea?$AA@ 0000000180063548     node_snap7_client.obj
 0002:00010558       ??_C@_0O@KOEBAMEK@ReadMultiVars?$AA@ 0000000180063558     node_snap7_client.obj
 0002:00010568       ??_C@_0P@LPFKBJEN@WriteMultiVars?$AA@ 0000000180063568     node_snap7_client.obj
 0002:00010578       ??_C@_0L@FKCPJHAP@ListBlocks?$AA@ 0000000180063578     node_snap7_client.obj
 0002:00010588       ??_C@_0P@IFHMDCE@GetAgBlockInfo?$AA@ 0000000180063588     node_snap7_client.obj
 0002:00010598       ??_C@_0P@JPOKGCLH@GetPgBlockInfo?$AA@ 0000000180063598     node_snap7_client.obj
 0002:000105a8       ??_C@_0BB@PADLMFKD@ListBlocksOfType?$AA@ 00000001800635a8     node_snap7_client.obj
 0002:000105bc       ??_C@_06GPFPJJPN@Upload?$AA@ 00000001800635bc     node_snap7_client.obj
 0002:000105c8       ??_C@_0L@IKDKKNFL@FullUpload?$AA@ 00000001800635c8     node_snap7_client.obj
 0002:000105d8       ??_C@_08PPHBPJGP@Download?$AA@ 00000001800635d8     node_snap7_client.obj
 0002:000105e4       ??_C@_06JBKGCNBB@Delete?$AA@ 00000001800635e4     node_snap7_client.obj
 0002:000105ec       ??_C@_05PLELMILC@DBGet?$AA@ 00000001800635ec     node_snap7_client.obj
 0002:000105f4       ??_C@_06IJFPNJAD@DBFill?$AA@ 00000001800635f4     node_snap7_client.obj
 0002:00010600       ??_C@_0P@FLJJBAEF@GetPlcDateTime?$AA@ 0000000180063600     node_snap7_client.obj
 0002:00010610       ??_C@_0P@JFIHOKGJ@SetPlcDateTime?$AA@ 0000000180063610     node_snap7_client.obj
 0002:00010620       ??_C@_0BF@HPLOBCNH@SetPlcSystemDateTime?$AA@ 0000000180063620     node_snap7_client.obj
 0002:00010638       ??_C@_0N@JPBMPLIC@GetOrderCode?$AA@ 0000000180063638     node_snap7_client.obj
 0002:00010648       ??_C@_0L@MBDKOMDH@GetCpuInfo?$AA@ 0000000180063648     node_snap7_client.obj
 0002:00010658       ??_C@_09BJMIAG@GetCpInfo?$AA@ 0000000180063658     node_snap7_client.obj
 0002:00010668       ??_C@_07BPBFLBDO@ReadSZL?$AA@ 0000000180063668     node_snap7_client.obj
 0002:00010670       ??_C@_0M@KIBMJHGO@ReadSZLList?$AA@ 0000000180063670     node_snap7_client.obj
 0002:00010680       ??_C@_0M@LFBNJDNM@PlcHotStart?$AA@ 0000000180063680     node_snap7_client.obj
 0002:00010690       ??_C@_0N@KHBNMJE@PlcColdStart?$AA@ 0000000180063690     node_snap7_client.obj
 0002:000106a0       ??_C@_07PKNHPPAO@PlcStop?$AA@ 00000001800636a0     node_snap7_client.obj
 0002:000106a8       ??_C@_0N@IKFBFLJD@CopyRamToRom?$AA@ 00000001800636a8     node_snap7_client.obj
 0002:000106b8       ??_C@_08MLCOAOMC@Compress?$AA@ 00000001800636b8     node_snap7_client.obj
 0002:000106c8       ??_C@_0O@LKAFHLFF@GetProtection?$AA@ 00000001800636c8     node_snap7_client.obj
 0002:000106d8       ??_C@_0BD@DEPBLLAD@SetSessionPassword?$AA@ 00000001800636d8     node_snap7_client.obj
 0002:000106f0       ??_C@_0BF@NILGJDAA@ClearSessionPassword?$AA@ 00000001800636f0     node_snap7_client.obj
 0002:00010708       ??_C@_08HGJACPJJ@ExecTime?$AA@ 0000000180063708     node_snap7_client.obj
 0002:00010718       ??_C@_09KKCAFAAF@LastError?$AA@ 0000000180063718     node_snap7_client.obj
 0002:00010728       ??_C@_0N@PLKJBLKM@PDURequested?$AA@ 0000000180063728     node_snap7_client.obj
 0002:00010738       ??_C@_09JOGEBIDJ@PDULength?$AA@ 0000000180063738     node_snap7_client.obj
 0002:00010748       ??_C@_09NFPLJBGM@PlcStatus?$AA@ 0000000180063748     node_snap7_client.obj
 0002:00010758       ??_C@_09NJLBODLJ@Connected?$AA@ 0000000180063758     node_snap7_client.obj
 0002:00010768       ??_C@_09LPAIFNDF@ErrorText?$AA@ 0000000180063768     node_snap7_client.obj
 0002:00010778       ??_C@_0BC@JLALHFA@errNegotiatingPDU?$AA@ 0000000180063778     node_snap7_client.obj
 0002:00010790       ??_C@_0BE@BKBEIEPL@errCliInvalidParams?$AA@ 0000000180063790     node_snap7_client.obj
 0002:000107a8       ??_C@_0BB@MBIMJEMF@errCliJobPending?$AA@ 00000001800637a8     node_snap7_client.obj
 0002:000107c0       ??_C@_0BD@IOMHMEDF@errCliTooManyItems?$AA@ 00000001800637c0     node_snap7_client.obj
 0002:000107d8       ??_C@_0BF@EDDEJDJE@errCliInvalidWordLen?$AA@ 00000001800637d8     node_snap7_client.obj
 0002:000107f0       ??_C@_0BJ@LKOEIGAO@errCliPartialDataWritten?$AA@ 00000001800637f0     node_snap7_client.obj
 0002:00010810       ??_C@_0BC@MPMMOEDP@errCliSizeOverPDU?$AA@ 0000000180063810     node_snap7_client.obj
 0002:00010828       ??_C@_0BH@FBCOACFD@errCliInvalidPlcAnswer?$AA@ 0000000180063828     node_snap7_client.obj
 0002:00010840       ??_C@_0BI@EFBPKOBG@errCliAddressOutOfRange?$AA@ 0000000180063840     node_snap7_client.obj
 0002:00010858       ??_C@_0BL@CLJHPODL@errCliInvalidTransportSize?$AA@ 0000000180063858     node_snap7_client.obj
 0002:00010878       ??_C@_0BM@JEDKPCJC@errCliWriteDataSizeMismatch?$AA@ 0000000180063878     node_snap7_client.obj
 0002:00010898       ??_C@_0BH@NLDBFCIN@errCliItemNotAvailable?$AA@ 0000000180063898     node_snap7_client.obj
 0002:000108b0       ??_C@_0BD@LCDFOEIH@errCliInvalidValue?$AA@ 00000001800638b0     node_snap7_client.obj
 0002:000108c8       ??_C@_0BF@KFICDHDN@errCliCannotStartPLC?$AA@ 00000001800638c8     node_snap7_client.obj
 0002:000108e0       ??_C@_0BB@EDEIGLNE@errCliAlreadyRun?$AA@ 00000001800638e0     node_snap7_client.obj
 0002:000108f8       ??_C@_0BE@JKGJAKKP@errCliCannotStopPLC?$AA@ 00000001800638f8     node_snap7_client.obj
 0002:00010910       ??_C@_0BJ@PEFCGHJA@errCliCannotCopyRamToRom?$AA@ 0000000180063910     node_snap7_client.obj
 0002:00010930       ??_C@_0BF@BKDPPKCD@errCliCannotCompress?$AA@ 0000000180063930     node_snap7_client.obj
 0002:00010948       ??_C@_0BC@CKNMADLC@errCliAlreadyStop?$AA@ 0000000180063948     node_snap7_client.obj
 0002:00010960       ??_C@_0BG@CPDCEEHM@errCliFunNotAvailable?$AA@ 0000000180063960     node_snap7_client.obj
 0002:00010978       ??_C@_0BL@DJIGBLLA@errCliUploadSequenceFailed?$AA@ 0000000180063978     node_snap7_client.obj
 0002:00010998       ??_C@_0BL@BKJPIPNA@errCliInvalidDataSizeRecvd?$AA@ 0000000180063998     node_snap7_client.obj
 0002:000109b8       ??_C@_0BH@KBGFJOOF@errCliInvalidBlockType?$AA@ 00000001800639b8     node_snap7_client.obj
 0002:000109d0       ??_C@_0BJ@NGGAGCEB@errCliInvalidBlockNumber?$AA@ 00000001800639d0     node_snap7_client.obj
 0002:000109f0       ??_C@_0BH@EOMLJALM@errCliInvalidBlockSize?$AA@ 00000001800639f0     node_snap7_client.obj
 0002:00010a08       ??_C@_0BN@KBOHHNKG@errCliDownloadSequenceFailed?$AA@ 0000000180063a08     node_snap7_client.obj
 0002:00010a28       ??_C@_0BE@LBNKOCIJ@errCliInsertRefused?$AA@ 0000000180063a28     node_snap7_client.obj
 0002:00010a40       ??_C@_0BE@CJMAHJIJ@errCliDeleteRefused?$AA@ 0000000180063a40     node_snap7_client.obj
 0002:00010a58       ??_C@_0BD@GAFANLOB@errCliNeedPassword?$AA@ 0000000180063a58     node_snap7_client.obj
 0002:00010a70       ??_C@_0BG@JDIPLIOG@errCliInvalidPassword?$AA@ 0000000180063a70     node_snap7_client.obj
 0002:00010a88       ??_C@_0BN@ICBHJJKO@errCliNoPasswordToSetOrClear?$AA@ 0000000180063a88     node_snap7_client.obj
 0002:00010aa8       ??_C@_0BB@GNGFPJIK@errCliJobTimeout?$AA@ 0000000180063aa8     node_snap7_client.obj
 0002:00010ac0       ??_C@_0BG@HPABNEBC@errCliPartialDataRead?$AA@ 0000000180063ac0     node_snap7_client.obj
 0002:00010ad8       ??_C@_0BF@GJACLDC@errCliBufferTooSmall?$AA@ 0000000180063ad8     node_snap7_client.obj
 0002:00010af0       ??_C@_0BG@IDHCGKDJ@errCliFunctionRefused?$AA@ 0000000180063af0     node_snap7_client.obj
 0002:00010b08       ??_C@_0BB@LDAKDHEC@errCliDestroying?$AA@ 0000000180063b08     node_snap7_client.obj
 0002:00010b20       ??_C@_0BJ@MHBOHHHM@errCliInvalidParamNumber?$AA@ 0000000180063b20     node_snap7_client.obj
 0002:00010b40       ??_C@_0BI@MCAIOAJI@errCliCannotChangeParam?$AA@ 0000000180063b40     node_snap7_client.obj
 0002:00010b58       ??_C@_0M@KLBCDICP@CONNTYPE_PG?$AA@ 0000000180063b58     node_snap7_client.obj
 0002:00010b68       ??_C@_0M@LJOLFIPE@CONNTYPE_OP?$AA@ 0000000180063b68     node_snap7_client.obj
 0002:00010b78       ??_C@_0P@GLMOJADA@CONNTYPE_BASIC?$AA@ 0000000180063b78     node_snap7_client.obj
 0002:00010b88       ??_C@_0BD@OANPALJB@S7CpuStatusUnknown?$AA@ 0000000180063b88     node_snap7_client.obj
 0002:00010ba0       ??_C@_0P@EHMMIFO@S7CpuStatusRun?$AA@ 0000000180063ba0     node_snap7_client.obj
 0002:00010bb0       ??_C@_0BA@CHPGFNCP@S7CpuStatusStop?$AA@ 0000000180063bb0     node_snap7_client.obj
 0002:00010bc0       ??_C@_08EKENODCK@S7AreaPE?$AA@ 0000000180063bc0     node_snap7_client.obj
 0002:00010bd0       ??_C@_08COCBCGCO@S7AreaPA?$AA@ 0000000180063bd0     node_snap7_client.obj
 0002:00010be0       ??_C@_08MADAPOIH@S7AreaMK?$AA@ 0000000180063be0     node_snap7_client.obj
 0002:00010bf0       ??_C@_08BOCDHOEB@S7AreaDB?$AA@ 0000000180063bf0     node_snap7_client.obj
 0002:00010c00       ??_C@_08HPENNBD@S7AreaCT?$AA@ 0000000180063c00     node_snap7_client.obj
 0002:00010c10       ??_C@_08IFJNMBPO@S7AreaTM?$AA@ 0000000180063c10     node_snap7_client.obj
 0002:00010c20       ??_C@_07JNHABOID@S7WLBit?$AA@ 0000000180063c20     node_snap7_client.obj
 0002:00010c28       ??_C@_08DMLPGKPJ@S7WLByte?$AA@ 0000000180063c28     node_snap7_client.obj
 0002:00010c38       ??_C@_08PMFLDHLL@S7WLWord?$AA@ 0000000180063c38     node_snap7_client.obj
 0002:00010c48       ??_C@_09PDBFEMGC@S7WLDWord?$AA@ 0000000180063c48     node_snap7_client.obj
 0002:00010c58       ??_C@_08INLPMPIO@S7WLReal?$AA@ 0000000180063c58     node_snap7_client.obj
 0002:00010c68       ??_C@_0M@LNLJALPJ@S7WLCounter?$AA@ 0000000180063c68     node_snap7_client.obj
 0002:00010c78       ??_C@_09EBCKIALH@S7WLTimer?$AA@ 0000000180063c78     node_snap7_client.obj
 0002:00010c88       ??_C@_08FJENIKAO@Block_OB?$AA@ 0000000180063c88     node_snap7_client.obj
 0002:00010c98       ??_C@_08FFBIGFOP@Block_DB?$AA@ 0000000180063c98     node_snap7_client.obj
 0002:00010ca8       ??_C@_09DLOMNJJP@Block_SDB?$AA@ 0000000180063ca8     node_snap7_client.obj
 0002:00010cb8       ??_C@_08EPIHIAMA@Block_FC?$AA@ 0000000180063cb8     node_snap7_client.obj
 0002:00010cc8       ??_C@_09CBHDDMLA@Block_SFC?$AA@ 0000000180063cc8     node_snap7_client.obj
 0002:00010cd8       ??_C@_08FGJMLBIB@Block_FB?$AA@ 0000000180063cd8     node_snap7_client.obj
 0002:00010ce8       ??_C@_09DIGIANPB@Block_SFB?$AA@ 0000000180063ce8     node_snap7_client.obj
 0002:00010cf8       ??_C@_09OALJODN@SubBlk_OB?$AA@ 0000000180063cf8     node_snap7_client.obj
 0002:00010d08       ??_C@_0L@IEGLPOJN@SubBlk_SDB?$AA@ 0000000180063d08     node_snap7_client.obj
 0002:00010d18       ??_C@_09BIMBJEPD@SubBlk_FC?$AA@ 0000000180063d18     node_snap7_client.obj
 0002:00010d28       ??_C@_0L@JOPEBLLC@SubBlk_SFC?$AA@ 0000000180063d28     node_snap7_client.obj
 0002:00010d38       ??_C@_09BNKKFLC@SubBlk_FB?$AA@ 0000000180063d38     node_snap7_client.obj
 0002:00010d48       ??_C@_0L@IHOPCKPD@SubBlk_SFB?$AA@ 0000000180063d48     node_snap7_client.obj
 0002:00010d58       ??_C@_0N@HLEACMAA@BlockLangAWL?$AA@ 0000000180063d58     node_snap7_client.obj
 0002:00010d68       ??_C@_0N@OALPGDPB@BlockLangKOP?$AA@ 0000000180063d68     node_snap7_client.obj
 0002:00010d78       ??_C@_0N@DGEJNIK@BlockLangFUP?$AA@ 0000000180063d78     node_snap7_client.obj
 0002:00010d88       ??_C@_0N@JKHPLILI@BlockLangSCL?$AA@ 0000000180063d88     node_snap7_client.obj
 0002:00010d98       ??_C@_0M@LPBDIHIO@BlockLangDB?$AA@ 0000000180063d98     node_snap7_client.obj
 0002:00010da8       ??_C@_0P@IKBHEIKO@BlockLangGRAPH?$AA@ 0000000180063da8     node_snap7_client.obj
 0002:00010db8       ??_C@_09FAMKDJKI@LocalPort?$AA@ 0000000180063db8     node_snap7_client.obj
 0002:00010dc8       ??_C@_0L@CAONHDKF@RemotePort?$AA@ 0000000180063dc8     node_snap7_client.obj
 0002:00010dd8       ??_C@_0M@DEDCPCCA@PingTimeout?$AA@ 0000000180063dd8     node_snap7_client.obj
 0002:00010de8       ??_C@_0M@HADLIONC@SendTimeout?$AA@ 0000000180063de8     node_snap7_client.obj
 0002:00010df8       ??_C@_0M@JMFGCDPK@RecvTimeout?$AA@ 0000000180063df8     node_snap7_client.obj
 0002:00010e08       ??_C@_0N@OLKIMLMP@WorkInterval?$AA@ 0000000180063e08     node_snap7_client.obj
 0002:00010e18       ??_C@_06PEGJHADP@SrcRef?$AA@ 0000000180063e18     node_snap7_client.obj
 0002:00010e20       ??_C@_06EPIMEKEI@DstRef?$AA@ 0000000180063e20     node_snap7_client.obj
 0002:00010e28       ??_C@_07MGOCHJOD@SrcTSap?$AA@ 0000000180063e28     node_snap7_client.obj
 0002:00010e30       ??_C@_0L@GNIPHLDM@PDURequest?$AA@ 0000000180063e30     node_snap7_client.obj
 0002:00010e40       ??_C@_0L@OFMEDLMB@MaxClients?$AA@ 0000000180063e40     node_snap7_client.obj
 0002:00010e50       ??_C@_0N@NJELCKNP@BSendTimeout?$AA@ 0000000180063e50     node_snap7_client.obj
 0002:00010e60       ??_C@_0N@DFCGIHPH@BRecvTimeout?$AA@ 0000000180063e60     node_snap7_client.obj
 0002:00010e70       ??_C@_0N@FPCGBAAD@RecoveryTime?$AA@ 0000000180063e70     node_snap7_client.obj
 0002:00010e80       ??_C@_0O@HNPIKCNH@KeepAliveTime?$AA@ 0000000180063e80     node_snap7_client.obj
 0002:00010e90       ??_C@_0BK@CCNLFCGP@Wrong?5number?5of?5arguments?$AA@ 0000000180063e90     node_snap7_client.obj
 0002:00010eb0       ??_C@_0BA@JBJBFEOE@Wrong?5arguments?$AA@ 0000000180063eb0     node_snap7_client.obj
 0002:00010ec0       ??_C@_0BK@GNIGFBLP@Wrong?5number?5of?5Arguments?$AA@ 0000000180063ec0     node_snap7_client.obj
 0002:00010ee0       ??_C@_0BM@DFOKBKM@Array?5needs?5at?5least?51?5item?$AA@ 0000000180063ee0     node_snap7_client.obj
 0002:00010f00       ??_C@_0CP@KDOKMNLD@?$CJ?5that?5can?5be?5transferred?5with?5R@ 0000000180063f00     node_snap7_client.obj
 0002:00010f30       ??_C@_0BO@IDBCMCK@Array?5exceeds?5max?5variables?5?$CI?$AA@ 0000000180063f30     node_snap7_client.obj
 0002:00010f50       ??_C@_0BJ@LJFHKDDK@Wrong?5argument?5structure?$AA@ 0000000180063f50     node_snap7_client.obj
 0002:00010f6c       ??_C@_04KPICECCB@Area?$AA@ 0000000180063f6c     node_snap7_client.obj
 0002:00010f78       ??_C@_07PGDIDDGF@WordLen?$AA@ 0000000180063f78     node_snap7_client.obj
 0002:00010f80       ??_C@_05FHMJPCKA@Start?$AA@ 0000000180063f80     node_snap7_client.obj
 0002:00010f88       ??_C@_06HKBMKICC@Amount?$AA@ 0000000180063f88     node_snap7_client.obj
 0002:00010f90       ??_C@_08BNHDHAFH@DBNumber?$AA@ 0000000180063f90     node_snap7_client.obj
 0002:00010f9c       ??_C@_06GGONACPB@Result?$AA@ 0000000180063f9c     node_snap7_client.obj
 0002:00010fa4       ??_C@_04DICKPMGH@Data?$AA@ 0000000180063fa4     node_snap7_client.obj
 0002:00010fb0       ??_C@_0DA@IDBGGKJG@?$CJ?5that?5can?5be?5transferred?5with?5W@ 0000000180063fb0     node_snap7_client.obj
 0002:00010fe0       ??_C@_07HOKBAGKP@OBCount?$AA@ 0000000180063fe0     node_snap7_client.obj
 0002:00010fe8       ??_C@_07GBOOBNIE@FBCount?$AA@ 0000000180063fe8     node_snap7_client.obj
 0002:00010ff0       ??_C@_07MHJJBGDA@FCCount?$AA@ 0000000180063ff0     node_snap7_client.obj
 0002:00010ff8       ??_C@_08KJBKKLPA@SFBCount?$AA@ 0000000180063ff8     node_snap7_client.obj
 0002:00011008       ??_C@_08PGNKAEE@SFCCount?$AA@ 0000000180064008     node_snap7_client.obj
 0002:00011018       ??_C@_07CDMLBKPJ@DBCount?$AA@ 0000000180064018     node_snap7_client.obj
 0002:00011020       ??_C@_08OLDPKMIN@SDBCount?$AA@ 0000000180064020     node_snap7_client.obj
 0002:00011030       ??_C@_0BM@BGBELIMK@Argument?5should?5be?5a?5Buffer?$AA@ 0000000180064030     node_snap7_client.obj
 0002:00011050       ??_C@_07EIJPENKB@BlkType?$AA@ 0000000180064050     node_snap7_client.obj
 0002:00011058       ??_C@_09FNKPICNE@BlkNumber?$AA@ 0000000180064058     node_snap7_client.obj
 0002:00011068       ??_C@_07KJCMACGK@BlkLang?$AA@ 0000000180064068     node_snap7_client.obj
 0002:00011070       ??_C@_08KILEHJPA@BlkFlags?$AA@ 0000000180064070     node_snap7_client.obj
 0002:00011080       ??_C@_07DMKINAKN@MC7Size?$AA@ 0000000180064080     node_snap7_client.obj
 0002:00011088       ??_C@_08OOEONMLO@LoadSize?$AA@ 0000000180064088     node_snap7_client.obj
 0002:00011098       ??_C@_09BGENOFHP@LocalData?$AA@ 0000000180064098     node_snap7_client.obj
 0002:000110a8       ??_C@_09HADHOCIC@SBBLength?$AA@ 00000001800640a8     node_snap7_client.obj
 0002:000110b8       ??_C@_08BPDKCIGK@CheckSum?$AA@ 00000001800640b8     node_snap7_client.obj
 0002:000110c8       ??_C@_07NGFJPNPN@Version?$AA@ 00000001800640c8     node_snap7_client.obj
 0002:000110d0       ??_C@_08LFHJKBBK@CodeDate?$AA@ 00000001800640d0     node_snap7_client.obj
 0002:000110e0       ??_C@_08NLHMFHK@IntfDate?$AA@ 00000001800640e0     node_snap7_client.obj
 0002:000110ec       ??_C@_06HHECMMLE@Author?$AA@ 00000001800640ec     node_snap7_client.obj
 0002:000110f4       ??_C@_06BOFMEHLD@Family?$AA@ 00000001800640f4     node_snap7_client.obj
 0002:000110fc       ??_C@_06OENKJGA@Header?$AA@ 00000001800640fc     node_snap7_client.obj
 0002:00011104       ??_C@_04JFPLDHAO@year?$AA@ 0000000180064104     node_snap7_client.obj
 0002:0001110c       ??_C@_05MEBAADFH@month?$AA@ 000000018006410c     node_snap7_client.obj
 0002:00011114       ??_C@_03NNBHCDBP@day?$AA@  0000000180064114     node_snap7_client.obj
 0002:00011118       ??_C@_05LOHOPFFC@hours?$AA@ 0000000180064118     node_snap7_client.obj
 0002:00011120       ??_C@_07GCICIJGK@minutes?$AA@ 0000000180064120     node_snap7_client.obj
 0002:00011128       ??_C@_07GELLIBDG@seconds?$AA@ 0000000180064128     node_snap7_client.obj
 0002:00011130       ??_C@_04BCJPDBDA@Code?$AA@ 0000000180064130     node_snap7_client.obj
 0002:00011138       ??_C@_02KONCHDFN@V1?$AA@   0000000180064138     node_snap7_client.obj
 0002:0001113c       ??_C@_02IFPPCAJO@V2?$AA@   000000018006413c     node_snap7_client.obj
 0002:00011140       ??_C@_02JMOEBBNP@V3?$AA@   0000000180064140     node_snap7_client.obj
 0002:00011148       ??_C@_0P@MPBPCGIN@ModuleTypeName?$AA@ 0000000180064148     node_snap7_client.obj
 0002:00011158       ??_C@_0N@FPJJBBNM@SerialNumber?$AA@ 0000000180064158     node_snap7_client.obj
 0002:00011168       ??_C@_06DGCJJFMK@ASName?$AA@ 0000000180064168     node_snap7_client.obj
 0002:00011170       ??_C@_09EGCMDBBB@Copyright?$AA@ 0000000180064170     node_snap7_client.obj
 0002:00011180       ??_C@_0L@GEIEADPN@ModuleName?$AA@ 0000000180064180     node_snap7_client.obj
 0002:00011190       ??_C@_0N@EKKLEDM@MaxPduLength?$AA@ 0000000180064190     node_snap7_client.obj
 0002:000111a0       ??_C@_0P@DDHINENC@MaxConnections?$AA@ 00000001800641a0     node_snap7_client.obj
 0002:000111b0       ??_C@_0L@HMKBOFO@MaxMpiRate?$AA@ 00000001800641b0     node_snap7_client.obj
 0002:000111c0       ??_C@_0L@COJPACKI@MaxBusRate?$AA@ 00000001800641c0     node_snap7_client.obj
 0002:000111d0       ??_C@_09JPJNBOIB@sch_schal?$AA@ 00000001800641d0     node_snap7_client.obj
 0002:000111e0       ??_C@_07GDJLCPEP@sch_par?$AA@ 00000001800641e0     node_snap7_client.obj
 0002:000111e8       ??_C@_07BKNKHAMH@sch_rel?$AA@ 00000001800641e8     node_snap7_client.obj
 0002:000111f0       ??_C@_08LIBKKPDN@bart_sch?$AA@ 00000001800641f0     node_snap7_client.obj
 0002:00011200       ??_C@_07GFPLLJE@anl_sch?$AA@ 0000000180064200     node_snap7_client.obj
 0002:00011208       ??_C@_02BBAHNLBA@?$CFp?$AA@ 0000000180064208     node_snap7_client.obj
 0002:0001120c       ??_C@_02MDKMJEGG@eE?$AA@   000000018006420c     node_snap7_client.obj
 0002:00011210       ??_C@_02OOPEBDOJ@pP?$AA@   0000000180064210     node_snap7_client.obj
 0002:00011218       ??_C@_0BI@CFPLBAOH@invalid?5string?5position?$AA@ 0000000180064218     node_snap7_client.obj
 0002:00011230       ??_C@_1CE@LNAGEONJ@?$AA?$CB?$AAo?$AAb?$AAj?$AAe?$AAc?$AAt?$AA?4?$AAI?$AAs?$AAE?$AAm?$AAp?$AAt?$AAy?$AA?$CI?$AA?$CJ?$AA?$AA@ 0000000180064230     node_snap7_client.obj
 0002:00011258       ??_7AsyncWorker@Nan@@6B@   0000000180064258     node_snap7_client.obj
 0002:00011288       ??_7?$basic_streambuf@DU?$char_traits@D@std@@@std@@6B@ 0000000180064288     node_snap7_client.obj
 0002:00011300       ??_7error_category@std@@6B@ 0000000180064300     node_snap7_client.obj
 0002:00011330       ??_7_Iostream_error_category@std@@6B@ 0000000180064330     node_snap7_client.obj
 0002:00011360       ??_7ios_base@std@@6B@      0000000180064360     node_snap7_client.obj
 0002:00011368       ??_7IOWorker@node_snap7@@6B@ 0000000180064368     node_snap7_client.obj
 0002:00011398       ??_8?$basic_stringstream@DU?$char_traits@D@std@@V?$allocator@D@2@@std@@7B?$basic_ostream@DU?$char_traits@D@std@@@1@@ 0000000180064398     node_snap7_client.obj
 0002:000113a0       ??_7?$basic_ios@DU?$char_traits@D@std@@@std@@6B@ 00000001800643a0     node_snap7_client.obj
 0002:000113a8       ??_7?$basic_iostream@DU?$char_traits@D@std@@@std@@6B@ 00000001800643a8     node_snap7_client.obj
 0002:000113b0       ??_7exception@stdext@@6B@  00000001800643b0     node_snap7_client.obj
 0002:000113c8       ??_7?$basic_stringbuf@DU?$char_traits@D@std@@V?$allocator@D@2@@std@@6B@ 00000001800643c8     node_snap7_client.obj
 0002:00011440       ??_7?$basic_stringstream@DU?$char_traits@D@std@@V?$allocator@D@2@@std@@6B@ 0000000180064440     node_snap7_client.obj
 0002:00011448       ??_7?$basic_istream@DU?$char_traits@D@std@@@std@@6B@ 0000000180064448     node_snap7_client.obj
 0002:00011450       ??_7ObjectWrap@Nan@@6B@    0000000180064450     node_snap7_client.obj
 0002:00011468       ??_7S7Client@node_snap7@@6B@ 0000000180064468     node_snap7_client.obj
 0002:00011480       ??_8?$basic_stringstream@DU?$char_traits@D@std@@V?$allocator@D@2@@std@@7B?$basic_istream@DU?$char_traits@D@std@@@1@@ 0000000180064480     node_snap7_client.obj
 0002:00011488       ??_7?$basic_ostream@DU?$char_traits@D@std@@@std@@6B@ 0000000180064488     node_snap7_client.obj
 0002:00011490       ??_7_System_error@std@@6B@ 0000000180064490     node_snap7_client.obj
 0002:00011490       ??_7failure@ios_base@std@@6B@ 0000000180064490     node_snap7_client.obj
 0002:000114a8       ??_C@_08HCOMDCCD@iojs?4exe?$AA@ 00000001800644a8     win_delay_load_hook.obj
 0002:000114b8       ??_C@_08JDDNMFDB@node?4exe?$AA@ 00000001800644b8     win_delay_load_hook.obj
 0002:000114c8       __pfnDliNotifyHook2        00000001800644c8     win_delay_load_hook.obj
 0002:000114e0       ??_7TConnListenerThread@@6B@ 00000001800644e0     snap7:s7_partner.obj
 0002:000114f0       ??_7TPartnerThread@@6B@    00000001800644f0     snap7:s7_partner.obj
 0002:00011500       ??_7TSnap7Partner@@6B@     0000000180064500     snap7:s7_partner.obj
 0002:00011528       ??_7TClientThread@@6B@     0000000180064528     snap7:s7_client.obj
 0002:00011538       ??_7TSnap7Client@@6B@      0000000180064538     snap7:s7_client.obj
 0002:00011560       ??_C@_08FDIJDPJM@?$CFY?1?$CFm?1?$CFd?$AA@ 0000000180064560     snap7:s7_micro_client.obj
 0002:00011570       ??_7TSnap7MicroClient@@6B@ 0000000180064570     snap7:s7_micro_client.obj
 0002:00011598       ??_C@_01GBGANLPD@0?$AA@    0000000180064598     snap7:s7_text.obj
 0002:000115a0       ??_C@_0BC@LGPAMIPH@?$CFY?9?$CFm?9?$CFd?5?$CFH?3?$CFM?3?$CFS?$AA@ 00000001800645a0     snap7:s7_text.obj
 0002:000115b8       ??_C@_0BP@NIDLDPOF@?5TCP?5?3?5Interrupted?5system?5call?$AA@ 00000001800645b8     snap7:s7_text.obj
 0002:000115d8       ??_C@_0BH@BMGBJMIP@?5TCP?5?3?5Bad?5file?5number?$AA@ 00000001800645d8     snap7:s7_text.obj
 0002:000115f0       ??_C@_0BJ@HHGLAPJG@?5TCP?5?3?5Permission?5denied?$AA@ 00000001800645f0     snap7:s7_text.obj
 0002:00011610       ??_C@_0BD@CCEHCNKJ@?5TCP?5?3?5Bad?5address?$AA@ 0000000180064610     snap7:s7_text.obj
 0002:00011628       ??_C@_0BI@KPCALANF@?5TCP?5?3?5Invalid?5argument?$AA@ 0000000180064628     snap7:s7_text.obj
 0002:00011640       ??_C@_0BL@JEGCEJBH@?5TCP?5?3?5Too?5many?5open?5files?$AA@ 0000000180064640     snap7:s7_text.obj
 0002:00011660       ??_C@_0BN@COMJLNNB@?5TCP?5?3?5Operation?5would?5block?$AA@ 0000000180064660     snap7:s7_text.obj
 0002:00011680       ??_C@_0CB@CIDMJNGC@?5TCP?5?3?5Operation?5now?5in?5progress@ 0000000180064680     snap7:s7_text.obj
 0002:000116a8       ??_C@_0CF@FJCOFOAG@?5TCP?5?3?5Operation?5already?5in?5prog@ 00000001800646a8     snap7:s7_text.obj
 0002:000116d0       ??_C@_0CG@HKLCFBBP@?5TCP?5?3?5Socket?5operation?5on?5non?5s@ 00000001800646d0     snap7:s7_text.obj
 0002:000116f8       ??_C@_0CE@IFPCMKOJ@?5TCP?5?3?5Destination?5address?5requi@ 00000001800646f8     snap7:s7_text.obj
 0002:00011720       ??_C@_0BI@EMOKOM@?5TCP?5?3?5Message?5too?5long?$AA@ 0000000180064720     snap7:s7_text.obj
 0002:00011738       ??_C@_0CG@BPIIMPKB@?5TCP?5?3?5Protocol?5wrong?5type?5for?5S@ 0000000180064738     snap7:s7_text.obj
 0002:00011760       ??_C@_0BO@IFLNMCIC@?5TCP?5?3?5Protocol?5not?5available?$AA@ 0000000180064760     snap7:s7_text.obj
 0002:00011780       ??_C@_0BO@BPFANKEL@?5TCP?5?3?5Protocol?5not?5supported?$AA@ 0000000180064780     snap7:s7_text.obj
 0002:000117a0       ??_C@_0BM@CBHIAHBB@?5TCP?5?3?5Socket?5not?5supported?$AA@ 00000001800647a0     snap7:s7_text.obj
 0002:000117c0       ??_C@_0CJ@EPJHDJNC@?5TCP?5?3?5Operation?5not?5supported?5o@ 00000001800647c0     snap7:s7_text.obj
 0002:000117f0       ??_C@_0CF@EANJNNO@?5TCP?5?3?5Protocol?5family?5not?5suppo@ 00000001800647f0     snap7:s7_text.obj
 0002:00011818       ??_C@_0CE@JMJLLMFH@?5TCP?5?3?5Address?5family?5not?5suppor@ 0000000180064818     snap7:s7_text.obj
 0002:00011840       ??_C@_0BO@IJKAGDLG@?5TCP?5?3?5Address?5already?5in?5use?$AA@ 0000000180064840     snap7:s7_text.obj
 0002:00011860       ??_C@_0CG@MJFCOILG@?5TCP?5?3?5Can?8t?5assign?5requested?5ad@ 0000000180064860     snap7:s7_text.obj
 0002:00011888       ??_C@_0BH@CPOECOCN@?5TCP?5?3?5Network?5is?5down?$AA@ 0000000180064888     snap7:s7_text.obj
 0002:000118a0       ??_C@_0BO@KKAEHOBO@?5TCP?5?3?5Network?5is?5unreachable?$AA@ 00000001800648a0     snap7:s7_text.obj
 0002:000118c0       ??_C@_0CL@LBECLCPF@?5TCP?5?3?5Network?5dropped?5connectio@ 00000001800648c0     snap7:s7_text.obj
 0002:000118f0       ??_C@_0CI@HFBDIHLJ@?5TCP?5?3?5Software?5caused?5connectio@ 00000001800648f0     snap7:s7_text.obj
 0002:00011918       ??_C@_0CA@KBPGNJKH@?5TCP?5?3?5Connection?5reset?5by?5peer?$AA@ 0000000180064918     snap7:s7_text.obj
 0002:00011938       ??_C@_0CB@HJBDMLJM@?5TCP?5?3?5No?5Buffer?5space?5available@ 0000000180064938     snap7:s7_text.obj
 0002:00011960       ??_C@_0CD@PHPMLLDE@?5TCP?5?3?5Socket?5is?5already?5connect@ 0000000180064960     snap7:s7_text.obj
 0002:00011988       ??_C@_0BP@BDFOALEE@?5TCP?5?3?5Socket?5is?5not?5connected?$AA@ 0000000180064988     snap7:s7_text.obj
 0002:000119a8       ??_C@_0CI@OPFCNJGA@?5TCP?5?3?5Can?8t?5send?5after?5Socket?5s@ 00000001800649a8     snap7:s7_text.obj
 0002:000119d0       ??_C@_0CI@JLKAOJOC@?5TCP?5?3?5Too?5many?5references?3can?8t@ 00000001800649d0     snap7:s7_text.obj
 0002:000119f8       ??_C@_0BM@KGAMDMJK@?5TCP?5?3?5Connection?5timed?5out?$AA@ 00000001800649f8     snap7:s7_text.obj
 0002:00011a18       ??_C@_0BK@MIIJPPMJ@?5TCP?5?3?5Connection?5refused?$AA@ 0000000180064a18     snap7:s7_text.obj
 0002:00011a38       ??_C@_0CJ@MFJEAEIP@?5TCP?5?3?5Too?5many?5levels?5of?5symbol@ 0000000180064a38     snap7:s7_text.obj
 0002:00011a68       ??_C@_0BN@DEJFAEED@?5TCP?5?3?5File?5name?5is?5too?5long?$AA@ 0000000180064a68     snap7:s7_text.obj
 0002:00011a88       ??_C@_0BE@CBHPDIGI@?5TCP?5?3?5Host?5is?5down?$AA@ 0000000180064a88     snap7:s7_text.obj
 0002:00011aa0       ??_C@_0BI@DBNPFBCC@?5TCP?5?3?5Unreachable?5peer?$AA@ 0000000180064aa0     snap7:s7_text.obj
 0002:00011ab8       ??_C@_0BO@HMJDONNK@?5TCP?5?3?5Directory?5is?5not?5empty?$AA@ 0000000180064ab8     snap7:s7_text.obj
 0002:00011ad8       ??_C@_0BG@OPHDKODN@?5TCP?5?3?5Too?5many?5users?$AA@ 0000000180064ad8     snap7:s7_text.obj
 0002:00011af0       ??_C@_0BL@PFKLEABE@?5TCP?5?3?5Disk?5quota?5exceeded?$AA@ 0000000180064af0     snap7:s7_text.obj
 0002:00011b10       ??_C@_0BN@OPLEFOGE@?5TCP?5?3?5Stale?5NFS?5file?5handle?$AA@ 0000000180064b10     snap7:s7_text.obj
 0002:00011b30       ??_C@_0CJ@NLMFLMFI@?5TCP?5?3?5Too?5many?5levels?5of?5remote@ 0000000180064b30     snap7:s7_text.obj
 0002:00011b60       ??_C@_0BK@BMECIGGK@?5TCP?5?3?5Too?5many?5processes?$AA@ 0000000180064b60     snap7:s7_text.obj
 0002:00011b80       ??_C@_0CF@GCONPAL@?5TCP?5?3?5Network?5subsystem?5is?5unus@ 0000000180064b80     snap7:s7_text.obj
 0002:00011ba8       ??_C@_0DD@PPJEKMIC@?5TCP?5?3?5Winsock?5DLL?5cannot?5suppor@ 0000000180064ba8     snap7:s7_text.obj
 0002:00011be0       ??_C@_0BP@HPDIGMBJ@?5TCP?5?3?5Winsock?5not?5initialized?$AA@ 0000000180064be0     snap7:s7_text.obj
 0002:00011c00       ??_C@_0BC@CFPAJFPI@?5TCP?5?3?5Disconnect?$AA@ 0000000180064c00     snap7:s7_text.obj
 0002:00011c18       ??_C@_0BG@PPHJGLJI@?5TCP?5?3?5Host?5not?5found?$AA@ 0000000180064c18     snap7:s7_text.obj
 0002:00011c30       ??_C@_0CK@NFMCALGG@?5TCP?5?3?5Non?5authoritative?5?9?5host?5@ 0000000180064c30     snap7:s7_text.obj
 0002:00011c60       ??_C@_0BN@ECAFGHIO@?5TCP?5?3?5Non?5recoverable?5error?$AA@ 0000000180064c60     snap7:s7_text.obj
 0002:00011c80       ??_C@_0DE@DBFIKOPE@?5TCP?5?3?5Valid?5name?0?5no?5data?5recor@ 0000000180064c80     snap7:s7_text.obj
 0002:00011cb8       ??_C@_0BH@GPAKLAPH@?5TCP?5?3?5Invalid?5address?$AA@ 0000000180064cb8     snap7:s7_text.obj
 0002:00011cd0       ??_C@_01PKGAHCOL@?$CJ?$AA@ 0000000180064cd0     snap7:s7_text.obj
 0002:00011cd8       ??_C@_0BM@IPEGIMML@?5TCP?5?3?5Other?5Socket?5error?5?$CI?$AA@ 0000000180064cd8     snap7:s7_text.obj
 0002:00011cf8       ??_C@_0BI@GCEIFOPL@?5ISO?5?3?5Connection?5error?$AA@ 0000000180064cf8     snap7:s7_text.obj
 0002:00011d10       ??_C@_0BI@OHAHBDLC@?5ISO?5?3?5Disconnect?5error?$AA@ 0000000180064d10     snap7:s7_text.obj
 0002:00011d28       ??_C@_0BG@HGHDAGJP@?5ISO?5?3?5Bad?5PDU?5format?$AA@ 0000000180064d28     snap7:s7_text.obj
 0002:00011d40       ??_C@_0DG@CMLFFJCH@?5ISO?5?3?5Datasize?5passed?5to?5send?1r@ 0000000180064d40     snap7:s7_text.obj
 0002:00011d78       ??_C@_0BO@ODPNIGBE@?5ISO?5?3?5Null?5passed?5as?5pointer?$AA@ 0000000180064d78     snap7:s7_text.obj
 0002:00011d98       ??_C@_0BP@OKINLMPF@?5ISO?5?3?5A?5short?5packet?5received?$AA@ 0000000180064d98     snap7:s7_text.obj
 0002:00011db8       ??_C@_0CJ@EEGEOFE@?5ISO?5?3?5Too?5many?5packets?5without?5@ 0000000180064db8     snap7:s7_text.obj
 0002:00011de8       ??_C@_0DN@MEJBFMOE@?5ISO?5?3?5The?5sum?5of?5fragments?5data@ 0000000180064de8     snap7:s7_text.obj
 0002:00011e28       ??_C@_0CF@DBBMKPJE@?5ISO?5?3?5An?5error?5occurred?5during?5@ 0000000180064e28     snap7:s7_text.obj
 0002:00011e50       ??_C@_0CF@HMFAGFKE@?5ISO?5?3?5An?5error?5occurred?5during?5@ 0000000180064e50     snap7:s7_text.obj
 0002:00011e78       ??_C@_0CP@NJGNAIHD@?5ISO?5?3?5Invalid?5connection?5params@ 0000000180064e78     snap7:s7_text.obj
 0002:00011ea8       ??_C@_0BJ@CEMDHNAE@?5ISO?5?3?5Unknown?5error?5?$CI0x?$AA@ 0000000180064ea8     snap7:s7_text.obj
 0002:00011ec8       ??_C@_0BP@PADENHMD@CPU?5?3?5Error?5in?5PDU?5negotiation?$AA@ 0000000180064ec8     snap7:s7_text.obj
 0002:00011ee8       ??_C@_0CA@HJOFHADJ@CLI?5?3?5invalid?5param?$CIs?$CJ?5supplied?$AA@ 0000000180064ee8     snap7:s7_text.obj
 0002:00011f08       ??_C@_0BC@PKDMAGEC@CLI?5?3?5Job?5pending?$AA@ 0000000180064f08     snap7:s7_text.obj
 0002:00011f20       ??_C@_0CO@HKODLHME@CLI?5?3?5too?5may?5items?5?$CI?$DO20?$CJ?5in?5mul@ 0000000180064f20     snap7:s7_text.obj
 0002:00011f50       ??_C@_0BJ@KGMFPCKJ@CLI?5?3?5invalid?5WordLength?$AA@ 0000000180064f50     snap7:s7_text.obj
 0002:00011f70       ??_C@_0BL@LBOGFHOA@CLI?5?3?5Partial?5data?5written?$AA@ 0000000180064f70     snap7:s7_text.obj
 0002:00011f90       ??_C@_0CG@CLMDCNDO@CPU?5?3?5total?5data?5exceeds?5the?5PDU@ 0000000180064f90     snap7:s7_text.obj
 0002:00011fb8       ??_C@_0BJ@MLFICAIH@CLI?5?3?5invalid?5CPU?5answer?$AA@ 0000000180064fb8     snap7:s7_text.obj
 0002:00011fd8       ??_C@_0BL@PCJBPLOA@CPU?5?3?5Address?5out?5of?5range?$AA@ 0000000180064fd8     snap7:s7_text.obj
 0002:00011ff8       ??_C@_0BN@MACPABBL@CPU?5?3?5Invalid?5Transport?5size?$AA@ 0000000180064ff8     snap7:s7_text.obj
 0002:00012018       ??_C@_0BJ@GGBDMEHH@CPU?5?3?5Data?5size?5mismatch?$AA@ 0000000180065018     snap7:s7_text.obj
 0002:00012038       ??_C@_0BJ@NMENJHIJ@CPU?5?3?5Item?5not?5available?$AA@ 0000000180065038     snap7:s7_text.obj
 0002:00012058       ??_C@_0BN@GLGPHHCI@CPU?5?3?5Invalid?5value?5supplied?$AA@ 0000000180065058     snap7:s7_text.obj
 0002:00012078       ??_C@_0BH@LGAHKBEB@CPU?5?3?5Cannot?5start?5PLC?$AA@ 0000000180065078     snap7:s7_text.obj
 0002:00012090       ??_C@_0BG@KDELOFDD@CPU?5?3?5PLC?5already?5RUN?$AA@ 0000000180065090     snap7:s7_text.obj
 0002:000120a8       ??_C@_0BG@KHKGDJAP@CPU?5?3?5Cannot?5stop?5PLC?$AA@ 00000001800650a8     snap7:s7_text.obj
 0002:000120c0       ??_C@_0BN@NCJDDJMB@CPU?5?3?5Cannot?5copy?5RAM?5to?5ROM?$AA@ 00000001800650c0     snap7:s7_text.obj
 0002:000120e0       ??_C@_0BG@MIHPEHEM@CPU?5?3?5Cannot?5compress?$AA@ 00000001800650e0     snap7:s7_text.obj
 0002:000120f8       ??_C@_0BH@IBNGFDEF@CPU?5?3?5PLC?5already?5STOP?$AA@ 00000001800650f8     snap7:s7_text.obj
 0002:00012110       ??_C@_0BN@DGHOGHMK@CPU?5?3?5Function?5not?5available?$AA@ 0000000180065110     snap7:s7_text.obj
 0002:00012130       ??_C@_0BN@DLOFGHEL@CPU?5?3?5Upload?5sequence?5failed?$AA@ 0000000180065130     snap7:s7_text.obj
 0002:00012150       ??_C@_0CB@LDDADKCN@CLI?5?3?5Invalid?5data?5size?5received@ 0000000180065150     snap7:s7_text.obj
 0002:00012178       ??_C@_0BJ@BILPJBAM@CLI?5?3?5Invalid?5block?5type?$AA@ 0000000180065178     snap7:s7_text.obj
 0002:00012198       ??_C@_0BL@MJGDIOKP@CLI?5?3?5Invalid?5block?5number?$AA@ 0000000180065198     snap7:s7_text.obj
 0002:000121b8       ??_C@_0BJ@PHBBJPFF@CLI?5?3?5Invalid?5block?5size?$AA@ 00000001800651b8     snap7:s7_text.obj
 0002:000121d8       ??_C@_0BP@CILFNFKO@CPU?5?3?5Download?5sequence?5failed?$AA@ 00000001800651d8     snap7:s7_text.obj
 0002:000121f8       ??_C@_0BL@MBKNJDED@CPU?5?3?5block?5insert?5refused?$AA@ 00000001800651f8     snap7:s7_text.obj
 0002:00012218       ??_C@_0BL@MBDFIJNI@CPU?5?3?5block?5delete?5refused?$AA@ 0000000180065218     snap7:s7_text.obj
 0002:00012238       ??_C@_0DL@DACOJGDD@CPU?5?3?5Function?5not?5authorized?5fo@ 0000000180065238     snap7:s7_text.obj
 0002:00012278       ??_C@_0BH@PMKEMCDF@CPU?5?3?5Invalid?5password?$AA@ 0000000180065278     snap7:s7_text.obj
 0002:00012290       ??_C@_0CC@HLJMCHHP@CPU?5?3?5No?5password?5to?5set?5or?5clea@ 0000000180065290     snap7:s7_text.obj
 0002:000122b8       ??_C@_0BC@KPKDAJFL@CLI?5?3?5Job?5Timeout?$AA@ 00000001800652b8     snap7:s7_text.obj
 0002:000122d0       ??_C@_0CO@CNAFDHGN@CLI?5?3?5function?5refused?5by?5CPU?5?$CIU@ 00000001800652d0     snap7:s7_text.obj
 0002:00012300       ??_C@_0BI@OHDJOHLK@CLI?5?3?5Partial?5data?5read?$AA@ 0000000180065300     snap7:s7_text.obj
 0002:00012320       ??_C@_0ED@NFKDJOAE@CLI?5?3?5The?5buffer?5supplied?5is?5too@ 0000000180065320     snap7:s7_text.obj
 0002:00012368       ??_C@_0CC@HOPLJIIF@CLI?5?3?5Cannot?5perform?5?$CIdestroying@ 0000000180065368     snap7:s7_text.obj
 0002:00012390       ??_C@_0BL@ONNJMOMC@CLI?5?3?5Invalid?5Param?5Number?$AA@ 0000000180065390     snap7:s7_text.obj
 0002:000123b0       ??_C@_0CD@NOIJNJBL@CLI?5?3?5Cannot?5change?5this?5param?5n@ 00000001800653b0     snap7:s7_text.obj
 0002:000123d8       ??_C@_0BI@NAFGAAIC@CLI?5?3?5Unknown?5error?5?$CI0x?$AA@ 00000001800653d8     snap7:s7_text.obj
 0002:000123f0       ??_C@_0BK@MCCAAJMG@SRV?5?3?5Server?5cannot?5start?$AA@ 00000001800653f0     snap7:s7_text.obj
 0002:00012410       ??_C@_0CC@ELLOOKKO@SRV?5?3?5Null?5passed?5as?5area?5pointe@ 0000000180065410     snap7:s7_text.obj
 0002:00012438       ??_C@_0DA@JJNHKHPO@SRV?5?3?5Cannot?5register?5area?5since@ 0000000180065438     snap7:s7_text.obj
 0002:00012468       ??_C@_0BI@JKKJHLPK@SRV?5?3?5Unknown?5Area?5code?$AA@ 0000000180065468     snap7:s7_text.obj
 0002:00012480       ??_C@_0CA@KJMAJMCE@SRV?5?3?5Invalid?5param?$CIs?$CJ?5supplied?$AA@ 0000000180065480     snap7:s7_text.obj
 0002:000124a0       ??_C@_0BH@GCCMBOHD@SRV?5?3?5DB?5Limit?5reached?$AA@ 00000001800654a0     snap7:s7_text.obj
 0002:000124b8       ??_C@_0BL@MJEEIGJD@SRV?5?3?5Invalid?5Param?5Number?$AA@ 00000001800654b8     snap7:s7_text.obj
 0002:000124d8       ??_C@_0CD@KFFIJNAE@SRV?5?3?5Cannot?5change?5this?5param?5n@ 00000001800654d8     snap7:s7_text.obj
 0002:00012500       ??_C@_0BI@DGFBJKKO@SRV?5?3?5Unknown?5error?5?$CI0x?$AA@ 0000000180065500     snap7:s7_text.obj
 0002:00012518       ??_C@_0CD@KICNKPIF@PAR?5?3?5Local?5address?5already?5in?5u@ 0000000180065518     snap7:s7_text.obj
 0002:00012540       ??_C@_0CB@NNJAOEAA@PAR?5?3?5No?5more?5partners?5available@ 0000000180065540     snap7:s7_text.obj
 0002:00012568       ??_C@_0CA@PAABCCHN@PAR?5?3?5No?5more?5servers?5available?$AA@ 0000000180065568     snap7:s7_text.obj
 0002:00012588       ??_C@_0CB@IJEHDDDF@PAR?5?3?5Invalid?5parameter?5supplied@ 0000000180065588     snap7:s7_text.obj
 0002:000125b0       ??_C@_0CJ@DGMNGHNB@PAR?5?3?5Cannot?5perform?0?5Partner?5no@ 00000001800655b0     snap7:s7_text.obj
 0002:000125e0       ??_C@_0CD@BNCDBNOL@PAR?5?3?5Cannot?5perform?0?5Partner?5Bu@ 00000001800655e0     snap7:s7_text.obj
 0002:00012608       ??_C@_0BE@NKDCPHNP@PAR?5?3?5Frame?5timeout?$AA@ 0000000180065608     snap7:s7_text.obj
 0002:00012620       ??_C@_0BL@OPOMFDI@PAR?5?3?5Invalid?5PDU?5received?$AA@ 0000000180065620     snap7:s7_text.obj
 0002:00012640       ??_C@_0BD@DEPEMMNG@PAR?5?3?5Send?5timeout?$AA@ 0000000180065640     snap7:s7_text.obj
 0002:00012658       ??_C@_0BD@BKNAJIB@PAR?5?3?5Recv?5timeout?$AA@ 0000000180065658     snap7:s7_text.obj
 0002:00012670       ??_C@_0BL@LECADHKO@PAR?5?3?5Send?5refused?5by?5peer?$AA@ 0000000180065670     snap7:s7_text.obj
 0002:00012690       ??_C@_0BM@IINFPDJK@PAR?5?3?5Error?5negotiating?5PDU?$AA@ 0000000180065690     snap7:s7_text.obj
 0002:000126b0       ??_C@_0BK@EMKAOMOA@PAR?5?3?5Error?5Sending?5Block?$AA@ 00000001800656b0     snap7:s7_text.obj
 0002:000126d0       ??_C@_0BM@GHMPEGLM@PAR?5?3?5Error?5Receiving?5Block?$AA@ 00000001800656d0     snap7:s7_text.obj
 0002:000126f0       ??_C@_0BE@OMGKJNGD@PAR?5?3?5Error?5Binding?$AA@ 00000001800656f0     snap7:s7_text.obj
 0002:00012708       ??_C@_0CC@IAEEHCJI@PAR?5?3?5Cannot?5perform?5?$CIdestroying@ 0000000180065708     snap7:s7_text.obj
 0002:00012730       ??_C@_0BL@NJGIFHCL@PAR?5?3?5Invalid?5Param?5Number?$AA@ 0000000180065730     snap7:s7_text.obj
 0002:00012750       ??_C@_0CD@LNHBAKCI@PAR?5?3?5Cannot?5change?5this?5param?5n@ 0000000180065750     snap7:s7_text.obj
 0002:00012780       ??_C@_0ED@FCHANBIJ@PAR?5?3?5The?5buffer?5supplied?5is?5too@ 0000000180065780     snap7:s7_text.obj
 0002:000127c8       ??_C@_0BI@EFHJBPPH@PAR?5?3?5Unknown?5error?5?$CI0x?$AA@ 00000001800657c8     snap7:s7_text.obj
 0002:000127e0       ??_C@_0BN@HFPHNLJP@LIB?5?3?5Invalid?5param?5supplied?$AA@ 00000001800657e0     snap7:s7_text.obj
 0002:00012800       ??_C@_0BO@DCNJADLO@LIB?5?3?5Invalid?5object?5supplied?$AA@ 0000000180065800     snap7:s7_text.obj
 0002:00012820       ??_C@_02GIPFHKNO@OK?$AA@   0000000180065820     snap7:s7_text.obj
 0002:00012824       ??_C@_02PBFOLPKM@?$FN?5?$AA@ 0000000180065824     snap7:s7_text.obj
 0002:00012828       ??_C@_02GBLMOEJC@?5?$FL?$AA@ 0000000180065828     snap7:s7_text.obj
 0002:00012830       ??_C@_08GHFBNIJN@?5Server?5?$AA@ 0000000180065830     snap7:s7_text.obj
 0002:00012840       ??_C@_07ELEPLNCO@started?$AA@ 0000000180065840     snap7:s7_text.obj
 0002:00012848       ??_C@_07IEOHBIGJ@stopped?$AA@ 0000000180065848     snap7:s7_text.obj
 0002:00012850       ??_C@_0CI@LDBMGHJN@Cannot?5start?5listener?5?9?5Socket?5E@ 0000000180065850     snap7:s7_text.obj
 0002:00012878       ??_C@_0N@OGBGDEJG@Client?5added?$AA@ 0000000180065878     snap7:s7_text.obj
 0002:00012888       ??_C@_0P@PNIHPMIE@Client?5refused?$AA@ 0000000180065888     snap7:s7_text.obj
 0002:00012898       ??_C@_0DH@NPFHLKCG@A?5client?5was?5refused?5due?5to?5maxi@ 0000000180065898     snap7:s7_text.obj
 0002:000128d0       ??_C@_0BB@MNKMGNJH@Client?5exception?$AA@ 00000001800658d0     snap7:s7_text.obj
 0002:000128e8       ??_C@_0BM@OLIBCDIP@Client?5disconnected?5by?5peer?$AA@ 00000001800658e8     snap7:s7_text.obj
 0002:00012908       ??_C@_0BC@FBHHNEKD@Client?5terminated?$AA@ 0000000180065908     snap7:s7_text.obj
 0002:00012920       ??_C@_0DA@ONNCIPBI@?5clients?5have?5been?5dropped?5bacau@ 0000000180065920     snap7:s7_text.obj
 0002:00012950       ??_C@_0BA@BBDMFPIH@Unknown?5event?5?$CI?$AA@ 0000000180065950     snap7:s7_text.obj
 0002:00012960       ??_C@_0BA@MDIBIHI@?5bytes?5rejected?$AA@ 0000000180065960     snap7:s7_text.obj
 0002:00012970       ??_C@_0N@ICLEFFLD@Fragment?5of?5?$AA@ 0000000180065970     snap7:s7_text.obj
 0002:00012980       ??_C@_0BC@NEDPDPIG@Malformed?5PDU?5of?5?$AA@ 0000000180065980     snap7:s7_text.obj
 0002:00012998       ??_C@_0BD@DFGGOHAC@Message?5of?5sparse?5?$AA@ 0000000180065998     snap7:s7_text.obj
 0002:000129b0       ??_C@_0BH@BFLEIBHD@Cannot?5handle?5this?5PDU?$AA@ 00000001800659b0     snap7:s7_text.obj
 0002:000129c8       ??_C@_0CP@HOMDCFFL@Function?5group?5cyclic?5data?5not?5y@ 00000001800659c8     snap7:s7_text.obj
 0002:000129f8       ??_C@_0CO@MIDPCCEB@Function?5group?5programmer?5not?5ye@ 00000001800659f8     snap7:s7_text.obj
 0002:00012a28       ??_C@_0BG@ENFOFCDO@Unknown?5Return?5code?5?$CI?$AA@ 0000000180065a28     snap7:s7_text.obj
 0002:00012a40       ??_C@_0M@DHLHBCHA@Area?5?3?5PE?0?5?$AA@ 0000000180065a40     snap7:s7_text.obj
 0002:00012a50       ??_C@_0M@LINFIFCH@Area?5?3?5PA?0?5?$AA@ 0000000180065a50     snap7:s7_text.obj
 0002:00012a60       ??_C@_0M@EPBIDGHA@Area?5?3?5MK?0?5?$AA@ 0000000180065a60     snap7:s7_text.obj
 0002:00012a70       ??_C@_0M@PIFCMPNI@Area?5?3?5CT?0?5?$AA@ 0000000180065a70     snap7:s7_text.obj
 0002:00012a80       ??_C@_0M@HIDJMFP@Area?5?3?5TM?0?5?$AA@ 0000000180065a80     snap7:s7_text.obj
 0002:00012a8c       ??_C@_02KEGNLNML@?0?5?$AA@ 0000000180065a8c     snap7:s7_text.obj
 0002:00012a90       ??_C@_09PPEBPLHO@Area?5?3?5DB?$AA@ 0000000180065a90     snap7:s7_text.obj
 0002:00012aa0       ??_C@_0P@JMDAAJBG@Unknown?5area?5?$CI?$AA@ 0000000180065aa0     snap7:s7_text.obj
 0002:00012ab0       ??_C@_09OJEDDGCH@?0?5Size?5?3?5?$AA@ 0000000180065ab0     snap7:s7_text.obj
 0002:00012ac0       ??_C@_08BAAEPMG@Start?5?3?5?$AA@ 0000000180065ac0     snap7:s7_text.obj
 0002:00012ad0       ??_C@_07KAJLPJJO@?5?9?9?$DO?5OK?$AA@ 0000000180065ad0     snap7:s7_text.obj
 0002:00012ad8       ??_C@_0BF@CEBCANGF@?5?9?9?$DO?5Exception?5error?$AA@ 0000000180065ad8     snap7:s7_text.obj
 0002:00012af0       ??_C@_0BE@BFGOFENJ@?5?9?9?$DO?5Area?5not?5found?$AA@ 0000000180065af0     snap7:s7_text.obj
 0002:00012b08       ??_C@_0BC@BKHIJPHM@?5?9?9?$DO?5Out?5of?5range?$AA@ 0000000180065b08     snap7:s7_text.obj
 0002:00012b20       ??_C@_0CA@KDNCICEC@?5?9?9?$DO?5Data?5size?5exceeds?5PDU?5size?$AA@ 0000000180065b20     snap7:s7_text.obj
 0002:00012b40       ??_C@_0BM@LBEJDKKP@?5?9?9?$DO?5Invalid?5transport?5size?$AA@ 0000000180065b40     snap7:s7_text.obj
 0002:00012b60       ??_C@_0BI@ODGLFDDJ@?5?9?9?$DO?5Data?5size?5mismatch?$AA@ 0000000180065b60     snap7:s7_text.obj
 0002:00012b78       ??_C@_0BK@ENEKMKIK@?5?9?9?$DO?5Unknown?5error?5code?5?$CI?$AA@ 0000000180065b78     snap7:s7_text.obj
 0002:00012b98       ??_C@_0BH@FNEMHJJP@CPU?5Control?5request?5?3?5?$AA@ 0000000180065b98     snap7:s7_text.obj
 0002:00012bb0       ??_C@_07NBCGADJA@Unknown?$AA@ 0000000180065bb0     snap7:s7_text.obj
 0002:00012bb8       ??_C@_0BC@NCCPJMJI@Cold?5START?5?9?9?$DO?5OK?$AA@ 0000000180065bb8     snap7:s7_text.obj
 0002:00012bd0       ??_C@_0BC@GNHDAEK@Warm?5START?5?9?9?$DO?5OK?$AA@ 0000000180065bd0     snap7:s7_text.obj
 0002:00012be8       ??_C@_0M@CAANNLJJ@STOP?5?9?9?$DO?5OK?$AA@ 0000000180065be8     snap7:s7_text.obj
 0002:00012bf8       ??_C@_0BH@BBICPCJP@Memory?5compress?5?9?9?$DO?5OK?$AA@ 0000000180065bf8     snap7:s7_text.obj
 0002:00012c10       ??_C@_0BH@NBFOKODH@Copy?5Ram?5to?5Rom?5?9?9?$DO?5OK?$AA@ 0000000180065c10     snap7:s7_text.obj
 0002:00012c28       ??_C@_0BO@POIJPLDK@Block?5Insert?5or?5Delete?5?9?9?$DO?5OK?$AA@ 0000000180065c28     snap7:s7_text.obj
 0002:00012c48       ??_C@_0BH@GMEPNFPB@Unknown?5control?5code?5?$CI?$AA@ 0000000180065c48     snap7:s7_text.obj
 0002:00012c60       ??_C@_0BM@MHJGBHJB@System?5clock?5read?5requested?$AA@ 0000000180065c60     snap7:s7_text.obj
 0002:00012c80       ??_C@_0BN@HFCKLGEP@System?5clock?5write?5requested?$AA@ 0000000180065c80     snap7:s7_text.obj
 0002:00012ca0       ??_C@_09KGKHLBMO@?5INDEX?30x?$AA@ 0000000180065ca0     snap7:s7_text.obj
 0002:00012cb0       ??_C@_0BI@IOHHKPOJ@Read?5SZL?5request?0?5ID?30x?$AA@ 0000000180065cb0     snap7:s7_text.obj
 0002:00012cc8       ??_C@_0BD@PNOMGBCN@?5?9?9?$DO?5NOT?5AVAILABLE?$AA@ 0000000180065cc8     snap7:s7_text.obj
 0002:00012ce0       ??_C@_0EJ@HKGJGDHK@Block?5upload?5requested?5?9?9?$DO?5NOT?5P@ 0000000180065ce0     snap7:s7_text.obj
 0002:00012d30       ??_C@_0EL@JDAFGNJI@Block?5download?5requested?5?9?9?$DO?5NOT@ 0000000180065d30     snap7:s7_text.obj
 0002:00012d7c       ??_C@_02LJDHMBJH@OB?$AA@   0000000180065d7c     snap7:s7_text.obj
 0002:00012d80       ??_C@_02LFGCCOHG@DB?$AA@   0000000180065d80     snap7:s7_text.obj
 0002:00012d84       ??_C@_03LCNPIIDE@SDB?$AA@  0000000180065d84     snap7:s7_text.obj
 0002:00012d88       ??_C@_02KPPNMLFJ@FC?$AA@   0000000180065d88     snap7:s7_text.obj
 0002:00012d8c       ??_C@_03KIEAGNBL@SFC?$AA@  0000000180065d8c     snap7:s7_text.obj
 0002:00012d90       ??_C@_02LGOGPKBI@FB?$AA@   0000000180065d90     snap7:s7_text.obj
 0002:00012d94       ??_C@_03LBFLFMFK@SFB?$AA@  0000000180065d94     snap7:s7_text.obj
 0002:00012d98       ??_C@_01LBDDMOBJ@?$FN?$AA@ 0000000180065d98     snap7:s7_text.obj
 0002:00012da0       ??_C@_0M@DKDHFOMO@?$FLUnknown?50x?$AA@ 0000000180065da0     snap7:s7_text.obj
 0002:00012db0       ??_C@_0BF@FCDFEIEG@Block?5list?5requested?$AA@ 0000000180065db0     snap7:s7_text.obj
 0002:00012dc8       ??_C@_0CB@JGADLJGI@?5list?5requested?5?$CIstart?5sequence?$CJ@ 0000000180065dc8     snap7:s7_text.obj
 0002:00012df0       ??_C@_0P@CIKLBFIG@Block?5of?5type?5?$AA@ 0000000180065df0     snap7:s7_text.obj
 0002:00012e00       ??_C@_0BM@PGOPAEGD@?5list?5requested?5?$CInext?5part?$CJ?$AA@ 0000000180065e00     snap7:s7_text.obj
 0002:00012e1c       ??_C@_01CLKCMJKC@?5?$AA@   0000000180065e1c     snap7:s7_text.obj
 0002:00012e20       ??_C@_0BG@FKOOGMDL@Block?5info?5requested?5?$AA@ 0000000180065e20     snap7:s7_text.obj
 0002:00012e38       ??_C@_0CP@DGJEINID@Security?5request?5?3?5Set?5session?5p@ 0000000180065e38     snap7:s7_text.obj
 0002:00012e68       ??_C@_0DB@PBEBFHPL@Security?5request?5?3?5Clear?5session@ 0000000180065e68     snap7:s7_text.obj
 0002:00012ea0       ??_C@_0CH@EBOOGKCC@Security?5request?5?3?5Unknown?5Subfu@ 0000000180065ea0     snap7:s7_text.obj
 0002:00012ec8       ??_C@_0BA@NFHJAEIF@PDU?5incoming?5?3?5?$AA@ 0000000180065ec8     snap7:s7_text.obj
 0002:00012ed8       ??_C@_0P@OEMHMEFD@Read?5request?0?5?$AA@ 0000000180065ed8     snap7:s7_text.obj
 0002:00012ee8       ??_C@_0BA@HKLCEKOF@Write?5request?0?5?$AA@ 0000000180065ee8     snap7:s7_text.obj
 0002:00012ef8       ??_C@_06LCIDCBMH@?5bytes?$AA@ 0000000180065ef8     snap7:s7_text.obj
 0002:00012f00       ??_C@_0CD@PMNGNIFC@The?5client?5requires?5a?5PDU?5size?5o@ 0000000180065f00     snap7:s7_text.obj
 0002:00012f28       ??_7TS7Worker@@6B@         0000000180065f28     snap7:s7_server.obj
 0002:00012f68       ??_7TSnap7Server@@6B@      0000000180065f68     snap7:s7_server.obj
 0002:00012f98       ??_7TIsoTcpSocket@@6B@     0000000180065f98     snap7:s7_isotcp.obj
 0002:00012fc0       ??_C@_07OHKHACFK@0?40?40?40?$AA@ 0000000180065fc0     snap7:snap_tcpsrvr.obj
 0002:00012fc8       ??_7TMsgWorkerThread@@6B@  0000000180065fc8     snap7:snap_tcpsrvr.obj
 0002:00012fd8       ??_7TCustomMsgServer@@6B@  0000000180065fd8     snap7:snap_tcpsrvr.obj
 0002:00013008       ??_7TMsgListenerThread@@6B@ 0000000180066008     snap7:snap_tcpsrvr.obj
 0002:00013018       ??_7TEcoTcpWorker@@6B@     0000000180066018     snap7:snap_tcpsrvr.obj
 0002:00013028       ??_C@_09PFCHIMEP@127?40?40?41?$AA@ 0000000180066028     snap7:snap_msgsock.obj
 0002:00013038       ??_C@_0O@MCBLBENO@?2iphlpapi?4dll?$AA@ 0000000180066038     snap7:snap_msgsock.obj
 0002:00013048       ??_C@_0P@DGOLJNLO@IcmpCreateFile?$AA@ 0000000180066048     snap7:snap_msgsock.obj
 0002:00013058       ??_C@_0BA@CBGGGMBA@IcmpCloseHandle?$AA@ 0000000180066058     snap7:snap_msgsock.obj
 0002:00013068       ??_C@_0O@BFGMLFBB@IcmpSendEcho2?$AA@ 0000000180066068     snap7:snap_msgsock.obj
 0002:00013078       ??_7TMsgSocket@@6B@        0000000180066078     snap7:snap_msgsock.obj
 0002:00013088       ??_7TSnap7Peer@@6B@        0000000180066088     snap7:s7_peer.obj
 0002:000130b0       ??_7TSnapThread@@6B@       00000001800660b0     snap7:snap_threads.obj
 0002:000130c0       __real@408f400000000000    00000001800660c0     node_snap7_client.obj
 0002:000130c8       __real@4202a05f20000000    00000001800660c8     node_snap7_client.obj
 0002:000130d0       __xmm@7fffffffffffffff7fffffffffffffff 00000001800660d0     node_snap7_client.obj
 0002:00013a78       _tls_used                  0000000180066a78     LIBCMT:tlssup.obj
 0002:00013aa0       ??_R4_Facet_base@std@@6B@  0000000180066aa0     libcpmt:locale0.obj
 0002:00013ac8       ??_R3_Facet_base@std@@8    0000000180066ac8     libcpmt:locale0.obj
 0002:00013ae0       ??_R2_Facet_base@std@@8    0000000180066ae0     libcpmt:locale0.obj
 0002:00013af0       ??_R1A@?0A@EA@_Facet_base@std@@8 0000000180066af0     libcpmt:locale0.obj
 0002:00013b18       ??_R4_Locimp@locale@std@@6B@ 0000000180066b18     libcpmt:locale0.obj
 0002:00013b40       ??_R3_Locimp@locale@std@@8 0000000180066b40     libcpmt:locale0.obj
 0002:00013b58       ??_R2_Locimp@locale@std@@8 0000000180066b58     libcpmt:locale0.obj
 0002:00013b80       ??_R1A@?0A@EA@_Locimp@locale@std@@8 0000000180066b80     libcpmt:locale0.obj
 0002:00013ba8       ??_R1A@?0A@EA@facet@locale@std@@8 0000000180066ba8     libcpmt:locale0.obj
 0002:00013bd0       ??_R3facet@locale@std@@8   0000000180066bd0     libcpmt:locale0.obj
 0002:00013be8       ??_R2facet@locale@std@@8   0000000180066be8     libcpmt:locale0.obj
 0002:00013c08       ??_R17?0A@EA@_Crt_new_delete@std@@8 0000000180066c08     libcpmt:locale0.obj
 0002:00013c30       ??_R3_Crt_new_delete@std@@8 0000000180066c30     libcpmt:locale0.obj
 0002:00013c48       ??_R2_Crt_new_delete@std@@8 0000000180066c48     libcpmt:locale0.obj
 0002:00013c58       ??_R1A@?0A@EA@_Crt_new_delete@std@@8 0000000180066c58     libcpmt:locale0.obj
 0002:00013c80       ??_R4exception@std@@6B@    0000000180066c80     libcpmt:xthrow.obj
 0002:00013ca8       ??_R3exception@std@@8      0000000180066ca8     libcpmt:xthrow.obj
 0002:00013cc0       ??_R2exception@std@@8      0000000180066cc0     libcpmt:xthrow.obj
 0002:00013cd0       ??_R1A@?0A@EA@exception@std@@8 0000000180066cd0     libcpmt:xthrow.obj
 0002:00013cf8       ??_R4bad_alloc@std@@6B@    0000000180066cf8     libcpmt:xthrow.obj
 0002:00013d20       ??_R3bad_alloc@std@@8      0000000180066d20     libcpmt:xthrow.obj
 0002:00013d38       ??_R2bad_alloc@std@@8      0000000180066d38     libcpmt:xthrow.obj
 0002:00013d50       ??_R1A@?0A@EA@bad_alloc@std@@8 0000000180066d50     libcpmt:xthrow.obj
 0002:00013d78       ??_R4logic_error@std@@6B@  0000000180066d78     libcpmt:xthrow.obj
 0002:00013da0       ??_R3logic_error@std@@8    0000000180066da0     libcpmt:xthrow.obj
 0002:00013db8       ??_R2logic_error@std@@8    0000000180066db8     libcpmt:xthrow.obj
 0002:00013dd0       ??_R1A@?0A@EA@logic_error@std@@8 0000000180066dd0     libcpmt:xthrow.obj
 0002:00013df8       ??_R4length_error@std@@6B@ 0000000180066df8     libcpmt:xthrow.obj
 0002:00013e20       ??_R3length_error@std@@8   0000000180066e20     libcpmt:xthrow.obj
 0002:00013e38       ??_R2length_error@std@@8   0000000180066e38     libcpmt:xthrow.obj
 0002:00013e58       ??_R1A@?0A@EA@length_error@std@@8 0000000180066e58     libcpmt:xthrow.obj
 0002:00013e80       ??_R4out_of_range@std@@6B@ 0000000180066e80     libcpmt:xthrow.obj
 0002:00013ea8       ??_R3out_of_range@std@@8   0000000180066ea8     libcpmt:xthrow.obj
 0002:00013ec0       ??_R2out_of_range@std@@8   0000000180066ec0     libcpmt:xthrow.obj
 0002:00013ee0       ??_R1A@?0A@EA@out_of_range@std@@8 0000000180066ee0     libcpmt:xthrow.obj
 0002:00013f08       ??_R4runtime_error@std@@6B@ 0000000180066f08     libcpmt:xthrow.obj
 0002:00013f30       ??_R3runtime_error@std@@8  0000000180066f30     libcpmt:xthrow.obj
 0002:00013f48       ??_R2runtime_error@std@@8  0000000180066f48     libcpmt:xthrow.obj
 0002:00013f60       ??_R1A@?0A@EA@runtime_error@std@@8 0000000180066f60     libcpmt:xthrow.obj
 0002:00013f88       ??_R3ctype_base@std@@8     0000000180066f88     libcpmt:locale.obj
 0002:00013fa0       ??_R2ctype_base@std@@8     0000000180066fa0     libcpmt:locale.obj
 0002:00013fc8       ??_R1A@?0A@EA@ctype_base@std@@8 0000000180066fc8     libcpmt:locale.obj
 0002:00013ff0       ??_R4?$ctype@D@std@@6B@    0000000180066ff0     libcpmt:locale.obj
 0002:00014018       ??_R3?$ctype@D@std@@8      0000000180067018     libcpmt:locale.obj
 0002:00014030       ??_R2?$ctype@D@std@@8      0000000180067030     libcpmt:locale.obj
 0002:00014060       ??_R1A@?0A@EA@?$ctype@D@std@@8 0000000180067060     libcpmt:locale.obj
 0002:00014088       ??_R4?$num_put@DV?$ostreambuf_iterator@DU?$char_traits@D@std@@@std@@@std@@6B@ 0000000180067088     libcpmt:locale.obj
 0002:000140b0       ??_R3?$num_put@DV?$ostreambuf_iterator@DU?$char_traits@D@std@@@std@@@std@@8 00000001800670b0     libcpmt:locale.obj
 0002:000140c8       ??_R2?$num_put@DV?$ostreambuf_iterator@DU?$char_traits@D@std@@@std@@@std@@8 00000001800670c8     libcpmt:locale.obj
 0002:000140f0       ??_R1A@?0A@EA@?$num_put@DV?$ostreambuf_iterator@DU?$char_traits@D@std@@@std@@@std@@8 00000001800670f0     libcpmt:locale.obj
 0002:00014118       ??_R4?$numpunct@D@std@@6B@ 0000000180067118     libcpmt:locale.obj
 0002:00014140       ??_R3?$numpunct@D@std@@8   0000000180067140     libcpmt:locale.obj
 0002:00014158       ??_R2?$numpunct@D@std@@8   0000000180067158     libcpmt:locale.obj
 0002:00014180       ??_R1A@?0A@EA@?$numpunct@D@std@@8 0000000180067180     libcpmt:locale.obj
 0002:000141a8       ??_R4type_info@@6B@        00000001800671a8     LIBCMT:std_type_info_static.obj
 0002:000141d0       ??_R3type_info@@8          00000001800671d0     LIBCMT:std_type_info_static.obj
 0002:000141e8       ??_R2type_info@@8          00000001800671e8     LIBCMT:std_type_info_static.obj
 0002:000141f8       ??_R1A@?0A@EA@type_info@@8 00000001800671f8     LIBCMT:std_type_info_static.obj
 0002:00014220       ??_R4bad_array_new_length@std@@6B@ 0000000180067220     LIBCMT:throw_bad_alloc.obj
 0002:00014248       ??_R3bad_array_new_length@std@@8 0000000180067248     LIBCMT:throw_bad_alloc.obj
 0002:00014260       ??_R2bad_array_new_length@std@@8 0000000180067260     LIBCMT:throw_bad_alloc.obj
 0002:00014280       ??_R1A@?0A@EA@bad_array_new_length@std@@8 0000000180067280     LIBCMT:throw_bad_alloc.obj
 0002:000142a8       ??_R4bad_exception@std@@6B@ 00000001800672a8     libvcruntime:frame.obj
 0002:000142d0       ??_R3bad_exception@std@@8  00000001800672d0     libvcruntime:frame.obj
 0002:000142e8       ??_R2bad_exception@std@@8  00000001800672e8     libvcruntime:frame.obj
 0002:00014300       ??_R1A@?0A@EA@bad_exception@std@@8 0000000180067300     libvcruntime:frame.obj
 0002:000147d8       __rtc_iaa                  00000001800677d8     LIBCMT:_initsect_.obj
 0002:000147e0       __rtc_izz                  00000001800677e0     LIBCMT:_initsect_.obj
 0002:000147e8       __rtc_taa                  00000001800677e8     LIBCMT:_initsect_.obj
 0002:000147f0       __rtc_tzz                  00000001800677f0     LIBCMT:_initsect_.obj
 0002:00019eb8       _TI2?AVbad_alloc@std@@     000000018006ceb8     libcpmt:xthrow.obj
 0002:00019ed8       _CTA2?AVbad_alloc@std@@    000000018006ced8     libcpmt:xthrow.obj
 0002:00019ef0       _CT??_R0?AVbad_alloc@std@@@8??0bad_alloc@std@@QEAA@AEBV01@@Z24 000000018006cef0     libcpmt:xthrow.obj
 0002:00019f18       _CT??_R0?AVexception@std@@@8??0exception@std@@QEAA@AEBV01@@Z24 000000018006cf18     libcpmt:xthrow.obj
 0002:00019f40       _CT??_R0?AVlogic_error@std@@@8??0logic_error@std@@QEAA@AEBV01@@Z24 000000018006cf40     libcpmt:xthrow.obj
 0002:00019f68       _TI3?AVlength_error@std@@  000000018006cf68     libcpmt:xthrow.obj
 0002:00019f88       _CTA3?AVlength_error@std@@ 000000018006cf88     libcpmt:xthrow.obj
 0002:00019fa8       _CT??_R0?AVlength_error@std@@@8??0length_error@std@@QEAA@AEBV01@@Z24 000000018006cfa8     libcpmt:xthrow.obj
 0002:00019fd0       _TI3?AVout_of_range@std@@  000000018006cfd0     libcpmt:xthrow.obj
 0002:00019ff0       _CTA3?AVout_of_range@std@@ 000000018006cff0     libcpmt:xthrow.obj
 0002:0001a010       _CT??_R0?AVout_of_range@std@@@8??0out_of_range@std@@QEAA@AEBV01@@Z24 000000018006d010     libcpmt:xthrow.obj
 0002:0001a038       _TI3?AVbad_array_new_length@std@@ 000000018006d038     LIBCMT:throw_bad_alloc.obj
 0002:0001a058       _CTA3?AVbad_array_new_length@std@@ 000000018006d058     LIBCMT:throw_bad_alloc.obj
 0002:0001a078       _CT??_R0?AVbad_array_new_length@std@@@8??0bad_array_new_length@std@@QEAA@AEBV01@@Z24 000000018006d078     LIBCMT:throw_bad_alloc.obj
 0002:0001a0a0       _TI2?AVbad_exception@std@@ 000000018006d0a0     libvcruntime:frame.obj
 0002:0001a0c0       _CTA2?AVbad_exception@std@@ 000000018006d0c0     libvcruntime:frame.obj
 0002:0001a0d8       _CT??_R0?AVbad_exception@std@@@8??0bad_exception@std@@QEAA@AEBV01@@Z24 000000018006d0d8     libvcruntime:frame.obj
 0002:0001a0fc       __DELAY_IMPORT_DESCRIPTOR_node_exe 000000018006d0fc     node:node.exe
 0002:0001a11c       __NULL_DELAY_IMPORT_DESCRIPTOR 000000018006d11c     node:node.exe
 0002:0001a3a0       \177node_NULL_THUNK_DATA_DLN 000000018006d3a0     node:node.exe
 0002:0001b5f8       \177node_NULL_THUNK_DATA_DLB 000000018006e5f8     node:node.exe
 0002:0001c534       __IMPORT_DESCRIPTOR_KERNEL32 000000018006f534     kernel32:KERNEL32.dll
 0002:0001c548       __IMPORT_DESCRIPTOR_WS2_32 000000018006f548     ws2_32:WS2_32.dll
 0002:0001c55c       __IMPORT_DESCRIPTOR_WINMM  000000018006f55c     winmm:WINMM.dll
 0002:0001c570       __NULL_IMPORT_DESCRIPTOR   000000018006f570     kernel32:KERNEL32.dll
 0003:00000004       ?_Sync@ios_base@std@@0_NA  0000000180071004     libcpmt:ios.obj
 0003:00000020       ?_PJP_CPP_Copyright@@3PADA 0000000180071020     libcpmt:iosptrs.obj
 0003:00000080       _Init_global_epoch         0000000180071080     LIBCMT:thread_safe_statics.obj
 0003:00000084       __scrt_native_dllmain_reason 0000000180071084     LIBCMT:utility.obj
 0003:00000088       __security_cookie          0000000180071088     LIBCMT:gs_cookie.obj
 0003:00000090       __security_cookie_complement 0000000180071090     LIBCMT:gs_cookie.obj
 0003:00000098       _fltused                   0000000180071098     LIBCMT:fltused.obj
 0003:000000a0       __isa_available            00000001800710a0     LIBCMT:_cpu_disp_.obj
 0003:000000a4       __isa_enabled              00000001800710a4     LIBCMT:_cpu_disp_.obj
 0003:000000a8       __memcpy_nt_iters          00000001800710a8     LIBCMT:_cpu_disp_.obj
 0003:000000c0       __abort_behavior           00000001800710c0     libucrt:abort.obj
 0003:000000d0       __acrt_lconv_c             00000001800710d0     libucrt:localeconv.obj
 0003:00000168       __acrt_lconv               0000000180071168     libucrt:localeconv.obj
 0003:00000170       __acrt_lconv_static_decimal 0000000180071170     libucrt:localeconv.obj
 0003:00000174       __acrt_lconv_static_W_decimal 0000000180071174     libucrt:localeconv.obj
 0003:00000180       _pctype                    0000000180071180     libucrt:ctype.obj
 0003:00000188       _pwctype                   0000000180071188     libucrt:ctype.obj
 0003:00000260       _iob                       0000000180071260     libucrt:_file.obj
 0003:00000370       __acrt_initial_locale_data 0000000180071370     libucrt:nlsdata.obj
 0003:000004c8       __acrt_initial_locale_pointers 00000001800714c8     libucrt:nlsdata.obj
 0003:000004d8       __acrt_wide_c_locale_string 00000001800714d8     libucrt:nlsdata.obj
 0003:000004dc       __mb_cur_max               00000001800714dc     libucrt:nlsdata.obj
 0003:000004e0       __badioinfo                00000001800714e0     libucrt:ioinit.obj
 0003:00000524       __globallocalestatus       0000000180071524     libucrt:glstatus.obj
 0003:00000530       __acrt_initial_multibyte_data 0000000180071530     libucrt:mbctype.obj
 0003:00000758       __acrt_current_multibyte_data 0000000180071758     libucrt:mbctype.obj
 0003:00000860       _mbctype                   0000000180071860     libucrt:mbctype.obj
 0003:00000970       _mbcasemap                 0000000180071970     libucrt:mbctype.obj
 0003:00000a80       __dcrt_lowio_console_output_handle 0000000180071a80     libucrt:initcon.obj
 0003:00000ad8       ?SZL_ID_0174_IDX_0006@@3PAEA 0000000180071ad8     snap7:s7_server.obj
 0003:00000ae8       ?SZL_ID_0112_IDX_0100@@3PAEA 0000000180071ae8     snap7:s7_server.obj
 0003:00000af8       ?SZL_ID_0115_IDX_0800@@3PAEA 0000000180071af8     snap7:s7_server.obj
 0003:00000b10       ?SZL_ID_01A0_IDX_0006@@3PAEA 0000000180071b10     snap7:s7_server.obj
 0003:00000b94       ?SZLNotAvail@@3PAEA        0000000180071b94     snap7:s7_server.obj
 0003:00000b98       ?SZL_ID_0F1B_IDX_XXXX@@3PAEA 0000000180071b98     snap7:s7_server.obj
 0003:00000ba8       ?SZL_ID_0117_IDX_0004@@3PAEA 0000000180071ba8     snap7:s7_server.obj
 0003:00000bb8       ?SZL_ID_0117_IDX_0001@@3PAEA 0000000180071bb8     snap7:s7_server.obj
 0003:00000bc8       ?SZL_ID_0F18_IDX_XXXX@@3PAEA 0000000180071bc8     snap7:s7_server.obj
 0003:00000bd8       ?SZL_ID_0111_IDX_0006@@3PAEA 0000000180071bd8     snap7:s7_server.obj
 0003:00000c00       ?SZL_ID_0112_IDX_0400@@3PAEA 0000000180071c00     snap7:s7_server.obj
 0003:00000c10       ?SZL_ID_0092_IDX_0000@@3PAEA 0000000180071c10     snap7:s7_server.obj
 0003:00000c30       ?SZL_ID_0F37_IDX_XXXX@@3PAEA 0000000180071c30     snap7:s7_server.obj
 0003:00000c40       ?SZL_ID_0013_IDX_XXXX@@3PAEA 0000000180071c40     snap7:s7_server.obj
 0003:00000d00       ?SZL_ID_01A0_IDX_0014@@3PAEA 0000000180071d00     snap7:s7_server.obj
 0003:00000ea0       ?SZL_ID_0F21_IDX_XXXX@@3PAEA 0000000180071ea0     snap7:s7_server.obj
 0003:00000eb0       ?SZL_ID_01A0_IDX_0010@@3PAEA 0000000180071eb0     snap7:s7_server.obj
 0003:00001000       ?SZL_ID_0F92_IDX_XXXX@@3PAEA 0000000180072000     snap7:s7_server.obj
 0003:00001010       ?SZL_ID_0F17_IDX_XXXX@@3PAEA 0000000180072010     snap7:s7_server.obj
 0003:00001020       ?SZL_ID_0132_IDX_0002@@3PAEA 0000000180072020     snap7:s7_server.obj
 0003:00001058       ?SZL_ID_0131_IDX_0003@@3PAEA 0000000180072058     snap7:s7_server.obj
 0003:00001090       ?SZL_ID_011C_IDX_0003@@3PAEA 0000000180072090     snap7:s7_server.obj
 0003:000010c0       ?SZL_ID_0131_IDX_0006@@3PAEA 00000001800720c0     snap7:s7_server.obj
 0003:000010f8       ?SZL_ID_001A_IDX_XXXX@@3PAEA 00000001800720f8     snap7:s7_server.obj
 0003:00001128       ?SZL_ID_011C_IDX_0001@@3PAEA 0000000180072128     snap7:s7_server.obj
 0003:00001158       ?SZL_ID_0132_IDX_0003@@3PAEA 0000000180072158     snap7:s7_server.obj
 0003:00001190       ?SZL_ID_0021_IDX_XXXX@@3PAEA 0000000180072190     snap7:s7_server.obj
 0003:000011f8       ?SZL_ID_0112_IDX_0000@@3PAEA 00000001800721f8     snap7:s7_server.obj
 0003:00001208       ?SZL_ID_0132_IDX_0009@@3PAEA 0000000180072208     snap7:s7_server.obj
 0003:00001240       ?SZL_ID_0117_IDX_0002@@3PAEA 0000000180072240     snap7:s7_server.obj
 0003:00001250       ?SZL_ID_0222_IDX_0050@@3PAEA 0000000180072250     snap7:s7_server.obj
 0003:00001280       ?SZL_ID_0014_IDX_XXXX@@3PAEA 0000000180072280     snap7:s7_server.obj
 0003:000012d8       ?SZL_ID_0019_IDX_XXXX@@3PAEA 00000001800722d8     snap7:s7_server.obj
 0003:00001300       ?SZL_ID_01A0_IDX_000B@@3PAEA 0000000180072300     snap7:s7_server.obj
 0003:000013e8       ?SZL_ID_0F14_IDX_XXXX@@3PAEA 00000001800723e8     snap7:s7_server.obj
 0003:000013f8       ?SZL_ID_0118_IDX_0001@@3PAEA 00000001800723f8     snap7:s7_server.obj
 0003:00001410       ?SZL_ID_01A0_IDX_000D@@3PAEA 0000000180072410     snap7:s7_server.obj
 0003:00001520       ?SZL_ID_0FA0_IDX_XXXX@@3PAEA 0000000180072520     snap7:s7_server.obj
 0003:00001530       ?SZL_ID_0038_IDX_XXXX@@3PAEA 0000000180072530     snap7:s7_server.obj
 0003:00001580       ?SZL_ID_0D91_IDX_0000@@3PAEA 0000000180072580     snap7:s7_server.obj
 0003:000015a0       ?SZL_ID_0118_IDX_0003@@3PAEA 00000001800725a0     snap7:s7_server.obj
 0003:000015b0       ?SZL_ID_0174_IDX_000C@@3PAEA 00000001800725b0     snap7:s7_server.obj
 0003:000015c0       ?SZL_ID_0125_IDX_0001@@3PAEA 00000001800725c0     snap7:s7_server.obj
 0003:000015d0       ?SZL_ID_0111_IDX_0001@@3PAEA 00000001800725d0     snap7:s7_server.obj
 0003:000015f8       ?SZL_ID_0F38_IDX_XXXX@@3PAEA 00000001800725f8     snap7:s7_server.obj
 0003:00001608       ?SZL_ID_0125_IDX_0000@@3PAEA 0000000180072608     snap7:s7_server.obj
 0003:00001618       ?SZL_ID_0117_IDX_0003@@3PAEA 0000000180072618     snap7:s7_server.obj
 0003:00001630       ?SZL_ID_0194_IDX_0064@@3PAEA 0000000180072630     snap7:s7_server.obj
 0003:00001740       ?SZL_ID_0132_IDX_000C@@3PAEA 0000000180072740     snap7:s7_server.obj
 0003:00001778       ?SZL_ID_0137_IDX_07FE@@3PAEA 0000000180072778     snap7:s7_server.obj
 0003:000017b8       ?SZL_ID_0131_IDX_0007@@3PAEA 00000001800727b8     snap7:s7_server.obj
 0003:000017f0       ?SZL_ID_0132_IDX_000B@@3PAEA 00000001800727f0     snap7:s7_server.obj
 0003:00001828       ?SZL_ID_01A0_IDX_0000@@3PAEA 0000000180072828     snap7:s7_server.obj
 0003:00001838       ?SZL_ID_0025_IDX_XXXX@@3PAEA 0000000180072838     snap7:s7_server.obj
 0003:00001848       ?SZL_ID_0222_IDX_0064@@3PAEA 0000000180072848     snap7:s7_server.obj
 0003:00001870       ?SZL_ID_0095_IDX_XXXX@@3PAEA 0000000180072870     snap7:s7_server.obj
 0003:000018a8       ?SZL_ID_011C_IDX_0009@@3PAEA 00000001800728a8     snap7:s7_server.obj
 0003:000018d8       ?SZL_ID_0F11_IDX_0001@@3PAEA 00000001800728d8     snap7:s7_server.obj
 0003:000018e8       ?SZL_ID_0174_IDX_0004@@3PAEA 00000001800728e8     snap7:s7_server.obj
 0003:000018f8       ?SZL_ID_0222_IDX_0028@@3PAEA 00000001800728f8     snap7:s7_server.obj
 0003:00001920       ?SZL_ID_0794_IDX_XXXX@@3PAEA 0000000180072920     snap7:s7_server.obj
 0003:00001a30       ?SZL_ID_0132_IDX_0008@@3PAEA 0000000180072a30     snap7:s7_server.obj
 0003:00001a68       ?SZL_ID_0131_IDX_0009@@3PAEA 0000000180072a68     snap7:s7_server.obj
 0003:00001aa0       ?SZL_ID_0011_IDX_XXXX@@3PAEA 0000000180072aa0     snap7:s7_server.obj
 0003:00001b20       ?SZL_ID_0424_IDX_XXXX@@3PAEA 0000000180072b20     snap7:s7_server.obj
 0003:00001b40       ?SZL_ID_0023_IDX_XXXX@@3PAEA 0000000180072b40     snap7:s7_server.obj
 0003:00001c28       ?SZL_ID_0132_IDX_0006@@3PAEA 0000000180072c28     snap7:s7_server.obj
 0003:00001c60       ?SZL_ID_0F1A_IDX_XXXX@@3PAEA 0000000180072c60     snap7:s7_server.obj
 0003:00001c70       ?SZL_ID_001C_IDX_XXXX@@3PAEA 0000000180072c70     snap7:s7_server.obj
 0003:00001dd0       ?SZL_ID_0A21_IDX_XXXX@@3PAEA 0000000180072dd0     snap7:s7_server.obj
 0003:00001de0       ?SZL_ID_01A0_IDX_0005@@3PAEA 0000000180072de0     snap7:s7_server.obj
 0003:00001e50       ?SZL_ID_0F95_IDX_XXXX@@3PAEA 0000000180072e50     snap7:s7_server.obj
 0003:00001e60       ?SZL_ID_01A0_IDX_0001@@3PAEA 0000000180072e60     snap7:s7_server.obj
 0003:00001e80       ?SZL_ID_0113_IDX_0001@@3PAEA 0000000180072e80     snap7:s7_server.obj
 0003:00001eb0       ?SZL_ID_0F12_IDX_0000@@3PAEA 0000000180072eb0     snap7:s7_server.obj
 0003:00001ec0       ?SZL_ID_0F11_IDX_0006@@3PAEA 0000000180072ec0     snap7:s7_server.obj
 0003:00001ed0       ?SZL_ID_011C_IDX_000B@@3PAEA 0000000180072ed0     snap7:s7_server.obj
 0003:00001f00       ?SZL_ID_0174_IDX_0001@@3PAEA 0000000180072f00     snap7:s7_server.obj
 0003:00001f10       ?SZL_ID_01A0_IDX_0008@@3PAEA 0000000180072f10     snap7:s7_server.obj
 0003:00001fc0       ?SZL_ID_0074_IDX_XXXX@@3PAEA 0000000180072fc0     snap7:s7_server.obj
 0003:00001ff0       ?SZL_ID_01A0_IDX_000A@@3PAEA 0000000180072ff0     snap7:s7_server.obj
 0003:000020c8       ?SZL_ID_0131_IDX_0008@@3PAEA 00000001800730c8     snap7:s7_server.obj
 0003:00002100       ?SZL_ID_0132_IDX_0004@@3PAEA 0000000180073100     snap7:s7_server.obj
 0003:00002140       ?SZL_ID_0017_IDX_XXXX@@3PAEA 0000000180073140     snap7:s7_server.obj
 0003:00002310       ?SZL_ID_01A0_IDX_000E@@3PAEA 0000000180073310     snap7:s7_server.obj
 0003:00002438       ?SZL_ID_0222_IDX_0014@@3PAEA 0000000180073438     snap7:s7_server.obj
 0003:00002460       ?SZL_ID_0F74_IDX_XXXX@@3PAEA 0000000180073460     snap7:s7_server.obj
 0003:00002470       ?SZL_ID_0131_IDX_0001@@3PAEA 0000000180073470     snap7:s7_server.obj
 0003:000024a8       ?SZL_ID_0174_IDX_000B@@3PAEA 00000001800734a8     snap7:s7_server.obj
 0003:000024c0       ?SZL_ID_0002_IDX_XXXX@@3PAEA 00000001800734c0     snap7:s7_server.obj
 0003:00002690       ?SZL_ID_0591_IDX_XXXX@@3PAEA 0000000180073690     snap7:s7_server.obj
 0003:000026e0       ?SZL_ID_001B_IDX_XXXX@@3PAEA 00000001800736e0     snap7:s7_server.obj
 0003:00002768       ?SZL_ID_0131_IDX_0002@@3PAEA 0000000180073768     snap7:s7_server.obj
 0003:000027a0       ?SZL_ID_0F9A_IDX_XXXX@@3PAEA 00000001800737a0     snap7:s7_server.obj
 0003:000027b0       ?SZL_ID_0F1C_IDX_XXXX@@3PAEA 00000001800737b0     snap7:s7_server.obj
 0003:000027c0       ?SZL_ID_0118_IDX_0002@@3PAEA 00000001800737c0     snap7:s7_server.obj
 0003:000027d0       ?SZL_ID_0036_IDX_XXXX@@3PAEA 00000001800737d0     snap7:s7_server.obj
 0003:000027e0       ?SZL_ID_0A91_IDX_XXXX@@3PAEA 00000001800737e0     snap7:s7_server.obj
 0003:00002810       ?SZL_ID_0132_IDX_0001@@3PAEA 0000000180073810     snap7:s7_server.obj
 0003:00002848       ?SZL_ID_0C91_IDX_07FE@@3PAEA 0000000180073848     snap7:s7_server.obj
 0003:00002870       ?SZL_ID_0024_IDX_XXXX@@3PAEA 0000000180073870     snap7:s7_server.obj
 0003:000028d0       ?SZL_ID_0117_IDX_0000@@3PAEA 00000001800738d0     snap7:s7_server.obj
 0003:000028e0       ?SZL_ID_01A0_IDX_0009@@3PAEA 00000001800738e0     snap7:s7_server.obj
 0003:000029a0       ?SZL_ID_01A0_IDX_0015@@3PAEA 00000001800739a0     snap7:s7_server.obj
 0003:00002b50       ?SZL_ID_0692_IDX_0000@@3PAEA 0000000180073b50     snap7:s7_server.obj
 0003:00002b70       ?SZL_ID_011C_IDX_000A@@3PAEA 0000000180073b70     snap7:s7_server.obj
 0003:00002ba0       ?SZL_ID_0124_IDX_XXXX@@3PAEA 0000000180073ba0     snap7:s7_server.obj
 0003:00002bc0       ?SZL_ID_0F12_IDX_0200@@3PAEA 0000000180073bc0     snap7:s7_server.obj
 0003:00002bd0       ?SZL_ID_0132_IDX_0007@@3PAEA 0000000180073bd0     snap7:s7_server.obj
 0003:00002c10       ?SZL_ID_01A0_IDX_0012@@3PAEA 0000000180073c10     snap7:s7_server.obj
 0003:00002d90       ?SZL_ID_01A0_IDX_000C@@3PAEA 0000000180073d90     snap7:s7_server.obj
 0003:00002e90       ?SZL_ID_01A0_IDX_0004@@3PAEA 0000000180073e90     snap7:s7_server.obj
 0003:00002ef0       ?SZL_ID_0094_IDX_0000@@3PAEA 0000000180073ef0     snap7:s7_server.obj
 0003:00003000       ?SZL_ID_0131_IDX_0004@@3PAEA 0000000180074000     snap7:s7_server.obj
 0003:00003038       ?SZL_ID_0131_IDX_0005@@3PAEA 0000000180074038     snap7:s7_server.obj
 0003:00003070       ?SZL_ID_0222_IDX_0001@@3PAEA 0000000180074070     snap7:s7_server.obj
 0003:00003098       ?SZL_ID_0F25_IDX_XXXX@@3PAEA 0000000180074098     snap7:s7_server.obj
 0003:000030b0       ?SZL_ID_0294_IDX_XXXX@@3PAEA 00000001800740b0     snap7:s7_server.obj
 0003:000031c0       ?SZL_ID_0F00_IDX_XXXX@@3PAEA 00000001800741c0     snap7:s7_server.obj
 0003:000031d0       ?SZL_ID_01A0_IDX_0007@@3PAEA 00000001800741d0     snap7:s7_server.obj
 0003:00003268       ?SZL_ID_011C_IDX_0002@@3PAEA 0000000180074268     snap7:s7_server.obj
 0003:00003298       ?SZL_ID_0132_IDX_0005@@3PAEA 0000000180074298     snap7:s7_server.obj
 0003:000032d0       ?SZL_ID_01A0_IDX_000F@@3PAEA 00000001800742d0     snap7:s7_server.obj
 0003:00003408       ?SZL_ID_0F19_IDX_XXXX@@3PAEA 0000000180074408     snap7:s7_server.obj
 0003:00003418       ?SZL_ID_0F23_IDX_XXXX@@3PAEA 0000000180074418     snap7:s7_server.obj
 0003:00003428       ?SZL_ID_0112_IDX_0200@@3PAEA 0000000180074428     snap7:s7_server.obj
 0003:00003440       ?SZL_ID_01A0_IDX_0003@@3PAEA 0000000180074440     snap7:s7_server.obj
 0003:00003488       ?SZL_ID_003A_IDX_XXXX@@3PAEA 0000000180074488     snap7:s7_server.obj
 0003:00003498       ?SZL_ID_011C_IDX_0008@@3PAEA 0000000180074498     snap7:s7_server.obj
 0003:000034d0       ?SZL_ID_0694_IDX_0064@@3PAEA 00000001800744d0     snap7:s7_server.obj
 0003:000035e0       ?SZL_ID_0018_IDX_XXXX@@3PAEA 00000001800745e0     snap7:s7_server.obj
 0003:00003600       ?SZL_ID_011C_IDX_0007@@3PAEA 0000000180074600     snap7:s7_server.obj
 0003:00003630       ?SZL_ID_0132_IDX_000A@@3PAEA 0000000180074630     snap7:s7_server.obj
 0003:00003668       ?SZL_ID_0232_IDX_0004@@3PAEA 0000000180074668     snap7:s7_server.obj
 0003:000036a0       ?SZL_ID_01A0_IDX_0011@@3PAEA 00000001800746a0     snap7:s7_server.obj
 0003:00003800       ?SZL_ID_0012_IDX_XXXX@@3PAEA 0000000180074800     snap7:s7_server.obj
 0003:00003840       ?SZL_ID_0F36_IDX_XXXX@@3PAEA 0000000180074840     snap7:s7_server.obj
 0003:00003850       ?SZL_ID_0174_IDX_0005@@3PAEA 0000000180074850     snap7:s7_server.obj
 0003:00003860       ?SZL_ID_01A0_IDX_0013@@3PAEA 0000000180074860     snap7:s7_server.obj
 0003:000039e8       ?SZL_ID_0118_IDX_0000@@3PAEA 00000001800749e8     snap7:s7_server.obj
 0003:000039f8       ?SZL_ID_01A0_IDX_0002@@3PAEA 00000001800749f8     snap7:s7_server.obj
 0003:00003a30       ?SZL_ID_0F94_IDX_XXXX@@3PAEA 0000000180074a30     snap7:s7_server.obj
 0003:00003a40       ?SZL_ID_0000_IDX_XXXX@@3PAEA 0000000180074a40     snap7:s7_server.obj
 0003:00003b30       ?SZL_ID_011C_IDX_0005@@3PAEA 0000000180074b30     snap7:s7_server.obj
 0003:00003b60       ?SZL_ID_0222_IDX_000A@@3PAEA 0000000180074b60     snap7:s7_server.obj
 0003:00003b88       ?SZL_ID_0F12_IDX_0400@@3PAEA 0000000180074b88     snap7:s7_server.obj
 0003:00003b98       ?SZL_ID_0111_IDX_0007@@3PAEA 0000000180074b98     snap7:s7_server.obj
 0003:00003bc0       ?SZL_ID_00A0_IDX_XXXX@@3PAEA 0000000180074bc0     snap7:s7_server.obj
 0003:00003c98       ?SZL_ID_0015_IDX_XXXX@@3PAEA 0000000180074c98     snap7:s7_server.obj
 0003:00003cd8       ?SZL_ID_0037_IDX_XXXX@@3PAEA 0000000180074cd8     snap7:s7_server.obj
 0003:00003d18       ?SZL_ID_0D97_IDX_0000@@3PAEA 0000000180074d18     snap7:s7_server.obj
 0003:00003d58       ?SZL_ID_0232_IDX_0001@@3PAEA 0000000180074d58     snap7:s7_server.obj
 0003:00003d90       ?SZL_ID_0F3A_IDX_XXXX@@3PAEA 0000000180074d90     snap7:s7_server.obj
 0003:00003da0       ?SZL_ID_011C_IDX_0004@@3PAEA 0000000180074da0     snap7:s7_server.obj
 0003:00003dd0       ?SZL_ID_0F11_IDX_0007@@3PAEA 0000000180074dd0     snap7:s7_server.obj
 0003:00003de0       ?SZL_ID_0225_IDX_0001@@3PAEA 0000000180074de0     snap7:s7_server.obj
 0003:00003df0       ?SZL_ID_0F12_IDX_0100@@3PAEA 0000000180074df0     snap7:s7_server.obj
 0003:00003e00       ?SZL_ID_0292_IDX_0000@@3PAEA 0000000180074e00     snap7:s7_server.obj
 0003:00003e20       ??_R0?AV_Facet_base@std@@@8 0000000180074e20     libcpmt:locale0.obj
 0003:00003e48       ??_R0?AV_Locimp@locale@std@@@8 0000000180074e48     libcpmt:locale0.obj
 0003:00003e78       ??_R0?AVfacet@locale@std@@@8 0000000180074e78     libcpmt:locale0.obj
 0003:00003ea0       ??_R0?AU_Crt_new_delete@std@@@8 0000000180074ea0     libcpmt:locale0.obj
 0003:00003ed0       ??_R0?AVbad_alloc@std@@@8  0000000180074ed0     libcpmt:xthrow.obj
 0003:00003ef8       ??_R0?AVexception@std@@@8  0000000180074ef8     libcpmt:xthrow.obj
 0003:00003f20       ??_R0?AVlogic_error@std@@@8 0000000180074f20     libcpmt:xthrow.obj
 0003:00003f48       ??_R0?AVlength_error@std@@@8 0000000180074f48     libcpmt:xthrow.obj
 0003:00003f70       ??_R0?AVout_of_range@std@@@8 0000000180074f70     libcpmt:xthrow.obj
 0003:00003f98       ??_R0?AVruntime_error@std@@@8 0000000180074f98     libcpmt:xthrow.obj
 0003:00003fc0       ??_R0?AUctype_base@std@@@8 0000000180074fc0     libcpmt:locale.obj
 0003:00003fe8       ??_R0?AV?$ctype@D@std@@@8  0000000180074fe8     libcpmt:locale.obj
 0003:00004010       ??_R0?AV?$num_put@DV?$ostreambuf_iterator@DU?$char_traits@D@std@@@std@@@std@@@8 0000000180075010     libcpmt:locale.obj
 0003:00004070       ??_R0?AV?$numpunct@D@std@@@8 0000000180075070     libcpmt:locale.obj
 0003:00004098       ??_R0?AVtype_info@@@8      0000000180075098     LIBCMT:std_type_info_static.obj
 0003:000040b8       ??_R0?AVbad_array_new_length@std@@@8 00000001800750b8     LIBCMT:throw_bad_alloc.obj
 0003:000040e8       ??_R0?AVbad_exception@std@@@8 00000001800750e8     libvcruntime:frame.obj
 0003:00004110       __imp_node_module_register 0000000180075110     node:node.exe
 0003:00004118       __imp_uv_mutex_unlock      0000000180075118     node:node.exe
 0003:00004120       __imp_uv_queue_work        0000000180075120     node:node.exe
 0003:00004128       __imp_?Global@Context@v8@@QEAA?AV?$Local@VObject@v8@@@2@XZ 0000000180075128     node:node.exe
 0003:00004130       __imp_?Value@External@v8@@QEBAPEAXXZ 0000000180075130     node:node.exe
 0003:00004138       __imp_?New@External@v8@@SA?AV?$Local@VExternal@v8@@@2@PEAVIsolate@2@PEAX@Z 0000000180075138     node:node.exe
 0003:00004140       __imp_?NewFromUnsigned@Integer@v8@@SA?AV?$Local@VInteger@v8@@@2@PEAVIsolate@2@I@Z 0000000180075140     node:node.exe
 0003:00004148       __imp_?New@Integer@v8@@SA?AV?$Local@VInteger@v8@@@2@PEAVIsolate@2@H@Z 0000000180075148     node:node.exe
 0003:00004150       __imp_?New@Signature@v8@@SA?AV?$Local@VSignature@v8@@@2@PEAVIsolate@2@V?$Local@VFunctionTemplate@v8@@@2@@Z 0000000180075150     node:node.exe
 0003:00004158       __imp_?ThrowException@Isolate@v8@@QEAA?AV?$Local@VValue@v8@@@2@V32@@Z 0000000180075158     node:node.exe
 0003:00004160       __imp_?GetCurrentContext@Isolate@v8@@QEAA?AV?$Local@VContext@v8@@@2@XZ 0000000180075160     node:node.exe
 0003:00004168       __imp_?GetCurrent@Isolate@v8@@SAPEAV12@XZ 0000000180075168     node:node.exe
 0003:00004170       __imp_?CreateHandle@HandleScope@v8@@KAPEAPEAVObject@internal@2@PEAVIsolate@42@PEAV342@@Z 0000000180075170     node:node.exe
 0003:00004178       __imp_?CreateHandle@HandleScope@v8@@CAPEAPEAVObject@internal@2@PEAVHeapObject@42@PEAV342@@Z 0000000180075178     node:node.exe
 0003:00004180       __imp_??1HandleScope@v8@@QEAA@XZ 0000000180075180     node:node.exe
 0003:00004188       __imp_??0HandleScope@v8@@QEAA@PEAVIsolate@1@@Z 0000000180075188     node:node.exe
 0003:00004190       __imp_?Set@Template@v8@@QEAAXV?$Local@VName@v8@@@2@V?$Local@VData@v8@@@2@W4PropertyAttribute@2@@Z 0000000180075190     node:node.exe
 0003:00004198       __imp_?Error@Exception@v8@@SA?AV?$Local@VValue@v8@@@2@V?$Local@VString@v8@@@2@@Z 0000000180075198     node:node.exe
 0003:000041a0       __imp_?TypeError@Exception@v8@@SA?AV?$Local@VValue@v8@@@2@V?$Local@VString@v8@@@2@@Z 00000001800751a0     node:node.exe
 0003:000041a8       __imp_?New@Array@v8@@SA?AV?$Local@VArray@v8@@@2@PEAVIsolate@2@H@Z 00000001800751a8     node:node.exe
 0003:000041b0       __imp_?Length@Array@v8@@QEBAIXZ 00000001800751b0     node:node.exe
 0003:000041b8       __imp_?New@Date@v8@@SA?AV?$MaybeLocal@VValue@v8@@@2@V?$Local@VContext@v8@@@2@N@Z 00000001800751b8     node:node.exe
 0003:000041c0       __imp_?SetClassName@FunctionTemplate@v8@@QEAAXV?$Local@VString@v8@@@2@@Z 00000001800751c0     node:node.exe
 0003:000041c8       __imp_?PrototypeTemplate@FunctionTemplate@v8@@QEAA?AV?$Local@VObjectTemplate@v8@@@2@XZ 00000001800751c8     node:node.exe
 0003:000041d0       __imp_?InstanceTemplate@FunctionTemplate@v8@@QEAA?AV?$Local@VObjectTemplate@v8@@@2@XZ 00000001800751d0     node:node.exe
 0003:000041d8       __imp_?GetFunction@FunctionTemplate@v8@@QEAA?AV?$Local@VFunction@v8@@@2@XZ 00000001800751d8     node:node.exe
 0003:000041e0       __imp_?New@FunctionTemplate@v8@@SA?AV?$Local@VFunctionTemplate@v8@@@2@PEAVIsolate@2@P6AXAEBV?$FunctionCallbackInfo@VValue@v8@@@2@@ZV?$Local@VValue@v8@@@2@V?$Local@VSignature@v8@@@2@H@Z 00000001800751e0     node:node.exe
 0003:000041e8       __imp_?ToLocalEmpty@V8@v8@@CAXXZ 00000001800751e8     node:node.exe
 0003:000041f0       __imp_?FromJustIsNothing@V8@v8@@CAXXZ 00000001800751f0     node:node.exe
 0003:000041f8       __imp_?ClearWeak@V8@v8@@CAPEAXPEAPEAVObject@internal@2@@Z 00000001800751f8     node:node.exe
 0003:00004200       __imp_?MakeWeak@V8@v8@@CAXPEAPEAVObject@internal@2@PEAXP6AXAEBV?$WeakCallbackInfo@X@2@@ZW4WeakCallbackType@2@@Z 0000000180075200     node:node.exe
 0003:00004208       __imp_?DisposeGlobal@V8@v8@@CAXPEAPEAVObject@internal@2@@Z 0000000180075208     node:node.exe
 0003:00004210       __imp_?GlobalizeReference@V8@v8@@CAPEAPEAVObject@internal@2@PEAVIsolate@42@PEAPEAV342@@Z 0000000180075210     node:node.exe
 0003:00004218       __imp_?Int32Value@Value@v8@@QEBAHXZ 0000000180075218     node:node.exe
 0003:00004220       __imp_?Uint32Value@Value@v8@@QEBAIXZ 0000000180075220     node:node.exe
 0003:00004228       __imp_?NumberValue@Value@v8@@QEBANXZ 0000000180075228     node:node.exe
 0003:00004230       __imp_?ToInteger@Value@v8@@QEBA?AV?$MaybeLocal@VInteger@v8@@@2@V?$Local@VContext@v8@@@2@@Z 0000000180075230     node:node.exe
 0003:00004238       __imp_?IsDate@Value@v8@@QEBA_NXZ 0000000180075238     node:node.exe
 0003:00004240       __imp_?IsUint32@Value@v8@@QEBA_NXZ 0000000180075240     node:node.exe
 0003:00004248       __imp_?IsInt32@Value@v8@@QEBA_NXZ 0000000180075248     node:node.exe
 0003:00004250       __imp_?IsObject@Value@v8@@QEBA_NXZ 0000000180075250     node:node.exe
 0003:00004258       __imp_?IsArray@Value@v8@@QEBA_NXZ 0000000180075258     node:node.exe
 0003:00004260       __imp_?IsFunction@Value@v8@@QEBA_NXZ 0000000180075260     node:node.exe
 0003:00004268       __imp_?Escape@EscapableHandleScope@v8@@AEAAPEAPEAVObject@internal@2@PEAPEAV342@@Z 0000000180075268     node:node.exe
 0003:00004270       __imp_??0EscapableHandleScope@v8@@QEAA@PEAVIsolate@1@@Z 0000000180075270     node:node.exe
 0003:00004278       __imp_?NewFromUtf8@String@v8@@SA?AV?$MaybeLocal@VString@v8@@@2@PEAVIsolate@2@PEBDW4NewStringType@2@H@Z 0000000180075278     node:node.exe
 0003:00004280       __imp_?WriteUtf8@String@v8@@QEBAHPEADHPEAHH@Z 0000000180075280     node:node.exe
 0003:00004288       __imp_?Length@String@v8@@QEBAHXZ 0000000180075288     node:node.exe
 0003:00004290       __imp_?New@Number@v8@@SA?AV?$Local@VNumber@v8@@@2@PEAVIsolate@2@N@Z 0000000180075290     node:node.exe
 0003:00004298       __imp_?SlowGetAlignedPointerFromInternalField@Object@v8@@AEAAPEAXH@Z 0000000180075298     node:node.exe
 0003:000042a0       __imp_?SlowGetInternalField@Object@v8@@AEAA?AV?$Local@VValue@v8@@@2@H@Z 00000001800752a0     node:node.exe
 0003:000042a8       __imp_?New@Object@v8@@SA?AV?$Local@VObject@v8@@@2@PEAVIsolate@2@@Z 00000001800752a8     node:node.exe
 0003:000042b0       __imp_?SetAlignedPointerInInternalField@Object@v8@@QEAAXHPEAX@Z 00000001800752b0     node:node.exe
 0003:000042b8       __imp_?SetInternalField@Object@v8@@QEAAXHV?$Local@VValue@v8@@@2@@Z 00000001800752b8     node:node.exe
 0003:000042c0       __imp_?InternalFieldCount@Object@v8@@QEAAHXZ 00000001800752c0     node:node.exe
 0003:000042c8       __imp_?Has@Object@v8@@QEAA?AV?$Maybe@_N@2@V?$Local@VContext@v8@@@2@V?$Local@VValue@v8@@@2@@Z 00000001800752c8     node:node.exe
 0003:000042d0       __imp_?Get@Object@v8@@QEAA?AV?$MaybeLocal@VValue@v8@@@2@V?$Local@VContext@v8@@@2@V?$Local@VValue@v8@@@2@@Z 00000001800752d0     node:node.exe
 0003:000042d8       __imp_?Get@Object@v8@@QEAA?AV?$Local@VValue@v8@@@2@I@Z 00000001800752d8     node:node.exe
 0003:000042e0       __imp_?Get@Object@v8@@QEAA?AV?$MaybeLocal@VValue@v8@@@2@V?$Local@VContext@v8@@@2@I@Z 00000001800752e0     node:node.exe
 0003:000042e8       __imp_?Set@Object@v8@@QEAA?AV?$Maybe@_N@2@V?$Local@VContext@v8@@@2@V?$Local@VValue@v8@@@2@1@Z 00000001800752e8     node:node.exe
 0003:000042f0       __imp_?Set@Object@v8@@QEAA?AV?$Maybe@_N@2@V?$Local@VContext@v8@@@2@IV?$Local@VValue@v8@@@2@@Z 00000001800752f0     node:node.exe
 0003:000042f8       __imp_?NewInstance@Function@v8@@QEBA?AV?$Local@VObject@v8@@@2@XZ 00000001800752f8     node:node.exe
 0003:00004300       __imp_?SetInternalFieldCount@ObjectTemplate@v8@@QEAAXH@Z 0000000180075300     node:node.exe
 0003:00004308       __imp_?NewInstance@ObjectTemplate@v8@@QEAA?AV?$MaybeLocal@VObject@v8@@@2@V?$Local@VContext@v8@@@2@@Z 0000000180075308     node:node.exe
 0003:00004310       __imp_?New@ObjectTemplate@v8@@SA?AV?$Local@VObjectTemplate@v8@@@2@PEAVIsolate@2@V?$Local@VFunctionTemplate@v8@@@2@@Z 0000000180075310     node:node.exe
 0003:00004318       __imp_uv_mutex_lock        0000000180075318     node:node.exe
 0003:00004320       __imp_?HasInstance@Buffer@node@@YA_NV?$Local@VValue@v8@@@v8@@@Z 0000000180075320     node:node.exe
 0003:00004328       __imp_?New@Buffer@node@@YA?AV?$MaybeLocal@VObject@v8@@@v8@@PEAVIsolate@4@PEAD_KP6AX1PEAX@Z3@Z 0000000180075328     node:node.exe
 0003:00004330       __imp_?Data@Buffer@node@@YAPEADV?$Local@VObject@v8@@@v8@@@Z 0000000180075330     node:node.exe
 0003:00004338       __imp_?Length@Buffer@node@@YA_KV?$Local@VObject@v8@@@v8@@@Z 0000000180075338     node:node.exe
 0003:00004340       __imp_?MakeCallback@node@@YA?AV?$Local@VValue@v8@@@v8@@PEAVIsolate@3@V?$Local@VObject@v8@@@3@V?$Local@VFunction@v8@@@3@HPEAV23@@Z 0000000180075340     node:node.exe
 0003:00004348       __imp_uv_mutex_destroy     0000000180075348     node:node.exe
 0003:00004350       __imp_uv_mutex_init        0000000180075350     node:node.exe
 0003:00004358       __imp_uv_default_loop      0000000180075358     node:node.exe
 0003:00004360       __imp_?ToObject@Value@v8@@QEBA?AV?$Local@VObject@v8@@@2@XZ 0000000180075360     node:node.exe
 0003:00004368       __imp_?ToString@Value@v8@@QEBA?AV?$Local@VString@v8@@@2@XZ 0000000180075368     node:node.exe
 0003:00004370       \177node_NULL_THUNK_DATA_DLA 0000000180075370     node:node.exe
 0003:00004380       __hmod__node_exe           0000000180075380     node:node.exe
 0003:000044e8       ?_Id_cnt@id@locale@std@@0HA 00000001800754e8     libcpmt:locale0.obj
 0003:000044f0       ?_Clocptr@_Locimp@locale@std@@0PEAV123@EA 00000001800754f0     libcpmt:locale0.obj
 0003:00004500       ?id@?$ctype@_W@std@@2V0locale@2@A 0000000180075500     libcpmt:locale0.obj
 0003:00004508       ?id@?$ctype@D@std@@2V0locale@2@A 0000000180075508     libcpmt:locale0.obj
 0003:00004510       ?id@?$codecvt@GDU_Mbstatet@@@std@@2V0locale@2@A 0000000180075510     libcpmt:locale0.obj
 0003:00004518       ?id@?$ctype@G@std@@2V0locale@2@A 0000000180075518     libcpmt:locale0.obj
 0003:00004530       ?id@?$codecvt@_WDU_Mbstatet@@@std@@2V0locale@2@A 0000000180075530     libcpmt:locale0.obj
 0003:0000459c       ?_Index@ios_base@std@@0HA  000000018007559c     libcpmt:ios.obj
 0003:000045a0       ?_Raise_handler@std@@3P6AXAEBVexception@stdext@@@ZEA 00000001800755a0     libcpmt:raisehan.obj
 0003:000045b0       ?_Ptr_cin@std@@3PEAV?$basic_istream@DU?$char_traits@D@std@@@1@EA 00000001800755b0     libcpmt:iosptrs.obj
 0003:000045b8       ?_Ptr_cout@std@@3PEAV?$basic_ostream@DU?$char_traits@D@std@@@1@EA 00000001800755b8     libcpmt:iosptrs.obj
 0003:000045c0       ?_Ptr_cerr@std@@3PEAV?$basic_ostream@DU?$char_traits@D@std@@@1@EA 00000001800755c0     libcpmt:iosptrs.obj
 0003:000045c8       ?_Ptr_clog@std@@3PEAV?$basic_ostream@DU?$char_traits@D@std@@@1@EA 00000001800755c8     libcpmt:iosptrs.obj
 0003:000045d0       ?_Ptr_wcin@std@@3PEAV?$basic_istream@_WU?$char_traits@_W@std@@@1@EA 00000001800755d0     libcpmt:iosptrs.obj
 0003:000045d8       ?_Ptr_wcout@std@@3PEAV?$basic_ostream@_WU?$char_traits@_W@std@@@1@EA 00000001800755d8     libcpmt:iosptrs.obj
 0003:000045e0       ?_Ptr_wcerr@std@@3PEAV?$basic_ostream@_WU?$char_traits@_W@std@@@1@EA 00000001800755e0     libcpmt:iosptrs.obj
 0003:000045e8       ?_Ptr_wclog@std@@3PEAV?$basic_ostream@_WU?$char_traits@_W@std@@@1@EA 00000001800755e8     libcpmt:iosptrs.obj
 0003:00004648       ?id@?$num_get@DV?$istreambuf_iterator@DU?$char_traits@D@std@@@std@@@std@@2V0locale@2@A 0000000180075648     libcpmt:locale.obj
 0003:00004650       ?id@?$codecvt@DDU_Mbstatet@@@std@@2V0locale@2@A 0000000180075650     libcpmt:locale.obj
 0003:00004660       __encodedKERNEL32Functions 0000000180075660     libcpmt:winapisupp.obj
 0003:000047a0       ?id@?$time_put@_WV?$ostreambuf_iterator@_WU?$char_traits@_W@std@@@std@@@std@@2V0locale@2@A 00000001800757a0     libcpmt:wlocale.obj
 0003:000047a8       ?id@?$num_get@_WV?$istreambuf_iterator@_WU?$char_traits@_W@std@@@std@@@std@@2V0locale@2@A 00000001800757a8     libcpmt:wlocale.obj
 0003:000047b0       ?id@?$num_put@_WV?$ostreambuf_iterator@_WU?$char_traits@_W@std@@@std@@@std@@2V0locale@2@A 00000001800757b0     libcpmt:wlocale.obj
 0003:000047b8       ?id@?$numpunct@_W@std@@2V0locale@2@A 00000001800757b8     libcpmt:wlocale.obj
 0003:000047c0       ?id@?$collate@_W@std@@2V0locale@2@A 00000001800757c0     libcpmt:wlocale.obj
 0003:000047c8       ?id@?$messages@_W@std@@2V0locale@2@A 00000001800757c8     libcpmt:wlocale.obj
 0003:000047d0       ?id@?$money_get@_WV?$istreambuf_iterator@_WU?$char_traits@_W@std@@@std@@@std@@2V0locale@2@A 00000001800757d0     libcpmt:wlocale.obj
 0003:000047d8       ?id@?$money_put@_WV?$ostreambuf_iterator@_WU?$char_traits@_W@std@@@std@@@std@@2V0locale@2@A 00000001800757d8     libcpmt:wlocale.obj
 0003:000047e0       ?id@?$moneypunct@_W$0A@@std@@2V0locale@2@A 00000001800757e0     libcpmt:wlocale.obj
 0003:000047e8       ?id@?$moneypunct@_W$00@std@@2V0locale@2@A 00000001800757e8     libcpmt:wlocale.obj
 0003:000047f0       ?id@?$time_get@_WV?$istreambuf_iterator@_WU?$char_traits@_W@std@@@std@@@std@@2V0locale@2@A 00000001800757f0     libcpmt:wlocale.obj
 0003:000047f8       ?id@?$num_get@GV?$istreambuf_iterator@GU?$char_traits@G@std@@@std@@@std@@2V0locale@2@A 00000001800757f8     libcpmt:wlocale.obj
 0003:00004800       ?id@?$num_put@GV?$ostreambuf_iterator@GU?$char_traits@G@std@@@std@@@std@@2V0locale@2@A 0000000180075800     libcpmt:wlocale.obj
 0003:00004808       ?id@?$numpunct@G@std@@2V0locale@2@A 0000000180075808     libcpmt:wlocale.obj
 0003:00004810       ?id@?$collate@G@std@@2V0locale@2@A 0000000180075810     libcpmt:wlocale.obj
 0003:00004818       ?id@?$messages@G@std@@2V0locale@2@A 0000000180075818     libcpmt:wlocale.obj
 0003:00004820       ?id@?$money_get@GV?$istreambuf_iterator@GU?$char_traits@G@std@@@std@@@std@@2V0locale@2@A 0000000180075820     libcpmt:wlocale.obj
 0003:00004828       ?id@?$money_put@GV?$ostreambuf_iterator@GU?$char_traits@G@std@@@std@@@std@@2V0locale@2@A 0000000180075828     libcpmt:wlocale.obj
 0003:00004830       ?id@?$moneypunct@G$0A@@std@@2V0locale@2@A 0000000180075830     libcpmt:wlocale.obj
 0003:00004838       ?id@?$moneypunct@G$00@std@@2V0locale@2@A 0000000180075838     libcpmt:wlocale.obj
 0003:00004840       ?id@?$time_get@GV?$istreambuf_iterator@GU?$char_traits@G@std@@@std@@@std@@2V0locale@2@A 0000000180075840     libcpmt:wlocale.obj
 0003:00004848       ?id@?$time_put@GV?$ostreambuf_iterator@GU?$char_traits@G@std@@@std@@@std@@2V0locale@2@A 0000000180075848     libcpmt:wlocale.obj
 0003:00004850       ?id@?$collate@D@std@@2V0locale@2@A 0000000180075850     libcpmt:xlocale.obj
 0003:00004858       ?id@?$messages@D@std@@2V0locale@2@A 0000000180075858     libcpmt:xlocale.obj
 0003:00004860       ?id@?$money_get@DV?$istreambuf_iterator@DU?$char_traits@D@std@@@std@@@std@@2V0locale@2@A 0000000180075860     libcpmt:xlocale.obj
 0003:00004868       ?id@?$money_put@DV?$ostreambuf_iterator@DU?$char_traits@D@std@@@std@@@std@@2V0locale@2@A 0000000180075868     libcpmt:xlocale.obj
 0003:00004870       ?id@?$moneypunct@D$0A@@std@@2V0locale@2@A 0000000180075870     libcpmt:xlocale.obj
 0003:00004878       ?id@?$moneypunct@D$00@std@@2V0locale@2@A 0000000180075878     libcpmt:xlocale.obj
 0003:00004880       ?id@?$time_get@DV?$istreambuf_iterator@DU?$char_traits@D@std@@@std@@@std@@2V0locale@2@A 0000000180075880     libcpmt:xlocale.obj
 0003:00004888       ?id@?$time_put@DV?$ostreambuf_iterator@DU?$char_traits@D@std@@@std@@@std@@2V0locale@2@A 0000000180075888     libcpmt:xlocale.obj
 0003:000048d8       __scrt_current_native_startup_state 00000001800758d8     LIBCMT:utility.obj
 0003:000048e0       __scrt_native_startup_lock 00000001800758e0     LIBCMT:utility.obj
 0003:00004e90       __scrt_debugger_hook_flag  0000000180075e90     LIBCMT:utility_desktop.obj
 0003:00004e94       _tls_index                 0000000180075e94     LIBCMT:tlssup.obj
 0003:00004e98       __favor                    0000000180075e98     LIBCMT:_cpu_disp_.obj
 0003:00004ea0       ?__type_info_root_node@@3U__type_info_node@@A 0000000180075ea0     LIBCMT:tncleanup.obj
 0003:00004eb0       ?_OptionsStorage@?1??__local_stdio_scanf_options@@9@4_KA 0000000180075eb0     LIBCMT:default_local_stdio_options.obj
 0003:00004eb8       ?g_OutOfMemoryExceptionCallback@@3P6APEAXXZEA 0000000180075eb8     libvcruntime:frame.obj
 0003:00004f28       __pPurecall                0000000180075f28     libvcruntime:purevirt_data.obj
 0003:00004fd8       ?pArgList@UnDecorator@@0PEAVReplicator@@EA 0000000180075fd8     libvcruntime:undname.obj
 0003:00004fe0       ?pZNameList@UnDecorator@@0PEAVReplicator@@EA 0000000180075fe0     libvcruntime:undname.obj
 0003:00004fe8       ?pTemplateArgList@UnDecorator@@0PEAVReplicator@@EA 0000000180075fe8     libvcruntime:undname.obj
 0003:00004ff0       ?gName@UnDecorator@@0PEBDEB 0000000180075ff0     libvcruntime:undname.obj
 0003:00004ff8       ?name@UnDecorator@@0PEBDEB 0000000180075ff8     libvcruntime:undname.obj
 0003:00005000       ?outputString@UnDecorator@@0PEADEA 0000000180076000     libvcruntime:undname.obj
 0003:00005008       ?maxStringLength@UnDecorator@@0HA 0000000180076008     libvcruntime:undname.obj
 0003:0000500c       ?disableFlags@UnDecorator@@0KA 000000018007600c     libvcruntime:undname.obj
 0003:00005010       ?fExplicitTemplateParams@UnDecorator@@0_NA 0000000180076010     libvcruntime:undname.obj
 0003:00005011       ?fGetTemplateArgumentList@UnDecorator@@0_NA 0000000180076011     libvcruntime:undname.obj
 0003:00005018       ?m_pGetParameter@UnDecorator@@0P6APEADJ@ZEA 0000000180076018     libvcruntime:undname.obj
 0003:00005050       __acrt_lconv_static_null   0000000180076050     libucrt:localeconv.obj
 0003:00005054       __acrt_lconv_static_W_null 0000000180076054     libucrt:localeconv.obj
 0003:00005398       _environ_table             0000000180076398     libucrt:environment_initialization.obj
 0003:000053a0       _wenviron_table            00000001800763a0     libucrt:environment_initialization.obj
 0003:000053a8       __dcrt_initial_wide_environment 00000001800763a8     libucrt:environment_initialization.obj
 0003:000053b0       __dcrt_initial_narrow_environment 00000001800763b0     libucrt:environment_initialization.obj
 0003:000053b8       __acrt_atexit_table        00000001800763b8     libucrt:onexit.obj
 0003:000053d0       __acrt_at_quick_exit_table 00000001800763d0     libucrt:onexit.obj
 0003:00005408       ?_timezone@@3V?$dual_state_global@J@__crt_state_management@@A 0000000180076408     libucrt:timeset.obj
 0003:0000540c       ?_daylight@@3V?$dual_state_global@H@__crt_state_management@@A 000000018007640c     libucrt:timeset.obj
 0003:00005410       ?_dstbias@@3V?$dual_state_global@J@__crt_state_management@@A 0000000180076410     libucrt:timeset.obj
 0003:000054f0       _nstream                   00000001800764f0     libucrt:_file.obj
 0003:000054f8       __piob                     00000001800764f8     libucrt:_file.obj
 0003:00005500       _cflush                    0000000180076500     libucrt:_file.obj
 0003:00005510       __acrt_stdout_buffer       0000000180076510     libucrt:_sftbuf.obj
 0003:00005518       __acrt_stderr_buffer       0000000180076518     libucrt:_sftbuf.obj
 0003:00005520       __acrt_locale_changed_data 0000000180076520     libucrt:wsetlocale.obj
 0003:00005528       __acrt_current_locale_data 0000000180076528     libucrt:nlsdata.obj
 0003:00005530       __pioinfo                  0000000180076530     libucrt:ioinit.obj
 0003:00005930       _nhandle                   0000000180076930     libucrt:ioinit.obj
 0003:00005af0       __acrt_heap                0000000180076af0     libucrt:heap_handle.obj
 0003:00005af8       __fma3_is_available        0000000180076af8     libucrt:fma3_available.obj
 0003:00005afc       __use_fma3_lib             0000000180076afc     libucrt:fma3_available.obj
 0003:00005b00       __mbcodepage               0000000180076b00     libucrt:mbctype.obj
 0003:00005b04       __ismbcodepage             0000000180076b04     libucrt:mbctype.obj
 0003:00005b08       __mbulinfo                 0000000180076b08     libucrt:mbctype.obj
 0003:00005b18       __mblocalename             0000000180076b18     libucrt:mbctype.obj
 0003:00005b24       __argc                     0000000180076b24     libucrt:argv_data.obj
 0003:00005b28       __argv                     0000000180076b28     libucrt:argv_data.obj
 0003:00005b30       __wargv                    0000000180076b30     libucrt:argv_data.obj
 0003:00005b38       _acmdln                    0000000180076b38     libucrt:argv_data.obj
 0003:00005b40       _wcmdln                    0000000180076b40     libucrt:argv_data.obj
 0003:00005b48       _pgmptr                    0000000180076b48     libucrt:argv_data.obj
 0003:00005b58       ?DloadKernel32@@3PEAUHINSTANCE__@@EA 0000000180076b58     DelayImp:delayhlp.obj
 0003:00005b60       ?DloadAcquireSRWLockExclusive@@3P6AXPEA_K@ZEA 0000000180076b60     DelayImp:delayhlp.obj
 0003:00005b68       ?DloadReleaseSRWLockExclusive@@3P6AXPEA_K@ZEA 0000000180076b68     DelayImp:delayhlp.obj
 0003:00005b70       ?DloadSrwLock@@3_KA        0000000180076b70     DelayImp:delayhlp.obj
 0003:00005b78       ?DloadSectionLockCount@@3KA 0000000180076b78     DelayImp:delayhlp.obj
 0003:00005b7c       ?DloadSectionOldProtection@@3KA 0000000180076b7c     DelayImp:delayhlp.obj
 0003:00005b80       ?DloadSectionCommitPermanent@@3KA 0000000180076b80     DelayImp:delayhlp.obj
 0003:00005b88       ?_Static@?1???$_Immortalize@V_Iostream_error_category@std@@@std@@YAAEAV_Iostream_error_category@1@XZ@4U?$_Immortalizer@V_Iostream_error_category@std@@@1@A 0000000180076b88     node_snap7_client.obj
 0003:00005b98       ?$TSS0@?1???$_Immortalize@V_Iostream_error_category@std@@@std@@YAAEAV_Iostream_error_category@1@XZ@4HA 0000000180076b98     node_snap7_client.obj
 0003:00005ba0       ?_OptionsStorage@?1??__local_stdio_printf_options@@9@4_KA 0000000180076ba0     node_snap7_client.obj
 0003:00005ba8       ?_Psave@?$_Facetptr@V?$numpunct@D@std@@@std@@2PEBVfacet@locale@2@EB 0000000180076ba8     node_snap7_client.obj
 0003:00005bb0       ?_Psave@?$_Facetptr@V?$num_put@DV?$ostreambuf_iterator@DU?$char_traits@D@std@@@std@@@std@@@std@@2PEBVfacet@locale@2@EB 0000000180076bb0     node_snap7_client.obj
 0003:00005bb8       ?_Psave@?$_Facetptr@V?$ctype@D@std@@@std@@2PEBVfacet@locale@2@EB 0000000180076bb8     node_snap7_client.obj
 0003:00005bd0       ?constructor@S7Client@node_snap7@@0V?$Persistent@VFunctionTemplate@v8@@V?$NonCopyablePersistentTraits@VFunctionTemplate@v8@@@2@@Nan@@A 0000000180076bd0     node_snap7_client.obj
 0003:00005d90       ?id@?$num_put@DV?$ostreambuf_iterator@DU?$char_traits@D@std@@@std@@@std@@2V0locale@2@A 0000000180076d90     node_snap7_client.obj
 0003:00005d98       ?id@?$numpunct@D@std@@2V0locale@2@A 0000000180076d98     node_snap7_client.obj
 0003:00005da0       __dyn_tls_init_callback    0000000180076da0     <common>
 0003:00005da8       __scrt_ucrt_dll_is_in_use  0000000180076da8     <common>
 0006:00000000       _tls_start                 000000018007d000     LIBCMT:tlssup.obj
 0006:00000004       _Init_thread_epoch         000000018007d004     LIBCMT:thread_safe_statics.obj
 0006:00000008       _tls_end                   000000018007d008     LIBCMT:tlssup.obj

 entry point at        0001:0002f904

 Static symbols

 0000:fff7f000       .debug$S                   0000000180000000     node:node.exe
 0000:fff7f000       .debug$S                   0000000180000000     kernel32:KERNEL32.dll
 0000:fff7f000       .debug$S                   0000000180000000     kernel32:KERNEL32.dll
 0000:fff7f000       .debug$S                   0000000180000000     kernel32:KERNEL32.dll
 0000:fff7f000       .debug$S                   0000000180000000     kernel32:KERNEL32.dll
 0000:fff7f000       .debug$S                   0000000180000000     kernel32:KERNEL32.dll
 0000:fff7f000       .debug$S                   0000000180000000     kernel32:KERNEL32.dll
 0000:fff7f000       .debug$S                   0000000180000000     kernel32:KERNEL32.dll
 0000:fff7f000       .debug$S                   0000000180000000     kernel32:KERNEL32.dll
 0000:fff7f000       .debug$S                   0000000180000000     kernel32:KERNEL32.dll
 0000:fff7f000       .debug$S                   0000000180000000     kernel32:KERNEL32.dll
 0000:fff7f000       .debug$S                   0000000180000000     kernel32:KERNEL32.dll
 0000:fff7f000       .debug$S                   0000000180000000     kernel32:KERNEL32.dll
 0000:fff7f000       .debug$S                   0000000180000000     kernel32:KERNEL32.dll
 0000:fff7f000       .debug$S                   0000000180000000     kernel32:KERNEL32.dll
 0000:fff7f000       .debug$S                   0000000180000000     kernel32:KERNEL32.dll
 0000:fff7f000       .debug$S                   0000000180000000     kernel32:KERNEL32.dll
 0000:fff7f000       .debug$S                   0000000180000000     kernel32:KERNEL32.dll
 0000:fff7f000       .debug$S                   0000000180000000     kernel32:KERNEL32.dll
 0000:fff7f000       .debug$S                   0000000180000000     kernel32:KERNEL32.dll
 0000:fff7f000       .debug$S                   0000000180000000     kernel32:KERNEL32.dll
 0000:fff7f000       .debug$S                   0000000180000000     kernel32:KERNEL32.dll
 0000:fff7f000       .debug$S                   0000000180000000     kernel32:KERNEL32.dll
 0000:fff7f000       .debug$S                   0000000180000000     kernel32:KERNEL32.dll
 0000:fff7f000       .debug$S                   0000000180000000     kernel32:KERNEL32.dll
 0000:fff7f000       .debug$S                   0000000180000000     kernel32:KERNEL32.dll
 0000:fff7f000       .debug$S                   0000000180000000     kernel32:KERNEL32.dll
 0000:fff7f000       .debug$S                   0000000180000000     kernel32:KERNEL32.dll
 0000:fff7f000       .debug$S                   0000000180000000     kernel32:KERNEL32.dll
 0000:fff7f000       .debug$S                   0000000180000000     kernel32:KERNEL32.dll
 0000:fff7f000       .debug$S                   0000000180000000     kernel32:KERNEL32.dll
 0000:fff7f000       .debug$S                   0000000180000000     kernel32:KERNEL32.dll
 0000:fff7f000       .debug$S                   0000000180000000     kernel32:KERNEL32.dll
 0000:fff7f000       .debug$S                   0000000180000000     kernel32:KERNEL32.dll
 0000:fff7f000       .debug$S                   0000000180000000     kernel32:KERNEL32.dll
 0000:fff7f000       .debug$S                   0000000180000000     kernel32:KERNEL32.dll
 0000:fff7f000       .debug$S                   0000000180000000     kernel32:KERNEL32.dll
 0000:fff7f000       .debug$S                   0000000180000000     kernel32:KERNEL32.dll
 0000:fff7f000       .debug$S                   0000000180000000     kernel32:KERNEL32.dll
 0000:fff7f000       .debug$S                   0000000180000000     kernel32:KERNEL32.dll
 0000:fff7f000       .debug$S                   0000000180000000     kernel32:KERNEL32.dll
 0000:fff7f000       .debug$S                   0000000180000000     kernel32:KERNEL32.dll
 0000:fff7f000       .debug$S                   0000000180000000     kernel32:KERNEL32.dll
 0000:fff7f000       .debug$S                   0000000180000000     kernel32:KERNEL32.dll
 0000:fff7f000       .debug$S                   0000000180000000     kernel32:KERNEL32.dll
 0000:fff7f000       .debug$S                   0000000180000000     kernel32:KERNEL32.dll
 0000:fff7f000       .debug$S                   0000000180000000     kernel32:KERNEL32.dll
 0000:fff7f000       .debug$S                   0000000180000000     kernel32:KERNEL32.dll
 0000:fff7f000       .debug$S                   0000000180000000     node:node.exe
 0000:fff7f000       .debug$S                   0000000180000000     node:node.exe
 0000:fff7f000       .debug$S                   0000000180000000     node:node.exe
 0000:fff7f000       .debug$S                   0000000180000000     node:node.exe
 0000:fff7f000       .debug$S                   0000000180000000     node:node.exe
 0000:fff7f000       .debug$S                   0000000180000000     node:node.exe
 0000:fff7f000       .debug$S                   0000000180000000     node:node.exe
 0000:fff7f000       .debug$S                   0000000180000000     node:node.exe
 0000:fff7f000       .debug$S                   0000000180000000     node:node.exe
 0000:fff7f000       .debug$S                   0000000180000000     node:node.exe
 0000:fff7f000       .debug$S                   0000000180000000     node:node.exe
 0000:fff7f000       .debug$S                   0000000180000000     node:node.exe
 0000:fff7f000       .debug$S                   0000000180000000     node:node.exe
 0000:fff7f000       .debug$S                   0000000180000000     node:node.exe
 0000:fff7f000       .debug$S                   0000000180000000     node:node.exe
 0000:fff7f000       .debug$S                   0000000180000000     node:node.exe
 0000:fff7f000       .debug$S                   0000000180000000     node:node.exe
 0000:fff7f000       .debug$S                   0000000180000000     node:node.exe
 0000:fff7f000       .debug$S                   0000000180000000     node:node.exe
 0000:fff7f000       .debug$S                   0000000180000000     node:node.exe
 0000:fff7f000       .debug$S                   0000000180000000     node:node.exe
 0000:fff7f000       .debug$S                   0000000180000000     node:node.exe
 0000:fff7f000       .debug$S                   0000000180000000     node:node.exe
 0000:fff7f000       .debug$S                   0000000180000000     node:node.exe
 0000:fff7f000       .debug$S                   0000000180000000     node:node.exe
 0000:fff7f000       .debug$S                   0000000180000000     node:node.exe
 0000:fff7f000       .debug$S                   0000000180000000     node:node.exe
 0000:fff7f000       .debug$S                   0000000180000000     kernel32:KERNEL32.dll
 0000:fff7f000       .debug$S                   0000000180000000     node:node.exe
 0000:fff7f000       .debug$S                   0000000180000000     kernel32:KERNEL32.dll
 0000:fff7f000       .debug$S                   0000000180000000     node:node.exe
 0000:fff7f000       .debug$S                   0000000180000000     node:node.exe
 0000:fff7f000       .debug$S                   0000000180000000     node:node.exe
 0000:fff7f000       .debug$S                   0000000180000000     node:node.exe
 0000:fff7f000       .debug$S                   0000000180000000     node:node.exe
 0000:fff7f000       .debug$S                   0000000180000000     node:node.exe
 0000:fff7f000       .debug$S                   0000000180000000     node:node.exe
 0000:fff7f000       .debug$S                   0000000180000000     node:node.exe
 0000:fff7f000       .debug$S                   0000000180000000     node:node.exe
 0000:fff7f000       .debug$S                   0000000180000000     node:node.exe
 0000:fff7f000       .debug$S                   0000000180000000     node:node.exe
 0000:fff7f000       .debug$S                   0000000180000000     node:node.exe
 0000:fff7f000       .debug$S                   0000000180000000     node:node.exe
 0000:fff7f000       .debug$S                   0000000180000000     node:node.exe
 0000:fff7f000       .debug$S                   0000000180000000     kernel32:KERNEL32.dll
 0000:fff7f000       .debug$S                   0000000180000000     node:node.exe
 0000:fff7f000       .debug$S                   0000000180000000     kernel32:KERNEL32.dll
 0000:fff7f000       .debug$S                   0000000180000000     node:node.exe
 0000:fff7f000       .debug$S                   0000000180000000     kernel32:KERNEL32.dll
 0000:fff7f000       .debug$S                   0000000180000000     node:node.exe
 0000:fff7f000       .debug$S                   0000000180000000     kernel32:KERNEL32.dll
 0000:fff7f000       .debug$S                   0000000180000000     node:node.exe
 0000:fff7f000       .debug$S                   0000000180000000     kernel32:KERNEL32.dll
 0000:fff7f000       .debug$S                   0000000180000000     node:node.exe
 0000:fff7f000       .debug$S                   0000000180000000     kernel32:KERNEL32.dll
 0000:fff7f000       .debug$S                   0000000180000000     node:node.exe
 0000:fff7f000       .debug$S                   0000000180000000     kernel32:KERNEL32.dll
 0000:fff7f000       .debug$S                   0000000180000000     node:node.exe
 0000:fff7f000       .debug$S                   0000000180000000     kernel32:KERNEL32.dll
 0000:fff7f000       .debug$S                   0000000180000000     node:node.exe
 0000:fff7f000       .debug$S                   0000000180000000     kernel32:KERNEL32.dll
 0000:fff7f000       .debug$S                   0000000180000000     node:node.exe
 0000:fff7f000       .debug$S                   0000000180000000     kernel32:KERNEL32.dll
 0000:fff7f000       .debug$S                   0000000180000000     node:node.exe
 0000:fff7f000       .debug$S                   0000000180000000     kernel32:KERNEL32.dll
 0000:fff7f000       .debug$S                   0000000180000000     node:node.exe
 0000:fff7f000       .debug$S                   0000000180000000     kernel32:KERNEL32.dll
 0000:fff7f000       .debug$S                   0000000180000000     node:node.exe
 0000:fff7f000       .debug$S                   0000000180000000     kernel32:KERNEL32.dll
 0000:fff7f000       .debug$S                   0000000180000000     node:node.exe
 0000:fff7f000       .debug$S                   0000000180000000     kernel32:KERNEL32.dll
 0000:fff7f000       .debug$S                   0000000180000000     node:node.exe
 0000:fff7f000       .debug$S                   0000000180000000     kernel32:KERNEL32.dll
 0000:fff7f000       .debug$S                   0000000180000000     node:node.exe
 0000:fff7f000       .debug$S                   0000000180000000     kernel32:KERNEL32.dll
 0000:fff7f000       .debug$S                   0000000180000000     node:node.exe
 0000:fff7f000       .debug$S                   0000000180000000     kernel32:KERNEL32.dll
 0000:fff7f000       .debug$S                   0000000180000000     node:node.exe
 0000:fff7f000       .debug$S                   0000000180000000     kernel32:KERNEL32.dll
 0000:fff7f000       .debug$S                   0000000180000000     node:node.exe
 0000:fff7f000       .debug$S                   0000000180000000     kernel32:KERNEL32.dll
 0000:fff7f000       .debug$S                   0000000180000000     node:node.exe
 0000:fff7f000       .debug$S                   0000000180000000     kernel32:KERNEL32.dll
 0000:fff7f000       .debug$S                   0000000180000000     node:node.exe
 0000:fff7f000       .debug$S                   0000000180000000     kernel32:KERNEL32.dll
 0000:fff7f000       .debug$S                   0000000180000000     node:node.exe
 0000:fff7f000       .debug$S                   0000000180000000     kernel32:KERNEL32.dll
 0000:fff7f000       .debug$S                   0000000180000000     node:node.exe
 0000:fff7f000       .debug$S                   0000000180000000     kernel32:KERNEL32.dll
 0000:fff7f000       .debug$S                   0000000180000000     node:node.exe
 0000:fff7f000       .debug$S                   0000000180000000     node:node.exe
 0000:fff7f000       .debug$S                   0000000180000000     node:node.exe
 0000:fff7f000       .debug$S                   0000000180000000     node:node.exe
 0000:fff7f000       .debug$S                   0000000180000000     node:node.exe
 0000:fff7f000       .debug$S                   0000000180000000     node:node.exe
 0000:fff7f000       .debug$S                   0000000180000000     node:node.exe
 0000:fff7f000       .debug$S                   0000000180000000     kernel32:KERNEL32.dll
 0000:fff7f000       .debug$S                   0000000180000000     kernel32:KERNEL32.dll
 0000:fff7f000       .debug$S                   0000000180000000     node:node.exe
 0000:fff7f000       .debug$S                   0000000180000000     node:node.exe
 0000:fff7f000       .debug$S                   0000000180000000     kernel32:KERNEL32.dll
 0000:fff7f000       .debug$S                   0000000180000000     node_snap7.exp
 0000:fff7f000       .debug$S                   0000000180000000     kernel32:KERNEL32.dll
 0000:fff7f000       .debug$S                   0000000180000000     kernel32:KERNEL32.dll
 0000:fff7f000       .debug$S                   0000000180000000     kernel32:KERNEL32.dll
 0000:fff7f000       .debug$S                   0000000180000000     node:node.exe
 0000:fff7f000       .debug$S                   0000000180000000     kernel32:KERNEL32.dll
 0000:fff7f000       .debug$S                   0000000180000000     kernel32:KERNEL32.dll
 0000:fff7f000       .debug$S                   0000000180000000     node:node.exe
 0000:fff7f000       .debug$S                   0000000180000000     kernel32:KERNEL32.dll
 0000:fff7f000       .debug$S                   0000000180000000     kernel32:KERNEL32.dll
 0000:fff7f000       .debug$S                   0000000180000000     kernel32:KERNEL32.dll
 0000:fff7f000       .debug$S                   0000000180000000     node:node.exe
 0000:fff7f000       .debug$S                   0000000180000000     kernel32:KERNEL32.dll
 0000:fff7f000       .debug$S                   0000000180000000     kernel32:KERNEL32.dll
 0000:fff7f000       .debug$S                   0000000180000000     kernel32:KERNEL32.dll
 0000:fff7f000       .debug$S                   0000000180000000     kernel32:KERNEL32.dll
 0000:fff7f000       .debug$S                   0000000180000000     kernel32:KERNEL32.dll
 0000:fff7f000       .debug$S                   0000000180000000     kernel32:KERNEL32.dll
 0000:fff7f000       .debug$S                   0000000180000000     kernel32:KERNEL32.dll
 0000:fff7f000       .debug$S                   0000000180000000     node:node.exe
 0000:fff7f000       .debug$S                   0000000180000000     kernel32:KERNEL32.dll
 0000:fff7f000       .debug$S                   0000000180000000     node:node.exe
 0000:fff7f000       .debug$S                   0000000180000000     kernel32:KERNEL32.dll
 0000:fff7f000       .debug$S                   0000000180000000     kernel32:KERNEL32.dll
 0000:fff7f000       .debug$S                   0000000180000000     kernel32:KERNEL32.dll
 0000:fff7f000       .debug$S                   0000000180000000     node:node.exe
 0000:fff7f000       .debug$S                   0000000180000000     kernel32:KERNEL32.dll
 0000:fff7f000       .debug$S                   0000000180000000     node:node.exe
 0000:fff7f000       .debug$S                   0000000180000000     kernel32:KERNEL32.dll
 0000:fff7f000       .debug$S                   0000000180000000     node:node.exe
 0000:fff7f000       .debug$S                   0000000180000000     kernel32:KERNEL32.dll
 0000:fff7f000       .debug$S                   0000000180000000     node:node.exe
 0000:fff7f000       .debug$S                   0000000180000000     kernel32:KERNEL32.dll
 0000:fff7f000       .debug$S                   0000000180000000     node:node.exe
 0000:fff7f000       .debug$S                   0000000180000000     kernel32:KERNEL32.dll
 0000:fff7f000       .debug$S                   0000000180000000     kernel32:KERNEL32.dll
 0000:fff7f000       .debug$S                   0000000180000000     kernel32:KERNEL32.dll
 0000:fff7f000       .debug$S                   0000000180000000     node:node.exe
 0000:fff7f000       .debug$S                   0000000180000000     kernel32:KERNEL32.dll
 0000:fff7f000       .debug$S                   0000000180000000     node:node.exe
 0000:fff7f000       .debug$S                   0000000180000000     kernel32:KERNEL32.dll
 0000:fff7f000       .debug$S                   0000000180000000     node:node.exe
 0000:fff7f000       .debug$S                   0000000180000000     winmm:WINMM.dll
 0000:fff7f000       .debug$S                   0000000180000000     kernel32:KERNEL32.dll
 0000:fff7f000       .debug$S                   0000000180000000     kernel32:KERNEL32.dll
 0000:fff7f000       .debug$S                   0000000180000000     kernel32:KERNEL32.dll
 0000:fff7f000       .debug$S                   0000000180000000     winmm:WINMM.dll
 0000:fff7f000       .debug$S                   0000000180000000     winmm:WINMM.dll
 0000:fff7f000       .debug$S                   0000000180000000     ws2_32:WS2_32.dll
 0000:fff7f000       .debug$S                   0000000180000000     ws2_32:WS2_32.dll
 0000:fff7f000       .debug$S                   0000000180000000     ws2_32:WS2_32.dll
 0000:fff7f000       .debug$S                   0000000180000000     ws2_32:WS2_32.dll
 0000:fff7f000       .debug$S                   0000000180000000     ws2_32:WS2_32.dll
 0000:fff7f000       .debug$S                   0000000180000000     ws2_32:WS2_32.dll
 0000:fff7f000       .debug$S                   0000000180000000     ws2_32:WS2_32.dll
 0000:fff7f000       .debug$S                   0000000180000000     ws2_32:WS2_32.dll
 0000:fff7f000       .debug$S                   0000000180000000     ws2_32:WS2_32.dll
 0000:fff7f000       .debug$S                   0000000180000000     ws2_32:WS2_32.dll
 0000:fff7f000       .debug$S                   0000000180000000     ws2_32:WS2_32.dll
 0000:fff7f000       .debug$S                   0000000180000000     ws2_32:WS2_32.dll
 0000:fff7f000       .debug$S                   0000000180000000     ws2_32:WS2_32.dll
 0000:fff7f000       .debug$S                   0000000180000000     ws2_32:WS2_32.dll
 0000:fff7f000       .debug$S                   0000000180000000     ws2_32:WS2_32.dll
 0000:fff7f000       .debug$S                   0000000180000000     ws2_32:WS2_32.dll
 0000:fff7f000       .debug$S                   0000000180000000     ws2_32:WS2_32.dll
 0000:fff7f000       .debug$S                   0000000180000000     ws2_32:WS2_32.dll
 0000:fff7f000       .debug$S                   0000000180000000     ws2_32:WS2_32.dll
 0000:fff7f000       .debug$S                   0000000180000000     ws2_32:WS2_32.dll
 0000:fff7f000       .debug$S                   0000000180000000     kernel32:KERNEL32.dll
 0001:00000000       ??__E?constructor@S7Client@node_snap7@@0V?$Persistent@VFunctionTemplate@v8@@V?$NonCopyablePersistentTraits@VFunctionTemplate@v8@@@2@@Nan@@A@@YAXXZ 0000000180001000 f   node_snap7_client.obj
 0001:00000010       ??__ESocketsLayerInitializer@@YAXXZ 0000000180001010 f   snap7:snap_msgsock.obj
 0001:0000002c       ??__Einitlocks@std@@YAXXZ  000000018000102c f   libcpmt:xlock.obj
 0001:0000004c       ??__E_Fac_tidy_reg@std@@YAXXZ 000000018000104c f   libcpmt:locale0.obj
 0001:00000058       ??__Eclassic_locale@std@@YAXXZ 0000000180001058 f   libcpmt:locale0.obj
 0001:00000064       ??__Einit_atexit@@YAXXZ    0000000180001064 f   libcpmt:iosptrs.obj
 0001:00000070       ??__Einitlocks@std@@YAXXZ  0000000180001070 f   libcpmt:iosptrs.obj
 0001:000000a0       _register_node_snap7       00000001800010a0 f   node_snap7.obj
 0001:00000d70       ?FunctionCallbackWrapper@imp@Nan@@YAXAEBV?$FunctionCallbackInfo@VValue@v8@@@v8@@@Z 0000000180001d70 f   node_snap7_client.obj
 0001:0000611c       $LN10                      000000018000711c     node_snap7_client.obj
 0001:0000612c       $LN9                       000000018000712c     node_snap7_client.obj
 0001:00006c50       $LN180                     0000000180007c50     node_snap7_client.obj
 0001:00007368       $LN156                     0000000180008368     node_snap7_client.obj
 0001:00007b3c       $LN1408                    0000000180008b3c     node_snap7_client.obj
 0001:000093c0       $LN875                     000000018000a3c0     node_snap7_client.obj
 0001:000093d0       $LN874                     000000018000a3d0     node_snap7_client.obj
 0001:00009768       $LN189                     000000018000a768     node_snap7_client.obj
 0001:00009778       $LN188                     000000018000a778     node_snap7_client.obj
 0001:00012140       no_op_initialize           0000000180013140 f i libucrt:wsetlocale.obj
 0001:00016640       ?load_exe_hook@@YAP6A_JXZIPEAUDelayLoadInfo@@@Z 0000000180017640 f   win_delay_load_hook.obj
 0001:00019318       $LN20                      000000018001a318     snap7:s7_partner.obj
 0001:00019438       $LN21                      000000018001a438     snap7:s7_partner.obj
 0001:0001b534       $LN76                      000000018001c534     snap7:s7_micro_client.obj
 0001:0001b544       $LN75                      000000018001c544     snap7:s7_micro_client.obj
 0001:0001b934       $LN101                     000000018001c934     snap7:s7_micro_client.obj
 0001:0001b944       $LN100                     000000018001c944     snap7:s7_micro_client.obj
 0001:0001b964       $LN99                      000000018001c964     snap7:s7_micro_client.obj
 0001:0001b978       $LN98                      000000018001c978     snap7:s7_micro_client.obj
 0001:0001c1d4       $LN126                     000000018001d1d4     snap7:s7_micro_client.obj
 0001:0001c1e8       $LN125                     000000018001d1e8     snap7:s7_micro_client.obj
 0001:0001c208       $LN124                     000000018001d208     snap7:s7_micro_client.obj
 0001:0001c218       $LN123                     000000018001d218     snap7:s7_micro_client.obj
 0001:0001c488       $LN83                      000000018001d488     snap7:s7_micro_client.obj
 0001:0001dc18       $LN157                     000000018001ec18     snap7:s7_micro_client.obj
 0001:0001f54c       $LN17                      000000018002054c     snap7:s7_micro_client.obj
 0001:0001f55c       $LN16                      000000018002055c     snap7:s7_micro_client.obj
 0001:0001f778       $LN44                      0000000180020778     snap7:s7_micro_client.obj
 0001:0001f90c       $LN15                      000000018002090c     snap7:s7_micro_client.obj
 0001:0001f9d0       $LN17                      00000001800209d0     snap7:s7_micro_client.obj
 0001:00020e00       ?TcpTextOf@@YA?AV?$basic_string@DU?$char_traits@D@std@@V?$allocator@D@2@@std@@H@Z 0000000180021e00 f   snap7:s7_text.obj
 0001:00021374       $LN1785                    0000000180022374     snap7:s7_text.obj
 0001:00021430       $LN1784                    0000000180022430     snap7:s7_text.obj
 0001:00021490       ?IsoTextOf@@YA?AV?$basic_string@DU?$char_traits@D@std@@V?$allocator@D@2@@std@@H@Z 0000000180022490 f   snap7:s7_text.obj
 0001:000216a0       ?CliTextOf@@YA?AV?$basic_string@DU?$char_traits@D@std@@V?$allocator@D@2@@std@@H@Z 00000001800226a0 f   snap7:s7_text.obj
 0001:00021c70       ?SrvTextOf@@YA?AV?$basic_string@DU?$char_traits@D@std@@V?$allocator@D@2@@std@@H@Z 0000000180022c70 f   snap7:s7_text.obj
 0001:00021e30       ?ParTextOf@@YA?AV?$basic_string@DU?$char_traits@D@std@@V?$allocator@D@2@@std@@H@Z 0000000180022e30 f   snap7:s7_text.obj
 0001:00022580       ?SenderText@@YA?AV?$basic_string@DU?$char_traits@D@std@@V?$allocator@D@2@@std@@AEAUTSrvEvent@@@Z 0000000180023580 f   snap7:s7_text.obj
 0001:00022860       ?TcpServerEventText@@YA?AV?$basic_string@DU?$char_traits@D@std@@V?$allocator@D@2@@std@@AEAUTSrvEvent@@@Z 0000000180023860 f   snap7:s7_text.obj
 0001:00022cb0       ?PDUText@@YA?AV?$basic_string@DU?$char_traits@D@std@@V?$allocator@D@2@@std@@AEAUTSrvEvent@@@Z 0000000180023cb0 f   snap7:s7_text.obj
 0001:000231f0       ?TxtArea@@YA?AV?$basic_string@DU?$char_traits@D@std@@V?$allocator@D@2@@std@@AEAUTSrvEvent@@@Z 00000001800241f0 f   snap7:s7_text.obj
 0001:000234cc       $LN710                     00000001800244cc     snap7:s7_text.obj
 0001:000234e8       $LN709                     00000001800244e8     snap7:s7_text.obj
 0001:00023560       ?TxtStartSize@@YA?AV?$basic_string@DU?$char_traits@D@std@@V?$allocator@D@2@@std@@AEAUTSrvEvent@@@Z 0000000180024560 f   snap7:s7_text.obj
 0001:000237c0       ?TxtDataResult@@YA?AV?$basic_string@DU?$char_traits@D@std@@V?$allocator@D@2@@std@@AEAUTSrvEvent@@@Z 00000001800247c0 f   snap7:s7_text.obj
 0001:00023a98       $LN912                     0000000180024a98     snap7:s7_text.obj
 0001:00023ad0       ?ControlText@@YA?AV?$basic_string@DU?$char_traits@D@std@@V?$allocator@D@2@@std@@G@Z 0000000180024ad0 f   snap7:s7_text.obj
 0001:00023e08       $LN482                     0000000180024e08     snap7:s7_text.obj
 0001:00023e30       ?ClockText@@YA?AV?$basic_string@DU?$char_traits@D@std@@V?$allocator@D@2@@std@@G@Z 0000000180024e30 f   snap7:s7_text.obj
 0001:00023ea0       ?ReadSZLText@@YA?AV?$basic_string@DU?$char_traits@D@std@@V?$allocator@D@2@@std@@AEAUTSrvEvent@@@Z 0000000180024ea0 f   snap7:s7_text.obj
 0001:00024200       ?UploadText@@YA?AV?$basic_string@DU?$char_traits@D@std@@V?$allocator@D@2@@std@@AEAUTSrvEvent@@@Z 0000000180025200 f   snap7:s7_text.obj
 0001:00024250       ?DownloadText@@YA?AV?$basic_string@DU?$char_traits@D@std@@V?$allocator@D@2@@std@@AEAUTSrvEvent@@@Z 0000000180025250 f   snap7:s7_text.obj
 0001:000242a0       ?StrBlockType@@YA?AV?$basic_string@DU?$char_traits@D@std@@V?$allocator@D@2@@std@@G@Z 00000001800252a0 f   snap7:s7_text.obj
 0001:00024588       $LN912                     0000000180025588     snap7:s7_text.obj
 0001:000245d0       ?BlockInfoText@@YA?AV?$basic_string@DU?$char_traits@D@std@@V?$allocator@D@2@@std@@AEAUTSrvEvent@@@Z 00000001800255d0 f   snap7:s7_text.obj
 0001:00024ce0       ?SecurityText@@YA?AV?$basic_string@DU?$char_traits@D@std@@V?$allocator@D@2@@std@@AEAUTSrvEvent@@@Z 0000000180025ce0 f   snap7:s7_text.obj
 0001:00025b70       uninitialize_c             0000000180026b70 f   libucrt:initialization.obj
 0001:00025b70       initialize_global_state_isolation 0000000180026b70 f   libucrt:initialization.obj
 0001:00025b70       report_memory_leaks        0000000180026b70 f   libucrt:initialization.obj
 0001:00025b70       uninitialize_global_state_isolation 0000000180026b70 f   libucrt:initialization.obj
 0001:00025b70       initialize_environment     0000000180026b70 f   libucrt:initialization.obj
 0001:000260bc       $LN17                      00000001800270bc     snap7:s7_server.obj
 0001:000260d8       $LN16                      00000001800270d8     snap7:s7_server.obj
 0001:00026304       $LN32                      0000000180027304     snap7:s7_server.obj
 0001:000263a8       $LN13                      00000001800273a8     snap7:s7_server.obj
 0001:000263c4       $LN12                      00000001800273c4     snap7:s7_server.obj
 0001:0002689c       $LN155                     000000018002789c     snap7:s7_server.obj
 0001:000268ac       $LN154                     00000001800278ac     snap7:s7_server.obj
 0001:000268cc       $LN153                     00000001800278cc     snap7:s7_server.obj
 0001:000268e4       $LN152                     00000001800278e4     snap7:s7_server.obj
 0001:00026ebc       $LN87                      0000000180027ebc     snap7:s7_server.obj
 0001:00026ecc       $LN86                      0000000180027ecc     snap7:s7_server.obj
 0001:00029600       $LN344                     000000018002a600     snap7:s7_server.obj
 0001:0002966c       $LN343                     000000018002a66c     snap7:s7_server.obj
 0001:00029710       $LN342                     000000018002a710     snap7:s7_server.obj
 0001:0002974c       $LN341                     000000018002a74c     snap7:s7_server.obj
 0001:000297dc       $LN340                     000000018002a7dc     snap7:s7_server.obj
 0001:00029808       $LN339                     000000018002a808     snap7:s7_server.obj
 0001:0002982c       $LN338                     000000018002a82c     snap7:s7_server.obj
 0001:0002985c       $LN337                     000000018002a85c     snap7:s7_server.obj
 0001:000298b4       $LN336                     000000018002a8b4     snap7:s7_server.obj
 0001:000298e4       $LN335                     000000018002a8e4     snap7:s7_server.obj
 0001:00029900       $LN334                     000000018002a900     snap7:s7_server.obj
 0001:00029964       $LN333                     000000018002a964     snap7:s7_server.obj
 0001:000299c0       $LN332                     000000018002a9c0     snap7:s7_server.obj
 0001:0002dc60       tidy_global                000000018002ec60 f   libcpmt:locale0.obj
 0001:0002e744       ?initialize_pointers@@YAHXZ 000000018002f744 f   libcpmt:winapisupp.obj
 0001:0002ee50       $$000000                   000000018002fe50     LIBCMT:_amdsecgs_.obj
 0001:0002ee84       ?__scrt_initialize_thread_safe_statics@@YAHXZ 000000018002fe84 f   LIBCMT:thread_safe_statics.obj
 0001:0002efa4       ?__scrt_uninitialize_thread_safe_statics@@YAXXZ 000000018002ffa4 f   LIBCMT:thread_safe_statics.obj
 0001:0002f5b8       ?dllmain_crt_dispatch@@YAHQEAUHINSTANCE__@@KQEAX@Z 00000001800305b8 f   LIBCMT:dll_dllmain.obj
 0001:0002f608       ?dllmain_crt_process_attach@@YAHQEAUHINSTANCE__@@QEAX@Z 0000000180030608 f   LIBCMT:dll_dllmain.obj
 0001:0002f734       ?dllmain_crt_process_detach@@YAH_N@Z 0000000180030734 f   LIBCMT:dll_dllmain.obj
 0001:0002f7b8       ?dllmain_dispatch@@YAHQEAUHINSTANCE__@@KQEAX@Z 00000001800307b8 f   LIBCMT:dll_dllmain.obj
 0001:0002f8b0       ?dllmain_raw@@YAHQEAUHINSTANCE__@@KQEAX@Z 00000001800308b0 f   LIBCMT:dll_dllmain.obj
 0001:0002fa80       $$000000                   0000000180030a80     LIBCMT:_chkstk_.obj
 0001:0002fc9c       capture_current_context    0000000180030c9c f   LIBCMT:gs_report.obj
 0001:0002fd0c       capture_previous_context   0000000180030d0c f   LIBCMT:gs_report.obj
 0001:000302c0       $$000000                   00000001800312c0     libvcruntime:memcpy.obj
 0001:00030367       MoveSmall                  0000000180031367     libvcruntime:memcpy.obj
 0001:00030840       ?CatchIt@@YAXPEAUEHExceptionRecord@@PEA_KPEAU_CONTEXT@@PEAU_xDISPATCHER_CONTEXT@@PEBU_s_FuncInfo@@PEBU_s_HandlerType@@PEBU_s_CatchableType@@PEBU_s_TryBlockMapEntry@@H1EE@Z 0000000180031840 f   libvcruntime:frame.obj
 0001:00030904       ?ExFilterRethrow@@YAHPEAU_EXCEPTION_POINTERS@@PEAUEHExceptionRecord@@PEAH@Z 0000000180031904 f   libvcruntime:frame.obj
 0001:0003098c       ?FindHandler@@YAXPEAUEHExceptionRecord@@PEA_KPEAU_CONTEXT@@PEAU_xDISPATCHER_CONTEXT@@PEBU_s_FuncInfo@@EH1@Z 000000018003198c f   libvcruntime:frame.obj
 0001:00030e5c       ?FindHandlerForForeignException@@YAXPEAUEHExceptionRecord@@PEA_KPEAU_CONTEXT@@PEAU_xDISPATCHER_CONTEXT@@PEBU_s_FuncInfo@@HH1@Z 0000000180031e5c f   libvcruntime:frame.obj
 0001:000310c8       ?IsInExceptionSpec@@YAEPEAUEHExceptionRecord@@PEBU_s_ESTypeList@@@Z 00000001800320c8 f   libvcruntime:frame.obj
 0001:00032440       $$000000                   0000000180033440     libvcruntime:memset.obj
 0001:0003252c       MsetTab                    000000018003352c     libvcruntime:memset.obj
 0001:000325f0       $$000000                   00000001800335f0     libvcruntime:memcmp.obj
 0001:000326c8       ?try_get_function@@YAPEAXW4function_id@?A0x679b24ab@@QEBDQEBW4module_id@2@2@Z 00000001800336c8 f   libvcruntime:winapi_downlevel.obj
 0001:000330b0       $$000000                   00000001800340b0     libvcruntime:handlers.obj
 0001:00033100       $$000000                   0000000180034100     libvcruntime:_jmpuwind_.obj
 0001:0003356c       ??$common_mktime@_J@@YA_JQEAUtm@@_N@Z 000000018003456c f   libucrt:mktime.obj
 0001:000339b4       ??$common_vsprintf@Vformat_validation_base@__crt_stdio_output@@D@@YAH_KQEAD0QEBDQEAU__crt_locale_pointers@@1@Z 00000001800349b4 f   libucrt:output.obj
 0001:0003409c       ??R<lambda_dd75445284c072d0bd3768540cc698fa>@@QEBAHXZ 000000018003509c f   libucrt:output.obj
 0001:00036b14       ??$common_localtime_s@_J@@YAHQEAUtm@@QEB_J@Z 0000000180037b14 f   libucrt:localtime.obj
 0001:00036f80       ??$common_assert_to_message_box@_W@@YAXQEB_W0IQEAX@Z 0000000180037f80 f   libucrt:assert.obj
 0001:00037044       ??$common_assert_to_message_box_build_string@_W@@YAXQEA_W_KQEB_W2IQEAX@Z 0000000180038044 f   libucrt:assert.obj
 0001:00037818       ??$common_assert_to_stderr@_W@@YAXQEB_W0I@Z 0000000180038818 f   libucrt:assert.obj
 0001:00037988       ?get_assert_format@@YAPEB_W_W@Z 0000000180038988 f   libucrt:assert.obj
 0001:00037bf0       $$000000                   0000000180038bf0     libucrt:strncpy.obj
 0001:00037f28       ??$common_timespec_get@U_timespec64@@@@YAHQEAU_timespec64@@H@Z 0000000180038f28 f   libucrt:time.obj
 0001:000380d8       call_wsetlocale            00000001800390d8 f   libucrt:setlocale.obj
 0001:00038d54       ?x_ismbbtype_l@@YAHPEAU__crt_locale_pointers@@IHH@Z 0000000180039d54 f   libucrt:ismbbyte.obj
 0001:000393b0       $$000000                   000000018003a3b0     libucrt:pow.obj
 0001:0003aa50       $$000000                   000000018003ba50     libucrt:powf.obj
 0001:0003b9cc       ?compute_iso_week_internal@@YAHHHH@Z 000000018003c9cc f   libucrt:wcsftime.obj
 0001:0003bac0       ?expand_time@@YA_NPEAU__crt_locale_pointers@@_WPEBUtm@@PEAPEA_WPEA_KPEBU__crt_lc_time_data@@_N@Z 000000018003cac0 f   libucrt:wcsftime.obj
 0001:0003ca60       ?store_number@@YAXHHQEAPEA_WQEA_K_W@Z 000000018003da60 f   libucrt:wcsftime.obj
 0001:0003cbb0       ?store_winword@@YA_NQEAU__crt_locale_pointers@@HQEBUtm@@QEAPEA_WQEA_KQEBU__crt_lc_time_data@@@Z 000000018003dbb0 f   libucrt:wcsftime.obj
 0001:0003d2bc       ?internal_isupper_l@@YA_NHQEAU__crt_locale_pointers@@@Z 000000018003e2bc f   libucrt:tolower_toupper.obj
 0001:0003da4c       ?atexit_exception_filter@@YAHK@Z 000000018003ea4c f   libucrt:exit.obj
 0001:0003da58       ?common_exit@@YAXHW4_crt_exit_cleanup_mode@@W4_crt_exit_return_mode@@@Z 000000018003ea58 f   libucrt:exit.obj
 0001:0003dbc4       ?exit_or_terminate_process@@YAXI@Z 000000018003ebc4 f   libucrt:exit.obj
 0001:0003dc10       ?try_cor_exit_process@@YAXI@Z 000000018003ec10 f   libucrt:exit.obj
 0001:0003dca8       ??$parse_command_line@D@@YAXPEADPEAPEAD0PEA_K2@Z 000000018003eca8 f   libucrt:argv_parsing.obj
 0001:0003e040       ??$common_get_or_create_environment_nolock@D@@YAPEAPEADXZ 000000018003f040 f   libucrt:environment_initialization.obj
 0001:0003e088       ??$common_initialize_environment_nolock@D@@YAHXZ 000000018003f088 f   libucrt:environment_initialization.obj
 0001:0003e0f4       ??$create_environment@D@@YAQEAPEADQEAD@Z 000000018003f0f4 f   libucrt:environment_initialization.obj
 0001:0003e1f0       ??$free_environment@D@@YAXQEAPEAD@Z 000000018003f1f0 f   libucrt:environment_initialization.obj
 0001:0003e1f0       ??$free_environment@_W@@YAXQEAPEA_W@Z 000000018003f1f0 f   libucrt:environment_initialization.obj
 0001:0003e234       ??$initialize_environment_by_cloning_nolock@D@@YAHXZ 000000018003f234 f   libucrt:environment_initialization.obj
 0001:0003e308       ??$uninitialize_environment_internal@D@@YAXAEAPEAPEAD@Z 000000018003f308 f   libucrt:environment_initialization.obj
 0001:0003e324       ??$uninitialize_environment_internal@_W@@YAXAEAPEAPEA_W@Z 000000018003f324 f   libucrt:environment_initialization.obj
 0001:0003e564       ??R<lambda_4e60a939b0d047cfe11ddc22648dfba9>@@QEBAHXZ 000000018003f564 f   libucrt:onexit.obj
 0001:0003e814       initialize_global_variables 000000018003f814 f   libucrt:initialization.obj
 0001:0003e828       initialize_c               000000018003f828 f   libucrt:initialization.obj
 0001:0003e84c       uninitialize_environment   000000018003f84c f   libucrt:initialization.obj
 0001:0003e85c       initialize_pointers        000000018003f85c f   libucrt:initialization.obj
 0001:0003e8b0       uninitialize_vcruntime     000000018003f8b0 f   libucrt:initialization.obj
 0001:0003e8b8       uninitialize_allocated_memory 000000018003f8b8 f   libucrt:initialization.obj
 0001:0003ea90       ??$common_xtox@KD@@YAHKQEAD_KI_N@Z 000000018003fa90 f   libucrt:xtoa.obj
 0001:0003eb24       ??$common_xtox@K_W@@YAHKQEA_W_KI_N@Z 000000018003fb24 f   libucrt:xtoa.obj
 0001:0003ebd0       ??$common_xtox_s@K_W@@YAHKQEA_W_KI_N@Z 000000018003fbd0 f   libucrt:xtoa.obj
 0001:0003fbc4       ?construct_ptd_array@@YAXQEAU__acrt_ptd@@@Z 0000000180040bc4 f   libucrt:per_thread_data.obj
 0001:0003fc94       ?destroy_fls@@YAXPEAX@Z    0000000180040c94 f   libucrt:per_thread_data.obj
 0001:0003fcb4       ?destroy_ptd_array@@YAXQEAU__acrt_ptd@@@Z 0000000180040cb4 f   libucrt:per_thread_data.obj
 0001:0003fdac       ?replace_current_thread_locale_nolock@@YAXQEAU__acrt_ptd@@QEAU__crt_locale_data@@@Z 0000000180040dac f   libucrt:per_thread_data.obj
 0001:000400cc       ??$common_gmtime_s@_J@@YAHQEAUtm@@QEB_J@Z 00000001800410cc f   libucrt:gmtime.obj
 0001:00040260       ?compute_year@@YAHAEA_JAEA_N@Z 0000000180041260 f   libucrt:gmtime.obj
 0001:00040398       ?_isindst_nolock@@YAHQEAUtm@@@Z 0000000180041398 f   libucrt:tzset.obj
 0001:000406b4       ?cvtdate@@YAXW4transition_type@?A0x1b14ceb2@@W4date_type@2@HHHHHHHHH@Z 00000001800416b4 f   libucrt:tzset.obj
 0001:000408a8       ?tzset_from_environment_nolock@@YAXPEAD@Z 00000001800418a8 f   libucrt:tzset.obj
 0001:00040af8       ?tzset_from_system_nolock@@YAXXZ 0000000180041af8 f   libucrt:tzset.obj
 0001:00040ccc       ?tzset_nolock@@YAXXZ       0000000180041ccc f   libucrt:tzset.obj
 0001:00041258       ?fp_format_a@@YAHQEBNPEAD_KQEAD2H_NIQEAU__crt_locale_pointers@@@Z 0000000180042258 f   libucrt:cvt.obj
 0001:000415b8       ?fp_format_e@@YAHQEBNQEAD_K12H_NIQEAU__crt_locale_pointers@@@Z 00000001800425b8 f   libucrt:cvt.obj
 0001:00041688       ?fp_format_e_internal@@YAHQEAD_KH_NIQEAU_strflt@@2QEAU__crt_locale_pointers@@@Z 0000000180042688 f   libucrt:cvt.obj
 0001:00041864       ?fp_format_f_internal@@YAHQEAD_KHQEAU_strflt@@_NQEAU__crt_locale_pointers@@@Z 0000000180042864 f   libucrt:cvt.obj
 0001:000419ac       ?fp_format_g@@YAHQEBNQEAD_K12H_NIQEAU__crt_locale_pointers@@@Z 00000001800429ac f   libucrt:cvt.obj
 0001:00041ae4       ?fp_format_nan_or_infinity@@YAHW4__acrt_fp_class@@_NPEAD_K1@Z 0000000180042ae4 f   libucrt:cvt.obj
 0001:0004245c       ??R<lambda_2af78c5f5901b1372d98f9ab3177dfa6>@@QEBAXXZ 000000018004345c f   libucrt:wsetlocale.obj
 0001:00042820       _copytlocinfo_nolock       0000000180043820 f   libucrt:wsetlocale.obj
 0001:00042de0       _wsetlocale_get_all        0000000180043de0 f   libucrt:wsetlocale.obj
 0001:00042fc8       _wsetlocale_nolock         0000000180043fc8 f   libucrt:wsetlocale.obj
 0001:00043250       _wsetlocale_set_cat        0000000180044250 f   libucrt:wsetlocale.obj
 0001:00043590       ?initialize_inherited_file_handles_nolock@@YAXXZ 0000000180044590 f   libucrt:ioinit.obj
 0001:0004367c       ?initialize_stdio_handles_nolock@@YAXXZ 000000018004467c f   libucrt:ioinit.obj
 0001:0004444c       ??$message_box_wait_thread@_W@@YAKQEAX@Z 000000018004544c f   libucrt:crtmbox.obj
 0001:00044660       common_flush_all           0000000180045660 f   libucrt:fflush.obj
 0001:000447c8       ??R<lambda_b721fa326cdb32351d23dfa67958c160>@@QEBAHXZ 00000001800457c8 f   libucrt:setvbuf.obj
 0001:00044958       ?<helper_func_cdecl>@<lambda_e2bb8337c48846e80c921ea5ddadc92d>@@CAHPEA_W@Z 0000000180045958 f   libucrt:winapi_thunks.obj
 0001:00044a34       ?try_get_function@@YAPEAXW4function_id@?A0x63058377@@QEBDQEBW4module_id@2@2@Z 0000000180045a34 f   libucrt:winapi_thunks.obj
 0001:00045808       ?_mbstowcs_l_helper@@YA_KPEA_WPEBD_KPEAU__crt_locale_pointers@@@Z 0000000180046808 f   libucrt:mbstowcs.obj
 0001:00045b34       ?_wcstombs_l_helper@@YA_KPEADPEB_W_KPEAU__crt_locale_pointers@@@Z 0000000180046b34 f   libucrt:wcstombs.obj
 0001:00046094       ?InternalGetLocaleInfoA@@YAHQEAU__crt_locale_pointers@@QEB_WKQEADH@Z 0000000180047094 f   libucrt:getlocaleinfoa.obj
 0001:000465b0       ?__acrt_LCMapStringA_stat@@YAHPEAU__crt_locale_pointers@@PEB_WKPEBDHPEADHHH@Z 00000001800475b0 f   libucrt:lcmapstringa.obj
 0001:00046ef8       ?<helper_func_cdecl>@<lambda_2feae5270eb4d0d5532525f423405775>@@CAHPEBX0@Z 0000000180047ef8 f   libucrt:argv_wildcards.obj
 0001:00046f0c       ??$common_expand_argv_wildcards@D@@YAHQEAPEADQEAPEAPEAD@Z 0000000180047f0c f   libucrt:argv_wildcards.obj
 0001:00047118       ??$copy_and_add_argument_to_buffer@D@@YAHQEBD0_KAEAV?$argument_list@D@?A0xca0879c4@@@Z 0000000180048118 f   libucrt:argv_wildcards.obj
 0001:00047228       ??$expand_argument_wildcards@D@@YAHQEAD0AEAV?$argument_list@D@?A0xca0879c4@@@Z 0000000180048228 f   libucrt:argv_wildcards.obj
 0001:000474dc       ??R<lambda_ad1ced32f4ac17aa236e5ef05d6b3b7c>@@QEBAXXZ 00000001800484dc f   libucrt:mbctype.obj
 0001:000476f4       ?getSystemCP@@YAHH@Z       00000001800486f4 f   libucrt:mbctype.obj
 0001:00047774       ?setSBCS@@YAXPEAU__crt_multibyte_data@@@Z 0000000180048774 f   libucrt:mbctype.obj
 0001:00047804       ?setSBUpLow@@YAXPEAU__crt_multibyte_data@@@Z 0000000180048804 f   libucrt:mbctype.obj
 0001:000479e8       ?setmbcp_internal@@YAHH_N@Z 00000001800489e8 f   libucrt:mbctype.obj
 0001:0004805c       ??$common_set_variable_in_environment_nolock@D@@YAHQEADH@Z 000000018004905c f   libucrt:setenv.obj
 0001:0004834c       ??$copy_environment@D@@YAPEAPEADQEAPEAD@Z 000000018004934c f   libucrt:setenv.obj
 0001:00048a40       ??$common_getenv_nolock@D@@YAPEADQEBD@Z 0000000180049a40 f   libucrt:getenv.obj
 0001:00048ac8       ??$common_getenv_s@D@@YAHQEA_KQEAD_KQEBD@Z 0000000180049ac8 f   libucrt:getenv.obj
 0001:0004a0d0       memcpy_s                   000000018004b0d0 f   libucrt:cfout.obj
 0001:0004a0d0       memcpy_s                   000000018004b0d0 f   libucrt:strtod.obj
 0001:0004a158       ??$write_buffer_nolock@D@@YA_NDV__crt_stdio_stream@@@Z 000000018004b158 f   libucrt:_flsbuf.obj
 0001:0004a25c       ??$write_buffer_nolock@_W@@YA_N_WV__crt_stdio_stream@@@Z 000000018004b25c f   libucrt:_flsbuf.obj
 0001:0004b020       ?free_crt_array_internal@@YAXQEAPEBX_K@Z 000000018004c020 f   libucrt:inittime.obj
 0001:0004b078       ?initialize_lc_time@@YA_NQEAU__crt_lc_time_data@@QEAU__crt_locale_data@@@Z 000000018004c078 f   libucrt:inittime.obj
 0001:0004b6e8       GetLocaleNameFromDefault   000000018004c6e8 f   libucrt:get_qualified_locale.obj
 0001:0004b790       GetLocaleNameFromLangCountry 000000018004c790 f   libucrt:get_qualified_locale.obj
 0001:0004b860       GetLocaleNameFromLanguage  000000018004c860 f   libucrt:get_qualified_locale.obj
 0001:0004b8fc       LangCountryEnumProcEx      000000018004c8fc f   libucrt:get_qualified_locale.obj
 0001:0004bcb0       LanguageEnumProcEx         000000018004ccb0 f   libucrt:get_qualified_locale.obj
 0001:0004bd9c       ProcessCodePage            000000018004cd9c f   libucrt:get_qualified_locale.obj
 0001:0004be50       TestDefaultCountry         000000018004ce50 f   libucrt:get_qualified_locale.obj
 0001:0004beb8       TranslateName              000000018004ceb8 f   libucrt:get_qualified_locale.obj
 0001:0004c174       CountryEnumProc            000000018004d174 f   libucrt:getqloc_downlevel.obj
 0001:0004c260       GetLcidFromLangCountry     000000018004d260 f   libucrt:getqloc_downlevel.obj
 0001:0004c330       GetLcidFromLanguage        000000018004d330 f   libucrt:getqloc_downlevel.obj
 0001:0004c3c8       LangCountryEnumProc        000000018004d3c8 f   libucrt:getqloc_downlevel.obj
 0001:0004c60c       LanguageEnumProc           000000018004d60c f   libucrt:getqloc_downlevel.obj
 0001:0004c708       LcidFromHexString          000000018004d708 f   libucrt:getqloc_downlevel.obj
 0001:0004c758       ProcessCodePage            000000018004d758 f   libucrt:getqloc_downlevel.obj
 0001:0004c808       TestDefaultLanguage        000000018004d808 f   libucrt:getqloc_downlevel.obj
 0001:0004c8b4       TranslateName              000000018004d8b4 f   libucrt:getqloc_downlevel.obj
 0001:0004cef0       $$000000                   000000018004def0     libucrt:fpsr.obj
 0001:0004d070       ?write_double_translated_ansi_nolock@@YA?AUwrite_result@?A0x9c548279@@HQEBDI@Z 000000018004e070 f   libucrt:write.obj
 0001:0004d278       ?write_text_ansi_nolock@@YA?AUwrite_result@?A0x9c548279@@HQEBDI@Z 000000018004e278 f   libucrt:write.obj
 0001:0004d380       ?write_text_utf16le_nolock@@YA?AUwrite_result@?A0x9c548279@@HQEBDI@Z 000000018004e380 f   libucrt:write.obj
 0001:0004d49c       ?write_text_utf8_nolock@@YA?AUwrite_result@?A0x9c548279@@HQEBDI@Z 000000018004e49c f   libucrt:write.obj
 0001:0004d9e0       ?GetTableIndexFromLocaleName@@YAHPEB_W@Z 000000018004e9e0 f   libucrt:lcidtoname_downlevel.obj
 0001:0004dc48       _call_matherr              000000018004ec48 f   libucrt:libm_error.obj
 0001:0004dcb0       _exception_enabled         000000018004ecb0 f   libucrt:libm_error.obj
 0001:0004e0c0       ?shortsort@@YAXPEAD0_KP6AHPEBX2@Z@Z 000000018004f0c0 f   libucrt:qsort.obj
 0001:0004e604       ?initialize_multibyte@@YAHXZ 000000018004f604 f   libucrt:multibyte_initializer.obj
 0001:0004e8f0       $$000000                   000000018004f8f0     libucrt:log10.obj
 0001:0004ee9c       ??$common_lseek@_J@@YA_JH_JH@Z 000000018004fe9c f   libucrt:lseek.obj
 0001:0004ef8c       ??$common_lseek_nolock@_J@@YA_JH_JH@Z 000000018004ff8c f   libucrt:lseek.obj
 0001:0004f47c       common_control87           000000018005047c f   libucrt:ieee.obj
 0001:0004f910       ?InternalCompareStringA@@YAHPEAU__crt_locale_pointers@@PEB_WKPEBDH2HH@Z 0000000180050910 f   libucrt:comparestringa.obj
 0001:0004fd50       _log_special_common        0000000180050d50 f   libucrt:log_special.obj
 0001:00050a50       $$000000                   0000000180051a50     LIBCMT:_guard_dispatch_.obj
 0001:00050a70       Cli_ErrorText$dtor$0       0000000180051a70 f   snap7:snap7_libmain.obj
 0001:00050a7c       Cli_ErrorText$catch$1      0000000180051a7c f   snap7:snap7_libmain.obj
 0001:00050a89       __catch$Cli_ErrorText$0    0000000180051a89 f   snap7:snap7_libmain.obj
 0001:00050aa0       Srv_ErrorText$dtor$0       0000000180051aa0 f   snap7:snap7_libmain.obj
 0001:00050aac       Srv_ErrorText$catch$1      0000000180051aac f   snap7:snap7_libmain.obj
 0001:00050ab9       __catch$Srv_ErrorText$0    0000000180051ab9 f   snap7:snap7_libmain.obj
 0001:00050ad0       Srv_EventText$dtor$0       0000000180051ad0 f   snap7:snap7_libmain.obj
 0001:00050adc       Srv_EventText$catch$1      0000000180051adc f   snap7:snap7_libmain.obj
 0001:00050ae9       __catch$Srv_EventText$0    0000000180051ae9 f   snap7:snap7_libmain.obj
 0001:00050b00       Par_ErrorText$dtor$0       0000000180051b00 f   snap7:snap7_libmain.obj
 0001:00050b0c       Par_ErrorText$catch$1      0000000180051b0c f   snap7:snap7_libmain.obj
 0001:00050b19       __catch$Par_ErrorText$0    0000000180051b19 f   snap7:snap7_libmain.obj
 0001:00050b30       ?dtor$0@?0??ServersManager_GetServer@@YAHIAEAPEAVTConnectionServer@@@Z@4HA 0000000180051b30 f   snap7:s7_partner.obj
 0001:00050b50       ?dtor$0@?0??GetServer@TServersManager@@QEAAHIAEAPEAVTConnectionServer@@@Z@4HA 0000000180051b50 f   snap7:s7_partner.obj
 0001:00050b70       ?dtor$0@?0??StartListener@TCustomMsgServer@@AEAAHXZ@4HA 0000000180051b70 f   snap7:snap_tcpsrvr.obj
 0001:00050b70       ?dtor$0@?0??Start@TConnectionServer@@IEAAHXZ@4HA 0000000180051b70 f   snap7:s7_partner.obj
 0001:00050b90       ?dtor$0@?0???0TSnap7Partner@@QEAA@_N@Z@4HA 0000000180051b90 f   snap7:s7_partner.obj
 0001:00050ba0       ?catch$0@?0??CloseWorker@TSnap7Partner@@AEAAXXZ@4HA 0000000180051ba0 f   snap7:s7_partner.obj
 0001:00050bad       __catch$?CloseWorker@TSnap7Partner@@AEAAXXZ$0 0000000180051bad f   snap7:s7_partner.obj
 0001:00050bc0       ?catch$0@?0??CloseThread@TSnap7Client@@AEAAXXZ@4HA 0000000180051bc0 f   snap7:s7_client.obj
 0001:00050bcd       __catch$?CloseThread@TSnap7Client@@AEAAXXZ$0 0000000180051bcd f   snap7:s7_client.obj
 0001:00050be0       ?catch$0@?0??DoCompletion@TSnap7Client@@IEAAXXZ@4HA 0000000180051be0 f   snap7:s7_client.obj
 0001:00050bed       __catch$?DoCompletion@TSnap7Client@@IEAAXXZ$0 0000000180051bed f   snap7:s7_client.obj
 0001:00050c00       ?dtor$0@?0??NumToString@@YA?AV?$basic_string@DU?$char_traits@D@std@@V?$allocator@D@2@@std@@HHI@Z@4HA 0000000180051c00 f   snap7:s7_text.obj
 0001:00050c26       ?dtor$1@?0??NumToString@@YA?AV?$basic_string@DU?$char_traits@D@std@@V?$allocator@D@2@@std@@HHI@Z@4HA 0000000180051c26 f   snap7:s7_text.obj
 0001:00050c40       ?dtor$0@?0??TimeToString@@YA?AV?$basic_string@DU?$char_traits@D@std@@V?$allocator@D@2@@std@@_J@Z@4HA 0000000180051c40 f   snap7:s7_text.obj
 0001:00050c4c       ?dtor$1@?0??TimeToString@@YA?AV?$basic_string@DU?$char_traits@D@std@@V?$allocator@D@2@@std@@_J@Z@4HA 0000000180051c4c f   snap7:s7_text.obj
 0001:00050c80       ?dtor$0@?0???$?HDU?$char_traits@D@std@@V?$allocator@D@1@@std@@YA?AV?$basic_string@DU?$char_traits@D@std@@V?$allocator@D@2@@0@$$QEAV10@PEBD@Z@4HA 0000000180051c80 f   snap7:s7_text.obj
 0001:00050c80       ?dtor$0@?0??UploadText@@YA?AV?$basic_string@DU?$char_traits@D@std@@V?$allocator@D@2@@std@@AEAUTSrvEvent@@@Z@4HA 0000000180051c80 f   snap7:s7_text.obj
 0001:00050c80       ?dtor$0@?0???$?HDU?$char_traits@D@std@@V?$allocator@D@1@@std@@YA?AV?$basic_string@DU?$char_traits@D@std@@V?$allocator@D@2@@0@PEBD$$QEAV10@@Z@4HA 0000000180051c80 f   snap7:s7_text.obj
 0001:00050c80       ?dtor$0@?0??SecurityText@@YA?AV?$basic_string@DU?$char_traits@D@std@@V?$allocator@D@2@@std@@AEAUTSrvEvent@@@Z@4HA 0000000180051c80 f   snap7:s7_text.obj
 0001:00050c80       ?dtor$0@?0??ClockText@@YA?AV?$basic_string@DU?$char_traits@D@std@@V?$allocator@D@2@@std@@G@Z@4HA 0000000180051c80 f   snap7:s7_text.obj
 0001:00050c80       ?dtor$0@?0???$?HDU?$char_traits@D@std@@V?$allocator@D@1@@std@@YA?AV?$basic_string@DU?$char_traits@D@std@@V?$allocator@D@2@@0@AEBV10@PEBD@Z@4HA 0000000180051c80 f   snap7:s7_text.obj
 0001:00050c80       ?dtor$0@?0???$?HDU?$char_traits@D@std@@V?$allocator@D@1@@std@@YA?AV?$basic_string@DU?$char_traits@D@std@@V?$allocator@D@2@@0@$$QEAV10@AEBV10@@Z@4HA 0000000180051c80 f   snap7:s7_text.obj
 0001:00050c80       ?dtor$0@?0??IpAddressToString@@YA?AV?$basic_string@DU?$char_traits@D@std@@V?$allocator@D@2@@std@@H@Z@4HA 0000000180051c80 f   snap7:s7_text.obj
 0001:00050c80       ?dtor$0@?0??DownloadText@@YA?AV?$basic_string@DU?$char_traits@D@std@@V?$allocator@D@2@@std@@AEAUTSrvEvent@@@Z@4HA 0000000180051c80 f   snap7:s7_text.obj
 0001:00050c80       ?dtor$0@?0???$?HDU?$char_traits@D@std@@V?$allocator@D@1@@std@@YA?AV?$basic_string@DU?$char_traits@D@std@@V?$allocator@D@2@@0@PEBDAEBV10@@Z@4HA 0000000180051c80 f   snap7:s7_text.obj
 0001:00050cb0       ?dtor$0@?0??TcpTextOf@@YA?AV?$basic_string@DU?$char_traits@D@std@@V?$allocator@D@2@@std@@H@Z@4HA 0000000180051cb0 f   snap7:s7_text.obj
 0001:00050cb0       ?dtor$0@?0??IsoTextOf@@YA?AV?$basic_string@DU?$char_traits@D@std@@V?$allocator@D@2@@std@@H@Z@4HA 0000000180051cb0 f   snap7:s7_text.obj
 0001:00050cb0       ?dtor$0@?0??TxtDataResult@@YA?AV?$basic_string@DU?$char_traits@D@std@@V?$allocator@D@2@@std@@AEAUTSrvEvent@@@Z@4HA 0000000180051cb0 f   snap7:s7_text.obj
 0001:00050cb0       ?dtor$0@?0??SrvTextOf@@YA?AV?$basic_string@DU?$char_traits@D@std@@V?$allocator@D@2@@std@@H@Z@4HA 0000000180051cb0 f   snap7:s7_text.obj
 0001:00050cb0       ?dtor$0@?0??StrBlockType@@YA?AV?$basic_string@DU?$char_traits@D@std@@V?$allocator@D@2@@std@@G@Z@4HA 0000000180051cb0 f   snap7:s7_text.obj
 0001:00050cb0       ?dtor$0@?0??CliTextOf@@YA?AV?$basic_string@DU?$char_traits@D@std@@V?$allocator@D@2@@std@@H@Z@4HA 0000000180051cb0 f   snap7:s7_text.obj
 0001:00050cb0       ?dtor$0@?0??ParTextOf@@YA?AV?$basic_string@DU?$char_traits@D@std@@V?$allocator@D@2@@std@@H@Z@4HA 0000000180051cb0 f   snap7:s7_text.obj
 0001:00050cd6       ?dtor$1@?0??IsoTextOf@@YA?AV?$basic_string@DU?$char_traits@D@std@@V?$allocator@D@2@@std@@H@Z@4HA 0000000180051cd6 f   snap7:s7_text.obj
 0001:00050cd6       ?dtor$1@?0??TxtDataResult@@YA?AV?$basic_string@DU?$char_traits@D@std@@V?$allocator@D@2@@std@@AEAUTSrvEvent@@@Z@4HA 0000000180051cd6 f   snap7:s7_text.obj
 0001:00050cd6       ?dtor$1@?0??CliTextOf@@YA?AV?$basic_string@DU?$char_traits@D@std@@V?$allocator@D@2@@std@@H@Z@4HA 0000000180051cd6 f   snap7:s7_text.obj
 0001:00050cd6       ?dtor$1@?0??ParTextOf@@YA?AV?$basic_string@DU?$char_traits@D@std@@V?$allocator@D@2@@std@@H@Z@4HA 0000000180051cd6 f   snap7:s7_text.obj
 0001:00050cd6       ?dtor$1@?0??TcpTextOf@@YA?AV?$basic_string@DU?$char_traits@D@std@@V?$allocator@D@2@@std@@H@Z@4HA 0000000180051cd6 f   snap7:s7_text.obj
 0001:00050cd6       ?dtor$1@?0??StrBlockType@@YA?AV?$basic_string@DU?$char_traits@D@std@@V?$allocator@D@2@@std@@G@Z@4HA 0000000180051cd6 f   snap7:s7_text.obj
 0001:00050cd6       ?dtor$1@?0??SrvTextOf@@YA?AV?$basic_string@DU?$char_traits@D@std@@V?$allocator@D@2@@std@@H@Z@4HA 0000000180051cd6 f   snap7:s7_text.obj
 0001:00050ce2       ?dtor$2@?0??TcpTextOf@@YA?AV?$basic_string@DU?$char_traits@D@std@@V?$allocator@D@2@@std@@H@Z@4HA 0000000180051ce2 f   snap7:s7_text.obj
 0001:00050ce2       ?dtor$2@?0??ParTextOf@@YA?AV?$basic_string@DU?$char_traits@D@std@@V?$allocator@D@2@@std@@H@Z@4HA 0000000180051ce2 f   snap7:s7_text.obj
 0001:00050ce2       ?dtor$2@?0??IsoTextOf@@YA?AV?$basic_string@DU?$char_traits@D@std@@V?$allocator@D@2@@std@@H@Z@4HA 0000000180051ce2 f   snap7:s7_text.obj
 0001:00050ce2       ?dtor$2@?0??CliTextOf@@YA?AV?$basic_string@DU?$char_traits@D@std@@V?$allocator@D@2@@std@@H@Z@4HA 0000000180051ce2 f   snap7:s7_text.obj
 0001:00050ce2       ?dtor$2@?0??StrBlockType@@YA?AV?$basic_string@DU?$char_traits@D@std@@V?$allocator@D@2@@std@@G@Z@4HA 0000000180051ce2 f   snap7:s7_text.obj
 0001:00050ce2       ?dtor$2@?0??SrvTextOf@@YA?AV?$basic_string@DU?$char_traits@D@std@@V?$allocator@D@2@@std@@H@Z@4HA 0000000180051ce2 f   snap7:s7_text.obj
 0001:00050ce2       ?dtor$2@?0??TxtDataResult@@YA?AV?$basic_string@DU?$char_traits@D@std@@V?$allocator@D@2@@std@@AEAUTSrvEvent@@@Z@4HA 0000000180051ce2 f   snap7:s7_text.obj
 0001:00050cf0       ?dtor$0@?0??ErrParText@@YA?AV?$basic_string@DU?$char_traits@D@std@@V?$allocator@D@2@@std@@H@Z@4HA 0000000180051cf0 f   snap7:s7_text.obj
 0001:00050cf0       ?dtor$0@?0??ErrSrvText@@YA?AV?$basic_string@DU?$char_traits@D@std@@V?$allocator@D@2@@std@@H@Z@4HA 0000000180051cf0 f   snap7:s7_text.obj
 0001:00050cf0       ?dtor$0@?0??ErrCliText@@YA?AV?$basic_string@DU?$char_traits@D@std@@V?$allocator@D@2@@std@@H@Z@4HA 0000000180051cf0 f   snap7:s7_text.obj
 0001:00050d16       ?dtor$1@?0??ErrSrvText@@YA?AV?$basic_string@DU?$char_traits@D@std@@V?$allocator@D@2@@std@@H@Z@4HA 0000000180051d16 f   snap7:s7_text.obj
 0001:00050d16       ?dtor$1@?0??ErrParText@@YA?AV?$basic_string@DU?$char_traits@D@std@@V?$allocator@D@2@@std@@H@Z@4HA 0000000180051d16 f   snap7:s7_text.obj
 0001:00050d16       ?dtor$1@?0??ErrCliText@@YA?AV?$basic_string@DU?$char_traits@D@std@@V?$allocator@D@2@@std@@H@Z@4HA 0000000180051d16 f   snap7:s7_text.obj
 0001:00050d22       ?dtor$2@?0??ErrSrvText@@YA?AV?$basic_string@DU?$char_traits@D@std@@V?$allocator@D@2@@std@@H@Z@4HA 0000000180051d22 f   snap7:s7_text.obj
 0001:00050d22       ?dtor$2@?0??ErrCliText@@YA?AV?$basic_string@DU?$char_traits@D@std@@V?$allocator@D@2@@std@@H@Z@4HA 0000000180051d22 f   snap7:s7_text.obj
 0001:00050d22       ?dtor$2@?0??ErrParText@@YA?AV?$basic_string@DU?$char_traits@D@std@@V?$allocator@D@2@@std@@H@Z@4HA 0000000180051d22 f   snap7:s7_text.obj
 0001:00050d2e       ?dtor$3@?0??ErrSrvText@@YA?AV?$basic_string@DU?$char_traits@D@std@@V?$allocator@D@2@@std@@H@Z@4HA 0000000180051d2e f   snap7:s7_text.obj
 0001:00050d2e       ?dtor$3@?0??ErrCliText@@YA?AV?$basic_string@DU?$char_traits@D@std@@V?$allocator@D@2@@std@@H@Z@4HA 0000000180051d2e f   snap7:s7_text.obj
 0001:00050d2e       ?dtor$3@?0??ErrParText@@YA?AV?$basic_string@DU?$char_traits@D@std@@V?$allocator@D@2@@std@@H@Z@4HA 0000000180051d2e f   snap7:s7_text.obj
 0001:00050d3a       ?dtor$4@?0??ErrSrvText@@YA?AV?$basic_string@DU?$char_traits@D@std@@V?$allocator@D@2@@std@@H@Z@4HA 0000000180051d3a f   snap7:s7_text.obj
 0001:00050d3a       ?dtor$4@?0??ErrParText@@YA?AV?$basic_string@DU?$char_traits@D@std@@V?$allocator@D@2@@std@@H@Z@4HA 0000000180051d3a f   snap7:s7_text.obj
 0001:00050d3a       ?dtor$4@?0??ErrCliText@@YA?AV?$basic_string@DU?$char_traits@D@std@@V?$allocator@D@2@@std@@H@Z@4HA 0000000180051d3a f   snap7:s7_text.obj
 0001:00050d50       ?dtor$0@?0??SenderText@@YA?AV?$basic_string@DU?$char_traits@D@std@@V?$allocator@D@2@@std@@AEAUTSrvEvent@@@Z@4HA 0000000180051d50 f   snap7:s7_text.obj
 0001:00050d5c       ?dtor$1@?0??SenderText@@YA?AV?$basic_string@DU?$char_traits@D@std@@V?$allocator@D@2@@std@@AEAUTSrvEvent@@@Z@4HA 0000000180051d5c f   snap7:s7_text.obj
 0001:00050d68       ?dtor$2@?0??SenderText@@YA?AV?$basic_string@DU?$char_traits@D@std@@V?$allocator@D@2@@std@@AEAUTSrvEvent@@@Z@4HA 0000000180051d68 f   snap7:s7_text.obj
 0001:00050d74       ?dtor$3@?0??SenderText@@YA?AV?$basic_string@DU?$char_traits@D@std@@V?$allocator@D@2@@std@@AEAUTSrvEvent@@@Z@4HA 0000000180051d74 f   snap7:s7_text.obj
 0001:00050d80       ?dtor$4@?0??SenderText@@YA?AV?$basic_string@DU?$char_traits@D@std@@V?$allocator@D@2@@std@@AEAUTSrvEvent@@@Z@4HA 0000000180051d80 f   snap7:s7_text.obj
 0001:00050da6       ?dtor$5@?0??SenderText@@YA?AV?$basic_string@DU?$char_traits@D@std@@V?$allocator@D@2@@std@@AEAUTSrvEvent@@@Z@4HA 0000000180051da6 f   snap7:s7_text.obj
 0001:00050dc0       ?dtor$0@?0??TcpServerEventText@@YA?AV?$basic_string@DU?$char_traits@D@std@@V?$allocator@D@2@@std@@AEAUTSrvEvent@@@Z@4HA 0000000180051dc0 f   snap7:s7_text.obj
 0001:00050dcc       ?dtor$1@?0??TcpServerEventText@@YA?AV?$basic_string@DU?$char_traits@D@std@@V?$allocator@D@2@@std@@AEAUTSrvEvent@@@Z@4HA 0000000180051dcc f   snap7:s7_text.obj
 0001:00050dd8       ?dtor$2@?0??TcpServerEventText@@YA?AV?$basic_string@DU?$char_traits@D@std@@V?$allocator@D@2@@std@@AEAUTSrvEvent@@@Z@4HA 0000000180051dd8 f   snap7:s7_text.obj
 0001:00050de4       ?dtor$3@?0??TcpServerEventText@@YA?AV?$basic_string@DU?$char_traits@D@std@@V?$allocator@D@2@@std@@AEAUTSrvEvent@@@Z@4HA 0000000180051de4 f   snap7:s7_text.obj
 0001:00050df0       ?dtor$4@?0??TcpServerEventText@@YA?AV?$basic_string@DU?$char_traits@D@std@@V?$allocator@D@2@@std@@AEAUTSrvEvent@@@Z@4HA 0000000180051df0 f   snap7:s7_text.obj
 0001:00050dfc       ?dtor$5@?0??TcpServerEventText@@YA?AV?$basic_string@DU?$char_traits@D@std@@V?$allocator@D@2@@std@@AEAUTSrvEvent@@@Z@4HA 0000000180051dfc f   snap7:s7_text.obj
 0001:00050e08       ?dtor$6@?0??TcpServerEventText@@YA?AV?$basic_string@DU?$char_traits@D@std@@V?$allocator@D@2@@std@@AEAUTSrvEvent@@@Z@4HA 0000000180051e08 f   snap7:s7_text.obj
 0001:00050e14       ?dtor$7@?0??TcpServerEventText@@YA?AV?$basic_string@DU?$char_traits@D@std@@V?$allocator@D@2@@std@@AEAUTSrvEvent@@@Z@4HA 0000000180051e14 f   snap7:s7_text.obj
 0001:00050e20       ?dtor$8@?0??TcpServerEventText@@YA?AV?$basic_string@DU?$char_traits@D@std@@V?$allocator@D@2@@std@@AEAUTSrvEvent@@@Z@4HA 0000000180051e20 f   snap7:s7_text.obj
 0001:00050e2c       ?dtor$9@?0??TcpServerEventText@@YA?AV?$basic_string@DU?$char_traits@D@std@@V?$allocator@D@2@@std@@AEAUTSrvEvent@@@Z@4HA 0000000180051e2c f   snap7:s7_text.obj
 0001:00050e60       ?dtor$0@?0??PDUText@@YA?AV?$basic_string@DU?$char_traits@D@std@@V?$allocator@D@2@@std@@AEAUTSrvEvent@@@Z@4HA 0000000180051e60 f   snap7:s7_text.obj
 0001:00050e6c       ?dtor$1@?0??PDUText@@YA?AV?$basic_string@DU?$char_traits@D@std@@V?$allocator@D@2@@std@@AEAUTSrvEvent@@@Z@4HA 0000000180051e6c f   snap7:s7_text.obj
 0001:00050e78       ?dtor$2@?0??PDUText@@YA?AV?$basic_string@DU?$char_traits@D@std@@V?$allocator@D@2@@std@@AEAUTSrvEvent@@@Z@4HA 0000000180051e78 f   snap7:s7_text.obj
 0001:00050e9e       ?dtor$3@?0??PDUText@@YA?AV?$basic_string@DU?$char_traits@D@std@@V?$allocator@D@2@@std@@AEAUTSrvEvent@@@Z@4HA 0000000180051e9e f   snap7:s7_text.obj
 0001:00050eaa       ?dtor$4@?0??PDUText@@YA?AV?$basic_string@DU?$char_traits@D@std@@V?$allocator@D@2@@std@@AEAUTSrvEvent@@@Z@4HA 0000000180051eaa f   snap7:s7_text.obj
 0001:00050eb6       ?dtor$5@?0??PDUText@@YA?AV?$basic_string@DU?$char_traits@D@std@@V?$allocator@D@2@@std@@AEAUTSrvEvent@@@Z@4HA 0000000180051eb6 f   snap7:s7_text.obj
 0001:00050ec2       ?dtor$6@?0??PDUText@@YA?AV?$basic_string@DU?$char_traits@D@std@@V?$allocator@D@2@@std@@AEAUTSrvEvent@@@Z@4HA 0000000180051ec2 f   snap7:s7_text.obj
 0001:00050ece       ?dtor$7@?0??PDUText@@YA?AV?$basic_string@DU?$char_traits@D@std@@V?$allocator@D@2@@std@@AEAUTSrvEvent@@@Z@4HA 0000000180051ece f   snap7:s7_text.obj
 0001:00050eda       ?dtor$8@?0??PDUText@@YA?AV?$basic_string@DU?$char_traits@D@std@@V?$allocator@D@2@@std@@AEAUTSrvEvent@@@Z@4HA 0000000180051eda f   snap7:s7_text.obj
 0001:00050ef0       ?dtor$0@?0??TxtArea@@YA?AV?$basic_string@DU?$char_traits@D@std@@V?$allocator@D@2@@std@@AEAUTSrvEvent@@@Z@4HA 0000000180051ef0 f   snap7:s7_text.obj
 0001:00050f16       ?dtor$1@?0??TxtArea@@YA?AV?$basic_string@DU?$char_traits@D@std@@V?$allocator@D@2@@std@@AEAUTSrvEvent@@@Z@4HA 0000000180051f16 f   snap7:s7_text.obj
 0001:00050f22       ?dtor$2@?0??TxtArea@@YA?AV?$basic_string@DU?$char_traits@D@std@@V?$allocator@D@2@@std@@AEAUTSrvEvent@@@Z@4HA 0000000180051f22 f   snap7:s7_text.obj
 0001:00050f2e       ?dtor$3@?0??TxtArea@@YA?AV?$basic_string@DU?$char_traits@D@std@@V?$allocator@D@2@@std@@AEAUTSrvEvent@@@Z@4HA 0000000180051f2e f   snap7:s7_text.obj
 0001:00050f3a       ?dtor$4@?0??TxtArea@@YA?AV?$basic_string@DU?$char_traits@D@std@@V?$allocator@D@2@@std@@AEAUTSrvEvent@@@Z@4HA 0000000180051f3a f   snap7:s7_text.obj
 0001:00050f50       ?dtor$0@?0??TxtStartSize@@YA?AV?$basic_string@DU?$char_traits@D@std@@V?$allocator@D@2@@std@@AEAUTSrvEvent@@@Z@4HA 0000000180051f50 f   snap7:s7_text.obj
 0001:00050f5c       ?dtor$1@?0??TxtStartSize@@YA?AV?$basic_string@DU?$char_traits@D@std@@V?$allocator@D@2@@std@@AEAUTSrvEvent@@@Z@4HA 0000000180051f5c f   snap7:s7_text.obj
 0001:00050f68       ?dtor$2@?0??TxtStartSize@@YA?AV?$basic_string@DU?$char_traits@D@std@@V?$allocator@D@2@@std@@AEAUTSrvEvent@@@Z@4HA 0000000180051f68 f   snap7:s7_text.obj
 0001:00050f74       ?dtor$3@?0??TxtStartSize@@YA?AV?$basic_string@DU?$char_traits@D@std@@V?$allocator@D@2@@std@@AEAUTSrvEvent@@@Z@4HA 0000000180051f74 f   snap7:s7_text.obj
 0001:00050f80       ?dtor$4@?0??TxtStartSize@@YA?AV?$basic_string@DU?$char_traits@D@std@@V?$allocator@D@2@@std@@AEAUTSrvEvent@@@Z@4HA 0000000180051f80 f   snap7:s7_text.obj
 0001:00050fb0       ?dtor$0@?0??ControlText@@YA?AV?$basic_string@DU?$char_traits@D@std@@V?$allocator@D@2@@std@@G@Z@4HA 0000000180051fb0 f   snap7:s7_text.obj
 0001:00050fbc       ?dtor$1@?0??ControlText@@YA?AV?$basic_string@DU?$char_traits@D@std@@V?$allocator@D@2@@std@@G@Z@4HA 0000000180051fbc f   snap7:s7_text.obj
 0001:00050fe2       ?dtor$2@?0??ControlText@@YA?AV?$basic_string@DU?$char_traits@D@std@@V?$allocator@D@2@@std@@G@Z@4HA 0000000180051fe2 f   snap7:s7_text.obj
 0001:00050fee       ?dtor$3@?0??ControlText@@YA?AV?$basic_string@DU?$char_traits@D@std@@V?$allocator@D@2@@std@@G@Z@4HA 0000000180051fee f   snap7:s7_text.obj
 0001:00050ffa       ?dtor$4@?0??ControlText@@YA?AV?$basic_string@DU?$char_traits@D@std@@V?$allocator@D@2@@std@@G@Z@4HA 0000000180051ffa f   snap7:s7_text.obj
 0001:00051010       ?dtor$0@?0??ReadSZLText@@YA?AV?$basic_string@DU?$char_traits@D@std@@V?$allocator@D@2@@std@@AEAUTSrvEvent@@@Z@4HA 0000000180052010 f   snap7:s7_text.obj
 0001:0005101c       ?dtor$1@?0??ReadSZLText@@YA?AV?$basic_string@DU?$char_traits@D@std@@V?$allocator@D@2@@std@@AEAUTSrvEvent@@@Z@4HA 000000018005201c f   snap7:s7_text.obj
 0001:00051028       ?dtor$2@?0??ReadSZLText@@YA?AV?$basic_string@DU?$char_traits@D@std@@V?$allocator@D@2@@std@@AEAUTSrvEvent@@@Z@4HA 0000000180052028 f   snap7:s7_text.obj
 0001:00051034       ?dtor$3@?0??ReadSZLText@@YA?AV?$basic_string@DU?$char_traits@D@std@@V?$allocator@D@2@@std@@AEAUTSrvEvent@@@Z@4HA 0000000180052034 f   snap7:s7_text.obj
 0001:00051040       ?dtor$4@?0??ReadSZLText@@YA?AV?$basic_string@DU?$char_traits@D@std@@V?$allocator@D@2@@std@@AEAUTSrvEvent@@@Z@4HA 0000000180052040 f   snap7:s7_text.obj
 0001:0005104c       ?dtor$5@?0??ReadSZLText@@YA?AV?$basic_string@DU?$char_traits@D@std@@V?$allocator@D@2@@std@@AEAUTSrvEvent@@@Z@4HA 000000018005204c f   snap7:s7_text.obj
 0001:00051080       ?dtor$0@?0??BlockInfoText@@YA?AV?$basic_string@DU?$char_traits@D@std@@V?$allocator@D@2@@std@@AEAUTSrvEvent@@@Z@4HA 0000000180052080 f   snap7:s7_text.obj
 0001:0005108c       ?dtor$1@?0??BlockInfoText@@YA?AV?$basic_string@DU?$char_traits@D@std@@V?$allocator@D@2@@std@@AEAUTSrvEvent@@@Z@4HA 000000018005208c f   snap7:s7_text.obj
 0001:00051098       ?dtor$2@?0??BlockInfoText@@YA?AV?$basic_string@DU?$char_traits@D@std@@V?$allocator@D@2@@std@@AEAUTSrvEvent@@@Z@4HA 0000000180052098 f   snap7:s7_text.obj
 0001:000510a4       ?dtor$3@?0??BlockInfoText@@YA?AV?$basic_string@DU?$char_traits@D@std@@V?$allocator@D@2@@std@@AEAUTSrvEvent@@@Z@4HA 00000001800520a4 f   snap7:s7_text.obj
 0001:000510b0       ?dtor$4@?0??BlockInfoText@@YA?AV?$basic_string@DU?$char_traits@D@std@@V?$allocator@D@2@@std@@AEAUTSrvEvent@@@Z@4HA 00000001800520b0 f   snap7:s7_text.obj
 0001:000510bc       ?dtor$5@?0??BlockInfoText@@YA?AV?$basic_string@DU?$char_traits@D@std@@V?$allocator@D@2@@std@@AEAUTSrvEvent@@@Z@4HA 00000001800520bc f   snap7:s7_text.obj
 0001:000510c8       ?dtor$6@?0??BlockInfoText@@YA?AV?$basic_string@DU?$char_traits@D@std@@V?$allocator@D@2@@std@@AEAUTSrvEvent@@@Z@4HA 00000001800520c8 f   snap7:s7_text.obj
 0001:000510d4       ?dtor$7@?0??BlockInfoText@@YA?AV?$basic_string@DU?$char_traits@D@std@@V?$allocator@D@2@@std@@AEAUTSrvEvent@@@Z@4HA 00000001800520d4 f   snap7:s7_text.obj
 0001:000510e0       ?dtor$8@?0??BlockInfoText@@YA?AV?$basic_string@DU?$char_traits@D@std@@V?$allocator@D@2@@std@@AEAUTSrvEvent@@@Z@4HA 00000001800520e0 f   snap7:s7_text.obj
 0001:000510ec       ?dtor$9@?0??BlockInfoText@@YA?AV?$basic_string@DU?$char_traits@D@std@@V?$allocator@D@2@@std@@AEAUTSrvEvent@@@Z@4HA 00000001800520ec f   snap7:s7_text.obj
 0001:000510f8       ?dtor$10@?0??BlockInfoText@@YA?AV?$basic_string@DU?$char_traits@D@std@@V?$allocator@D@2@@std@@AEAUTSrvEvent@@@Z@4HA 00000001800520f8 f   snap7:s7_text.obj
 0001:00051104       ?dtor$11@?0??BlockInfoText@@YA?AV?$basic_string@DU?$char_traits@D@std@@V?$allocator@D@2@@std@@AEAUTSrvEvent@@@Z@4HA 0000000180052104 f   snap7:s7_text.obj
 0001:00051110       ?dtor$12@?0??BlockInfoText@@YA?AV?$basic_string@DU?$char_traits@D@std@@V?$allocator@D@2@@std@@AEAUTSrvEvent@@@Z@4HA 0000000180052110 f   snap7:s7_text.obj
 0001:00051140       ?dtor$0@?0??EvtSrvText@@YA?AV?$basic_string@DU?$char_traits@D@std@@V?$allocator@D@2@@std@@AEAUTSrvEvent@@@Z@4HA 0000000180052140 f   snap7:s7_text.obj
 0001:0005114c       ?dtor$1@?0??EvtSrvText@@YA?AV?$basic_string@DU?$char_traits@D@std@@V?$allocator@D@2@@std@@AEAUTSrvEvent@@@Z@4HA 000000018005214c f   snap7:s7_text.obj
 0001:00051158       ?dtor$2@?0??EvtSrvText@@YA?AV?$basic_string@DU?$char_traits@D@std@@V?$allocator@D@2@@std@@AEAUTSrvEvent@@@Z@4HA 0000000180052158 f   snap7:s7_text.obj
 0001:00051164       ?dtor$3@?0??EvtSrvText@@YA?AV?$basic_string@DU?$char_traits@D@std@@V?$allocator@D@2@@std@@AEAUTSrvEvent@@@Z@4HA 0000000180052164 f   snap7:s7_text.obj
 0001:00051170       ?dtor$4@?0??EvtSrvText@@YA?AV?$basic_string@DU?$char_traits@D@std@@V?$allocator@D@2@@std@@AEAUTSrvEvent@@@Z@4HA 0000000180052170 f   snap7:s7_text.obj
 0001:0005117c       ?dtor$5@?0??EvtSrvText@@YA?AV?$basic_string@DU?$char_traits@D@std@@V?$allocator@D@2@@std@@AEAUTSrvEvent@@@Z@4HA 000000018005217c f   snap7:s7_text.obj
 0001:00051188       ?dtor$6@?0??EvtSrvText@@YA?AV?$basic_string@DU?$char_traits@D@std@@V?$allocator@D@2@@std@@AEAUTSrvEvent@@@Z@4HA 0000000180052188 f   snap7:s7_text.obj
 0001:00051194       ?dtor$7@?0??EvtSrvText@@YA?AV?$basic_string@DU?$char_traits@D@std@@V?$allocator@D@2@@std@@AEAUTSrvEvent@@@Z@4HA 0000000180052194 f   snap7:s7_text.obj
 0001:000511a0       ?dtor$8@?0??EvtSrvText@@YA?AV?$basic_string@DU?$char_traits@D@std@@V?$allocator@D@2@@std@@AEAUTSrvEvent@@@Z@4HA 00000001800521a0 f   snap7:s7_text.obj
 0001:000511ac       ?dtor$9@?0??EvtSrvText@@YA?AV?$basic_string@DU?$char_traits@D@std@@V?$allocator@D@2@@std@@AEAUTSrvEvent@@@Z@4HA 00000001800521ac f   snap7:s7_text.obj
 0001:000511b8       ?dtor$10@?0??EvtSrvText@@YA?AV?$basic_string@DU?$char_traits@D@std@@V?$allocator@D@2@@std@@AEAUTSrvEvent@@@Z@4HA 00000001800521b8 f   snap7:s7_text.obj
 0001:000511c4       ?dtor$11@?0??EvtSrvText@@YA?AV?$basic_string@DU?$char_traits@D@std@@V?$allocator@D@2@@std@@AEAUTSrvEvent@@@Z@4HA 00000001800521c4 f   snap7:s7_text.obj
 0001:000511d0       ?dtor$12@?0??EvtSrvText@@YA?AV?$basic_string@DU?$char_traits@D@std@@V?$allocator@D@2@@std@@AEAUTSrvEvent@@@Z@4HA 00000001800521d0 f   snap7:s7_text.obj
 0001:000511dc       ?dtor$13@?0??EvtSrvText@@YA?AV?$basic_string@DU?$char_traits@D@std@@V?$allocator@D@2@@std@@AEAUTSrvEvent@@@Z@4HA 00000001800521dc f   snap7:s7_text.obj
 0001:000511e8       ?dtor$14@?0??EvtSrvText@@YA?AV?$basic_string@DU?$char_traits@D@std@@V?$allocator@D@2@@std@@AEAUTSrvEvent@@@Z@4HA 00000001800521e8 f   snap7:s7_text.obj
 0001:000511f4       ?dtor$15@?0??EvtSrvText@@YA?AV?$basic_string@DU?$char_traits@D@std@@V?$allocator@D@2@@std@@AEAUTSrvEvent@@@Z@4HA 00000001800521f4 f   snap7:s7_text.obj
 0001:00051200       ?dtor$16@?0??EvtSrvText@@YA?AV?$basic_string@DU?$char_traits@D@std@@V?$allocator@D@2@@std@@AEAUTSrvEvent@@@Z@4HA 0000000180052200 f   snap7:s7_text.obj
 0001:0005120c       ?dtor$17@?0??EvtSrvText@@YA?AV?$basic_string@DU?$char_traits@D@std@@V?$allocator@D@2@@std@@AEAUTSrvEvent@@@Z@4HA 000000018005220c f   snap7:s7_text.obj
 0001:00051218       ?dtor$18@?0??EvtSrvText@@YA?AV?$basic_string@DU?$char_traits@D@std@@V?$allocator@D@2@@std@@AEAUTSrvEvent@@@Z@4HA 0000000180052218 f   snap7:s7_text.obj
 0001:00051224       ?dtor$19@?0??EvtSrvText@@YA?AV?$basic_string@DU?$char_traits@D@std@@V?$allocator@D@2@@std@@AEAUTSrvEvent@@@Z@4HA 0000000180052224 f   snap7:s7_text.obj
 0001:00051230       ?dtor$20@?0??EvtSrvText@@YA?AV?$basic_string@DU?$char_traits@D@std@@V?$allocator@D@2@@std@@AEAUTSrvEvent@@@Z@4HA 0000000180052230 f   snap7:s7_text.obj
 0001:0005123c       ?dtor$21@?0??EvtSrvText@@YA?AV?$basic_string@DU?$char_traits@D@std@@V?$allocator@D@2@@std@@AEAUTSrvEvent@@@Z@4HA 000000018005223c f   snap7:s7_text.obj
 0001:00051248       ?dtor$22@?0??EvtSrvText@@YA?AV?$basic_string@DU?$char_traits@D@std@@V?$allocator@D@2@@std@@AEAUTSrvEvent@@@Z@4HA 0000000180052248 f   snap7:s7_text.obj
 0001:00051254       ?dtor$23@?0??EvtSrvText@@YA?AV?$basic_string@DU?$char_traits@D@std@@V?$allocator@D@2@@std@@AEAUTSrvEvent@@@Z@4HA 0000000180052254 f   snap7:s7_text.obj
 0001:00051260       ?dtor$24@?0??EvtSrvText@@YA?AV?$basic_string@DU?$char_traits@D@std@@V?$allocator@D@2@@std@@AEAUTSrvEvent@@@Z@4HA 0000000180052260 f   snap7:s7_text.obj
 0001:0005126c       ?dtor$25@?0??EvtSrvText@@YA?AV?$basic_string@DU?$char_traits@D@std@@V?$allocator@D@2@@std@@AEAUTSrvEvent@@@Z@4HA 000000018005226c f   snap7:s7_text.obj
 0001:00051278       ?dtor$26@?0??EvtSrvText@@YA?AV?$basic_string@DU?$char_traits@D@std@@V?$allocator@D@2@@std@@AEAUTSrvEvent@@@Z@4HA 0000000180052278 f   snap7:s7_text.obj
 0001:00051284       ?dtor$27@?0??EvtSrvText@@YA?AV?$basic_string@DU?$char_traits@D@std@@V?$allocator@D@2@@std@@AEAUTSrvEvent@@@Z@4HA 0000000180052284 f   snap7:s7_text.obj
 0001:00051290       ?dtor$28@?0??EvtSrvText@@YA?AV?$basic_string@DU?$char_traits@D@std@@V?$allocator@D@2@@std@@AEAUTSrvEvent@@@Z@4HA 0000000180052290 f   snap7:s7_text.obj
 0001:0005129c       ?dtor$29@?0??EvtSrvText@@YA?AV?$basic_string@DU?$char_traits@D@std@@V?$allocator@D@2@@std@@AEAUTSrvEvent@@@Z@4HA 000000018005229c f   snap7:s7_text.obj
 0001:000512d0       ?dtor$0@?0???$?HDU?$char_traits@D@std@@V?$allocator@D@1@@std@@YA?AV?$basic_string@DU?$char_traits@D@std@@V?$allocator@D@2@@0@$$QEAV10@0@Z@4HA 00000001800522d0 f   snap7:s7_text.obj
 0001:00051300       ?dtor$0@?0???0TSnap7Server@@QEAA@XZ@4HA 0000000180052300 f   snap7:s7_server.obj
 0001:00051310       ?dtor$0@?0??CreateWorkerSocket@TSnap7Server@@MEAAPEAVTMsgSocket@@_K@Z@4HA 0000000180052310 f   snap7:s7_server.obj
 0001:00051330       ?catch$0@?0??DoReadEvent@TSnap7Server@@IEAAXHIGGGGG@Z@4HA 0000000180052330 f   snap7:s7_server.obj
 0001:0005133d       __catch$?DoReadEvent@TSnap7Server@@IEAAXHIGGGGG@Z$0 000000018005233d f   snap7:s7_server.obj
 0001:00051350       ?catch$0@?0??DoReadArea@TSnap7Server@@IEAA_NHHHHHHPEAX@Z@4HA 0000000180052350 f   snap7:s7_server.obj
 0001:0005135d       __catch$?DoReadArea@TSnap7Server@@IEAA_NHHHHHHPEAX@Z$0 000000018005235d f   snap7:s7_server.obj
 0001:00051370       ?catch$0@?0??DoWriteArea@TSnap7Server@@IEAA_NHHHHHHPEAX@Z@4HA 0000000180052370 f   snap7:s7_server.obj
 0001:0005137d       __catch$?DoWriteArea@TSnap7Server@@IEAA_NHHHHHHPEAX@Z$0 000000018005237d f   snap7:s7_server.obj
 0001:00051390       ?catch$0@?0??Execute@TMsgWorkerThread@@UEAAXXZ@4HA 0000000180052390 f   snap7:snap_tcpsrvr.obj
 0001:0005139d       __catch$?Execute@TMsgWorkerThread@@UEAAXXZ$0 000000018005239d f   snap7:snap_tcpsrvr.obj
 0001:000513b0       ?dtor$2@?0???0TCustomMsgServer@@QEAA@XZ@4HA 00000001800523b0 f   snap7:snap_tcpsrvr.obj
 0001:000513d0       ?catch$0@?0??KillAll@TCustomMsgServer@@IEAAXXZ@4HA 00000001800523d0 f   snap7:snap_tcpsrvr.obj
 0001:000513dd       __catch$?KillAll@TCustomMsgServer@@IEAAXXZ$0 00000001800523dd f   snap7:snap_tcpsrvr.obj
 0001:000513f0       ?dtor$0@?0??CreateWorkerSocket@TCustomMsgServer@@MEAAPEAVTMsgSocket@@_K@Z@4HA 00000001800523f0 f   snap7:snap_tcpsrvr.obj
 0001:00051410       ?catch$0@?0??DoEvent@TCustomMsgServer@@MEAAXHIGGGGG@Z@4HA 0000000180052410 f   snap7:snap_tcpsrvr.obj
 0001:0005141d       __catch$?DoEvent@TCustomMsgServer@@MEAAXHIGGGGG@Z$0 000000018005241d f   snap7:snap_tcpsrvr.obj
 0001:00051430       ?catch$0@?0??PickEvent@TCustomMsgServer@@QEAA_NPEAX@Z@4HA 0000000180052430 f   snap7:snap_tcpsrvr.obj
 0001:0005143d       __catch$?PickEvent@TCustomMsgServer@@QEAA_NPEAX@Z$0 000000018005243d f   snap7:snap_tcpsrvr.obj
 0001:00051450       ?catch$0@?0??ForceClose@TMsgSocket@@QEAAXXZ@4HA 0000000180052450 f   snap7:snap_msgsock.obj
 0001:0005145d       __catch$?ForceClose@TMsgSocket@@QEAAXXZ$0 000000018005245d f   snap7:snap_msgsock.obj
 0001:00051470       ?catch$0@?0??ThreadProc@@YAKPEAX@Z@4HA 0000000180052470 f   snap7:snap_threads.obj
 0001:0005147d       __catch$?ThreadProc@@YAKPEAX@Z$0 000000018005247d f   snap7:snap_threads.obj
 0001:0005148b       ?dtor$0@?0??_Init@locale@std@@CAPEAV_Locimp@12@_N@Z@4HA 000000018005248b f   libcpmt:locale0.obj
 0001:0005148b       ?dtor$0@?0??_Locimp_dtor@_Locimp@locale@std@@CAXPEAV123@@Z@4HA 000000018005248b f   libcpmt:locale0.obj
 0001:00051497       __scrt_is_nonwritable_in_current_image$filt$0 0000000180052497 f   LIBCMT:utility.obj
 0001:000514af       ?fin$0@?0??dllmain_crt_process_attach@@YAHQEAUHINSTANCE__@@QEAX@Z@4HA 00000001800524af f   LIBCMT:dll_dllmain.obj
 0001:000514c6       ?fin$0@?0??dllmain_crt_process_detach@@YAH_N@Z@4HA 00000001800524c6 f   LIBCMT:dll_dllmain.obj
 0001:000514e2       ?filt$0@?0??dllmain_dispatch@@YAHQEAUHINSTANCE__@@KQEAX@Z@4HA 00000001800524e2 f   LIBCMT:dll_dllmain.obj
 0001:00051518       __CxxCallCatchBlock$filt$0 0000000180052518 f   libvcruntime:frame.obj
 0001:0005153d       __CxxCallCatchBlock$fin$1  000000018005253d f   libvcruntime:frame.obj
 0001:000515b5       __DestructExceptionObject$filt$0 00000001800525b5 f   libvcruntime:frame.obj
 0001:000515cd       __FrameUnwindToState$filt$0 00000001800525cd f   libvcruntime:frame.obj
 0001:000515e3       __FrameUnwindToState$fin$1 00000001800525e3 f   libvcruntime:frame.obj
 0001:00051606       _CallSETranslator$filt$0   0000000180052606 f   libvcruntime:trnsctrl.obj
 0001:00051652       setlocale$fin$0            0000000180052652 f   libucrt:setlocale.obj
 0001:0005166d       _query_new_handler$fin$0   000000018005266d f   libucrt:new_handler.obj
 0001:00051683       ?filt$0@?0??common_exit@@YAXHW4_crt_exit_cleanup_mode@@W4_crt_exit_return_mode@@@Z@4HA 0000000180052683 f   libucrt:exit.obj
 0001:0005169e       ?fin$1@?0??common_exit@@YAXHW4_crt_exit_cleanup_mode@@W4_crt_exit_return_mode@@@Z@4HA 000000018005269e f   libucrt:exit.obj
 0001:000516b7       ?fin$0@?0???$?RV<lambda_e24bbb7b643b32fcea6fa61b31d4c984>@@AEAV<lambda_275893d493268fdec8709772e3fcec0e>@@V<lambda_9d71df4d7cf3f480f8d633942495c3b0>@@@?$__crt_seh_guarded_call@H@@QEAAH$$QEAV<lambda_e24bbb7b643b32fcea6fa61b31d4c984>@@AEAV<lambda_275893d493268fdec8709772e3fcec0e>@@$$QEAV<lambda_9d71df4d7cf3f480f8d633942495c3b0>@@@Z@4HA 00000001800526b7 f   libucrt:onexit.obj
 0001:000516d4       raise$fin$0                00000001800526d4 f   libucrt:signal.obj
 0001:000516f8       ?fin$0@?0???$?RV<lambda_5e887d1dcbef67a5eb4283622ba103bf>@@AEAV<lambda_4466841279450cc726390878d4a41900>@@V<lambda_341c25c0346d94847f1f3c463c57e077>@@@?$__crt_seh_guarded_call@X@@QEAAX$$QEAV<lambda_5e887d1dcbef67a5eb4283622ba103bf>@@AEAV<lambda_4466841279450cc726390878d4a41900>@@$$QEAV<lambda_341c25c0346d94847f1f3c463c57e077>@@@Z@4HA 00000001800526f8 f   libucrt:per_thread_data.obj
 0001:000516f8       ?fin$0@?0???$?RV<lambda_b8c45f8f788dd370798f47cfe8ac3a86>@@AEAV<lambda_4e60a939b0d047cfe11ddc22648dfba9>@@V<lambda_332c3edc96d0294ec56c57d38c1cdfd5>@@@?$__crt_seh_guarded_call@H@@QEAAH$$QEAV<lambda_b8c45f8f788dd370798f47cfe8ac3a86>@@AEAV<lambda_4e60a939b0d047cfe11ddc22648dfba9>@@$$QEAV<lambda_332c3edc96d0294ec56c57d38c1cdfd5>@@@Z@4HA 00000001800526f8 f   libucrt:onexit.obj
 0001:000516f8       ?fin$0@?0???$?RV<lambda_72d1df2b273a38828b1ce30cbf4cdab5>@@AEAV<lambda_876a65b173b8412d3a47c70a915b0cf4>@@V<lambda_41932305e351933ebe8f8be3ed8bb5dc>@@@?$__crt_seh_guarded_call@X@@QEAAX$$QEAV<lambda_72d1df2b273a38828b1ce30cbf4cdab5>@@AEAV<lambda_876a65b173b8412d3a47c70a915b0cf4>@@$$QEAV<lambda_41932305e351933ebe8f8be3ed8bb5dc>@@@Z@4HA 00000001800526f8 f   libucrt:per_thread_data.obj
 0001:000516f8       ?fin$0@?0???$?RV<lambda_fb3a7dec4e47f37f22dae91bb15c9095>@@AEAV<lambda_698284760c8add0bfb0756c19673e34b>@@V<lambda_dfb8eca1e75fef3034a8fb18dd509707>@@@?$__crt_seh_guarded_call@X@@QEAAX$$QEAV<lambda_fb3a7dec4e47f37f22dae91bb15c9095>@@AEAV<lambda_698284760c8add0bfb0756c19673e34b>@@$$QEAV<lambda_dfb8eca1e75fef3034a8fb18dd509707>@@@Z@4HA 00000001800526f8 f   libucrt:per_thread_data.obj
 0001:000516f8       ?fin$0@?0???$?RV<lambda_c36588078e9f5dfd39652860aa6b3aaf>@@AEAV<lambda_ec61778202f4f5fc7e7711acc23c3bca>@@V<lambda_dc9d2797ccde5d239b4a0efae8ebd7db>@@@?$__crt_seh_guarded_call@P6AXH@Z@@QEAAP6AXH@Z$$QEAV<lambda_c36588078e9f5dfd39652860aa6b3aaf>@@AEAV<lambda_ec61778202f4f5fc7e7711acc23c3bca>@@$$QEAV<lambda_dc9d2797ccde5d239b4a0efae8ebd7db>@@@Z@4HA 00000001800526f8 f   libucrt:signal.obj
 0001:000516f8       ?fin$0@?0???$?RV<lambda_46352004c1216016012b18bd6f87e700>@@AEAV<lambda_3bd07e1a1191394380780325891bf33f>@@V<lambda_334532d3f185bcaa59b5be82d7d22bff>@@@?$__crt_seh_guarded_call@X@@QEAAX$$QEAV<lambda_46352004c1216016012b18bd6f87e700>@@AEAV<lambda_3bd07e1a1191394380780325891bf33f>@@$$QEAV<lambda_334532d3f185bcaa59b5be82d7d22bff>@@@Z@4HA 00000001800526f8 f   libucrt:per_thread_data.obj
 0001:000516f8       ?fin$0@?0???$?RV<lambda_d67e8342c384adda8f857579ab50b2ae>@@AEAV<lambda_30712929f77e709619002f448b6a9510>@@V<lambda_4525336fd7e478d965fb7ca7a337cad8>@@@?$__crt_seh_guarded_call@X@@QEAAX$$QEAV<lambda_d67e8342c384adda8f857579ab50b2ae>@@AEAV<lambda_30712929f77e709619002f448b6a9510>@@$$QEAV<lambda_4525336fd7e478d965fb7ca7a337cad8>@@@Z@4HA 00000001800526f8 f   libucrt:wsetlocale.obj
 0001:000516f8       ?fin$0@?0???$?RV<lambda_99476a1ad63dd22509b5d3e65b0ffc95>@@AEAV<lambda_ad1ced32f4ac17aa236e5ef05d6b3b7c>@@V<lambda_f7424dd8d45958661754dc4f2697e9c3>@@@?$__crt_seh_guarded_call@X@@QEAAX$$QEAV<lambda_99476a1ad63dd22509b5d3e65b0ffc95>@@AEAV<lambda_ad1ced32f4ac17aa236e5ef05d6b3b7c>@@$$QEAV<lambda_f7424dd8d45958661754dc4f2697e9c3>@@@Z@4HA 00000001800526f8 f   libucrt:mbctype.obj
 0001:000516f8       ?fin$0@?0???$?RV<lambda_630b2aca97f6d20d5b5ea6529ea6b6af>@@AEAV<lambda_af91936f1d075d609f72d9d8cba980af>@@V<lambda_e82fa975f615b5c7c7b0e4d178fdae67>@@@?$__crt_seh_guarded_call@H@@QEAAH$$QEAV<lambda_630b2aca97f6d20d5b5ea6529ea6b6af>@@AEAV<lambda_af91936f1d075d609f72d9d8cba980af>@@$$QEAV<lambda_e82fa975f615b5c7c7b0e4d178fdae67>@@@Z@4HA 00000001800526f8 f   libucrt:winapi_thunks.obj
 0001:00051712       __tzset$fin$0              0000000180052712 f   libucrt:tzset.obj
 0001:00051712       _isindst$fin$0             0000000180052712 f   libucrt:tzset.obj
 0001:0005172b       ?fin$0@?0???$?RV<lambda_5df02c53a8f32f81fd64e5bbb78039f1>@@AEAV<lambda_2af78c5f5901b1372d98f9ab3177dfa6>@@AEAV<lambda_f51fe5fd7c79a33db34fc9310f277369>@@@?$__crt_seh_guarded_call@X@@QEAAX$$QEAV<lambda_5df02c53a8f32f81fd64e5bbb78039f1>@@AEAV<lambda_2af78c5f5901b1372d98f9ab3177dfa6>@@AEAV<lambda_f51fe5fd7c79a33db34fc9310f277369>@@@Z@4HA 000000018005272b f   libucrt:wsetlocale.obj
 0001:0005174c       __acrt_initialize_lowio$fin$0 000000018005274c f   libucrt:ioinit.obj
 0001:0005174c       __acrt_lowio_ensure_fh_exists$fin$0 000000018005274c f   libucrt:osfinfo.obj
 0001:00051765       _ctrlfp$filt$0             0000000180052765 f   libucrt:fpctrl.obj
 0001:00051765       common_control87$filt$0    0000000180052765 f   libucrt:ieee.obj
 0001:00051791       common_flush_all$fin$0     0000000180052791 f   libucrt:fflush.obj
 0001:000517ab       common_flush_all$fin$1     00000001800527ab f   libucrt:fflush.obj
 0001:000517c4       ?fin$0@?0???$?RV<lambda_7a5ef57ff966f610505f1d28a3d40618>@@AEAV<lambda_b721fa326cdb32351d23dfa67958c160>@@V<lambda_5e0fb27672408a07956fe59e48ccb2aa>@@@?$__crt_seh_guarded_call@H@@QEAAH$$QEAV<lambda_7a5ef57ff966f610505f1d28a3d40618>@@AEAV<lambda_b721fa326cdb32351d23dfa67958c160>@@$$QEAV<lambda_5e0fb27672408a07956fe59e48ccb2aa>@@@Z@4HA 00000001800527c4 f   libucrt:setvbuf.obj
 0001:000517c4       ?fin$0@?0???$?RV<lambda_7b91131dde12e1c3dfc74ff76b3f2eac>@@AEAV<lambda_dd75445284c072d0bd3768540cc698fa>@@V<lambda_16bc4ecb55b4718497c16bceaea2ceaf>@@@?$__crt_seh_guarded_call@H@@QEAAH$$QEAV<lambda_7b91131dde12e1c3dfc74ff76b3f2eac>@@AEAV<lambda_dd75445284c072d0bd3768540cc698fa>@@$$QEAV<lambda_16bc4ecb55b4718497c16bceaea2ceaf>@@@Z@4HA 00000001800527c4 f   libucrt:output.obj
 0001:000517df       __acrt_update_thread_multibyte_data$fin$0 00000001800527df f   libucrt:mbctype.obj
 0001:000517f8       __acrt_uninitialize_locale$fin$0 00000001800527f8 f   libucrt:wsetlocale.obj
 0001:000517f8       __acrt_update_thread_locale_data$fin$0 00000001800527f8 f   libucrt:locale_refcounting.obj
 0001:00051811       ?fin$0@?0???$common_getenv_s@D@@YAHQEA_KQEAD_KQEBD@Z@4HA 0000000180052811 f   libucrt:getenv.obj
 0001:0005182a       _fcloseall$fin$0           000000018005282a f   libucrt:closeall.obj
 0001:00051843       ?fin$0@?0???$?RV<lambda_bfedae4ebbf01fab1bb6dcc6a9e276e0>@@AEAV<lambda_2fe9b910cf3cbf4a0ab98a02ba45b3ec>@@V<lambda_237c231691f317818eb88cc1d5d642d6>@@@?$__crt_seh_guarded_call@H@@QEAAH$$QEAV<lambda_bfedae4ebbf01fab1bb6dcc6a9e276e0>@@AEAV<lambda_2fe9b910cf3cbf4a0ab98a02ba45b3ec>@@$$QEAV<lambda_237c231691f317818eb88cc1d5d642d6>@@@Z@4HA 0000000180052843 f   libucrt:close.obj
 0001:00051843       ?fin$0@?0???$?RV<lambda_b521505b218e5242e90febf6bfebc422>@@AEAV<lambda_6978c1fb23f02e42e1d9e99668cc68aa>@@V<lambda_314360699dd331753a4119843814e9a7>@@@?$__crt_seh_guarded_call@H@@QEAAH$$QEAV<lambda_b521505b218e5242e90febf6bfebc422>@@AEAV<lambda_6978c1fb23f02e42e1d9e99668cc68aa>@@$$QEAV<lambda_314360699dd331753a4119843814e9a7>@@@Z@4HA 0000000180052843 f   libucrt:commit.obj
 0001:0005185d       _write$fin$0               000000018005285d f   libucrt:write.obj
 0001:0005185d       ?fin$0@?0???$common_lseek@_J@@YA_JH_JH@Z@4HA 000000018005285d f   libucrt:lseek.obj
 0001:00051874       fflush$fin$0               0000000180052874 f   libucrt:fflush.obj
 0001:00051874       fclose$fin$0               0000000180052874 f   libucrt:fclose.obj
 0001:00051890       _IsNonwritableInCurrentImage$filt$0 0000000180052890 f   LIBCMT:pesect.obj
 0001:000518b0       ??__F?constructor@S7Client@node_snap7@@0V?$Persistent@VFunctionTemplate@v8@@V?$NonCopyablePersistentTraits@VFunctionTemplate@v8@@@2@@Nan@@A@@YAXXZ 00000001800528b0 f   node_snap7_client.obj
 0001:000518d0       ??__FSocketsLayerInitializer@@YAXXZ 00000001800528d0 f   snap7:snap_msgsock.obj
 0001:000518fc       ??__Finitlocks@std@@YAXXZ  00000001800528fc f   libcpmt:xlock.obj
 0001:00051908       ??__F_Fac_tidy_reg@std@@YAXXZ 0000000180052908 f   libcpmt:locale0.obj
 0001:00051934       ??__Fclassic_locale@std@@YAXXZ 0000000180052934 f   libcpmt:locale0.obj
 0001:00051994       ??__Finit_atexit@@YAXXZ    0000000180052994 f   libcpmt:iosptrs.obj
 0001:000519e8       ??__Finitlocks@std@@YAXXZ  00000001800529e8 f   libcpmt:iosptrs.obj
 0002:000003f8       ?initlocks$initializer$@std@@3P6AXXZEA 00000001800533f8     libcpmt:xlock.obj
 0002:00000400       ?initlocks$initializer$@std@@3P6AXXZEA 0000000180053400     libcpmt:iosptrs.obj
 0002:00000408       ?init_atexit$initializer$@@3P6AXXZEA 0000000180053408     libcpmt:iosptrs.obj
 0002:00000410       ?_Fac_tidy_reg$initializer$@std@@3P6AXXZEA 0000000180053410     libcpmt:locale0.obj
 0002:00000418       ?classic_locale$initializer$@std@@3P6AXXZEA 0000000180053418     libcpmt:locale0.obj
 0002:00000428       ??constructor$initializer$@S7Client@node_snap7@@0P6AXXZEA@@3P6AXXZEA 0000000180053428     node_snap7_client.obj
 0002:00000430       ?SocketsLayerInitializer$initializer$@@3P6AXXZEA 0000000180053430     snap7:snap_msgsock.obj
 0002:00000448       ?pinit@@3P6AHXZEA          0000000180053448     libcpmt:winapisupp.obj
 0002:00000450       ?__scrt_initialize_tss_var@@3P6AHXZEA 0000000180053450     LIBCMT:thread_safe_statics.obj
 0002:000004e0       $cppxdata$??_G_Fac_node@std@@QEAAPEAXI@Z 00000001800534e0     libcpmt:locale0.obj
 0002:00000508       $cppxdata$?_Locimp_dtor@_Locimp@locale@std@@CAXPEAV123@@Z 0000000180053508     libcpmt:locale0.obj
 0002:00000530       $cppxdata$??_G_Locimp@locale@std@@MEAAPEAXI@Z 0000000180053530     libcpmt:locale0.obj
 0002:00000558       $cppxdata$?_Init@locale@std@@CAPEAV_Locimp@12@_N@Z 0000000180053558     libcpmt:locale0.obj
 0002:00000580       $cppxdata$??__Fclassic_locale@std@@YAXXZ 0000000180053580     libcpmt:locale0.obj
 0002:000006b0       ?_Win_errtab@std@@3QBU_Win_errtab_t@1@B 00000001800536b0     libcpmt:syserror.obj
 0002:00000900       ?_Sys_errtab@std@@3QBU_Sys_errtab_t@1@B 0000000180053900     libcpmt:syserror.obj
 0002:000014a0       $cppxdata$??__Finit_atexit@@YAXXZ 00000001800544a0     libcpmt:iosptrs.obj
 0002:000019f0       digits                     00000001800549f0     libcpmt:xstoul.obj
 0002:00001a18       ndigs                      0000000180054a18     libcpmt:xstoul.obj
 0002:00001a40       digits                     0000000180054a40     libcpmt:xstoull.obj
 0002:00001a68       ndigs                      0000000180054a68     libcpmt:xstoull.obj
 0002:000020c0       ?LcidToLocaleNameTable@@3QBULcidToLocaleName@@B 00000001800550c0     libcpmt:winapinls.obj
 0002:00002f00       ?LocaleNameToIndexTable@@3QBULocaleNameIndex@@B 0000000180055f00     libcpmt:winapinls.obj
 0002:00004de8       GS_ExceptionPointers       0000000180057de8     LIBCMT:gs_report.obj
 0002:00004e60       ?ExceptionTemplate@?1??_UnwindNestedFrames@@9@4U_EXCEPTION_RECORD@@B 0000000180057e60     libvcruntime:trnsctrl.obj
 0002:00004f00       ?ExceptionTemplate@?1??_CxxThrowException@@9@4UEHExceptionRecord@@B 0000000180057f00     libvcruntime:throw.obj
 0002:00004f40       ?module_names@?A0x679b24ab@@3QBQEB_WB 0000000180057f40     libvcruntime:winapi_downlevel.obj
 0002:00005010       ?candidate_modules@?1??try_get_FlsAlloc@@YAP6AKP6AXPEAX@Z@ZXZ@4QBW4module_id@?A0x679b24ab@@B 0000000180058010     libvcruntime:winapi_downlevel.obj
 0002:00005018       ?candidate_modules@?1??try_get_FlsFree@@YAP6AHK@ZXZ@4QBW4module_id@?A0x679b24ab@@B 0000000180058018     libvcruntime:winapi_downlevel.obj
 0002:00005020       ?candidate_modules@?1??try_get_FlsGetValue@@YAP6APEAXK@ZXZ@4QBW4module_id@?A0x679b24ab@@B 0000000180058020     libvcruntime:winapi_downlevel.obj
 0002:00005028       ?candidate_modules@?1??try_get_FlsSetValue@@YAP6AHKPEAX@ZXZ@4QBW4module_id@?A0x679b24ab@@B 0000000180058028     libvcruntime:winapi_downlevel.obj
 0002:00005030       ?candidate_modules@?1??try_get_InitializeCriticalSectionEx@@YAP6AHPEAU_RTL_CRITICAL_SECTION@@KK@ZXZ@4QBW4module_id@?A0x679b24ab@@B 0000000180058030     libvcruntime:winapi_downlevel.obj
 0002:00005040       ?tokenTable@@3QBQEBDB      0000000180058040     libvcruntime:undname.obj
 0002:000050b0       ?nameTable@@3QBQEBDB       00000001800580b0     libvcruntime:undname.obj
 0002:00005338       ?rttiTable@@3QBQEBDB       0000000180058338     libvcruntime:undname.obj
 0002:00006590       errtable                   0000000180059590     libucrt:errno.obj
 0002:000070d0       __flag_x_one_y_snan        000000018005a0d0     libucrt:pow.obj
 0002:000070d4       __flag_x_zero_z_inf        000000018005a0d4     libucrt:pow.obj
 0002:000070d8       __flag_x_nan               000000018005a0d8     libucrt:pow.obj
 0002:000070dc       __flag_y_nan               000000018005a0dc     libucrt:pow.obj
 0002:000070e0       __flag_x_nan_y_nan         000000018005a0e0     libucrt:pow.obj
 0002:000070e4       __flag_x_neg_y_notint      000000018005a0e4     libucrt:pow.obj
 0002:000070e8       __flag_z_zero              000000018005a0e8     libucrt:pow.obj
 0002:000070ec       __flag_z_denormal          000000018005a0ec     libucrt:pow.obj
 0002:000070f0       __flag_z_inf               000000018005a0f0     libucrt:pow.obj
 0002:00007100       __ay_max_bound             000000018005a100     libucrt:pow.obj
 0002:00007108       __ay_min_bound             000000018005a108     libucrt:pow.obj
 0002:00007110       __sign_mask                000000018005a110     libucrt:pow.obj
 0002:00007118       __sign_and_exp_mask        000000018005a118     libucrt:pow.obj
 0002:00007120       __exp_mask                 000000018005a120     libucrt:pow.obj
 0002:00007128       __neg_inf                  000000018005a128     libucrt:pow.obj
 0002:00007130       __pos_inf                  000000018005a130     libucrt:pow.obj
 0002:00007138       __pos_one                  000000018005a138     libucrt:pow.obj
 0002:00007140       __pos_zero                 000000018005a140     libucrt:pow.obj
 0002:00007148       __exp_mant_mask            000000018005a148     libucrt:pow.obj
 0002:00007150       __mant_mask                000000018005a150     libucrt:pow.obj
 0002:00007158       __ind_pattern              000000018005a158     libucrt:pow.obj
 0002:00007160       __neg_qnan                 000000018005a160     libucrt:pow.obj
 0002:00007168       __qnan                     000000018005a168     libucrt:pow.obj
 0002:00007170       __qnan_set                 000000018005a170     libucrt:pow.obj
 0002:00007178       __neg_one                  000000018005a178     libucrt:pow.obj
 0002:00007180       __neg_zero                 000000018005a180     libucrt:pow.obj
 0002:00007188       __exp_shift                000000018005a188     libucrt:pow.obj
 0002:00007190       __exp_bias                 000000018005a190     libucrt:pow.obj
 0002:00007198       __exp_bias_m1              000000018005a198     libucrt:pow.obj
 0002:000071a0       __yexp_53                  000000018005a1a0     libucrt:pow.obj
 0002:000071a8       __mant_full                000000018005a1a8     libucrt:pow.obj
 0002:000071b0       __1_before_mant            000000018005a1b0     libucrt:pow.obj
 0002:000071b8       __mask_mant_all8           000000018005a1b8     libucrt:pow.obj
 0002:000071c0       __mask_mant9               000000018005a1c0     libucrt:pow.obj
 0002:000071d0       __real_fffffffff8000000    000000018005a1d0     libucrt:pow.obj
 0002:000071e0       __mask_8000000000000000    000000018005a1e0     libucrt:pow.obj
 0002:000071f0       __real_4090040000000000    000000018005a1f0     libucrt:pow.obj
 0002:00007200       __real_C090C80000000000    000000018005a200     libucrt:pow.obj
 0002:00007210       __real_ninf                000000018005a210     libucrt:pow.obj
 0002:00007220       __real_inf                 000000018005a220     libucrt:pow.obj
 0002:00007230       __real_nan                 000000018005a230     libucrt:pow.obj
 0002:00007240       __real_mant                000000018005a240     libucrt:pow.obj
 0002:00007250       __mask_1023                000000018005a250     libucrt:pow.obj
 0002:00007260       __mask_001                 000000018005a260     libucrt:pow.obj
 0002:00007270       __real_log2_lead           000000018005a270     libucrt:pow.obj
 0002:00007280       __real_log2_tail           000000018005a280     libucrt:pow.obj
 0002:00007290       __real_two                 000000018005a290     libucrt:pow.obj
 0002:000072a0       __real_one                 000000018005a2a0     libucrt:pow.obj
 0002:000072b0       __real_half                000000018005a2b0     libucrt:pow.obj
 0002:000072c0       __mask_100                 000000018005a2c0     libucrt:pow.obj
 0002:000072d0       __real_1_over_2            000000018005a2d0     libucrt:pow.obj
 0002:000072e0       __real_1_over_3            000000018005a2e0     libucrt:pow.obj
 0002:000072f0       __real_1_over_4            000000018005a2f0     libucrt:pow.obj
 0002:00007300       __real_1_over_5            000000018005a300     libucrt:pow.obj
 0002:00007310       __real_1_over_6            000000018005a310     libucrt:pow.obj
 0002:00007320       __real_1_over_7            000000018005a320     libucrt:pow.obj
 0002:00007330       __mask_1023_f              000000018005a330     libucrt:pow.obj
 0002:00007340       __mask_2045                000000018005a340     libucrt:pow.obj
 0002:00007350       __real_threshold           000000018005a350     libucrt:pow.obj
 0002:00007360       __real_notsign             000000018005a360     libucrt:pow.obj
 0002:00007370       __log_F_inv_head           000000018005a370     libucrt:pow.obj
 0002:00007b80       __log_F_inv_tail           000000018005ab80     libucrt:pow.obj
 0002:00008390       __denormal_threshold       000000018005b390     libucrt:pow.obj
 0002:000083a0       __enable_almost_inf        000000018005b3a0     libucrt:pow.obj
 0002:000083b0       __real_zero                000000018005b3b0     libucrt:pow.obj
 0002:000083c0       __real_smallest_denormal   000000018005b3c0     libucrt:pow.obj
 0002:000083d0       __denormal_tiny_threshold  000000018005b3d0     libucrt:pow.obj
 0002:000083e0       __real_p65536              000000018005b3e0     libucrt:pow.obj
 0002:000083f0       __real_m68800              000000018005b3f0     libucrt:pow.obj
 0002:00008400       __real_64_by_log2          000000018005b400     libucrt:pow.obj
 0002:00008410       __real_log2_by_64_head     000000018005b410     libucrt:pow.obj
 0002:00008420       __real_log2_by_64_tail     000000018005b420     libucrt:pow.obj
 0002:00008430       __real_1_by_720            000000018005b430     libucrt:pow.obj
 0002:00008440       __real_1_by_120            000000018005b440     libucrt:pow.obj
 0002:00008450       __real_1_by_24             000000018005b450     libucrt:pow.obj
 0002:00008460       __real_1_by_6              000000018005b460     libucrt:pow.obj
 0002:00008470       __real_1_by_2              000000018005b470     libucrt:pow.obj
 0002:00008480       __flag_x_one_y_snan        000000018005b480     libucrt:powf.obj
 0002:00008484       __flag_x_zero_z_inf        000000018005b484     libucrt:powf.obj
 0002:00008488       __flag_x_nan               000000018005b488     libucrt:powf.obj
 0002:0000848c       __flag_y_nan               000000018005b48c     libucrt:powf.obj
 0002:00008490       __flag_x_nan_y_nan         000000018005b490     libucrt:powf.obj
 0002:00008494       __flag_x_neg_y_notint      000000018005b494     libucrt:powf.obj
 0002:00008498       __flag_z_zero              000000018005b498     libucrt:powf.obj
 0002:0000849c       __flag_z_denormal          000000018005b49c     libucrt:powf.obj
 0002:000084a0       __flag_z_inf               000000018005b4a0     libucrt:powf.obj
 0002:000084a4       L__1_by_3                  000000018005b4a4     libucrt:powf.obj
 0002:000084ac       L__log2                    000000018005b4ac     libucrt:powf.obj
 0002:000084b4       L__max_exp_arg             000000018005b4b4     libucrt:powf.obj
 0002:000084bc       L__min_exp_arg             000000018005b4bc     libucrt:powf.obj
 0002:000084c4       L__real_log2_by_64         000000018005b4c4     libucrt:powf.obj
 0002:000084cc       L__1_by_6                  000000018005b4cc     libucrt:powf.obj
 0002:000084d4       L__real_threshold          000000018005b4d4     libucrt:powf.obj
 0002:000084dc       L__real_one                000000018005b4dc     libucrt:powf.obj
 0002:000084e4       L__real_two                000000018005b4e4     libucrt:powf.obj
 0002:000084ec       L__neg_zero                000000018005b4ec     libucrt:powf.obj
 0002:00008500       L__real_ca42               000000018005b500     libucrt:powf.obj
 0002:00008508       L__real_ca4                000000018005b508     libucrt:powf.obj
 0002:00008510       L__real_ca31               000000018005b510     libucrt:powf.obj
 0002:00008518       L__real_ca3                000000018005b518     libucrt:powf.obj
 0002:00008520       L__clear_sign              000000018005b520     libucrt:powf.obj
 0002:00008530       L__real_64_by_log2         000000018005b530     libucrt:powf.obj
 0002:00008540       L__1_by_2                  000000018005b540     libucrt:powf.obj
 0002:00008550       L__1023                    000000018005b550     libucrt:powf.obj
 0002:00008560       L__xexp_bits_xmantissa_bits 000000018005b560     libucrt:powf.obj
 0002:00008eb0       __acrt_initializers        000000018005beb0     libucrt:initialization.obj
 0002:00009180       _first_127char             000000018005c180     libucrt:wsetlocale.obj
 0002:000098a0       ?_names@?1??_get_fname@@9@9 000000018005c8a0     libucrt:fpexcept.obj
 0002:00009b50       module_names               000000018005cb50     libucrt:winapi_thunks.obj
 0002:0000a080       ?candidate_modules@?1??try_get_CompareStringEx@@YAP6AHPEB_WK0H0HPEAU_nlsversioninfo@@PEAX_J@ZXZ@4QBW4module_id@?A0x63058377@@B 000000018005d080     libucrt:winapi_thunks.obj
 0002:0000a088       ?candidate_modules@?1??try_get_EnumSystemLocalesEx@@YAP6AHP6AHPEA_WK_J@ZK1PEAX@ZXZ@4QBW4module_id@?A0x63058377@@B 000000018005d088     libucrt:winapi_thunks.obj
 0002:0000a0a8       ?candidate_modules@?1??try_get_FlsAlloc@@YAP6AKP6AXPEAX@Z@ZXZ@4QBW4module_id@?A0x63058377@@B 000000018005d0a8     libucrt:winapi_thunks.obj
 0002:0000a0b0       ?candidate_modules@?1??try_get_FlsFree@@YAP6AHK@ZXZ@4QBW4module_id@?A0x63058377@@B 000000018005d0b0     libucrt:winapi_thunks.obj
 0002:0000a0b8       ?candidate_modules@?1??try_get_FlsGetValue@@YAP6APEAXK@ZXZ@4QBW4module_id@?A0x63058377@@B 000000018005d0b8     libucrt:winapi_thunks.obj
 0002:0000a0c0       ?candidate_modules@?1??try_get_FlsSetValue@@YAP6AHKPEAX@ZXZ@4QBW4module_id@?A0x63058377@@B 000000018005d0c0     libucrt:winapi_thunks.obj
 0002:0000a0c8       ?candidate_modules@?1??try_get_GetActiveWindow@@YAP6APEAUHWND__@@XZXZ@4QBW4module_id@?A0x63058377@@B 000000018005d0c8     libucrt:winapi_thunks.obj
 0002:0000a0e0       ?candidate_modules@?1??try_get_GetCurrentPackageId@@YAP6AJPEAIPEAE@ZXZ@4QBW4module_id@?A0x63058377@@B 000000018005d0e0     libucrt:winapi_thunks.obj
 0002:0000a0e8       ?candidate_modules@?1??try_get_GetDateFormatEx@@YAP6AHPEB_WKPEBU_SYSTEMTIME@@0PEA_WH0@ZXZ@4QBW4module_id@?A0x63058377@@B 000000018005d0e8     libucrt:winapi_thunks.obj
 0002:0000a100       ?candidate_modules@?1??try_get_GetLastActivePopup@@YAP6APEAUHWND__@@PEAU2@@ZXZ@4QBW4module_id@?A0x63058377@@B 000000018005d100     libucrt:winapi_thunks.obj
 0002:0000a120       ?candidate_modules@?1??try_get_GetLocaleInfoEx@@YAP6AHPEB_WKPEA_WH@ZXZ@4QBW4module_id@?A0x63058377@@B 000000018005d120     libucrt:winapi_thunks.obj
 0002:0000a128       ?candidate_modules@?1??try_get_GetProcessWindowStation@@YAP6APEAUHWINSTA__@@XZXZ@4QBW4module_id@?A0x63058377@@B 000000018005d128     libucrt:winapi_thunks.obj
 0002:0000a148       ?candidate_modules@?1??try_get_GetSystemTimePreciseAsFileTime@@YAP6AXPEAU_FILETIME@@@ZXZ@4QBW4module_id@?A0x63058377@@B 000000018005d148     libucrt:winapi_thunks.obj
 0002:0000a150       ?candidate_modules@?1??try_get_GetTimeFormatEx@@YAP6AHPEB_WKPEBU_SYSTEMTIME@@0PEA_WH@ZXZ@4QBW4module_id@?A0x63058377@@B 000000018005d150     libucrt:winapi_thunks.obj
 0002:0000a168       ?candidate_modules@?1??try_get_GetUserDefaultLocaleName@@YAP6AHPEA_WH@ZXZ@4QBW4module_id@?A0x63058377@@B 000000018005d168     libucrt:winapi_thunks.obj
 0002:0000a190       ?candidate_modules@?1??try_get_GetUserObjectInformationW@@YAP6AHPEAXH0KPEAK@ZXZ@4QBW4module_id@?A0x63058377@@B 000000018005d190     libucrt:winapi_thunks.obj
 0002:0000a1b8       ?candidate_modules@?1??try_get_InitializeCriticalSectionEx@@YAP6AHPEAU_RTL_CRITICAL_SECTION@@KK@ZXZ@4QBW4module_id@?A0x63058377@@B 000000018005d1b8     libucrt:winapi_thunks.obj
 0002:0000a1c0       ?candidate_modules@?1??try_get_IsValidLocaleName@@YAP6AHPEB_W@ZXZ@4QBW4module_id@?A0x63058377@@B 000000018005d1c0     libucrt:winapi_thunks.obj
 0002:0000a1e0       ?candidate_modules@?1??try_get_LCMapStringEx@@YAP6AHPEB_WK0HPEA_WHPEAU_nlsversioninfo@@PEAX_J@ZXZ@4QBW4module_id@?A0x63058377@@B 000000018005d1e0     libucrt:winapi_thunks.obj
 0002:0000a1e8       ?candidate_modules@?1??try_get_LCIDToLocaleName@@YAP6AHKPEA_WHK@ZXZ@4QBW4module_id@?A0x63058377@@B 000000018005d1e8     libucrt:winapi_thunks.obj
 0002:0000a208       ?candidate_modules@?1??try_get_LocaleNameToLCID@@YAP6AKPEB_WK@ZXZ@4QBW4module_id@?A0x63058377@@B 000000018005d208     libucrt:winapi_thunks.obj
 0002:0000a228       ?candidate_modules@?1??try_get_MessageBoxA@@YAP6AHPEAUHWND__@@PEBD1I@ZXZ@4QBW4module_id@?A0x63058377@@B 000000018005d228     libucrt:winapi_thunks.obj
 0002:0000a240       ?candidate_modules@?1??try_get_MessageBoxW@@YAP6AHPEAUHWND__@@PEB_W1I@ZXZ@4QBW4module_id@?A0x63058377@@B 000000018005d240     libucrt:winapi_thunks.obj
 0002:0000c0a0       _mb_locale_names           000000018005f0a0     libucrt:mbctype.obj
 0002:0000d0b0       __real@433fffffffffffff    00000001800600b0     libucrt:fpsr.obj
 0002:0000d0b8       __real@c33fffffffffffff    00000001800600b8     libucrt:fpsr.obj
 0002:0000d0c0       LcidToLocaleNameTable      00000001800600c0     libucrt:lcidtoname_downlevel.obj
 0002:0000df00       LocaleNameToIndexTable     0000000180060f00     libucrt:lcidtoname_downlevel.obj
 0002:0000ed40       __real_ninf                0000000180061d40     libucrt:log10.obj
 0002:0000ed50       __real_inf                 0000000180061d50     libucrt:log10.obj
 0002:0000ed60       __real_neg_qnan            0000000180061d60     libucrt:log10.obj
 0002:0000ed70       __real_qnanbit             0000000180061d70     libucrt:log10.obj
 0002:0000ed80       __int_1023                 0000000180061d80     libucrt:log10.obj
 0002:0000ed90       __mask_001                 0000000180061d90     libucrt:log10.obj
 0002:0000eda0       __mask_mant                0000000180061da0     libucrt:log10.obj
 0002:0000edb0       __mask_mant_top8           0000000180061db0     libucrt:log10.obj
 0002:0000edc0       __mask_mant9               0000000180061dc0     libucrt:log10.obj
 0002:0000edd0       __real_log10_e             0000000180061dd0     libucrt:log10.obj
 0002:0000ede0       __real_log10_e_lead        0000000180061de0     libucrt:log10.obj
 0002:0000edf0       __real_log10_e_tail        0000000180061df0     libucrt:log10.obj
 0002:0000ee00       __real_log10_2_lead        0000000180061e00     libucrt:log10.obj
 0002:0000ee10       __real_log10_2_tail        0000000180061e10     libucrt:log10.obj
 0002:0000ee20       __real_two                 0000000180061e20     libucrt:log10.obj
 0002:0000ee30       __real_one                 0000000180061e30     libucrt:log10.obj
 0002:0000ee40       __real_half                0000000180061e40     libucrt:log10.obj
 0002:0000ee50       __mask_100                 0000000180061e50     libucrt:log10.obj
 0002:0000ee60       __real_1_over_512          0000000180061e60     libucrt:log10.obj
 0002:0000ee70       __real_1_over_2            0000000180061e70     libucrt:log10.obj
 0002:0000ee80       __real_1_over_3            0000000180061e80     libucrt:log10.obj
 0002:0000ee90       __real_1_over_4            0000000180061e90     libucrt:log10.obj
 0002:0000eea0       __real_1_over_5            0000000180061ea0     libucrt:log10.obj
 0002:0000eeb0       __real_1_over_6            0000000180061eb0     libucrt:log10.obj
 0002:0000eec0       __real_neg_1023            0000000180061ec0     libucrt:log10.obj
 0002:0000eed0       __mask_2045                0000000180061ed0     libucrt:log10.obj
 0002:0000eee0       __real_threshold           0000000180061ee0     libucrt:log10.obj
 0002:0000eef0       __real_near_one_lt         0000000180061ef0     libucrt:log10.obj
 0002:0000ef00       __real_near_one_gt         0000000180061f00     libucrt:log10.obj
 0002:0000ef10       __real_min_norm            0000000180061f10     libucrt:log10.obj
 0002:0000ef20       __real_notsign             0000000180061f20     libucrt:log10.obj
 0002:0000ef30       __real_ca1                 0000000180061f30     libucrt:log10.obj
 0002:0000ef40       __real_ca2                 0000000180061f40     libucrt:log10.obj
 0002:0000ef50       __real_ca3                 0000000180061f50     libucrt:log10.obj
 0002:0000ef60       __real_ca4                 0000000180061f60     libucrt:log10.obj
 0002:0000ef70       __mask_lower               0000000180061f70     libucrt:log10.obj
 0002:0000ef80       __flag_x_zero              0000000180061f80     libucrt:log10.obj
 0002:0000ef84       __flag_x_neg               0000000180061f84     libucrt:log10.obj
 0002:0000ef88       __flag_x_nan               0000000180061f88     libucrt:log10.obj
 0002:000114d0       ?BitMask@@3QBEB            00000001800644d0     snap7:s7_server.obj
 0002:000114d8       ?iphlpapi@@3PEBDEB         00000001800644d8     snap7:snap_msgsock.obj
 0002:000130e0       $cppxdata$Par_ErrorText    00000001800660e0     snap7:snap7_libmain.obj
 0002:00013108       $cppxdata$Cli_ErrorText    0000000180066108     snap7:snap7_libmain.obj
 0002:00013130       $cppxdata$Srv_ErrorText    0000000180066130     snap7:snap7_libmain.obj
 0002:00013158       $cppxdata$Srv_EventText    0000000180066158     snap7:snap7_libmain.obj
 0002:00013180       $cppxdata$?CloseWorker@TSnap7Partner@@AEAAXXZ 0000000180066180     snap7:s7_partner.obj
 0002:000131a8       $cppxdata$?Start@TConnectionServer@@IEAAHXZ 00000001800661a8     snap7:s7_partner.obj
 0002:000131d0       $cppxdata$?GetServer@TServersManager@@QEAAHIAEAPEAVTConnectionServer@@@Z 00000001800661d0     snap7:s7_partner.obj
 0002:000131f8       $cppxdata$?ServersManager_GetServer@@YAHIAEAPEAVTConnectionServer@@@Z 00000001800661f8     snap7:s7_partner.obj
 0002:00013220       $cppxdata$??0TSnap7Partner@@QEAA@_N@Z 0000000180066220     snap7:s7_partner.obj
 0002:00013248       $cppxdata$?DoCompletion@TSnap7Client@@IEAAXXZ 0000000180066248     snap7:s7_client.obj
 0002:00013270       $cppxdata$?CloseThread@TSnap7Client@@AEAAXXZ 0000000180066270     snap7:s7_client.obj
 0002:00013298       $cppxdata$??$?HDU?$char_traits@D@std@@V?$allocator@D@1@@std@@YA?AV?$basic_string@DU?$char_traits@D@std@@V?$allocator@D@2@@0@$$QEAV10@AEBV10@@Z 0000000180066298     snap7:s7_text.obj
 0002:000132c0       $cppxdata$??$?HDU?$char_traits@D@std@@V?$allocator@D@1@@std@@YA?AV?$basic_string@DU?$char_traits@D@std@@V?$allocator@D@2@@0@$$QEAV10@0@Z 00000001800662c0     snap7:s7_text.obj
 0002:000132e8       $cppxdata$??$?HDU?$char_traits@D@std@@V?$allocator@D@1@@std@@YA?AV?$basic_string@DU?$char_traits@D@std@@V?$allocator@D@2@@0@AEBV10@PEBD@Z 00000001800662e8     snap7:s7_text.obj
 0002:00013310       $cppxdata$??$?HDU?$char_traits@D@std@@V?$allocator@D@1@@std@@YA?AV?$basic_string@DU?$char_traits@D@std@@V?$allocator@D@2@@0@$$QEAV10@PEBD@Z 0000000180066310     snap7:s7_text.obj
 0002:00013338       $cppxdata$??$?HDU?$char_traits@D@std@@V?$allocator@D@1@@std@@YA?AV?$basic_string@DU?$char_traits@D@std@@V?$allocator@D@2@@0@PEBDAEBV10@@Z 0000000180066338     snap7:s7_text.obj
 0002:00013360       $cppxdata$??$?HDU?$char_traits@D@std@@V?$allocator@D@1@@std@@YA?AV?$basic_string@DU?$char_traits@D@std@@V?$allocator@D@2@@0@PEBD$$QEAV10@@Z 0000000180066360     snap7:s7_text.obj
 0002:00013388       $cppxdata$??4?$basic_string@DU?$char_traits@D@std@@V?$allocator@D@2@@std@@QEAAAEAV01@$$QEAV01@@Z 0000000180066388     snap7:s7_text.obj
 0002:000133b0       $cppxdata$?SecurityText@@YA?AV?$basic_string@DU?$char_traits@D@std@@V?$allocator@D@2@@std@@AEAUTSrvEvent@@@Z 00000001800663b0     snap7:s7_text.obj
 0002:000133d8       $cppxdata$?BlockInfoText@@YA?AV?$basic_string@DU?$char_traits@D@std@@V?$allocator@D@2@@std@@AEAUTSrvEvent@@@Z 00000001800663d8     snap7:s7_text.obj
 0002:00013400       $cppxdata$?StrBlockType@@YA?AV?$basic_string@DU?$char_traits@D@std@@V?$allocator@D@2@@std@@G@Z 0000000180066400     snap7:s7_text.obj
 0002:00013428       $cppxdata$?DownloadText@@YA?AV?$basic_string@DU?$char_traits@D@std@@V?$allocator@D@2@@std@@AEAUTSrvEvent@@@Z 0000000180066428     snap7:s7_text.obj
 0002:00013450       $cppxdata$?UploadText@@YA?AV?$basic_string@DU?$char_traits@D@std@@V?$allocator@D@2@@std@@AEAUTSrvEvent@@@Z 0000000180066450     snap7:s7_text.obj
 0002:00013478       $cppxdata$?ReadSZLText@@YA?AV?$basic_string@DU?$char_traits@D@std@@V?$allocator@D@2@@std@@AEAUTSrvEvent@@@Z 0000000180066478     snap7:s7_text.obj
 0002:000134a0       $cppxdata$?ClockText@@YA?AV?$basic_string@DU?$char_traits@D@std@@V?$allocator@D@2@@std@@G@Z 00000001800664a0     snap7:s7_text.obj
 0002:000134c8       $cppxdata$?ControlText@@YA?AV?$basic_string@DU?$char_traits@D@std@@V?$allocator@D@2@@std@@G@Z 00000001800664c8     snap7:s7_text.obj
 0002:000134f0       $cppxdata$?TxtDataResult@@YA?AV?$basic_string@DU?$char_traits@D@std@@V?$allocator@D@2@@std@@AEAUTSrvEvent@@@Z 00000001800664f0     snap7:s7_text.obj
 0002:00013518       $cppxdata$?TxtStartSize@@YA?AV?$basic_string@DU?$char_traits@D@std@@V?$allocator@D@2@@std@@AEAUTSrvEvent@@@Z 0000000180066518     snap7:s7_text.obj
 0002:00013540       $cppxdata$?TxtArea@@YA?AV?$basic_string@DU?$char_traits@D@std@@V?$allocator@D@2@@std@@AEAUTSrvEvent@@@Z 0000000180066540     snap7:s7_text.obj
 0002:00013568       $cppxdata$?PDUText@@YA?AV?$basic_string@DU?$char_traits@D@std@@V?$allocator@D@2@@std@@AEAUTSrvEvent@@@Z 0000000180066568     snap7:s7_text.obj
 0002:00013590       $cppxdata$?TcpServerEventText@@YA?AV?$basic_string@DU?$char_traits@D@std@@V?$allocator@D@2@@std@@AEAUTSrvEvent@@@Z 0000000180066590     snap7:s7_text.obj
 0002:000135b8       $cppxdata$?SenderText@@YA?AV?$basic_string@DU?$char_traits@D@std@@V?$allocator@D@2@@std@@AEAUTSrvEvent@@@Z 00000001800665b8     snap7:s7_text.obj
 0002:000135e0       $cppxdata$?ParTextOf@@YA?AV?$basic_string@DU?$char_traits@D@std@@V?$allocator@D@2@@std@@H@Z 00000001800665e0     snap7:s7_text.obj
 0002:00013608       $cppxdata$?SrvTextOf@@YA?AV?$basic_string@DU?$char_traits@D@std@@V?$allocator@D@2@@std@@H@Z 0000000180066608     snap7:s7_text.obj
 0002:00013630       $cppxdata$?CliTextOf@@YA?AV?$basic_string@DU?$char_traits@D@std@@V?$allocator@D@2@@std@@H@Z 0000000180066630     snap7:s7_text.obj
 0002:00013658       $cppxdata$?IsoTextOf@@YA?AV?$basic_string@DU?$char_traits@D@std@@V?$allocator@D@2@@std@@H@Z 0000000180066658     snap7:s7_text.obj
 0002:00013680       $cppxdata$?TcpTextOf@@YA?AV?$basic_string@DU?$char_traits@D@std@@V?$allocator@D@2@@std@@H@Z 0000000180066680     snap7:s7_text.obj
 0002:000136a8       $cppxdata$?IpAddressToString@@YA?AV?$basic_string@DU?$char_traits@D@std@@V?$allocator@D@2@@std@@H@Z 00000001800666a8     snap7:s7_text.obj
 0002:000136d0       $cppxdata$?TimeToString@@YA?AV?$basic_string@DU?$char_traits@D@std@@V?$allocator@D@2@@std@@_J@Z 00000001800666d0     snap7:s7_text.obj
 0002:000136f8       $cppxdata$?NumToString@@YA?AV?$basic_string@DU?$char_traits@D@std@@V?$allocator@D@2@@std@@HHI@Z 00000001800666f8     snap7:s7_text.obj
 0002:00013720       $cppxdata$?ErrParText@@YA?AV?$basic_string@DU?$char_traits@D@std@@V?$allocator@D@2@@std@@H@Z 0000000180066720     snap7:s7_text.obj
 0002:00013748       $cppxdata$?EvtSrvText@@YA?AV?$basic_string@DU?$char_traits@D@std@@V?$allocator@D@2@@std@@AEAUTSrvEvent@@@Z 0000000180066748     snap7:s7_text.obj
 0002:00013770       $cppxdata$?ErrCliText@@YA?AV?$basic_string@DU?$char_traits@D@std@@V?$allocator@D@2@@std@@H@Z 0000000180066770     snap7:s7_text.obj
 0002:00013798       $cppxdata$?ErrSrvText@@YA?AV?$basic_string@DU?$char_traits@D@std@@V?$allocator@D@2@@std@@H@Z 0000000180066798     snap7:s7_text.obj
 0002:000137c0       $cppxdata$?DoWriteArea@TSnap7Server@@IEAA_NHHHHHHPEAX@Z 00000001800667c0     snap7:s7_server.obj
 0002:000137e8       $cppxdata$?DoReadArea@TSnap7Server@@IEAA_NHHHHHHPEAX@Z 00000001800667e8     snap7:s7_server.obj
 0002:00013810       $cppxdata$?DoReadEvent@TSnap7Server@@IEAAXHIGGGGG@Z 0000000180066810     snap7:s7_server.obj
 0002:00013838       $cppxdata$?CreateWorkerSocket@TSnap7Server@@MEAAPEAVTMsgSocket@@_K@Z 0000000180066838     snap7:s7_server.obj
 0002:00013860       $cppxdata$??0TSnap7Server@@QEAA@XZ 0000000180066860     snap7:s7_server.obj
 0002:00013888       $cppxdata$?CreateWorkerSocket@TCustomMsgServer@@MEAAPEAVTMsgSocket@@_K@Z 0000000180066888     snap7:snap_tcpsrvr.obj
 0002:000138b0       $cppxdata$?KillAll@TCustomMsgServer@@IEAAXXZ 00000001800668b0     snap7:snap_tcpsrvr.obj
 0002:000138d8       $cppxdata$?StartListener@TCustomMsgServer@@AEAAHXZ 00000001800668d8     snap7:snap_tcpsrvr.obj
 0002:00013900       $cppxdata$?Execute@TMsgWorkerThread@@UEAAXXZ 0000000180066900     snap7:snap_tcpsrvr.obj
 0002:00013928       $cppxdata$??1TCustomMsgServer@@UEAA@XZ 0000000180066928     snap7:snap_tcpsrvr.obj
 0002:00013950       $cppxdata$??0TCustomMsgServer@@QEAA@XZ 0000000180066950     snap7:snap_tcpsrvr.obj
 0002:00013978       $cppxdata$?DoEvent@TCustomMsgServer@@MEAAXHIGGGGG@Z 0000000180066978     snap7:snap_tcpsrvr.obj
 0002:000139a0       $cppxdata$?PickEvent@TCustomMsgServer@@QEAA_NPEAX@Z 00000001800669a0     snap7:snap_tcpsrvr.obj
 0002:000139c8       $cppxdata$?ForceClose@TMsgSocket@@QEAAXXZ 00000001800669c8     snap7:snap_msgsock.obj
 0002:000139f0       $cppxdata$?ThreadProc@@YAKPEAX@Z 00000001800669f0     snap7:snap_threads.obj
 0002:00014800       $unwind$__acrt_DownlevelLocaleNameToLCID 0000000180067800     libucrt:lcidtoname_downlevel.obj
 0002:00014800       $unwind$___mb_cur_max_func 0000000180067800     libucrt:initctype.obj
 0002:00014800       $unwind$___lc_locale_name_func 0000000180067800     libucrt:initctype.obj
 0002:00014800       $unwind$__acrt_release_locale_ref 0000000180067800     libucrt:locale_refcounting.obj
 0002:00014800       $unwind$___lc_codepage_func 0000000180067800     libucrt:initctype.obj
 0002:00014800       $unwind$__pctype_func      0000000180067800     libucrt:ctype.obj
 0002:00014800       $unwind$__dcrt_uninitialize_environments_nolock 0000000180067800     libucrt:environment_initialization.obj
 0002:00014800       $unwind$__scrt_dllmain_crt_thread_attach 0000000180067800     LIBCMT:utility.obj
 0002:00014800       $unwind$__scrt_dllmain_crt_thread_detach 0000000180067800     LIBCMT:utility.obj
 0002:00014800       $unwind$__vcrt_getptd      0000000180067800     libvcruntime:per_thread_data.obj
 0002:00014800       $unwind$__vcrt_uninitialize_ptd 0000000180067800     libvcruntime:per_thread_data.obj
 0002:00014800       $unwind$??__Einitlocks@std@@YAXXZ 0000000180067800     libcpmt:xlock.obj
 0002:00014800       $unwind$__vcrt_initialize_ptd 0000000180067800     libvcruntime:per_thread_data.obj
 0002:00014800       $unwind$??1_Lockit@std@@QEAA@XZ 0000000180067800     libcpmt:xlock.obj
 0002:00014800       $unwind$tolower            0000000180067800     libucrt:tolower_toupper.obj
 0002:00014800       $unwind$_strnicmp          0000000180067800     libucrt:strnicmp.obj
 0002:00014800       $unwind$?dllmain_crt_dispatch@@YAHQEAUHINSTANCE__@@KQEAX@Z 0000000180067800     LIBCMT:dll_dllmain.obj
 0002:00014800       $unwind$tidy_global        0000000180067800     libcpmt:locale0.obj
 0002:00014800       $unwind$__acrt_initialize_multibyte 0000000180067800     libucrt:mbctype.obj
 0002:00014800       $unwind$__vcrt_thread_detach 0000000180067800     libvcruntime:initialization.obj
 0002:00014800       $unwind$_wcsnicmp          0000000180067800     libucrt:wcsnicmp.obj
 0002:00014800       $unwind$__GSHandlerCheck   0000000180067800     LIBCMT:_gshandler_.obj
 0002:00014800       $unwind$_stricmp           0000000180067800     libucrt:stricmp.obj
 0002:00014800       $unwind$__acrt_can_use_vista_locale_apis 0000000180067800     libucrt:winapi_thunks.obj
 0002:00014800       $unwind$__report_rangecheckfailure 0000000180067800     LIBCMT:gs_report.obj
 0002:00014800       $unwind$__scrt_dllmain_uninitialize_c 0000000180067800     LIBCMT:utility.obj
 0002:00014800       $unwind$?allocate@?$allocator@D@std@@QEAAPEAD_K@Z 0000000180067800     node_snap7_client.obj
 0002:00014800       $unwind$??$_Immortalize@V_Iostream_error_category@std@@@std@@YAAEAV_Iostream_error_category@0@XZ 0000000180067800     node_snap7_client.obj
 0002:00014800       $unwind$?__scrt_uninitialize_thread_safe_statics@@YAXXZ 0000000180067800     LIBCMT:thread_safe_statics.obj
 0002:00014800       $unwind$__scrt_dllmain_after_initialize_c 0000000180067800     LIBCMT:utility.obj
 0002:00014800       $unwind$_isatty            0000000180067800     libucrt:isatty.obj
 0002:00014800       $unwind$?state_case_size@?$output_processor@_WV?$string_output_adapter@_W@__crt_stdio_output@@V?$standard_base@_WV?$string_output_adapter@_W@__crt_stdio_output@@@2@@__crt_stdio_output@@AEAA_NXZ 0000000180067800     libucrt:output.obj
 0002:00014800       $unwind$atexit             0000000180067800     LIBCMT:utility.obj
 0002:00014800       $unwind$Srv_Create         0000000180067800     snap7:snap7_libmain.obj
 0002:00014800       $unwind$__scrt_dllmain_before_initialize_c 0000000180067800     LIBCMT:utility.obj
 0002:00014800       $unwind$Cli_SetConnectionParams 0000000180067800     snap7:snap7_libmain.obj
 0002:00014800       $unwind$_fileno            0000000180067800     libucrt:fileno.obj
 0002:00014800       $unwind$??$uninitialize_environment_internal@D@@YAXAEAPEAPEAD@Z 0000000180067800     libucrt:environment_initialization.obj
 0002:00014800       $unwind$_get_dstbias       0000000180067800     libucrt:timeset.obj
 0002:00014800       $unwind$__scrt_acquire_startup_lock 0000000180067800     LIBCMT:utility.obj
 0002:00014800       $unwind$?_Locinfo_dtor@_Locinfo@std@@SAXPEAV12@@Z 0000000180067800     libcpmt:locale0.obj
 0002:00014800       $unwind$__doserrno         0000000180067800     libucrt:errno.obj
 0002:00014800       $unwind$_get_daylight      0000000180067800     libucrt:timeset.obj
 0002:00014800       $unwind$_getfpstatusword   0000000180067800     libucrt:_fenvutils.obj
 0002:00014800       $unwind$_getfpcontrolword  0000000180067800     libucrt:_fenvutils.obj
 0002:00014800       $unwind$??__F_Fac_tidy_reg@std@@YAXXZ 0000000180067800     libcpmt:locale0.obj
 0002:00014800       $unwind$__dcrt_terminate_console_output 0000000180067800     libucrt:initcon.obj
 0002:00014800       $unwind$__std_terminate    0000000180067800     libvcruntime:frame.obj
 0002:00014800       $unwind$_set_errno_from_matherr 0000000180067800     libucrt:fpexcept.obj
 0002:00014800       $unwind$?__GetCurrentState@@YAHPEA_KPEAU_xDISPATCHER_CONTEXT@@PEBU_s_FuncInfo@@@Z 0000000180067800     libvcruntime:ehstate.obj
 0002:00014800       $unwind$_errno             0000000180067800     libucrt:errno.obj
 0002:00014800       $unwind$__acrt_initialize_heap 0000000180067800     libucrt:heap_handle.obj
 0002:00014800       $unwind$?deallocate@?$allocator@D@std@@QEAAXPEAD_K@Z 0000000180067800     node_snap7_client.obj
 0002:00014800       $unwind$?UnlockArea@TSnap7Server@@QEAAHHG@Z 0000000180067800     snap7:s7_server.obj
 0002:00014800       $unwind$_get_osfhandle     0000000180067800     libucrt:osfinfo.obj
 0002:00014800       $unwind$_wcsicmp           0000000180067800     libucrt:wcsicmp.obj
 0002:00014800       $unwind$_msize             0000000180067800     libucrt:msize.obj
 0002:00014800       $unwind$__vcrt_freefls     0000000180067800     libvcruntime:per_thread_data.obj
 0002:00014800       $unwind$??__ESocketsLayerInitializer@@YAXXZ 0000000180067800     snap7:snap_msgsock.obj
 0002:00014800       $unwind$_GetImageBase      0000000180067800     libvcruntime:trnsctrl.obj
 0002:00014800       $unwind$??__FSocketsLayerInitializer@@YAXXZ 0000000180067800     snap7:snap_msgsock.obj
 0002:00014800       $unwind$_GetThrowImageBase 0000000180067800     libvcruntime:trnsctrl.obj
 0002:00014800       $unwind$__acrt_initialize_ptd 0000000180067800     libucrt:per_thread_data.obj
 0002:00014800       $unwind$__acrt_uninitialize_ptd 0000000180067800     libucrt:per_thread_data.obj
 0002:00014800       $unwind$?state_case_size@?$output_processor@DV?$string_output_adapter@D@__crt_stdio_output@@V?$format_validation_base@DV?$string_output_adapter@D@__crt_stdio_output@@@2@@__crt_stdio_output@@AEAA_NXZ 0000000180067800     libucrt:output.obj
 0002:00014800       $unwind$Srv_Stop           0000000180067800     snap7:snap7_libmain.obj
 0002:00014800       $unwind$_invoke_watson     0000000180067800     libucrt:invalid_parameter.obj
 0002:00014800       $unwind$?state_case_size@?$output_processor@_WV?$stream_output_adapter@_W@__crt_stdio_output@@V?$standard_base@_WV?$stream_output_adapter@_W@__crt_stdio_output@@@2@@__crt_stdio_output@@AEAA_NXZ 0000000180067800     libucrt:output.obj
 0002:00014800       $unwind$localeconv         0000000180067800     libucrt:localeconv.obj
 0002:00014800       $unwind$_statfp            0000000180067800     libucrt:fpctrl.obj
 0002:00014800       $unwind$_set_error_mode    0000000180067800     libucrt:set_error_mode.obj
 0002:00014800       $unwind$?LockArea@TSnap7Server@@QEAAHHG@Z 0000000180067800     snap7:s7_server.obj
 0002:00014800       $unwind$?state_case_normal_tchar@?$output_processor@DV?$string_output_adapter@D@__crt_stdio_output@@V?$format_validation_base@DV?$string_output_adapter@D@__crt_stdio_output@@@2@@__crt_stdio_output@@AEAA_ND@Z 0000000180067800     libucrt:output.obj
 0002:00014800       $unwind$__FrameUnwindFilter 0000000180067800     libvcruntime:frame.obj
 0002:00014800       $unwind$__vcrt_thread_attach 0000000180067800     libvcruntime:initialization.obj
 0002:00014800       $unwind$__vcrt_uninitialize_critical 0000000180067800     libvcruntime:initialization.obj
 0002:00014800       $unwind$__vcrt_uninitialize 0000000180067800     libvcruntime:initialization.obj
 0002:00014800       $unwind$??__Einitlocks@std@@YAXXZ 0000000180067800     libcpmt:iosptrs.obj
 0002:00014800       $unwind$?_Atexit@@YAXP6AXXZ@Z 0000000180067800     libcpmt:iosptrs.obj
 0002:00014800       $unwind$_get_timezone      0000000180067800     libucrt:timeset.obj
 0002:00014800       $unwind$?initialize_multibyte@@YAHXZ 0000000180067800     libucrt:multibyte_initializer.obj
 0002:00014800       $unwind$_copytlocinfo_nolock 0000000180067800     libucrt:wsetlocale.obj
 0002:00014800       $unwind$uninitialize_environment 0000000180067800     libucrt:initialization.obj
 0002:00014800       $unwind$initialize_c       0000000180067800     libucrt:initialization.obj
 0002:00014800       $unwind$?InitAll@node_snap7@@YAXV?$Local@VObject@v8@@@v8@@@Z 0000000180067800     node_snap7.obj
 0002:00014800       $unwind$??$uninitialize_environment_internal@_W@@YAXAEAPEAPEA_W@Z 0000000180067800     libucrt:environment_initialization.obj
 0002:00014800       $unwind$__acrt_thread_detach 0000000180067800     libucrt:initialization.obj
 0002:00014800       $unwind$__crtDownlevelLocaleNameToLCID 0000000180067800     libcpmt:winapinls.obj
 0002:00014800       $unwind$__scrt_initialize_default_local_stdio_options 0000000180067800     LIBCMT:default_local_stdio_options.obj
 0002:00014800       $unwind$__vcrt_initialize  0000000180067800     libvcruntime:initialization.obj
 0002:00014800       $unwind$__acrt_thread_attach 0000000180067800     libucrt:initialization.obj
 0002:00014800       $unwind$__acrt_uninitialize_critical 0000000180067800     libucrt:initialization.obj
 0002:00014800       $unwind$__scrt_dllmain_uninitialize_critical 0000000180067800     LIBCMT:utility.obj
 0002:00014800       $unwind$?StartAsyncJob@TSnap7Client@@AEAAXXZ 0000000180067800     snap7:s7_client.obj
 0002:00014800       $unwind$abort              0000000180067800     libucrt:abort.obj
 0002:00014800       $unwind$__acrt_initialize_command_line 0000000180067800     libucrt:argv_data.obj
 0002:00014808       $unwind$swprintf           0000000180067808     libucrt:assert.obj
 0002:00014808       $unwind$sprintf_s          0000000180067808     node_snap7_client.obj
 0002:00014818       $unwind$??0SocketsLayer@@QEAA@XZ 0000000180067818     snap7:snap_msgsock.obj
 0002:00014818       $unwind$??_G_Facet_base@std@@UEAAPEAXI@Z 0000000180067818     node_snap7_client.obj
 0002:00014818       $unwind$__std_type_info_destroy_list 0000000180067818     libvcruntime:std_type_info.obj
 0002:00014818       $unwind$??_Gruntime_error@std@@UEAAPEAXI@Z 0000000180067818     node_snap7_client.obj
 0002:00014818       $unwind$??_Gexception@stdext@@UEAAPEAXI@Z 0000000180067818     node_snap7_client.obj
 0002:00014818       $unwind$?Execute@TClientThread@@UEAAXXZ 0000000180067818     snap7:s7_client.obj
 0002:00014818       $unwind$?InitPacket@TRawSocketPinger@@AEAAXXZ 0000000180067818     snap7:snap_msgsock.obj
 0002:00014818       $unwind$_IsExceptionObjectToBeDestroyed 0000000180067818     libvcruntime:trnsctrl.obj
 0002:00014818       $unwind$__std_exception_destroy 0000000180067818     libvcruntime:std_exception.obj
 0002:00014818       $unwind$_CreateFrameInfo   0000000180067818     libvcruntime:trnsctrl.obj
 0002:00014818       $unwind$?_Ios_base_dtor@ios_base@std@@CAXPEAV12@@Z 0000000180067818     libcpmt:ios.obj
 0002:00014818       $unwind$?PlcStatus@TS7Client@@QEAAHXZ 0000000180067818     snap7.obj
 0002:00014818       $unwind$initialize_pointers 0000000180067818     libucrt:initialization.obj
 0002:00014818       $unwind$?CreateSocket@TMsgSocket@@IEAAXXZ 0000000180067818     snap7:snap_msgsock.obj
 0002:00014818       $unwind$uninitialize_allocated_memory 0000000180067818     libucrt:initialization.obj
 0002:00014818       $unwind$_clearfp           0000000180067818     libucrt:ieee.obj
 0002:00014818       $unwind$?do_widen@?$ctype@D@std@@MEBAPEBDPEBD0PEAD@Z 0000000180067818     node_snap7_client.obj
 0002:00014818       $unwind$?ConnectTo@TS7Client@@QEAAHPEBDHH@Z 0000000180067818     snap7.obj
 0002:00014818       $unwind$_SetThrowImageBase 0000000180067818     libvcruntime:trnsctrl.obj
 0002:00014818       $unwind$??2@YAPEAX_K@Z     0000000180067818     LIBCMT:new_scalar.obj
 0002:00014818       $unwind$_SetImageBase      0000000180067818     libvcruntime:trnsctrl.obj
 0002:00014818       $unwind$?load_exe_hook@@YAP6A_JXZIPEAUDelayLoadInfo@@@Z 0000000180067818     win_delay_load_hook.obj
 0002:00014818       $unwind$??0?$output_processor@_WV?$stream_output_adapter@_W@__crt_stdio_output@@V?$standard_base@_WV?$stream_output_adapter@_W@__crt_stdio_output@@@2@@__crt_stdio_output@@QEAA@AEBV?$stream_output_adapter@_W@1@_KQEB_WQEAU__crt_locale_pointers@@QEAD@Z 0000000180067818     libucrt:output.obj
 0002:00014818       $unwind$_Getctype          0000000180067818     libcpmt:_tolower.obj
 0002:00014818       $unwind$__acrt_uninitialize_stdio 0000000180067818     libucrt:_file.obj
 0002:00014818       $unwind$?do_narrow@?$ctype@D@std@@MEBAPEBDPEBD0DPEAD@Z 0000000180067818     node_snap7_client.obj
 0002:00014818       $unwind$_clrfp             0000000180067818     libucrt:fpctrl.obj
 0002:00014818       $unwind$?Stop@TSnap7Partner@@QEAAHXZ 0000000180067818     snap7:s7_partner.obj
 0002:00014818       $unwind$??_Gerror_category@std@@UEAAPEAXI@Z 0000000180067818     node_snap7_client.obj
 0002:00014818       $unwind$__acrt_uninitialize_locks 0000000180067818     libucrt:locks.obj
 0002:00014818       $unwind$?uflow@?$basic_streambuf@DU?$char_traits@D@std@@@std@@MEAAHXZ 0000000180067818     node_snap7_client.obj
 0002:00014818       $unwind$?AsDBGet@TSnap7Client@@QEAAHHPEAXAEAH@Z 0000000180067818     snap7:s7_client.obj
 0002:00014818       $unwind$_set_statfp        0000000180067818     libucrt:fpctrl.obj
 0002:00014818       $unwind$?AsCTRead@TSnap7Client@@QEAAHHHPEAX@Z 0000000180067818     snap7:s7_client.obj
 0002:00014818       $unwind$??_G_System_error@std@@UEAAPEAXI@Z 0000000180067818     node_snap7_client.obj
 0002:00014818       $unwind$?AsTMRead@TSnap7Client@@QEAAHHHPEAX@Z 0000000180067818     snap7:s7_client.obj
 0002:00014818       $unwind$?WaitAsBSendCompletion@TSnap7Partner@@QEAAHI@Z 0000000180067818     snap7:s7_partner.obj
 0002:00014818       $unwind$?AsABRead@TSnap7Client@@QEAAHHHPEAX@Z 0000000180067818     snap7:s7_client.obj
 0002:00014818       $unwind$??0bad_exception@std@@QEAA@AEBV01@@Z 0000000180067818     libvcruntime:frame.obj
 0002:00014818       $unwind$?AsEBRead@TSnap7Client@@QEAAHHHPEAX@Z 0000000180067818     snap7:s7_client.obj
 0002:00014818       $unwind$__acrt_stdio_free_buffer_nolock 0000000180067818     libucrt:_freebuf.obj
 0002:00014818       $unwind$?AsMBRead@TSnap7Client@@QEAAHHHPEAX@Z 0000000180067818     snap7:s7_client.obj
 0002:00014818       $unwind$__acrt_stdio_allocate_buffer_nolock 0000000180067818     libucrt:_getbuf.obj
 0002:00014818       $unwind$?AsDBRead@TSnap7Client@@QEAAHHHHPEAX@Z 0000000180067818     snap7:s7_client.obj
 0002:00014818       $unwind$?message@_Iostream_error_category@std@@UEBA?AV?$basic_string@DU?$char_traits@D@std@@V?$allocator@D@2@@2@H@Z 0000000180067818     node_snap7_client.obj
 0002:00014818       $unwind$?AsCopyRamToRom@TSnap7Client@@QEAAHH@Z 0000000180067818     snap7:s7_client.obj
 0002:00014818       $unwind$__acrt_initialize_locks 0000000180067818     libucrt:locks.obj
 0002:00014818       $unwind$??_G_Iostream_error_category@std@@UEAAPEAXI@Z 0000000180067818     node_snap7_client.obj
 0002:00014818       $unwind$__acrt_freeptd     0000000180067818     libucrt:per_thread_data.obj
 0002:00014818       $unwind$?AsFullUpload@TSnap7Client@@QEAAHHHPEAXAEAH@Z 0000000180067818     snap7:s7_client.obj
 0002:00014818       $unwind$??0?$basic_string@DU?$char_traits@D@std@@V?$allocator@D@2@@std@@QEAA@PEBD@Z 0000000180067818     node_snap7_client.obj
 0002:00014818       $unwind$?AsUpload@TSnap7Client@@QEAAHHHPEAXAEAH@Z 0000000180067818     snap7:s7_client.obj
 0002:00014818       $unwind$?Execute@TMsgListenerThread@@UEAAXXZ 0000000180067818     snap7:snap_tcpsrvr.obj
 0002:00014818       $unwind$?AsReadSZL@TSnap7Client@@QEAAHHHPEAUTS7SZL@@AEAH@Z 0000000180067818     snap7:s7_client.obj
 0002:00014818       $unwind$??1?$basic_string@DU?$char_traits@D@std@@V?$allocator@D@2@@std@@QEAA@XZ 0000000180067818     node_snap7_client.obj
 0002:00014818       $unwind$?__StateFromIp@@YAHPEBU_s_FuncInfo@@PEAU_xDISPATCHER_CONTEXT@@_J@Z 0000000180067818     libvcruntime:ehstate.obj
 0002:00014818       $unwind$_malloc_base       0000000180067818     libucrt:malloc_base.obj
 0002:00014818       $unwind$?type_case_integer@?$output_processor@_WV?$stream_output_adapter@_W@__crt_stdio_output@@V?$standard_base@_WV?$stream_output_adapter@_W@__crt_stdio_output@@@2@@__crt_stdio_output@@AEAA_NI_N@Z 0000000180067818     libucrt:output.obj
 0002:00014818       $unwind$?__GetUnwindTryBlock@@YAHPEA_KPEAU_xDISPATCHER_CONTEXT@@PEBU_s_FuncInfo@@@Z 0000000180067818     libvcruntime:ehstate.obj
 0002:00014818       $unwind$?_Facet_Register@std@@YAXPEAV_Facet_base@1@@Z 0000000180067818     libcpmt:locale0.obj
 0002:00014818       $unwind$?SckDisconnect@TMsgSocket@@QEAAXXZ 0000000180067818     snap7:snap_msgsock.obj
 0002:00014818       $unwind$?AsReadArea@TSnap7Client@@QEAAHHHHHHPEAX@Z 0000000180067818     snap7:s7_client.obj
 0002:00014818       $unwind$strcpy_s           0000000180067818     libucrt:strcpy_s.obj
 0002:00014818       $unwind$?WaitAsCompletion@TSnap7Client@@QEAAHK@Z 0000000180067818     snap7:s7_client.obj
 0002:00014818       $unwind$Par_Destroy        0000000180067818     snap7:snap7_libmain.obj
 0002:00014818       $unwind$_calloc_base       0000000180067818     libucrt:calloc_base.obj
 0002:00014818       $unwind$__acrt_allocate_buffer_for_argv 0000000180067818     libucrt:argv_parsing.obj
 0002:00014818       $unwind$??_Gfailure@ios_base@std@@UEAAPEAXI@Z 0000000180067818     node_snap7_client.obj
 0002:00014818       $unwind$??1TMsgSocket@@UEAA@XZ 0000000180067818     snap7:snap_msgsock.obj
 0002:00014818       $unwind$__acrt_fp_strflt_to_string 0000000180067818     libucrt:_fptostr.obj
 0002:00014818       $unwind$??0?$output_processor@_WV?$string_output_adapter@_W@__crt_stdio_output@@V?$standard_base@_WV?$string_output_adapter@_W@__crt_stdio_output@@@2@@__crt_stdio_output@@QEAA@AEBV?$string_output_adapter@_W@1@_KQEB_WQEAU__crt_locale_pointers@@QEAD@Z 0000000180067818     libucrt:output.obj
 0002:00014818       $unwind$__acrt_update_locale_info 0000000180067818     libucrt:locale_update.obj
 0002:00014818       $unwind$?_Tidy@?$basic_stringbuf@DU?$char_traits@D@std@@V?$allocator@D@2@@std@@IEAAXXZ 0000000180067818     node_snap7_client.obj
 0002:00014818       $unwind$__acrt_update_multibyte_info 0000000180067818     libucrt:locale_update.obj
 0002:00014818       $unwind$?exit_or_terminate_process@@YAXI@Z 0000000180067818     libucrt:exit.obj
 0002:00014818       $unwind$?Execute@TConnListenerThread@@UEAAXXZ 0000000180067818     snap7:s7_partner.obj
 0002:00014818       $unwind$Cli_Create         0000000180067818     snap7:snap7_libmain.obj
 0002:00014818       $unwind$??0?$basic_iostream@DU?$char_traits@D@std@@@std@@QEAA@PEAV?$basic_streambuf@DU?$char_traits@D@std@@@1@@Z 0000000180067818     node_snap7_client.obj
 0002:00014818       $unwind$??_G?$num_put@DV?$ostreambuf_iterator@DU?$char_traits@D@std@@@std@@@std@@MEAAPEAXI@Z 0000000180067818     node_snap7_client.obj
 0002:00014818       $unwind$??$message_box_wait_thread@_W@@YAKQEAX@Z 0000000180067818     libucrt:crtmbox.obj
 0002:00014818       $unwind$?do_truename@?$numpunct@D@std@@MEBA?AV?$basic_string@DU?$char_traits@D@std@@V?$allocator@D@2@@2@XZ 0000000180067818     node_snap7_client.obj
 0002:00014818       $unwind$?do_falsename@?$numpunct@D@std@@MEBA?AV?$basic_string@DU?$char_traits@D@std@@V?$allocator@D@2@@2@XZ 0000000180067818     node_snap7_client.obj
 0002:00014818       $unwind$??$common_xtox@KD@@YAHKQEAD_KI_N@Z 0000000180067818     libucrt:xtoa.obj
 0002:00014818       $unwind$__acrt_can_show_message_box 0000000180067818     libucrt:winapi_thunks.obj
 0002:00014818       $unwind$?do_grouping@?$numpunct@D@std@@MEBA?AV?$basic_string@DU?$char_traits@D@std@@V?$allocator@D@2@@2@XZ 0000000180067818     node_snap7_client.obj
 0002:00014818       $unwind$__acrt_uninitialize_winapi_thunks 0000000180067818     libucrt:winapi_thunks.obj
 0002:00014818       $unwind$__vcrt_initialize_locks 0000000180067818     libvcruntime:locks.obj
 0002:00014818       $unwind$?_Setgloballocale@locale@std@@CAXPEAX@Z 0000000180067818     libcpmt:locale0.obj
 0002:00014818       $unwind$Cli_GetProtection  0000000180067818     snap7:snap7_libmain.obj
 0002:00014818       $unwind$?AsyncExecuteComplete@Nan@@YAXPEAUuv_work_s@@@Z 0000000180067818     node_snap7_client.obj
 0002:00014818       $unwind$?AsyncQueueWorker@Nan@@YAXPEAVAsyncWorker@1@@Z 0000000180067818     node_snap7_client.obj
 0002:00014818       $unwind$?type_case_integer@?$output_processor@_WV?$string_output_adapter@_W@__crt_stdio_output@@V?$standard_base@_WV?$string_output_adapter@_W@__crt_stdio_output@@@2@@__crt_stdio_output@@AEAA_NI_N@Z 0000000180067818     libucrt:output.obj
 0002:00014818       $unwind$??1ObjectWrap@Nan@@UEAA@XZ 0000000180067818     node_snap7_client.obj
 0002:00014818       $unwind$?DloadReleaseSectionWriteAccess@@YAXXZ 0000000180067818     DelayImp:delayhlp.obj
 0002:00014818       $unwind$__vcrt_uninitialize_locks 0000000180067818     libvcruntime:locks.obj
 0002:00014818       $unwind$?Ref@ObjectWrap@Nan@@MEAAXXZ 0000000180067818     node_snap7_client.obj
 0002:00014818       $unwind$?Unref@ObjectWrap@Nan@@MEAAXXZ 0000000180067818     node_snap7_client.obj
 0002:00014818       $unwind$??0_Lockit@std@@QEAA@H@Z 0000000180067818     libcpmt:xlock.obj
 0002:00014818       $unwind$?Stop@TConnectionServer@@QEAAXXZ 0000000180067818     snap7:s7_partner.obj
 0002:00014818       $unwind$Cli_AsReadSZLList  0000000180067818     snap7:snap7_libmain.obj
 0002:00014818       $unwind$Cli_GetOrderCode   0000000180067818     snap7:snap7_libmain.obj
 0002:00014818       $unwind$wcscat_s           0000000180067818     libucrt:wcscat_s.obj
 0002:00014818       $unwind$Cli_AsDBFill       0000000180067818     snap7:snap7_libmain.obj
 0002:00014818       $unwind$wcscpy_s           0000000180067818     libucrt:wcscpy_s.obj
 0002:00014818       $unwind$?opGetOrderCode@TSnap7MicroClient@@AEAAHXZ 0000000180067818     snap7:s7_micro_client.obj
 0002:00014818       $unwind$?WeakCallback@ObjectWrap@Nan@@CAXAEBV?$WeakCallbackInfo@VObjectWrap@Nan@@@v8@@@Z 0000000180067818     node_snap7_client.obj
 0002:00014818       $unwind$_purecall          0000000180067818     libvcruntime:purevirt.obj
 0002:00014818       $unwind$??0exception@std@@QEAA@AEBV01@@Z 0000000180067818     libcpmt:xthrow.obj
 0002:00014818       $unwind$Cli_ListBlocks     0000000180067818     snap7:snap7_libmain.obj
 0002:00014818       $unwind$??0TMsgSocket@@QEAA@XZ 0000000180067818     snap7:snap_msgsock.obj
 0002:00014818       $unwind$Cli_Delete         0000000180067818     snap7:snap7_libmain.obj
 0002:00014818       $unwind$??0bad_alloc@std@@QEAA@AEBV01@@Z 0000000180067818     libcpmt:xthrow.obj
 0002:00014818       $unwind$__vcrt_freeptd     0000000180067818     libvcruntime:per_thread_data.obj
 0002:00014818       $unwind$__scrt_uninitialize_crt 0000000180067818     LIBCMT:utility.obj
 0002:00014818       $unwind$?SZL_ID131_IDX003@TS7Worker@@IEAAXXZ 0000000180067818     snap7:s7_server.obj
 0002:00014818       $unwind$__scrt_initialize_crt 0000000180067818     LIBCMT:utility.obj
 0002:00014818       $unwind$??0logic_error@std@@QEAA@AEBV01@@Z 0000000180067818     libcpmt:xthrow.obj
 0002:00014818       $unwind$??0?$output_processor@DV?$string_output_adapter@D@__crt_stdio_output@@V?$format_validation_base@DV?$string_output_adapter@D@__crt_stdio_output@@@2@@__crt_stdio_output@@QEAA@AEBV?$string_output_adapter@D@1@_KQEBDQEAU__crt_locale_pointers@@QEAD@Z 0000000180067818     libucrt:output.obj
 0002:00014818       $unwind$__scrt_release_startup_lock 0000000180067818     LIBCMT:utility.obj
 0002:00014818       $unwind$Cli_GetAgBlockInfo 0000000180067818     snap7:snap7_libmain.obj
 0002:00014818       $unwind$??0length_error@std@@QEAA@AEBV01@@Z 0000000180067818     libcpmt:xthrow.obj
 0002:00014818       $unwind$_onexit            0000000180067818     LIBCMT:utility.obj
 0002:00014818       $unwind$Srv_PickEvent      0000000180067818     snap7:snap7_libmain.obj
 0002:00014818       $unwind$__getgmtimebuf     0000000180067818     libucrt:gmtime.obj
 0002:00014818       $unwind$??0out_of_range@std@@QEAA@AEBV01@@Z 0000000180067818     libcpmt:xthrow.obj
 0002:00014818       $unwind$?state_case_normal@?$output_processor@DV?$string_output_adapter@D@__crt_stdio_output@@V?$format_validation_base@DV?$string_output_adapter@D@__crt_stdio_output@@@2@@__crt_stdio_output@@AEAA_NXZ 0000000180067818     libucrt:output.obj
 0002:00014818       $unwind$?SZLNotAvailable@TS7Worker@@IEAAXXZ 0000000180067818     snap7:s7_server.obj
 0002:00014818       $unwind$Cli_PlcStop        0000000180067818     snap7:snap7_libmain.obj
 0002:00014818       $unwind$Cli_SetPlcDateTime 0000000180067818     snap7:snap7_libmain.obj
 0002:00014818       $unwind$?initialize_pointers@@YAHXZ 0000000180067818     libcpmt:winapisupp.obj
 0002:00014818       $unwind$??_GUtf8String@Nan@@QEAAPEAXI@Z 0000000180067818     node_snap7_client.obj
 0002:00014818       $unwind$?type_case_integer@?$output_processor@DV?$string_output_adapter@D@__crt_stdio_output@@V?$format_validation_base@DV?$string_output_adapter@D@__crt_stdio_output@@@2@@__crt_stdio_output@@AEAA_NI_N@Z 0000000180067818     libucrt:output.obj
 0002:00014818       $unwind$??0TS7Worker@@QEAA@XZ 0000000180067818     snap7:s7_server.obj
 0002:00014818       $unwind$?ConnectionConfirm@TSnap7Partner@@AEAA_NXZ 0000000180067818     snap7:s7_partner.obj
 0002:00014818       $unwind$?Execute@TIsoTcpWorker@@UEAA_NXZ 0000000180067818     snap7:s7_server.obj
 0002:00014818       $unwind$Cli_GetPlcDateTime 0000000180067818     snap7:snap7_libmain.obj
 0002:00014818       $unwind$Cli_ReadMultiVars  0000000180067818     snap7:snap7_libmain.obj
 0002:00014818       $unwind$_Init_thread_notify 0000000180067818     LIBCMT:thread_safe_statics.obj
 0002:00014818       $unwind$_Init_thread_footer 0000000180067818     LIBCMT:thread_safe_statics.obj
 0002:00014818       $unwind$__raise_securityfailure 0000000180067818     LIBCMT:gs_report.obj
 0002:00014818       $unwind$Cli_ConnectTo      0000000180067818     snap7:snap7_libmain.obj
 0002:00014818       $unwind$Cli_GetPlcStatus   0000000180067818     snap7:snap7_libmain.obj
 0002:00014818       $unwind$?ReadArea@TSnap7MicroClient@@QEAAHHHHHHPEAX@Z 0000000180067818     snap7:s7_micro_client.obj
 0002:00014818       $unwind$??$common_timespec_get@U_timespec64@@@@YAHQEAU_timespec64@@H@Z 0000000180067818     libucrt:time.obj
 0002:00014818       $unwind$??0TSnap7Peer@@QEAA@XZ 0000000180067818     snap7:s7_peer.obj
 0002:00014818       $unwind$?WriteArea@TSnap7MicroClient@@QEAAHHHHHHPEAX@Z 0000000180067818     snap7:s7_micro_client.obj
 0002:00014818       $unwind$?ExecuteRecv@TIsoTcpWorker@@MEAA_NXZ 0000000180067818     snap7:s7_server.obj
 0002:00014818       $unwind$_Init_thread_header 0000000180067818     LIBCMT:thread_safe_statics.obj
 0002:00014818       $unwind$?DBRead@TSnap7MicroClient@@QEAAHHHHPEAX@Z 0000000180067818     snap7:s7_micro_client.obj
 0002:00014818       $unwind$Cli_GetCpInfo      0000000180067818     snap7:snap7_libmain.obj
 0002:00014818       $unwind$Cli_Destroy        0000000180067818     snap7:snap7_libmain.obj
 0002:00014818       $unwind$Srv_ClearEvents    0000000180067818     snap7:snap7_libmain.obj
 0002:00014818       $unwind$?DBWrite@TSnap7MicroClient@@QEAAHHHHPEAX@Z 0000000180067818     snap7:s7_micro_client.obj
 0002:00014818       $unwind$Cli_AsListBlocksOfType 0000000180067818     snap7:snap7_libmain.obj
 0002:00014818       $unwind$?MBRead@TSnap7MicroClient@@QEAAHHHPEAX@Z 0000000180067818     snap7:s7_micro_client.obj
 0002:00014818       $unwind$Cli_ReadSZLList    0000000180067818     snap7:snap7_libmain.obj
 0002:00014818       $unwind$?MBWrite@TSnap7MicroClient@@QEAAHHHPEAX@Z 0000000180067818     snap7:s7_micro_client.obj
 0002:00014818       $unwind$Cli_WriteMultiVars 0000000180067818     snap7:snap7_libmain.obj
 0002:00014818       $unwind$?EBRead@TSnap7MicroClient@@QEAAHHHPEAX@Z 0000000180067818     snap7:s7_micro_client.obj
 0002:00014818       $unwind$?EBWrite@TSnap7MicroClient@@QEAAHHHPEAX@Z 0000000180067818     snap7:s7_micro_client.obj
 0002:00014818       $unwind$_setfpstatusword   0000000180067818     libucrt:_fenvutils.obj
 0002:00014818       $unwind$?ABRead@TSnap7MicroClient@@QEAAHHHPEAX@Z 0000000180067818     snap7:s7_micro_client.obj
 0002:00014818       $unwind$Srv_Destroy        0000000180067818     snap7:snap7_libmain.obj
 0002:00014818       $unwind$?ABWrite@TSnap7MicroClient@@QEAAHHHPEAX@Z 0000000180067818     snap7:s7_micro_client.obj
 0002:00014818       $unwind$?TMRead@TSnap7MicroClient@@QEAAHHHPEAX@Z 0000000180067818     snap7:s7_micro_client.obj
 0002:00014818       $unwind$Cli_Disconnect     0000000180067818     snap7:snap7_libmain.obj
 0002:00014818       $unwind$?TMWrite@TSnap7MicroClient@@QEAAHHHPEAX@Z 0000000180067818     snap7:s7_micro_client.obj
 0002:00014818       $unwind$?CTRead@TSnap7MicroClient@@QEAAHHHPEAX@Z 0000000180067818     snap7:s7_micro_client.obj
 0002:00014818       $unwind$?CTWrite@TSnap7MicroClient@@QEAAHHHPEAX@Z 0000000180067818     snap7:s7_micro_client.obj
 0002:00014818       $unwind$?ListBlocksOfType@TSnap7MicroClient@@QEAAHHPEAY0CAAA@GAEAH@Z 0000000180067818     snap7:s7_micro_client.obj
 0002:00014818       $unwind$?Upload@TSnap7MicroClient@@QEAAHHHPEAXAEAH@Z 0000000180067818     snap7:s7_micro_client.obj
 0002:00014818       $unwind$fesetenv           0000000180067818     libucrt:fesetenv.obj
 0002:00014818       $unwind$?FullUpload@TSnap7MicroClient@@QEAAHHHPEAXAEAH@Z 0000000180067818     snap7:s7_micro_client.obj
 0002:00014818       $unwind$feholdexcept       0000000180067818     libucrt:feholdexcept.obj
 0002:00014818       $unwind$fegetenv           0000000180067818     libucrt:fegetenv.obj
 0002:00014818       $unwind$?DBGet@TSnap7MicroClient@@QEAAHHPEAXAEAH@Z 0000000180067818     snap7:s7_micro_client.obj
 0002:00014818       $unwind$Cli_DBFill         0000000180067818     snap7:snap7_libmain.obj
 0002:00014818       $unwind$?SetPlcSystemDateTime@TSnap7MicroClient@@QEAAHXZ 0000000180067818     snap7:s7_micro_client.obj
 0002:00014818       $unwind$Cli_PlcHotStart    0000000180067818     snap7:snap7_libmain.obj
 0002:00014818       $unwind$??$common_get_or_create_environment_nolock@D@@YAPEAPEADXZ 0000000180067818     libucrt:environment_initialization.obj
 0002:00014818       $unwind$?ReadSZL@TSnap7MicroClient@@QEAAHHHPEAUTS7SZL@@AEAH@Z 0000000180067818     snap7:s7_micro_client.obj
 0002:00014818       $unwind$_fflush_nolock     0000000180067818     libucrt:fflush.obj
 0002:00014818       $unwind$Cli_GetCpuInfo     0000000180067818     snap7:snap7_libmain.obj
 0002:00014818       $unwind$Cli_PlcColdStart   0000000180067818     snap7:snap7_libmain.obj
 0002:00014818       $unwind$?CopyRamToRom@TSnap7MicroClient@@QEAAHH@Z 0000000180067818     snap7:s7_micro_client.obj
 0002:00014818       $unwind$Par_BSend          0000000180067818     snap7:snap7_libmain.obj
 0002:00014818       $unwind$Cli_ClearSessionPassword 0000000180067818     snap7:snap7_libmain.obj
 0002:00014818       $unwind$??_Gtype_info@@UEAAPEAXI@Z 0000000180067818     LIBCMT:std_type_info_static.obj
 0002:00014818       $unwind$?Compress@TSnap7MicroClient@@QEAAHH@Z 0000000180067818     snap7:s7_micro_client.obj
 0002:00014818       $unwind$??0bad_array_new_length@std@@QEAA@AEBV01@@Z 0000000180067818     LIBCMT:throw_bad_alloc.obj
 0002:00014818       $unwind$?SetSessionPassword@TSnap7MicroClient@@QEAAHPEAD@Z 0000000180067818     snap7:s7_micro_client.obj
 0002:00014818       $unwind$Par_Create         0000000180067818     snap7:snap7_libmain.obj
 0002:00014818       $unwind$??0TSnap7MicroClient@@QEAA@XZ 0000000180067818     snap7:s7_micro_client.obj
 0002:00014820       $unwind$_wtol              0000000180067820     libucrt:atox.obj
 0002:00014820       $unwind$Par_CheckAsBRecvCompletion 0000000180067820     snap7:snap7_libmain.obj
 0002:00014820       $unwind$?_Doraise@runtime_error@std@@MEBAXXZ 0000000180067820     node_snap7_client.obj
 0002:00014820       $unwind$wctomb_s           0000000180067820     libucrt:wctomb.obj
 0002:00014820       $unwind$_invalid_parameter_noinfo 0000000180067820     libucrt:invalid_parameter.obj
 0002:00014820       $unwind$_invalid_parameter_noinfo_noreturn 0000000180067820     libucrt:invalid_parameter.obj
 0002:00014820       $unwind$?_Doraise@failure@ios_base@std@@MEBAXXZ 0000000180067820     node_snap7_client.obj
 0002:00014820       $unwind$_itow_s            0000000180067820     libucrt:xtoa.obj
 0002:00014820       $unwind$_log10_special     0000000180067820     libucrt:log_special.obj
 0002:00014820       $unwind$strftime           0000000180067820     libucrt:strftime.obj
 0002:00014820       $unwind$atol               0000000180067820     libucrt:atox.obj
 0002:00014820       $unwind$mbstowcs_s         0000000180067820     libucrt:mbstowcs.obj
 0002:00014828       $unwind$??0_Locinfo@std@@QEAA@PEBD@Z 0000000180067828     node_snap7_client.obj
 0002:00014828       $unwind$?x_ismbbtype_l@@YAHPEAU__crt_locale_pointers@@IHH@Z 0000000180067828     libucrt:ismbbyte.obj
 0002:00014828       $unwind$_stricmp_l         0000000180067828     libucrt:stricmp.obj
 0002:00014838       $unwind$??_G?$basic_iostream@DU?$char_traits@D@std@@@std@@UEAAPEAXI@Z 0000000180067838     node_snap7_client.obj
 0002:00014838       $unwind$??_G?$basic_stringstream@DU?$char_traits@D@std@@V?$allocator@D@2@@std@@UEAAPEAXI@Z 0000000180067838     node_snap7_client.obj
 0002:00014838       $unwind$??_G?$basic_ostream@DU?$char_traits@D@std@@@std@@UEAAPEAXI@Z 0000000180067838     node_snap7_client.obj
 0002:00014838       $unwind$?replace_current_thread_locale_nolock@@YAXQEAU__acrt_ptd@@QEAU__crt_locale_data@@@Z 0000000180067838     libucrt:per_thread_data.obj
 0002:00014838       $unwind$__acrt_getptd      0000000180067838     libucrt:per_thread_data.obj
 0002:00014838       $unwind$??0?$basic_stringstream@DU?$char_traits@D@std@@V?$allocator@D@2@@std@@QEAA@H@Z 0000000180067838     node_snap7_client.obj
 0002:00014838       $unwind$??1?$basic_stringstream@DU?$char_traits@D@std@@V?$allocator@D@2@@std@@UEAA@XZ 0000000180067838     node_snap7_client.obj
 0002:00014838       $unwind$?Connected@S7Client@node_snap7@@SAXAEBV?$FunctionCallbackInfo@VValue@v8@@@Nan@@@Z 0000000180067838     node_snap7_client.obj
 0002:00014838       $unwind$?<helper_func_cdecl>@<lambda_e2bb8337c48846e80c921ea5ddadc92d>@@CAHPEA_W@Z 0000000180067838     libucrt:winapi_thunks.obj
 0002:00014838       $unwind$__acrt_get_parent_window 0000000180067838     libucrt:winapi_thunks.obj
 0002:00014838       $unwind$__acrt_IsValidLocaleName 0000000180067838     libucrt:winapi_thunks.obj
 0002:00014838       $unwind$__acrt_GetSystemTimePreciseAsFileTime 0000000180067838     libucrt:winapi_thunks.obj
 0002:00014838       $unwind$?DloadAcquireSectionWriteAccess@@YAXXZ 0000000180067838     DelayImp:delayhlp.obj
 0002:00014838       $unwind$__acrt_FlsGetValue 0000000180067838     libucrt:winapi_thunks.obj
 0002:00014838       $unwind$?DloadGetSRWLockFunctionPointers@@YAEXZ 0000000180067838     DelayImp:delayhlp.obj
 0002:00014838       $unwind$__acrt_FlsFree     0000000180067838     libucrt:winapi_thunks.obj
 0002:00014838       $unwind$__acrt_FlsAlloc    0000000180067838     libucrt:winapi_thunks.obj
 0002:00014838       $unwind$GetLcidFromLanguage 0000000180067838     libucrt:getqloc_downlevel.obj
 0002:00014838       $unwind$GetLcidFromLangCountry 0000000180067838     libucrt:getqloc_downlevel.obj
 0002:00014838       $unwind$GetLocaleNameFromLanguage 0000000180067838     libucrt:get_qualified_locale.obj
 0002:00014838       $unwind$GetLocaleNameFromLangCountry 0000000180067838     libucrt:get_qualified_locale.obj
 0002:00014838       $unwind$__acrt_locale_initialize_time 0000000180067838     libucrt:inittime.obj
 0002:00014838       $unwind$??$common_xtox@K_W@@YAHKQEA_W_KI_N@Z 0000000180067838     libucrt:xtoa.obj
 0002:00014838       $unwind$??_G?$basic_istream@DU?$char_traits@D@std@@@std@@UEAAPEAXI@Z 0000000180067838     node_snap7_client.obj
 0002:00014838       $unwind$?erase@?$basic_string@DU?$char_traits@D@std@@V?$allocator@D@2@@std@@QEAAAEAV12@_K0@Z 0000000180067838     node_snap7_client.obj
 0002:00014838       $unwind$_Deletegloballocale 0000000180067838     libcpmt:locale0.obj
 0002:00014838       $unwind$?assign@?$basic_string@DU?$char_traits@D@std@@V?$allocator@D@2@@std@@QEAAAEAV12@$$QEAV12@@Z 0000000180067838     node_snap7_client.obj
 0002:00014838       $unwind$?internal_isupper_l@@YA_NHQEAU__crt_locale_pointers@@@Z 0000000180067838     libucrt:tolower_toupper.obj
 0002:00014838       $unwind$??1_Init_locks@std@@QEAA@XZ 0000000180067838     libcpmt:xlock.obj
 0002:00014838       $unwind$??0?$basic_streambuf@DU?$char_traits@D@std@@@std@@IEAA@XZ 0000000180067838     node_snap7_client.obj
 0002:00014838       $unwind$??_G?$numpunct@D@std@@MEAAPEAXI@Z 0000000180067838     node_snap7_client.obj
 0002:00014838       $unwind$??_Gexception@std@@UEAAPEAXI@Z 0000000180067838     libcpmt:xthrow.obj
 0002:00014838       $unwind$??_Gbad_alloc@std@@UEAAPEAXI@Z 0000000180067838     libcpmt:xthrow.obj
 0002:00014838       $unwind$??_Gbad_array_new_length@std@@UEAAPEAXI@Z 0000000180067838     LIBCMT:throw_bad_alloc.obj
 0002:00014838       $unwind$??_Glogic_error@std@@UEAAPEAXI@Z 0000000180067838     libcpmt:xthrow.obj
 0002:00014838       $unwind$??_Glocale@std@@QEAAPEAXI@Z 0000000180067838     node_snap7_client.obj
 0002:00014838       $unwind$??_G?$basic_ios@DU?$char_traits@D@std@@@std@@UEAAPEAXI@Z 0000000180067838     node_snap7_client.obj
 0002:00014838       $unwind$??_Glength_error@std@@UEAAPEAXI@Z 0000000180067838     libcpmt:xthrow.obj
 0002:00014838       $unwind$??_Gout_of_range@std@@UEAAPEAXI@Z 0000000180067838     libcpmt:xthrow.obj
 0002:00014838       $unwind$??0sentry@?$basic_ostream@DU?$char_traits@D@std@@@std@@QEAA@AEAV12@@Z 0000000180067838     node_snap7_client.obj
 0002:00014838       $unwind$_updatetlocinfoEx_nolock 0000000180067838     libucrt:locale_refcounting.obj
 0002:00014838       $unwind$__vcrt_FlsAlloc    0000000180067838     libvcruntime:winapi_downlevel.obj
 0002:00014838       $unwind$__vcrt_FlsFree     0000000180067838     libvcruntime:winapi_downlevel.obj
 0002:00014838       $unwind$__vcrt_FlsGetValue 0000000180067838     libvcruntime:winapi_downlevel.obj
 0002:00014838       $unwind$??_GTSnap7Peer@@UEAAPEAXI@Z 0000000180067838     snap7:s7_peer.obj
 0002:00014838       $unwind$?PerformOperation@TSnap7MicroClient@@IEAAHXZ 0000000180067838     snap7:s7_micro_client.obj
 0002:00014838       $unwind$?__SetUnwindTryBlock@@YAXPEA_KPEAU_xDISPATCHER_CONTEXT@@PEBU_s_FuncInfo@@H@Z 0000000180067838     libvcruntime:ehstate.obj
 0002:00014838       $unwind$??_GTMsgSocket@@UEAAPEAXI@Z 0000000180067838     snap7:snap_msgsock.obj
 0002:00014838       $unwind$_FindAndUnlinkFrame 0000000180067838     libvcruntime:trnsctrl.obj
 0002:00014838       $unwind$?ExFilterRethrow@@YAHPEAU_EXCEPTION_POINTERS@@PEAUEHExceptionRecord@@PEAH@Z 0000000180067838     libvcruntime:frame.obj
 0002:00014838       $unwind$??_GTMsgWorkerThread@@UEAAPEAXI@Z 0000000180067838     snap7:snap_tcpsrvr.obj
 0002:00014838       $unwind$??_GTMsgListenerThread@@UEAAPEAXI@Z 0000000180067838     snap7:snap_tcpsrvr.obj
 0002:00014838       $unwind$??_GTCustomMsgServer@@UEAAPEAXI@Z 0000000180067838     snap7:snap_tcpsrvr.obj
 0002:00014838       $unwind$_realloc_base      0000000180067838     libucrt:realloc_base.obj
 0002:00014838       $unwind$??_GTEcoTcpWorker@@UEAAPEAXI@Z 0000000180067838     snap7:snap_tcpsrvr.obj
 0002:00014838       $unwind$_close_nolock      0000000180067838     libucrt:close.obj
 0002:00014838       $unwind$??$common_initialize_environment_nolock@D@@YAHXZ 0000000180067838     libucrt:environment_initialization.obj
 0002:00014838       $unwind$??_GTIsoTcpSocket@@UEAAPEAXI@Z 0000000180067838     snap7:s7_isotcp.obj
 0002:00014838       $unwind$?isoDisconnect@TIsoTcpSocket@@QEAAH_N@Z 0000000180067838     snap7:s7_isotcp.obj
 0002:00014838       $unwind$__acrt_uninitialize_lowio 0000000180067838     libucrt:ioinit.obj
 0002:00014838       $unwind$??_GTS7Worker@@UEAAPEAXI@Z 0000000180067838     snap7:s7_server.obj
 0002:00014838       $unwind$?SetConnectionType@S7Client@node_snap7@@SAXAEBV?$FunctionCallbackInfo@VValue@v8@@@Nan@@@Z 0000000180067838     node_snap7_client.obj
 0002:00014838       $unwind$??_GS7Client@node_snap7@@EEAAPEAXI@Z 0000000180067838     node_snap7_client.obj
 0002:00014838       $unwind$??_GIOWorker@node_snap7@@UEAAPEAXI@Z 0000000180067838     node_snap7_client.obj
 0002:00014838       $unwind$?SZLData@TS7Worker@@IEAAXPEAXH@Z 0000000180067838     snap7:s7_server.obj
 0002:00014838       $unwind$??_GObjectWrap@Nan@@UEAAPEAXI@Z 0000000180067838     node_snap7_client.obj
 0002:00014838       $unwind$??_GAsyncWorker@Nan@@UEAAPEAXI@Z 0000000180067838     node_snap7_client.obj
 0002:00014838       $unwind$?opDelete@TSnap7MicroClient@@AEAAHXZ 0000000180067838     snap7:s7_micro_client.obj
 0002:00014838       $unwind$wcsncpy_s          0000000180067838     libucrt:wcsncpy_s.obj
 0002:00014838       $unwind$__acrt_errno_map_os_error 0000000180067838     libucrt:errno.obj
 0002:00014838       $unwind$wcsncat_s          0000000180067838     libucrt:wcsncat_s.obj
 0002:00014838       $unwind$??_Gios_base@std@@UEAAPEAXI@Z 0000000180067838     node_snap7_client.obj
 0002:00014838       $unwind$??_Gbad_exception@std@@UEAAPEAXI@Z 0000000180067838     libvcruntime:frame.obj
 0002:00014838       $unwind$??_GTSnap7MicroClient@@UEAAPEAXI@Z 0000000180067838     snap7:s7_micro_client.obj
 0002:00014838       $unwind$?opSetDateTime@TSnap7MicroClient@@AEAAHXZ 0000000180067838     snap7:s7_micro_client.obj
 0002:00014838       $unwind$_callnewh          0000000180067838     libucrt:new_handler.obj
 0002:00014838       $unwind$?opGetCpuInfo@TSnap7MicroClient@@AEAAHXZ 0000000180067838     snap7:s7_micro_client.obj
 0002:00014838       $unwind$?opGetCpInfo@TSnap7MicroClient@@AEAAHXZ 0000000180067838     snap7:s7_micro_client.obj
 0002:00014838       $unwind$??_G?$ctype@D@std@@MEAAPEAXI@Z 0000000180067838     node_snap7_client.obj
 0002:00014838       $unwind$?opGetPlcStatus@TSnap7MicroClient@@AEAAHXZ 0000000180067838     snap7:s7_micro_client.obj
 0002:00014838       $unwind$??1_Locinfo@std@@QEAA@XZ 0000000180067838     node_snap7_client.obj
 0002:00014838       $unwind$?_Locinfo_ctor@_Locinfo@std@@SAXPEAV12@PEBD@Z 0000000180067838     libcpmt:locale0.obj
 0002:00014838       $unwind$?_Assign_rv@?$basic_string@DU?$char_traits@D@std@@V?$allocator@D@2@@std@@QEAAX$$QEAV12@@Z 0000000180067838     node_snap7_client.obj
 0002:00014838       $unwind$?_New_Locimp@_Locimp@locale@std@@CAPEAV123@_N@Z 0000000180067838     libcpmt:locale0.obj
 0002:00014838       $unwind$?try_cor_exit_process@@YAXI@Z 0000000180067838     libucrt:exit.obj
 0002:00014838       $unwind$__acrt_invoke_user_matherr 0000000180067838     libucrt:matherr.obj
 0002:00014838       $unwind$_fclose_nolock     0000000180067838     libucrt:fclose.obj
 0002:00014838       $unwind$strncpy_s          0000000180067838     libucrt:strncpy_s.obj
 0002:00014838       $unwind$?type_case_c_tchar@?$output_processor@DV?$string_output_adapter@D@__crt_stdio_output@@V?$format_validation_base@DV?$string_output_adapter@D@__crt_stdio_output@@@2@@__crt_stdio_output@@AEAA_ND@Z 0000000180067838     libucrt:output.obj
 0002:00014838       $unwind$??1TSnap7Partner@@UEAA@XZ 0000000180067838     snap7:s7_partner.obj
 0002:00014838       $unwind$?opGetProtection@TSnap7MicroClient@@AEAAHXZ 0000000180067838     snap7:s7_micro_client.obj
 0002:00014838       $unwind$??_GTSnap7Partner@@UEAAPEAXI@Z 0000000180067838     snap7:s7_partner.obj
 0002:00014838       $unwind$?opClearPassword@TSnap7MicroClient@@AEAAHXZ 0000000180067838     snap7:s7_micro_client.obj
 0002:00014838       $unwind$??_GTSnapThread@@UEAAPEAXI@Z 0000000180067838     snap7:snap_threads.obj
 0002:00014838       $unwind$??_GTPartnerThread@@UEAAPEAXI@Z 0000000180067838     snap7:s7_partner.obj
 0002:00014838       $unwind$??_GTConnListenerThread@@UEAAPEAXI@Z 0000000180067838     snap7:s7_partner.obj
 0002:00014838       $unwind$?force_decimal_point@__crt_stdio_output@@YAXPEADQEAU__crt_locale_pointers@@@Z 0000000180067838     libucrt:output.obj
 0002:00014838       $unwind$??0_LocaleUpdate@@QEAA@QEAU__crt_locale_pointers@@@Z 0000000180067838     libucrt:output.obj
 0002:00014838       $unwind$??1TSnap7Client@@UEAA@XZ 0000000180067838     snap7:s7_client.obj
 0002:00014838       $unwind$??_GTSnap7Client@@UEAAPEAXI@Z 0000000180067838     snap7:s7_client.obj
 0002:00014838       $unwind$??_GTClientThread@@UEAAPEAXI@Z 0000000180067838     snap7:s7_client.obj
 0002:00014838       $unwind$__acrt_stdio_begin_temporary_buffering_nolock 0000000180067838     libucrt:_sftbuf.obj
 0002:00014844       $unwind$?_Getcat@?$ctype@D@std@@SA_KPEAPEBVfacet@locale@2@PEBV42@@Z 0000000180067844     node_snap7_client.obj
 0002:00014854       $chain$0$?_Getcat@?$ctype@D@std@@SA_KPEAPEBVfacet@locale@2@PEBV42@@Z 0000000180067854     node_snap7_client.obj
 0002:00014868       $chain$1$?_Getcat@?$ctype@D@std@@SA_KPEAPEBVfacet@locale@2@PEBV42@@Z 0000000180067868     node_snap7_client.obj
 0002:00014878       $unwind$?type_case_c_tchar@?$output_processor@_WV?$string_output_adapter@_W@__crt_stdio_output@@V?$standard_base@_WV?$string_output_adapter@_W@__crt_stdio_output@@@2@@__crt_stdio_output@@AEAA_N_W@Z 0000000180067878     libucrt:output.obj
 0002:00014878       $unwind$?do_toupper@?$ctype@D@std@@MEBAPEBDPEADPEBD@Z 0000000180067878     node_snap7_client.obj
 0002:00014878       $unwind$?do_tolower@?$ctype@D@std@@MEBAPEBDPEADPEBD@Z 0000000180067878     node_snap7_client.obj
 0002:00014878       $unwind$?opCompress@TSnap7MicroClient@@AEAAHXZ 0000000180067878     snap7:s7_micro_client.obj
 0002:00014878       $unwind$?type_case_c_tchar@?$output_processor@_WV?$stream_output_adapter@_W@__crt_stdio_output@@V?$standard_base@_WV?$stream_output_adapter@_W@__crt_stdio_output@@@2@@__crt_stdio_output@@AEAA_N_W@Z 0000000180067878     libucrt:output.obj
 0002:00014878       $unwind$??R<lambda_b721fa326cdb32351d23dfa67958c160>@@QEBAHXZ 0000000180067878     libucrt:setvbuf.obj
 0002:00014878       $unwind$ProcessCodePage    0000000180067878     libucrt:get_qualified_locale.obj
 0002:00014878       $unwind$ProcessCodePage    0000000180067878     libucrt:getqloc_downlevel.obj
 0002:00014878       $unwind$?opCopyRamToRom@TSnap7MicroClient@@AEAAHXZ 0000000180067878     snap7:s7_micro_client.obj
 0002:00014878       $unwind$TestDefaultLanguage 0000000180067878     libucrt:getqloc_downlevel.obj
 0002:00014878       $unwind$?RawPing@TPinger@@AEAA_NIH@Z 0000000180067878     snap7:snap_msgsock.obj
 0002:00014888       $chain$0$?do_tolower@?$ctype@D@std@@MEBAPEBDPEADPEBD@Z 0000000180067888     node_snap7_client.obj
 0002:0001489c       $chain$1$?do_tolower@?$ctype@D@std@@MEBAPEBDPEADPEBD@Z 000000018006789c     node_snap7_client.obj
 0002:000148ac       $chain$0$?do_toupper@?$ctype@D@std@@MEBAPEBDPEADPEBD@Z 00000001800678ac     node_snap7_client.obj
 0002:000148c0       $chain$1$?do_toupper@?$ctype@D@std@@MEBAPEBDPEADPEBD@Z 00000001800678c0     node_snap7_client.obj
 0002:000148d0       $unwind$?_Makestr@_System_error@std@@CA?AV?$basic_string@DU?$char_traits@D@std@@V?$allocator@D@2@@2@Verror_code@2@V32@@Z 00000001800678d0     node_snap7_client.obj
 0002:000148e4       $unwind$?clear@ios_base@std@@QEAAXH_N@Z 00000001800678e4     node_snap7_client.obj
 0002:000148f8       $chain$1$?clear@ios_base@std@@QEAAXH_N@Z 00000001800678f8     node_snap7_client.obj
 0002:00014910       $chain$2$?clear@ios_base@std@@QEAAXH_N@Z 0000000180067910     node_snap7_client.obj
 0002:00014920       $chain$3$?clear@ios_base@std@@QEAAXH_N@Z 0000000180067920     node_snap7_client.obj
 0002:00014938       $unwind$?FunctionCallbackWrapper@imp@Nan@@YAXAEBV?$FunctionCallbackInfo@VValue@v8@@@v8@@@Z 0000000180067938     node_snap7_client.obj
 0002:00014948       $unwind$?New@?$Factory@VFunctionTemplate@v8@@@imp@Nan@@SA?AV?$Local@VFunctionTemplate@v8@@@v8@@P6AXAEBV?$FunctionCallbackInfo@VValue@v8@@@3@@ZV?$Local@VValue@v8@@@5@V?$Local@VSignature@v8@@@5@@Z 0000000180067948     node_snap7_client.obj
 0002:00014954       $chain$0$?New@?$Factory@VFunctionTemplate@v8@@@imp@Nan@@SA?AV?$Local@VFunctionTemplate@v8@@@v8@@P6AXAEBV?$FunctionCallbackInfo@VValue@v8@@@3@@ZV?$Local@VValue@v8@@@5@V?$Local@VSignature@v8@@@5@@Z 0000000180067954     node_snap7_client.obj
 0002:00014968       $chain$1$?New@?$Factory@VFunctionTemplate@v8@@@imp@Nan@@SA?AV?$Local@VFunctionTemplate@v8@@@v8@@P6AXAEBV?$FunctionCallbackInfo@VValue@v8@@@3@@ZV?$Local@VValue@v8@@@5@V?$Local@VSignature@v8@@@5@@Z 0000000180067968     node_snap7_client.obj
 0002:00014978       $unwind$?ThrowTypeError@Nan@@YAXPEBD@Z 0000000180067978     node_snap7_client.obj
 0002:00014980       $unwind$??1TServersManager@@QEAA@XZ 0000000180067980     snap7:s7_partner.obj
 0002:00014980       $unwind$strtol             0000000180067980     libucrt:strtox.obj
 0002:00014980       $unwind$?IntToString@@YA?AV?$basic_string@DU?$char_traits@D@std@@V?$allocator@D@2@@std@@H@Z 0000000180067980     snap7:s7_text.obj
 0002:00014980       $unwind$??0Utf8String@Nan@@QEAA@V?$Local@VValue@v8@@@v8@@@Z 0000000180067980     node_snap7_client.obj
 0002:00014980       $unwind$??$common_xtox_s@K_W@@YAHKQEA_W_KI_N@Z 0000000180067980     libucrt:xtoa.obj
 0002:00014980       $unwind$_time64            0000000180067980     libucrt:time.obj
 0002:00014980       $unwind$??0out_of_range@std@@QEAA@PEBD@Z 0000000180067980     libcpmt:xthrow.obj
 0002:00014980       $unwind$?SetSocketOptions@TMsgSocket@@AEAAXXZ 0000000180067980     snap7:snap_msgsock.obj
 0002:00014980       $unwind$wcstol             0000000180067980     libucrt:strtox.obj
 0002:00014980       $unwind$?flush@?$basic_ostream@DU?$char_traits@D@std@@@std@@QEAAAEAV12@XZ 0000000180067980     node_snap7_client.obj
 0002:00014980       $unwind$_itoa              0000000180067980     libucrt:xtoa.obj
 0002:00014980       $unwind$__stdio_common_vsprintf_s 0000000180067980     libucrt:output.obj
 0002:00014980       $unwind$??0length_error@std@@QEAA@PEBD@Z 0000000180067980     libcpmt:xthrow.obj
 0002:00014988       $chain$0$??0Utf8String@Nan@@QEAA@V?$Local@VValue@v8@@@v8@@@Z 0000000180067988     node_snap7_client.obj
 0002:0001499c       $chain$1$??0Utf8String@Nan@@QEAA@V?$Local@VValue@v8@@@v8@@@Z 000000018006799c     node_snap7_client.obj
 0002:000149ac       $unwind$??0Callback@Nan@@QEAA@AEBV?$Local@VFunction@v8@@@v8@@@Z 00000001800679ac     node_snap7_client.obj
 0002:000149ac       $unwind$__CxxFrameHandler3 00000001800679ac     libvcruntime:trnsctrl.obj
 0002:000149bc       $unwind$?SetFunction@Callback@Nan@@QEAAXAEBV?$Local@VFunction@v8@@@v8@@@Z 00000001800679bc     node_snap7_client.obj
 0002:000149c8       $unwind$??0AsyncWorker@Nan@@QEAA@PEAVCallback@1@@Z 00000001800679c8     node_snap7_client.obj
 0002:000149d4       $unwind$?WorkComplete@AsyncWorker@Nan@@UEAAXXZ 00000001800679d4     node_snap7_client.obj
 0002:000149d4       $unwind$?Stop@TCustomMsgServer@@QEAAXXZ 00000001800679d4     snap7:snap_tcpsrvr.obj
 0002:000149d4       $unwind$_mbsdec_l          00000001800679d4     libucrt:mbsdec.obj
 0002:000149d4       $unwind$?BLK_ListAll@TS7Worker@@IEAAXAEAUTCB@@@Z 00000001800679d4     snap7:s7_server.obj
 0002:000149d4       $unwind$??1AsyncWorker@Nan@@UEAA@XZ 00000001800679d4     node_snap7_client.obj
 0002:000149e0       $unwind$?HandleOKCallback@AsyncWorker@Nan@@MEAAXXZ 00000001800679e0     node_snap7_client.obj
 0002:000149ec       $unwind$?HandleErrorCallback@AsyncWorker@Nan@@MEAAXXZ 00000001800679ec     node_snap7_client.obj
 0002:000149f8       $unwind$?SetPrototypeMethod@Nan@@YAXV?$Local@VFunctionTemplate@v8@@@v8@@PEBDP6AXAEBV?$FunctionCallbackInfo@VValue@v8@@@1@@Z@Z 00000001800679f8     node_snap7_client.obj
 0002:00014a08       $unwind$?Wrap@ObjectWrap@Nan@@IEAAXV?$Local@VObject@v8@@@v8@@@Z 0000000180067a08     node_snap7_client.obj
 0002:00014a08       $unwind$??$free_environment@_W@@YAXQEAPEA_W@Z 0000000180067a08     libucrt:environment_initialization.obj
 0002:00014a08       $unwind$??$free_environment@D@@YAXQEAPEAD@Z 0000000180067a08     libucrt:environment_initialization.obj
 0002:00014a14       $unwind$__acrt_getptd_noexit 0000000180067a14     libucrt:per_thread_data.obj
 0002:00014a14       $unwind$?Connect@TSnap7MicroClient@@QEAAHXZ 0000000180067a14     snap7:s7_micro_client.obj
 0002:00014a14       $unwind$?type_case_n@?$output_processor@DV?$string_output_adapter@D@__crt_stdio_output@@V?$format_validation_base@DV?$string_output_adapter@D@__crt_stdio_output@@@2@@__crt_stdio_output@@AEAA_NXZ 0000000180067a14     libucrt:output.obj
 0002:00014a14       $unwind$?type_case_s@?$output_processor@_WV?$stream_output_adapter@_W@__crt_stdio_output@@V?$standard_base@_WV?$stream_output_adapter@_W@__crt_stdio_output@@@2@@__crt_stdio_output@@AEAA_NXZ 0000000180067a14     libucrt:output.obj
 0002:00014a14       $unwind$??_GTSnap7Server@@UEAAPEAXI@Z 0000000180067a14     snap7:s7_server.obj
 0002:00014a14       $unwind$?type_case_n@?$output_processor@_WV?$stream_output_adapter@_W@__crt_stdio_output@@V?$standard_base@_WV?$stream_output_adapter@_W@__crt_stdio_output@@@2@@__crt_stdio_output@@AEAA_NXZ 0000000180067a14     libucrt:output.obj
 0002:00014a14       $unwind$?type_case_s@?$output_processor@DV?$string_output_adapter@D@__crt_stdio_output@@V?$format_validation_base@DV?$string_output_adapter@D@__crt_stdio_output@@@2@@__crt_stdio_output@@AEAA_NXZ 0000000180067a14     libucrt:output.obj
 0002:00014a14       $unwind$__vcrt_getptd_noexit 0000000180067a14     libvcruntime:per_thread_data.obj
 0002:00014a14       $unwind$??$common_getenv_nolock@D@@YAPEADQEBD@Z 0000000180067a14     libucrt:getenv.obj
 0002:00014a14       $unwind$?SendPacket@TMsgSocket@@QEAAHPEAXH@Z 0000000180067a14     snap7:snap_msgsock.obj
 0002:00014a14       $unwind$?type_case_Z@?$output_processor@_WV?$stream_output_adapter@_W@__crt_stdio_output@@V?$standard_base@_WV?$stream_output_adapter@_W@__crt_stdio_output@@@2@@__crt_stdio_output@@AEAA_NXZ 0000000180067a14     libucrt:output.obj
 0002:00014a14       $unwind$??_G?$basic_stringbuf@DU?$char_traits@D@std@@V?$allocator@D@2@@std@@UEAAPEAXI@Z 0000000180067a14     node_snap7_client.obj
 0002:00014a14       $unwind$_DllMainCRTStartup 0000000180067a14     LIBCMT:dll_dllmain.obj
 0002:00014a14       $unwind$?assign@?$basic_string@DU?$char_traits@D@std@@V?$allocator@D@2@@std@@QEAAAEAV12@PEBD_K@Z 0000000180067a14     node_snap7_client.obj
 0002:00014a14       $unwind$?AsBSend@TSnap7Partner@@QEAAHIPEAXH@Z 0000000180067a14     snap7:s7_partner.obj
 0002:00014a14       $unwind$?type_case_Z@?$output_processor@DV?$string_output_adapter@D@__crt_stdio_output@@V?$format_validation_base@DV?$string_output_adapter@D@__crt_stdio_output@@@2@@__crt_stdio_output@@AEAA_NXZ 0000000180067a14     libucrt:output.obj
 0002:00014a14       $unwind$?free_crt_array_internal@@YAXQEAPEBX_K@Z 0000000180067a14     libucrt:inittime.obj
 0002:00014a14       $unwind$_initterm_e        0000000180067a14     libucrt:initterm.obj
 0002:00014a14       $unwind$?assign@?$basic_string@DU?$char_traits@D@std@@V?$allocator@D@2@@std@@QEAAAEAV12@_KD@Z 0000000180067a14     node_snap7_client.obj
 0002:00014a14       $unwind$?compute_year@@YAHAEA_JAEA_N@Z 0000000180067a14     libucrt:gmtime.obj
 0002:00014a14       $unwind$?RecvPacket@TMsgSocket@@QEAAHPEAXH@Z 0000000180067a14     snap7:snap_msgsock.obj
 0002:00014a14       $unwind$?RemovePartner@TServersManager@@QEAAXPEAVTConnectionServer@@PEAVTSnap7Partner@@@Z 0000000180067a14     snap7:s7_partner.obj
 0002:00014a14       $unwind$??R<lambda_ad1ced32f4ac17aa236e5ef05d6b3b7c>@@QEBAXXZ 0000000180067a14     libucrt:mbctype.obj
 0002:00014a14       $unwind$?_Tidy@?$basic_string@DU?$char_traits@D@std@@V?$allocator@D@2@@std@@QEAAX_N_K@Z 0000000180067a14     node_snap7_client.obj
 0002:00014a14       $unwind$memcpy_s           0000000180067a14     libucrt:cfout.obj
 0002:00014a14       $unwind$??$common_lseek_nolock@_J@@YA_JH_JH@Z 0000000180067a14     libucrt:lseek.obj
 0002:00014a14       $unwind$?AsDownload@TSnap7Client@@QEAAHHPEAXH@Z 0000000180067a14     snap7:s7_client.obj
 0002:00014a14       $unwind$?Disconnect@S7Client@node_snap7@@SAXAEBV?$FunctionCallbackInfo@VValue@v8@@@Nan@@@Z 0000000180067a14     node_snap7_client.obj
 0002:00014a14       $unwind$?opReadSZLList@TSnap7MicroClient@@AEAAHXZ 0000000180067a14     snap7:s7_micro_client.obj
 0002:00014a14       $unwind$__vcrt_FlsSetValue 0000000180067a14     libvcruntime:winapi_downlevel.obj
 0002:00014a14       $unwind$?type_case_s@?$output_processor@_WV?$string_output_adapter@_W@__crt_stdio_output@@V?$standard_base@_WV?$string_output_adapter@_W@__crt_stdio_output@@@2@@__crt_stdio_output@@AEAA_NXZ 0000000180067a14     libucrt:output.obj
 0002:00014a14       $unwind$_localtime64       0000000180067a14     libucrt:localtime.obj
 0002:00014a14       $unwind$_RTC_Initialize    0000000180067a14     LIBCMT:_initsect_.obj
 0002:00014a14       $unwind$__acrt_GetUserDefaultLocaleName 0000000180067a14     libucrt:winapi_thunks.obj
 0002:00014a14       $unwind$?SckConnect@TMsgSocket@@QEAAHXZ 0000000180067a14     snap7:snap_msgsock.obj
 0002:00014a14       $unwind$?type_case_n@?$output_processor@_WV?$string_output_adapter@_W@__crt_stdio_output@@V?$standard_base@_WV?$string_output_adapter@_W@__crt_stdio_output@@@2@@__crt_stdio_output@@AEAA_NXZ 0000000180067a14     libucrt:output.obj
 0002:00014a14       $unwind$?compute_iso_week_internal@@YAHHHH@Z 0000000180067a14     libucrt:wcsftime.obj
 0002:00014a14       $unwind$_RTC_Terminate     0000000180067a14     LIBCMT:_initsect_.obj
 0002:00014a14       $unwind$?NegotiatePDULength@TSnap7Peer@@IEAAHXZ 0000000180067a14     snap7:s7_peer.obj
 0002:00014a14       $unwind$??0IOWorker@node_snap7@@QEAA@PEAVCallback@Nan@@PEAVS7Client@1@W4DataIOFunction@1@PEAXHH@Z 0000000180067a14     node_snap7_client.obj
 0002:00014a14       $unwind$__acrt_stdio_flush_and_write_narrow_nolock 0000000180067a14     libucrt:_flsbuf.obj
 0002:00014a14       $unwind$?opListBlocks@TSnap7MicroClient@@AEAAHXZ 0000000180067a14     snap7:s7_micro_client.obj
 0002:00014a14       $unwind$??0IOWorker@node_snap7@@QEAA@PEAVCallback@Nan@@PEAVS7Client@1@W4DataIOFunction@1@PEAXHHH@Z 0000000180067a14     node_snap7_client.obj
 0002:00014a14       $unwind$?Download@TSnap7MicroClient@@QEAAHHPEAXH@Z 0000000180067a14     snap7:s7_micro_client.obj
 0002:00014a14       $unwind$Cli_IsoExchangeBuffer 0000000180067a14     snap7:snap7_libmain.obj
 0002:00014a14       $unwind$??0IOWorker@node_snap7@@QEAA@PEAVCallback@Nan@@PEAVS7Client@1@W4DataIOFunction@1@PEAXHHHHH@Z 0000000180067a14     node_snap7_client.obj
 0002:00014a14       $unwind$memcpy_s           0000000180067a14     libucrt:strtod.obj
 0002:00014a14       $unwind$__acrt_stdio_flush_nolock 0000000180067a14     libucrt:fflush.obj
 0002:00014a14       $unwind$_exception_enabled 0000000180067a14     libucrt:libm_error.obj
 0002:00014a14       $unwind$_Init_thread_wait  0000000180067a14     LIBCMT:thread_safe_statics.obj
 0002:00014a14       $unwind$?opGetDateTime@TSnap7MicroClient@@AEAAHXZ 0000000180067a14     snap7:s7_micro_client.obj
 0002:00014a14       $unwind$?reserve@?$basic_string@DU?$char_traits@D@std@@V?$allocator@D@2@@std@@QEAAX_K@Z 0000000180067a14     snap7:s7_text.obj
 0002:00014a14       $unwind$__acrt_execute_uninitializers 0000000180067a14     libucrt:shared_initialization.obj
 0002:00014a14       $unwind$??_G?$basic_streambuf@DU?$char_traits@D@std@@@std@@UEAAPEAXI@Z 0000000180067a14     node_snap7_client.obj
 0002:00014a14       $unwind$??0_Init_locks@std@@QEAA@XZ 0000000180067a14     libcpmt:xlock.obj
 0002:00014a14       $unwind$__acrt_LocaleNameToLCID 0000000180067a14     libucrt:winapi_thunks.obj
 0002:00014a14       $unwind$__acrt_stdio_flush_and_write_wide_nolock 0000000180067a14     libucrt:_flsbuf.obj
 0002:00014a14       $unwind$?type_case_Z@?$output_processor@_WV?$string_output_adapter@_W@__crt_stdio_output@@V?$standard_base@_WV?$string_output_adapter@_W@__crt_stdio_output@@@2@@__crt_stdio_output@@AEAA_NXZ 0000000180067a14     libucrt:output.obj
 0002:00014a14       $unwind$_Getcvt            0000000180067a14     libcpmt:xwctomb.obj
 0002:00014a14       $unwind$?_Tidy@ios_base@std@@AEAAXXZ 0000000180067a14     libcpmt:ios.obj
 0002:00014a14       $unwind$?__scrt_initialize_thread_safe_statics@@YAHXZ 0000000180067a14     LIBCMT:thread_safe_statics.obj
 0002:00014a14       $unwind$??4?$_Yarn@D@std@@QEAAAEAV01@PEBD@Z 0000000180067a14     libcpmt:locale0.obj
 0002:00014a14       $unwind$??1S7Client@node_snap7@@EEAA@XZ 0000000180067a14     node_snap7_client.obj
 0002:00014a14       $unwind$__acrt_FlsSetValue 0000000180067a14     libucrt:winapi_thunks.obj
 0002:00014a24       $unwind$?Init@S7Client@node_snap7@@SAXV?$Local@VObject@v8@@@v8@@@Z 0000000180067a24     node_snap7_client.obj
 0002:00014a38       $unwind$?New@S7Client@node_snap7@@SAXAEBV?$FunctionCallbackInfo@VValue@v8@@@Nan@@@Z 0000000180067a38     node_snap7_client.obj
 0002:00014a44       $chain$0$?New@S7Client@node_snap7@@SAXAEBV?$FunctionCallbackInfo@VValue@v8@@@Nan@@@Z 0000000180067a44     node_snap7_client.obj
 0002:00014a58       $chain$1$?New@S7Client@node_snap7@@SAXAEBV?$FunctionCallbackInfo@VValue@v8@@@Nan@@@Z 0000000180067a58     node_snap7_client.obj
 0002:00014a68       $unwind$?PlcColdStart@S7Client@node_snap7@@SAXAEBV?$FunctionCallbackInfo@VValue@v8@@@Nan@@@Z 0000000180067a68     node_snap7_client.obj
 0002:00014a68       $unwind$?Connect@S7Client@node_snap7@@SAXAEBV?$FunctionCallbackInfo@VValue@v8@@@Nan@@@Z 0000000180067a68     node_snap7_client.obj
 0002:00014a68       $unwind$?PlcStop@S7Client@node_snap7@@SAXAEBV?$FunctionCallbackInfo@VValue@v8@@@Nan@@@Z 0000000180067a68     node_snap7_client.obj
 0002:00014a68       $unwind$?SetPlcSystemDateTime@S7Client@node_snap7@@SAXAEBV?$FunctionCallbackInfo@VValue@v8@@@Nan@@@Z 0000000180067a68     node_snap7_client.obj
 0002:00014a68       $unwind$?ClearSessionPassword@S7Client@node_snap7@@SAXAEBV?$FunctionCallbackInfo@VValue@v8@@@Nan@@@Z 0000000180067a68     node_snap7_client.obj
 0002:00014a68       $unwind$?PlcHotStart@S7Client@node_snap7@@SAXAEBV?$FunctionCallbackInfo@VValue@v8@@@Nan@@@Z 0000000180067a68     node_snap7_client.obj
 0002:00014a78       $chain$2$?Connect@S7Client@node_snap7@@SAXAEBV?$FunctionCallbackInfo@VValue@v8@@@Nan@@@Z 0000000180067a78     node_snap7_client.obj
 0002:00014a90       $chain$3$?Connect@S7Client@node_snap7@@SAXAEBV?$FunctionCallbackInfo@VValue@v8@@@Nan@@@Z 0000000180067a90     node_snap7_client.obj
 0002:00014aa4       $chain$4$?Connect@S7Client@node_snap7@@SAXAEBV?$FunctionCallbackInfo@VValue@v8@@@Nan@@@Z 0000000180067aa4     node_snap7_client.obj
 0002:00014ab4       $chain$5$?Connect@S7Client@node_snap7@@SAXAEBV?$FunctionCallbackInfo@VValue@v8@@@Nan@@@Z 0000000180067ab4     node_snap7_client.obj
 0002:00014ac4       $unwind$?ConnectTo@S7Client@node_snap7@@SAXAEBV?$FunctionCallbackInfo@VValue@v8@@@Nan@@@Z 0000000180067ac4     node_snap7_client.obj
 0002:00014ad0       $chain$3$?ConnectTo@S7Client@node_snap7@@SAXAEBV?$FunctionCallbackInfo@VValue@v8@@@Nan@@@Z 0000000180067ad0     node_snap7_client.obj
 0002:00014af0       $chain$5$?ConnectTo@S7Client@node_snap7@@SAXAEBV?$FunctionCallbackInfo@VValue@v8@@@Nan@@@Z 0000000180067af0     node_snap7_client.obj
 0002:00014b10       $chain$6$?ConnectTo@S7Client@node_snap7@@SAXAEBV?$FunctionCallbackInfo@VValue@v8@@@Nan@@@Z 0000000180067b10     node_snap7_client.obj
 0002:00014b24       $chain$8$?ConnectTo@S7Client@node_snap7@@SAXAEBV?$FunctionCallbackInfo@VValue@v8@@@Nan@@@Z 0000000180067b24     node_snap7_client.obj
 0002:00014b34       $unwind$?SetConnectionParams@S7Client@node_snap7@@SAXAEBV?$FunctionCallbackInfo@VValue@v8@@@Nan@@@Z 0000000180067b34     node_snap7_client.obj
 0002:00014b4c       $chain$0$?SetConnectionParams@S7Client@node_snap7@@SAXAEBV?$FunctionCallbackInfo@VValue@v8@@@Nan@@@Z 0000000180067b4c     node_snap7_client.obj
 0002:00014b60       $chain$1$?SetConnectionParams@S7Client@node_snap7@@SAXAEBV?$FunctionCallbackInfo@VValue@v8@@@Nan@@@Z 0000000180067b60     node_snap7_client.obj
 0002:00014b70       $unwind$?GetParam@S7Client@node_snap7@@SAXAEBV?$FunctionCallbackInfo@VValue@v8@@@Nan@@@Z 0000000180067b70     node_snap7_client.obj
 0002:00014b7c       $chain$0$?GetParam@S7Client@node_snap7@@SAXAEBV?$FunctionCallbackInfo@VValue@v8@@@Nan@@@Z 0000000180067b7c     node_snap7_client.obj
 0002:00014b90       $chain$2$?GetParam@S7Client@node_snap7@@SAXAEBV?$FunctionCallbackInfo@VValue@v8@@@Nan@@@Z 0000000180067b90     node_snap7_client.obj
 0002:00014ba4       $chain$3$?GetParam@S7Client@node_snap7@@SAXAEBV?$FunctionCallbackInfo@VValue@v8@@@Nan@@@Z 0000000180067ba4     node_snap7_client.obj
 0002:00014bb4       $unwind$?SetParam@S7Client@node_snap7@@SAXAEBV?$FunctionCallbackInfo@VValue@v8@@@Nan@@@Z 0000000180067bb4     node_snap7_client.obj
 0002:00014bb4       $unwind$?New@?$IntegerFactory@VInteger@v8@@@imp@Nan@@SA?AV?$Local@VInteger@v8@@@v8@@H@Z 0000000180067bb4     node_snap7_client.obj
 0002:00014bb4       $unwind$?isoSendBuffer@TIsoTcpSocket@@QEAAHPEAXH@Z 0000000180067bb4     snap7:s7_isotcp.obj
 0002:00014bb4       $unwind$??$New@VInteger@v8@@I@Nan@@YA?AV?$Local@VInteger@v8@@@v8@@I@Z 0000000180067bb4     node_snap7_client.obj
 0002:00014bb4       $unwind$??$common_gmtime_s@_J@@YAHQEAUtm@@QEB_J@Z 0000000180067bb4     libucrt:gmtime.obj
 0002:00014bb4       $unwind$__acrt_is_packaged_app 0000000180067bb4     libucrt:winapi_thunks.obj
 0002:00014bb4       $unwind$iswctype           0000000180067bb4     libucrt:iswctype.obj
 0002:00014bc0       $unwind$_isleadbyte_l      0000000180067bc0     libucrt:_wctype.obj
 0002:00014bc0       $unwind$isdigit            0000000180067bc0     libucrt:_ctype.obj
 0002:00014bc0       $unwind$?WaitForData@TMsgSocket@@IEAAHHH@Z 0000000180067bc0     snap7:snap_msgsock.obj
 0002:00014bc0       $unwind$?Execute@IOWorker@node_snap7@@EEAAXXZ 0000000180067bc0     node_snap7_client.obj
 0002:00014bc0       $unwind$?getSystemCP@@YAHH@Z 0000000180067bc0     libucrt:mbctype.obj
 0002:00014bc0       $unwind$isupper            0000000180067bc0     libucrt:_ctype.obj
 0002:00014bc0       $unwind$?PerformPDUUsrData@TS7Worker@@IEAA_NAEAH@Z 0000000180067bc0     snap7:s7_server.obj
 0002:00014bc0       $unwind$?PerformPDURequest@TS7Worker@@IEAA_NAEAH@Z 0000000180067bc0     snap7:s7_server.obj
 0002:00014bc0       $unwind$islower            0000000180067bc0     libucrt:_ctype.obj
 0002:00014bc0       $unwind$?IsoPerformCommand@TS7Worker@@MEAA_NAEAH@Z 0000000180067bc0     snap7:s7_server.obj
 0002:00014bc8       $chain$0$?Execute@IOWorker@node_snap7@@EEAAXXZ 0000000180067bc8     node_snap7_client.obj
 0002:00014bdc       $chain$1$?Execute@IOWorker@node_snap7@@EEAAXXZ 0000000180067bdc     node_snap7_client.obj
 0002:00014bec       $unwind$?HandleOKCallback@IOWorker@node_snap7@@EEAAXXZ 0000000180067bec     node_snap7_client.obj
 0002:00014bfc       $chain$0$?HandleOKCallback@IOWorker@node_snap7@@EEAAXXZ 0000000180067bfc     node_snap7_client.obj
 0002:00014c10       $chain$1$?HandleOKCallback@IOWorker@node_snap7@@EEAAXXZ 0000000180067c10     node_snap7_client.obj
 0002:00014c24       $chain$2$?HandleOKCallback@IOWorker@node_snap7@@EEAAXXZ 0000000180067c24     node_snap7_client.obj
 0002:00014c34       $chain$3$?HandleOKCallback@IOWorker@node_snap7@@EEAAXXZ 0000000180067c34     node_snap7_client.obj
 0002:00014c44       $unwind$?ReadArea@S7Client@node_snap7@@SAXAEBV?$FunctionCallbackInfo@VValue@v8@@@Nan@@@Z 0000000180067c44     node_snap7_client.obj
 0002:00014c4c       $chain$6$?ReadArea@S7Client@node_snap7@@SAXAEBV?$FunctionCallbackInfo@VValue@v8@@@Nan@@@Z 0000000180067c4c     node_snap7_client.obj
 0002:00014c78       $chain$8$?ReadArea@S7Client@node_snap7@@SAXAEBV?$FunctionCallbackInfo@VValue@v8@@@Nan@@@Z 0000000180067c78     node_snap7_client.obj
 0002:00014ca4       $chain$9$?ReadArea@S7Client@node_snap7@@SAXAEBV?$FunctionCallbackInfo@VValue@v8@@@Nan@@@Z 0000000180067ca4     node_snap7_client.obj
 0002:00014cb4       $unwind$?WriteArea@S7Client@node_snap7@@SAXAEBV?$FunctionCallbackInfo@VValue@v8@@@Nan@@@Z 0000000180067cb4     node_snap7_client.obj
 0002:00014cc0       $chain$5$?WriteArea@S7Client@node_snap7@@SAXAEBV?$FunctionCallbackInfo@VValue@v8@@@Nan@@@Z 0000000180067cc0     node_snap7_client.obj
 0002:00014ce8       $chain$7$?WriteArea@S7Client@node_snap7@@SAXAEBV?$FunctionCallbackInfo@VValue@v8@@@Nan@@@Z 0000000180067ce8     node_snap7_client.obj
 0002:00014d10       $chain$8$?WriteArea@S7Client@node_snap7@@SAXAEBV?$FunctionCallbackInfo@VValue@v8@@@Nan@@@Z 0000000180067d10     node_snap7_client.obj
 0002:00014d20       $unwind$?ReadMultiVars@S7Client@node_snap7@@SAXAEBV?$FunctionCallbackInfo@VValue@v8@@@Nan@@@Z 0000000180067d20     node_snap7_client.obj
 0002:00014d34       $chain$1$?ReadMultiVars@S7Client@node_snap7@@SAXAEBV?$FunctionCallbackInfo@VValue@v8@@@Nan@@@Z 0000000180067d34     node_snap7_client.obj
 0002:00014d4c       $chain$5$?ReadMultiVars@S7Client@node_snap7@@SAXAEBV?$FunctionCallbackInfo@VValue@v8@@@Nan@@@Z 0000000180067d4c     node_snap7_client.obj
 0002:00014d6c       $chain$6$?ReadMultiVars@S7Client@node_snap7@@SAXAEBV?$FunctionCallbackInfo@VValue@v8@@@Nan@@@Z 0000000180067d6c     node_snap7_client.obj
 0002:00014d7c       $chain$7$?ReadMultiVars@S7Client@node_snap7@@SAXAEBV?$FunctionCallbackInfo@VValue@v8@@@Nan@@@Z 0000000180067d7c     node_snap7_client.obj
 0002:00014d8c       $unwind$?S7DataItemToArray@S7Client@node_snap7@@QEAA?AV?$Local@VArray@v8@@@v8@@PEAUTS7DataItem@@H_N@Z 0000000180067d8c     node_snap7_client.obj
 0002:00014da0       $chain$2$?S7DataItemToArray@S7Client@node_snap7@@QEAA?AV?$Local@VArray@v8@@@v8@@PEAUTS7DataItem@@H_N@Z 0000000180067da0     node_snap7_client.obj
 0002:00014dbc       $chain$3$?S7DataItemToArray@S7Client@node_snap7@@QEAA?AV?$Local@VArray@v8@@@v8@@PEAUTS7DataItem@@H_N@Z 0000000180067dbc     node_snap7_client.obj
 0002:00014dcc       $unwind$?WriteMultiVars@S7Client@node_snap7@@SAXAEBV?$FunctionCallbackInfo@VValue@v8@@@Nan@@@Z 0000000180067dcc     node_snap7_client.obj
 0002:00014de0       $chain$1$?WriteMultiVars@S7Client@node_snap7@@SAXAEBV?$FunctionCallbackInfo@VValue@v8@@@Nan@@@Z 0000000180067de0     node_snap7_client.obj
 0002:00014df8       $chain$5$?WriteMultiVars@S7Client@node_snap7@@SAXAEBV?$FunctionCallbackInfo@VValue@v8@@@Nan@@@Z 0000000180067df8     node_snap7_client.obj
 0002:00014e18       $chain$6$?WriteMultiVars@S7Client@node_snap7@@SAXAEBV?$FunctionCallbackInfo@VValue@v8@@@Nan@@@Z 0000000180067e18     node_snap7_client.obj
 0002:00014e28       $chain$7$?WriteMultiVars@S7Client@node_snap7@@SAXAEBV?$FunctionCallbackInfo@VValue@v8@@@Nan@@@Z 0000000180067e28     node_snap7_client.obj
 0002:00014e38       $unwind$?ListBlocks@S7Client@node_snap7@@SAXAEBV?$FunctionCallbackInfo@VValue@v8@@@Nan@@@Z 0000000180067e38     node_snap7_client.obj
 0002:00014e48       $chain$2$?ListBlocks@S7Client@node_snap7@@SAXAEBV?$FunctionCallbackInfo@VValue@v8@@@Nan@@@Z 0000000180067e48     node_snap7_client.obj
 0002:00014e60       $chain$3$?ListBlocks@S7Client@node_snap7@@SAXAEBV?$FunctionCallbackInfo@VValue@v8@@@Nan@@@Z 0000000180067e60     node_snap7_client.obj
 0002:00014e74       $chain$4$?ListBlocks@S7Client@node_snap7@@SAXAEBV?$FunctionCallbackInfo@VValue@v8@@@Nan@@@Z 0000000180067e74     node_snap7_client.obj
 0002:00014e84       $chain$5$?ListBlocks@S7Client@node_snap7@@SAXAEBV?$FunctionCallbackInfo@VValue@v8@@@Nan@@@Z 0000000180067e84     node_snap7_client.obj
 0002:00014e94       $unwind$?S7ProtectionToObject@S7Client@node_snap7@@QEAA?AV?$Local@VObject@v8@@@v8@@PEAUTS7Protection@@@Z 0000000180067e94     node_snap7_client.obj
 0002:00014e94       $unwind$?S7OrderCodeToObject@S7Client@node_snap7@@QEAA?AV?$Local@VObject@v8@@@v8@@PEAUTS7OrderCode@@@Z 0000000180067e94     node_snap7_client.obj
 0002:00014e94       $unwind$?S7CpInfoToObject@S7Client@node_snap7@@QEAA?AV?$Local@VObject@v8@@@v8@@PEAUTS7CpInfo@@@Z 0000000180067e94     node_snap7_client.obj
 0002:00014e94       $unwind$?S7BlocksListToObject@S7Client@node_snap7@@QEAA?AV?$Local@VObject@v8@@@v8@@PEAUTS7BlocksList@@@Z 0000000180067e94     node_snap7_client.obj
 0002:00014e94       $unwind$?S7BlockInfoToObject@S7Client@node_snap7@@QEAA?AV?$Local@VObject@v8@@@v8@@PEAUTS7BlockInfo@@@Z 0000000180067e94     node_snap7_client.obj
 0002:00014eac       $unwind$?GetAgBlockInfo@S7Client@node_snap7@@SAXAEBV?$FunctionCallbackInfo@VValue@v8@@@Nan@@@Z 0000000180067eac     node_snap7_client.obj
 0002:00014eb8       $chain$2$?GetAgBlockInfo@S7Client@node_snap7@@SAXAEBV?$FunctionCallbackInfo@VValue@v8@@@Nan@@@Z 0000000180067eb8     node_snap7_client.obj
 0002:00014ed4       $chain$4$?GetAgBlockInfo@S7Client@node_snap7@@SAXAEBV?$FunctionCallbackInfo@VValue@v8@@@Nan@@@Z 0000000180067ed4     node_snap7_client.obj
 0002:00014ef0       $chain$6$?GetAgBlockInfo@S7Client@node_snap7@@SAXAEBV?$FunctionCallbackInfo@VValue@v8@@@Nan@@@Z 0000000180067ef0     node_snap7_client.obj
 0002:00014f08       $chain$8$?GetAgBlockInfo@S7Client@node_snap7@@SAXAEBV?$FunctionCallbackInfo@VValue@v8@@@Nan@@@Z 0000000180067f08     node_snap7_client.obj
 0002:00014f18       $unwind$?GetPgBlockInfo@S7Client@node_snap7@@SAXAEBV?$FunctionCallbackInfo@VValue@v8@@@Nan@@@Z 0000000180067f18     node_snap7_client.obj
 0002:00014f24       $chain$2$?GetPgBlockInfo@S7Client@node_snap7@@SAXAEBV?$FunctionCallbackInfo@VValue@v8@@@Nan@@@Z 0000000180067f24     node_snap7_client.obj
 0002:00014f40       $chain$9$?GetPgBlockInfo@S7Client@node_snap7@@SAXAEBV?$FunctionCallbackInfo@VValue@v8@@@Nan@@@Z 0000000180067f40     node_snap7_client.obj
 0002:00014f40       $chain$5$?GetPgBlockInfo@S7Client@node_snap7@@SAXAEBV?$FunctionCallbackInfo@VValue@v8@@@Nan@@@Z 0000000180067f40     node_snap7_client.obj
 0002:00014f40       $chain$3$?GetPgBlockInfo@S7Client@node_snap7@@SAXAEBV?$FunctionCallbackInfo@VValue@v8@@@Nan@@@Z 0000000180067f40     node_snap7_client.obj
 0002:00014f40       $chain$7$?GetPgBlockInfo@S7Client@node_snap7@@SAXAEBV?$FunctionCallbackInfo@VValue@v8@@@Nan@@@Z 0000000180067f40     node_snap7_client.obj
 0002:00014f58       $unwind$?ListBlocksOfType@S7Client@node_snap7@@SAXAEBV?$FunctionCallbackInfo@VValue@v8@@@Nan@@@Z 0000000180067f58     node_snap7_client.obj
 0002:00014f64       $chain$1$?ListBlocksOfType@S7Client@node_snap7@@SAXAEBV?$FunctionCallbackInfo@VValue@v8@@@Nan@@@Z 0000000180067f64     node_snap7_client.obj
 0002:00014f7c       $chain$7$?ListBlocksOfType@S7Client@node_snap7@@SAXAEBV?$FunctionCallbackInfo@VValue@v8@@@Nan@@@Z 0000000180067f7c     node_snap7_client.obj
 0002:00014f7c       $chain$5$?ListBlocksOfType@S7Client@node_snap7@@SAXAEBV?$FunctionCallbackInfo@VValue@v8@@@Nan@@@Z 0000000180067f7c     node_snap7_client.obj
 0002:00014f7c       $chain$3$?ListBlocksOfType@S7Client@node_snap7@@SAXAEBV?$FunctionCallbackInfo@VValue@v8@@@Nan@@@Z 0000000180067f7c     node_snap7_client.obj
 0002:00014f94       $chain$10$?ListBlocksOfType@S7Client@node_snap7@@SAXAEBV?$FunctionCallbackInfo@VValue@v8@@@Nan@@@Z 0000000180067f94     node_snap7_client.obj
 0002:00014fb0       $unwind$?S7BlocksOfTypeToArray@S7Client@node_snap7@@QEAA?AV?$Local@VArray@v8@@@v8@@PEAY0CAAA@GH@Z 0000000180067fb0     node_snap7_client.obj
 0002:00014fb0       $unwind$?S7SZLListToArray@S7Client@node_snap7@@QEAA?AV?$Local@VArray@v8@@@v8@@PEAUTS7SZLList@@H@Z 0000000180067fb0     node_snap7_client.obj
 0002:00014fc0       $chain$1$?S7BlocksOfTypeToArray@S7Client@node_snap7@@QEAA?AV?$Local@VArray@v8@@@v8@@PEAY0CAAA@GH@Z 0000000180067fc0     node_snap7_client.obj
 0002:00014fd8       $chain$2$?S7BlocksOfTypeToArray@S7Client@node_snap7@@QEAA?AV?$Local@VArray@v8@@@v8@@PEAY0CAAA@GH@Z 0000000180067fd8     node_snap7_client.obj
 0002:00014fe8       $unwind$?Upload@S7Client@node_snap7@@SAXAEBV?$FunctionCallbackInfo@VValue@v8@@@Nan@@@Z 0000000180067fe8     node_snap7_client.obj
 0002:00014fe8       $unwind$?FullUpload@S7Client@node_snap7@@SAXAEBV?$FunctionCallbackInfo@VValue@v8@@@Nan@@@Z 0000000180067fe8     node_snap7_client.obj
 0002:00014ff4       $chain$2$?Upload@S7Client@node_snap7@@SAXAEBV?$FunctionCallbackInfo@VValue@v8@@@Nan@@@Z 0000000180067ff4     node_snap7_client.obj
 0002:00015010       $chain$4$?Upload@S7Client@node_snap7@@SAXAEBV?$FunctionCallbackInfo@VValue@v8@@@Nan@@@Z 0000000180068010     node_snap7_client.obj
 0002:0001502c       $chain$6$?Upload@S7Client@node_snap7@@SAXAEBV?$FunctionCallbackInfo@VValue@v8@@@Nan@@@Z 000000018006802c     node_snap7_client.obj
 0002:00015044       $chain$8$?Upload@S7Client@node_snap7@@SAXAEBV?$FunctionCallbackInfo@VValue@v8@@@Nan@@@Z 0000000180068044     node_snap7_client.obj
 0002:00015054       $chain$2$?FullUpload@S7Client@node_snap7@@SAXAEBV?$FunctionCallbackInfo@VValue@v8@@@Nan@@@Z 0000000180068054     node_snap7_client.obj
 0002:00015070       $chain$4$?FullUpload@S7Client@node_snap7@@SAXAEBV?$FunctionCallbackInfo@VValue@v8@@@Nan@@@Z 0000000180068070     node_snap7_client.obj
 0002:0001508c       $chain$6$?FullUpload@S7Client@node_snap7@@SAXAEBV?$FunctionCallbackInfo@VValue@v8@@@Nan@@@Z 000000018006808c     node_snap7_client.obj
 0002:000150a4       $chain$8$?FullUpload@S7Client@node_snap7@@SAXAEBV?$FunctionCallbackInfo@VValue@v8@@@Nan@@@Z 00000001800680a4     node_snap7_client.obj
 0002:000150b4       $unwind$?Download@S7Client@node_snap7@@SAXAEBV?$FunctionCallbackInfo@VValue@v8@@@Nan@@@Z 00000001800680b4     node_snap7_client.obj
 0002:000150c0       $chain$2$?Download@S7Client@node_snap7@@SAXAEBV?$FunctionCallbackInfo@VValue@v8@@@Nan@@@Z 00000001800680c0     node_snap7_client.obj
 0002:000150dc       $chain$4$?Download@S7Client@node_snap7@@SAXAEBV?$FunctionCallbackInfo@VValue@v8@@@Nan@@@Z 00000001800680dc     node_snap7_client.obj
 0002:000150f8       $chain$6$?Download@S7Client@node_snap7@@SAXAEBV?$FunctionCallbackInfo@VValue@v8@@@Nan@@@Z 00000001800680f8     node_snap7_client.obj
 0002:00015110       $chain$8$?Download@S7Client@node_snap7@@SAXAEBV?$FunctionCallbackInfo@VValue@v8@@@Nan@@@Z 0000000180068110     node_snap7_client.obj
 0002:00015120       $unwind$?Delete@S7Client@node_snap7@@SAXAEBV?$FunctionCallbackInfo@VValue@v8@@@Nan@@@Z 0000000180068120     node_snap7_client.obj
 0002:0001512c       $chain$1$?Delete@S7Client@node_snap7@@SAXAEBV?$FunctionCallbackInfo@VValue@v8@@@Nan@@@Z 000000018006812c     node_snap7_client.obj
 0002:00015144       $chain$3$?Delete@S7Client@node_snap7@@SAXAEBV?$FunctionCallbackInfo@VValue@v8@@@Nan@@@Z 0000000180068144     node_snap7_client.obj
 0002:0001515c       $chain$7$?Delete@S7Client@node_snap7@@SAXAEBV?$FunctionCallbackInfo@VValue@v8@@@Nan@@@Z 000000018006815c     node_snap7_client.obj
 0002:0001517c       $chain$8$?Delete@S7Client@node_snap7@@SAXAEBV?$FunctionCallbackInfo@VValue@v8@@@Nan@@@Z 000000018006817c     node_snap7_client.obj
 0002:0001518c       $unwind$?opReadArea@TSnap7MicroClient@@AEAAHXZ 000000018006818c     snap7:s7_micro_client.obj
 0002:0001518c       $unwind$?DBGet@S7Client@node_snap7@@SAXAEBV?$FunctionCallbackInfo@VValue@v8@@@Nan@@@Z 000000018006818c     node_snap7_client.obj
 0002:0001518c       $unwind$?BlockSend@TSnap7Partner@@AEAA_NXZ 000000018006818c     snap7:s7_partner.obj
 0002:00015198       $chain$0$?DBGet@S7Client@node_snap7@@SAXAEBV?$FunctionCallbackInfo@VValue@v8@@@Nan@@@Z 0000000180068198     node_snap7_client.obj
 0002:000151ac       $chain$6$?DBGet@S7Client@node_snap7@@SAXAEBV?$FunctionCallbackInfo@VValue@v8@@@Nan@@@Z 00000001800681ac     node_snap7_client.obj
 0002:000151ac       $chain$4$?DBGet@S7Client@node_snap7@@SAXAEBV?$FunctionCallbackInfo@VValue@v8@@@Nan@@@Z 00000001800681ac     node_snap7_client.obj
 0002:000151ac       $chain$2$?DBGet@S7Client@node_snap7@@SAXAEBV?$FunctionCallbackInfo@VValue@v8@@@Nan@@@Z 00000001800681ac     node_snap7_client.obj
 0002:000151c0       $chain$10$?DBGet@S7Client@node_snap7@@SAXAEBV?$FunctionCallbackInfo@VValue@v8@@@Nan@@@Z 00000001800681c0     node_snap7_client.obj
 0002:000151dc       $chain$11$?DBGet@S7Client@node_snap7@@SAXAEBV?$FunctionCallbackInfo@VValue@v8@@@Nan@@@Z 00000001800681dc     node_snap7_client.obj
 0002:000151ec       $unwind$?DBFill@S7Client@node_snap7@@SAXAEBV?$FunctionCallbackInfo@VValue@v8@@@Nan@@@Z 00000001800681ec     node_snap7_client.obj
 0002:00015200       $chain$1$?DBFill@S7Client@node_snap7@@SAXAEBV?$FunctionCallbackInfo@VValue@v8@@@Nan@@@Z 0000000180068200     node_snap7_client.obj
 0002:00015218       $chain$2$?DBFill@S7Client@node_snap7@@SAXAEBV?$FunctionCallbackInfo@VValue@v8@@@Nan@@@Z 0000000180068218     node_snap7_client.obj
 0002:00015218       $chain$7$?DBFill@S7Client@node_snap7@@SAXAEBV?$FunctionCallbackInfo@VValue@v8@@@Nan@@@Z 0000000180068218     node_snap7_client.obj
 0002:00015228       $chain$3$?DBFill@S7Client@node_snap7@@SAXAEBV?$FunctionCallbackInfo@VValue@v8@@@Nan@@@Z 0000000180068228     node_snap7_client.obj
 0002:00015240       $chain$5$?DBFill@S7Client@node_snap7@@SAXAEBV?$FunctionCallbackInfo@VValue@v8@@@Nan@@@Z 0000000180068240     node_snap7_client.obj
 0002:00015258       $unwind$?GetPlcDateTime@S7Client@node_snap7@@SAXAEBV?$FunctionCallbackInfo@VValue@v8@@@Nan@@@Z 0000000180068258     node_snap7_client.obj
 0002:0001526c       $chain$1$?GetPlcDateTime@S7Client@node_snap7@@SAXAEBV?$FunctionCallbackInfo@VValue@v8@@@Nan@@@Z 000000018006826c     node_snap7_client.obj
 0002:00015280       $chain$2$?GetPlcDateTime@S7Client@node_snap7@@SAXAEBV?$FunctionCallbackInfo@VValue@v8@@@Nan@@@Z 0000000180068280     node_snap7_client.obj
 0002:00015290       $chain$3$?GetPlcDateTime@S7Client@node_snap7@@SAXAEBV?$FunctionCallbackInfo@VValue@v8@@@Nan@@@Z 0000000180068290     node_snap7_client.obj
 0002:000152a4       $chain$6$?GetPlcDateTime@S7Client@node_snap7@@SAXAEBV?$FunctionCallbackInfo@VValue@v8@@@Nan@@@Z 00000001800682a4     node_snap7_client.obj
 0002:000152bc       $chain$7$?GetPlcDateTime@S7Client@node_snap7@@SAXAEBV?$FunctionCallbackInfo@VValue@v8@@@Nan@@@Z 00000001800682bc     node_snap7_client.obj
 0002:000152d0       $chain$8$?GetPlcDateTime@S7Client@node_snap7@@SAXAEBV?$FunctionCallbackInfo@VValue@v8@@@Nan@@@Z 00000001800682d0     node_snap7_client.obj
 0002:000152e0       $unwind$?SetPlcDateTime@S7Client@node_snap7@@SAXAEBV?$FunctionCallbackInfo@VValue@v8@@@Nan@@@Z 00000001800682e0     node_snap7_client.obj
 0002:000152fc       $chain$4$?SetPlcDateTime@S7Client@node_snap7@@SAXAEBV?$FunctionCallbackInfo@VValue@v8@@@Nan@@@Z 00000001800682fc     node_snap7_client.obj
 0002:00015314       $chain$5$?SetPlcDateTime@S7Client@node_snap7@@SAXAEBV?$FunctionCallbackInfo@VValue@v8@@@Nan@@@Z 0000000180068314     node_snap7_client.obj
 0002:00015328       $chain$6$?SetPlcDateTime@S7Client@node_snap7@@SAXAEBV?$FunctionCallbackInfo@VValue@v8@@@Nan@@@Z 0000000180068328     node_snap7_client.obj
 0002:00015338       $chain$2$?SetPlcSystemDateTime@S7Client@node_snap7@@SAXAEBV?$FunctionCallbackInfo@VValue@v8@@@Nan@@@Z 0000000180068338     node_snap7_client.obj
 0002:00015350       $chain$3$?SetPlcSystemDateTime@S7Client@node_snap7@@SAXAEBV?$FunctionCallbackInfo@VValue@v8@@@Nan@@@Z 0000000180068350     node_snap7_client.obj
 0002:00015364       $chain$4$?SetPlcSystemDateTime@S7Client@node_snap7@@SAXAEBV?$FunctionCallbackInfo@VValue@v8@@@Nan@@@Z 0000000180068364     node_snap7_client.obj
 0002:00015374       $chain$5$?SetPlcSystemDateTime@S7Client@node_snap7@@SAXAEBV?$FunctionCallbackInfo@VValue@v8@@@Nan@@@Z 0000000180068374     node_snap7_client.obj
 0002:00015384       $unwind$?GetProtection@S7Client@node_snap7@@SAXAEBV?$FunctionCallbackInfo@VValue@v8@@@Nan@@@Z 0000000180068384     node_snap7_client.obj
 0002:00015384       $unwind$?GetCpInfo@S7Client@node_snap7@@SAXAEBV?$FunctionCallbackInfo@VValue@v8@@@Nan@@@Z 0000000180068384     node_snap7_client.obj
 0002:00015384       $unwind$?GetOrderCode@S7Client@node_snap7@@SAXAEBV?$FunctionCallbackInfo@VValue@v8@@@Nan@@@Z 0000000180068384     node_snap7_client.obj
 0002:00015384       $unwind$?GetCpuInfo@S7Client@node_snap7@@SAXAEBV?$FunctionCallbackInfo@VValue@v8@@@Nan@@@Z 0000000180068384     node_snap7_client.obj
 0002:00015390       $chain$2$?GetOrderCode@S7Client@node_snap7@@SAXAEBV?$FunctionCallbackInfo@VValue@v8@@@Nan@@@Z 0000000180068390     node_snap7_client.obj
 0002:000153ac       $chain$3$?GetOrderCode@S7Client@node_snap7@@SAXAEBV?$FunctionCallbackInfo@VValue@v8@@@Nan@@@Z 00000001800683ac     node_snap7_client.obj
 0002:000153c0       $chain$4$?GetOrderCode@S7Client@node_snap7@@SAXAEBV?$FunctionCallbackInfo@VValue@v8@@@Nan@@@Z 00000001800683c0     node_snap7_client.obj
 0002:000153d0       $chain$2$?GetCpuInfo@S7Client@node_snap7@@SAXAEBV?$FunctionCallbackInfo@VValue@v8@@@Nan@@@Z 00000001800683d0     node_snap7_client.obj
 0002:000153ec       $chain$3$?GetCpuInfo@S7Client@node_snap7@@SAXAEBV?$FunctionCallbackInfo@VValue@v8@@@Nan@@@Z 00000001800683ec     node_snap7_client.obj
 0002:00015400       $chain$4$?GetCpuInfo@S7Client@node_snap7@@SAXAEBV?$FunctionCallbackInfo@VValue@v8@@@Nan@@@Z 0000000180068400     node_snap7_client.obj
 0002:00015410       $unwind$?S7CpuInfoToObject@S7Client@node_snap7@@QEAA?AV?$Local@VObject@v8@@@v8@@PEAUTS7CpuInfo@@@Z 0000000180068410     node_snap7_client.obj
 0002:00015424       $chain$2$?GetCpInfo@S7Client@node_snap7@@SAXAEBV?$FunctionCallbackInfo@VValue@v8@@@Nan@@@Z 0000000180068424     node_snap7_client.obj
 0002:00015440       $chain$3$?GetCpInfo@S7Client@node_snap7@@SAXAEBV?$FunctionCallbackInfo@VValue@v8@@@Nan@@@Z 0000000180068440     node_snap7_client.obj
 0002:00015454       $chain$4$?GetCpInfo@S7Client@node_snap7@@SAXAEBV?$FunctionCallbackInfo@VValue@v8@@@Nan@@@Z 0000000180068454     node_snap7_client.obj
 0002:00015464       $unwind$?ReadSZL@S7Client@node_snap7@@SAXAEBV?$FunctionCallbackInfo@VValue@v8@@@Nan@@@Z 0000000180068464     node_snap7_client.obj
 0002:0001547c       $chain$5$?ReadSZL@S7Client@node_snap7@@SAXAEBV?$FunctionCallbackInfo@VValue@v8@@@Nan@@@Z 000000018006847c     node_snap7_client.obj
 0002:00015498       $chain$6$?ReadSZL@S7Client@node_snap7@@SAXAEBV?$FunctionCallbackInfo@VValue@v8@@@Nan@@@Z 0000000180068498     node_snap7_client.obj
 0002:000154a8       $unwind$?ReadSZLList@S7Client@node_snap7@@SAXAEBV?$FunctionCallbackInfo@VValue@v8@@@Nan@@@Z 00000001800684a8     node_snap7_client.obj
 0002:000154b8       $chain$2$?ReadSZLList@S7Client@node_snap7@@SAXAEBV?$FunctionCallbackInfo@VValue@v8@@@Nan@@@Z 00000001800684b8     node_snap7_client.obj
 0002:000154d0       $chain$3$?ReadSZLList@S7Client@node_snap7@@SAXAEBV?$FunctionCallbackInfo@VValue@v8@@@Nan@@@Z 00000001800684d0     node_snap7_client.obj
 0002:000154e4       $chain$4$?ReadSZLList@S7Client@node_snap7@@SAXAEBV?$FunctionCallbackInfo@VValue@v8@@@Nan@@@Z 00000001800684e4     node_snap7_client.obj
 0002:000154f4       $chain$5$?ReadSZLList@S7Client@node_snap7@@SAXAEBV?$FunctionCallbackInfo@VValue@v8@@@Nan@@@Z 00000001800684f4     node_snap7_client.obj
 0002:00015504       $chain$1$?S7SZLListToArray@S7Client@node_snap7@@QEAA?AV?$Local@VArray@v8@@@v8@@PEAUTS7SZLList@@H@Z 0000000180068504     node_snap7_client.obj
 0002:0001551c       $chain$2$?S7SZLListToArray@S7Client@node_snap7@@QEAA?AV?$Local@VArray@v8@@@v8@@PEAUTS7SZLList@@H@Z 000000018006851c     node_snap7_client.obj
 0002:0001552c       $chain$2$?PlcHotStart@S7Client@node_snap7@@SAXAEBV?$FunctionCallbackInfo@VValue@v8@@@Nan@@@Z 000000018006852c     node_snap7_client.obj
 0002:00015544       $chain$3$?PlcHotStart@S7Client@node_snap7@@SAXAEBV?$FunctionCallbackInfo@VValue@v8@@@Nan@@@Z 0000000180068544     node_snap7_client.obj
 0002:00015558       $chain$4$?PlcHotStart@S7Client@node_snap7@@SAXAEBV?$FunctionCallbackInfo@VValue@v8@@@Nan@@@Z 0000000180068558     node_snap7_client.obj
 0002:00015568       $chain$5$?PlcHotStart@S7Client@node_snap7@@SAXAEBV?$FunctionCallbackInfo@VValue@v8@@@Nan@@@Z 0000000180068568     node_snap7_client.obj
 0002:00015578       $chain$2$?PlcColdStart@S7Client@node_snap7@@SAXAEBV?$FunctionCallbackInfo@VValue@v8@@@Nan@@@Z 0000000180068578     node_snap7_client.obj
 0002:00015590       $chain$3$?PlcColdStart@S7Client@node_snap7@@SAXAEBV?$FunctionCallbackInfo@VValue@v8@@@Nan@@@Z 0000000180068590     node_snap7_client.obj
 0002:000155a4       $chain$4$?PlcColdStart@S7Client@node_snap7@@SAXAEBV?$FunctionCallbackInfo@VValue@v8@@@Nan@@@Z 00000001800685a4     node_snap7_client.obj
 0002:000155b4       $chain$5$?PlcColdStart@S7Client@node_snap7@@SAXAEBV?$FunctionCallbackInfo@VValue@v8@@@Nan@@@Z 00000001800685b4     node_snap7_client.obj
 0002:000155c4       $chain$2$?PlcStop@S7Client@node_snap7@@SAXAEBV?$FunctionCallbackInfo@VValue@v8@@@Nan@@@Z 00000001800685c4     node_snap7_client.obj
 0002:000155dc       $chain$3$?PlcStop@S7Client@node_snap7@@SAXAEBV?$FunctionCallbackInfo@VValue@v8@@@Nan@@@Z 00000001800685dc     node_snap7_client.obj
 0002:000155f0       $chain$4$?PlcStop@S7Client@node_snap7@@SAXAEBV?$FunctionCallbackInfo@VValue@v8@@@Nan@@@Z 00000001800685f0     node_snap7_client.obj
 0002:00015600       $chain$5$?PlcStop@S7Client@node_snap7@@SAXAEBV?$FunctionCallbackInfo@VValue@v8@@@Nan@@@Z 0000000180068600     node_snap7_client.obj
 0002:00015610       $unwind$?Compress@S7Client@node_snap7@@SAXAEBV?$FunctionCallbackInfo@VValue@v8@@@Nan@@@Z 0000000180068610     node_snap7_client.obj
 0002:00015610       $unwind$?CopyRamToRom@S7Client@node_snap7@@SAXAEBV?$FunctionCallbackInfo@VValue@v8@@@Nan@@@Z 0000000180068610     node_snap7_client.obj
 0002:0001561c       $chain$0$?CopyRamToRom@S7Client@node_snap7@@SAXAEBV?$FunctionCallbackInfo@VValue@v8@@@Nan@@@Z 000000018006861c     node_snap7_client.obj
 0002:00015630       $chain$2$?CopyRamToRom@S7Client@node_snap7@@SAXAEBV?$FunctionCallbackInfo@VValue@v8@@@Nan@@@Z 0000000180068630     node_snap7_client.obj
 0002:00015644       $chain$6$?CopyRamToRom@S7Client@node_snap7@@SAXAEBV?$FunctionCallbackInfo@VValue@v8@@@Nan@@@Z 0000000180068644     node_snap7_client.obj
 0002:00015660       $chain$0$?Compress@S7Client@node_snap7@@SAXAEBV?$FunctionCallbackInfo@VValue@v8@@@Nan@@@Z 0000000180068660     node_snap7_client.obj
 0002:00015674       $chain$2$?Compress@S7Client@node_snap7@@SAXAEBV?$FunctionCallbackInfo@VValue@v8@@@Nan@@@Z 0000000180068674     node_snap7_client.obj
 0002:00015688       $chain$6$?Compress@S7Client@node_snap7@@SAXAEBV?$FunctionCallbackInfo@VValue@v8@@@Nan@@@Z 0000000180068688     node_snap7_client.obj
 0002:000156a4       $chain$2$?GetProtection@S7Client@node_snap7@@SAXAEBV?$FunctionCallbackInfo@VValue@v8@@@Nan@@@Z 00000001800686a4     node_snap7_client.obj
 0002:000156c0       $chain$3$?GetProtection@S7Client@node_snap7@@SAXAEBV?$FunctionCallbackInfo@VValue@v8@@@Nan@@@Z 00000001800686c0     node_snap7_client.obj
 0002:000156d4       $chain$4$?GetProtection@S7Client@node_snap7@@SAXAEBV?$FunctionCallbackInfo@VValue@v8@@@Nan@@@Z 00000001800686d4     node_snap7_client.obj
 0002:000156e4       $unwind$?SetSessionPassword@S7Client@node_snap7@@SAXAEBV?$FunctionCallbackInfo@VValue@v8@@@Nan@@@Z 00000001800686e4     node_snap7_client.obj
 0002:000156f0       $chain$1$?SetSessionPassword@S7Client@node_snap7@@SAXAEBV?$FunctionCallbackInfo@VValue@v8@@@Nan@@@Z 00000001800686f0     node_snap7_client.obj
 0002:00015708       $chain$4$?SetSessionPassword@S7Client@node_snap7@@SAXAEBV?$FunctionCallbackInfo@VValue@v8@@@Nan@@@Z 0000000180068708     node_snap7_client.obj
 0002:00015724       $chain$5$?SetSessionPassword@S7Client@node_snap7@@SAXAEBV?$FunctionCallbackInfo@VValue@v8@@@Nan@@@Z 0000000180068724     node_snap7_client.obj
 0002:00015734       $chain$2$?ClearSessionPassword@S7Client@node_snap7@@SAXAEBV?$FunctionCallbackInfo@VValue@v8@@@Nan@@@Z 0000000180068734     node_snap7_client.obj
 0002:0001574c       $chain$3$?ClearSessionPassword@S7Client@node_snap7@@SAXAEBV?$FunctionCallbackInfo@VValue@v8@@@Nan@@@Z 000000018006874c     node_snap7_client.obj
 0002:00015760       $chain$4$?ClearSessionPassword@S7Client@node_snap7@@SAXAEBV?$FunctionCallbackInfo@VValue@v8@@@Nan@@@Z 0000000180068760     node_snap7_client.obj
 0002:00015770       $chain$5$?ClearSessionPassword@S7Client@node_snap7@@SAXAEBV?$FunctionCallbackInfo@VValue@v8@@@Nan@@@Z 0000000180068770     node_snap7_client.obj
 0002:00015780       $unwind$?LastError@S7Client@node_snap7@@SAXAEBV?$FunctionCallbackInfo@VValue@v8@@@Nan@@@Z 0000000180068780     node_snap7_client.obj
 0002:00015780       $unwind$?PDULength@S7Client@node_snap7@@SAXAEBV?$FunctionCallbackInfo@VValue@v8@@@Nan@@@Z 0000000180068780     node_snap7_client.obj
 0002:00015780       $unwind$?ExecTime@S7Client@node_snap7@@SAXAEBV?$FunctionCallbackInfo@VValue@v8@@@Nan@@@Z 0000000180068780     node_snap7_client.obj
 0002:00015780       $unwind$?PDURequested@S7Client@node_snap7@@SAXAEBV?$FunctionCallbackInfo@VValue@v8@@@Nan@@@Z 0000000180068780     node_snap7_client.obj
 0002:0001578c       $unwind$?PlcStatus@S7Client@node_snap7@@SAXAEBV?$FunctionCallbackInfo@VValue@v8@@@Nan@@@Z 000000018006878c     node_snap7_client.obj
 0002:0001579c       $chain$2$?PlcStatus@S7Client@node_snap7@@SAXAEBV?$FunctionCallbackInfo@VValue@v8@@@Nan@@@Z 000000018006879c     node_snap7_client.obj
 0002:000157b4       $chain$3$?PlcStatus@S7Client@node_snap7@@SAXAEBV?$FunctionCallbackInfo@VValue@v8@@@Nan@@@Z 00000001800687b4     node_snap7_client.obj
 0002:000157c8       $chain$4$?PlcStatus@S7Client@node_snap7@@SAXAEBV?$FunctionCallbackInfo@VValue@v8@@@Nan@@@Z 00000001800687c8     node_snap7_client.obj
 0002:000157d8       $chain$5$?PlcStatus@S7Client@node_snap7@@SAXAEBV?$FunctionCallbackInfo@VValue@v8@@@Nan@@@Z 00000001800687d8     node_snap7_client.obj
 0002:000157e8       $unwind$?ErrorText@S7Client@node_snap7@@SAXAEBV?$FunctionCallbackInfo@VValue@v8@@@Nan@@@Z 00000001800687e8     node_snap7_client.obj
 0002:000157fc       $chain$0$?ErrorText@S7Client@node_snap7@@SAXAEBV?$FunctionCallbackInfo@VValue@v8@@@Nan@@@Z 00000001800687fc     node_snap7_client.obj
 0002:00015810       $chain$1$?ErrorText@S7Client@node_snap7@@SAXAEBV?$FunctionCallbackInfo@VValue@v8@@@Nan@@@Z 0000000180068810     node_snap7_client.obj
 0002:00015820       $unwind$?seekpos@?$basic_stringbuf@DU?$char_traits@D@std@@V?$allocator@D@2@@std@@MEAA?AV?$fpos@U_Mbstatet@@@2@V32@H@Z 0000000180068820     node_snap7_client.obj
 0002:0001582c       $unwind$?seekoff@?$basic_stringbuf@DU?$char_traits@D@std@@V?$allocator@D@2@@std@@MEAA?AV?$fpos@U_Mbstatet@@@2@_JHH@Z 000000018006882c     node_snap7_client.obj
 0002:0001583c       $unwind$__CxxCallCatchBlock$fin$1 000000018006883c     libvcruntime:frame.obj
 0002:0001583c       $unwind$?overflow@?$basic_stringbuf@DU?$char_traits@D@std@@V?$allocator@D@2@@std@@MEAAHH@Z 000000018006883c     node_snap7_client.obj
 0002:00015848       $chain$0$?overflow@?$basic_stringbuf@DU?$char_traits@D@std@@V?$allocator@D@2@@std@@MEAAHH@Z 0000000180068848     node_snap7_client.obj
 0002:0001585c       $chain$6$?overflow@?$basic_stringbuf@DU?$char_traits@D@std@@V?$allocator@D@2@@std@@MEAAHH@Z 000000018006885c     node_snap7_client.obj
 0002:00015880       $chain$7$?overflow@?$basic_stringbuf@DU?$char_traits@D@std@@V?$allocator@D@2@@std@@MEAAHH@Z 0000000180068880     node_snap7_client.obj
 0002:0001589c       $unwind$??6?$basic_ostream@DU?$char_traits@D@std@@@std@@QEAAAEAV01@H@Z 000000018006889c     node_snap7_client.obj
 0002:000158a4       $chain$0$??6?$basic_ostream@DU?$char_traits@D@std@@@std@@QEAAAEAV01@H@Z 00000001800688a4     node_snap7_client.obj
 0002:000158b8       $chain$2$??6?$basic_ostream@DU?$char_traits@D@std@@@std@@QEAAAEAV01@H@Z 00000001800688b8     node_snap7_client.obj
 0002:000158d0       $chain$3$??6?$basic_ostream@DU?$char_traits@D@std@@@std@@QEAAAEAV01@H@Z 00000001800688d0     node_snap7_client.obj
 0002:000158e4       $chain$4$??6?$basic_ostream@DU?$char_traits@D@std@@@std@@QEAAAEAV01@H@Z 00000001800688e4     node_snap7_client.obj
 0002:000158f4       $chain$7$??6?$basic_ostream@DU?$char_traits@D@std@@@std@@QEAAAEAV01@H@Z 00000001800688f4     node_snap7_client.obj
 0002:000158f4       $chain$5$??6?$basic_ostream@DU?$char_traits@D@std@@@std@@QEAAAEAV01@H@Z 00000001800688f4     node_snap7_client.obj
 0002:00015904       $chain$6$??6?$basic_ostream@DU?$char_traits@D@std@@@std@@QEAAAEAV01@H@Z 0000000180068904     node_snap7_client.obj
 0002:00015918       $unwind$?xsputn@?$basic_streambuf@DU?$char_traits@D@std@@@std@@MEAA_JPEBD_J@Z 0000000180068918     node_snap7_client.obj
 0002:00015918       $unwind$?RegisterPartner@TConnectionServer@@QEAAHPEAVTSnap7Partner@@@Z 0000000180068918     snap7:s7_partner.obj
 0002:0001592c       $chain$0$?xsputn@?$basic_streambuf@DU?$char_traits@D@std@@@std@@MEAA_JPEBD_J@Z 000000018006892c     node_snap7_client.obj
 0002:00015940       $chain$1$?xsputn@?$basic_streambuf@DU?$char_traits@D@std@@@std@@MEAA_JPEBD_J@Z 0000000180068940     node_snap7_client.obj
 0002:00015950       $unwind$?xsgetn@?$basic_streambuf@DU?$char_traits@D@std@@@std@@MEAA_JPEAD_J@Z 0000000180068950     node_snap7_client.obj
 0002:00015960       $chain$1$?xsgetn@?$basic_streambuf@DU?$char_traits@D@std@@@std@@MEAA_JPEAD_J@Z 0000000180068960     node_snap7_client.obj
 0002:00015978       $chain$2$?xsgetn@?$basic_streambuf@DU?$char_traits@D@std@@@std@@MEAA_JPEAD_J@Z 0000000180068978     node_snap7_client.obj
 0002:00015988       $chain$3$?xsgetn@?$basic_streambuf@DU?$char_traits@D@std@@@std@@MEAA_JPEAD_J@Z 0000000180068988     node_snap7_client.obj
 0002:000159a0       $unwind$?do_put@?$num_put@DV?$ostreambuf_iterator@DU?$char_traits@D@std@@@std@@@std@@MEBA?AV?$ostreambuf_iterator@DU?$char_traits@D@std@@@2@V32@AEAVios_base@2@DPEBX@Z 00000001800689a0     node_snap7_client.obj
 0002:000159b8       $unwind$?do_put@?$num_put@DV?$ostreambuf_iterator@DU?$char_traits@D@std@@@std@@@std@@MEBA?AV?$ostreambuf_iterator@DU?$char_traits@D@std@@@2@V32@AEAVios_base@2@DO@Z 00000001800689b8     node_snap7_client.obj
 0002:000159b8       $unwind$?do_put@?$num_put@DV?$ostreambuf_iterator@DU?$char_traits@D@std@@@std@@@std@@MEBA?AV?$ostreambuf_iterator@DU?$char_traits@D@std@@@2@V32@AEAVios_base@2@DN@Z 00000001800689b8     node_snap7_client.obj
 0002:000159dc       $unwind$?do_put@?$num_put@DV?$ostreambuf_iterator@DU?$char_traits@D@std@@@std@@@std@@MEBA?AV?$ostreambuf_iterator@DU?$char_traits@D@std@@@2@V32@AEAVios_base@2@D_J@Z 00000001800689dc     node_snap7_client.obj
 0002:000159dc       $unwind$?do_put@?$num_put@DV?$ostreambuf_iterator@DU?$char_traits@D@std@@@std@@@std@@MEBA?AV?$ostreambuf_iterator@DU?$char_traits@D@std@@@2@V32@AEAVios_base@2@DJ@Z 00000001800689dc     node_snap7_client.obj
 0002:000159dc       $unwind$?do_put@?$num_put@DV?$ostreambuf_iterator@DU?$char_traits@D@std@@@std@@@std@@MEBA?AV?$ostreambuf_iterator@DU?$char_traits@D@std@@@2@V32@AEAVios_base@2@DK@Z 00000001800689dc     node_snap7_client.obj
 0002:000159dc       $unwind$?do_put@?$num_put@DV?$ostreambuf_iterator@DU?$char_traits@D@std@@@std@@@std@@MEBA?AV?$ostreambuf_iterator@DU?$char_traits@D@std@@@2@V32@AEAVios_base@2@D_K@Z 00000001800689dc     node_snap7_client.obj
 0002:000159f4       $unwind$?do_put@?$num_put@DV?$ostreambuf_iterator@DU?$char_traits@D@std@@@std@@@std@@MEBA?AV?$ostreambuf_iterator@DU?$char_traits@D@std@@@2@V32@AEAVios_base@2@D_N@Z 00000001800689f4     node_snap7_client.obj
 0002:00015a10       $chain$1$?do_put@?$num_put@DV?$ostreambuf_iterator@DU?$char_traits@D@std@@@std@@@std@@MEBA?AV?$ostreambuf_iterator@DU?$char_traits@D@std@@@2@V32@AEAVios_base@2@D_N@Z 0000000180068a10     node_snap7_client.obj
 0002:00015a28       $chain$2$?do_put@?$num_put@DV?$ostreambuf_iterator@DU?$char_traits@D@std@@@std@@@std@@MEBA?AV?$ostreambuf_iterator@DU?$char_traits@D@std@@@2@V32@AEAVios_base@2@D_N@Z 0000000180068a28     node_snap7_client.obj
 0002:00015a3c       $chain$3$?do_put@?$num_put@DV?$ostreambuf_iterator@DU?$char_traits@D@std@@@std@@@std@@MEBA?AV?$ostreambuf_iterator@DU?$char_traits@D@std@@@2@V32@AEAVios_base@2@D_N@Z 0000000180068a3c     node_snap7_client.obj
 0002:00015a4c       $chain$4$?do_put@?$num_put@DV?$ostreambuf_iterator@DU?$char_traits@D@std@@@std@@@std@@MEBA?AV?$ostreambuf_iterator@DU?$char_traits@D@std@@@2@V32@AEAVios_base@2@D_N@Z 0000000180068a4c     node_snap7_client.obj
 0002:00015a5c       $chain$5$?do_put@?$num_put@DV?$ostreambuf_iterator@DU?$char_traits@D@std@@@std@@@std@@MEBA?AV?$ostreambuf_iterator@DU?$char_traits@D@std@@@2@V32@AEAVios_base@2@D_N@Z 0000000180068a5c     node_snap7_client.obj
 0002:00015a74       $unwind$__std_exception_copy 0000000180068a74     libvcruntime:std_exception.obj
 0002:00015a74       $unwind$?assign@?$basic_string@DU?$char_traits@D@std@@V?$allocator@D@2@@std@@QEAAAEAV12@AEBV12@_K1@Z 0000000180068a74     node_snap7_client.obj
 0002:00015a74       $unwind$_free_osfhnd       0000000180068a74     libucrt:osfinfo.obj
 0002:00015a74       $unwind$_wcstombs_s_l      0000000180068a74     libucrt:wcstombs.obj
 0002:00015a74       $unwind$?initialize_stdio_handles_nolock@@YAXXZ 0000000180068a74     libucrt:ioinit.obj
 0002:00015a88       $unwind$?append@?$basic_string@DU?$char_traits@D@std@@V?$allocator@D@2@@std@@QEAAAEAV12@PEBD_K@Z 0000000180068a88     node_snap7_client.obj
 0002:00015a88       $unwind$?append@?$basic_string@DU?$char_traits@D@std@@V?$allocator@D@2@@std@@QEAAAEAV12@_KD@Z 0000000180068a88     node_snap7_client.obj
 0002:00015a98       $chain$0$?append@?$basic_string@DU?$char_traits@D@std@@V?$allocator@D@2@@std@@QEAAAEAV12@PEBD_K@Z 0000000180068a98     node_snap7_client.obj
 0002:00015aac       $chain$1$?append@?$basic_string@DU?$char_traits@D@std@@V?$allocator@D@2@@std@@QEAAAEAV12@PEBD_K@Z 0000000180068aac     node_snap7_client.obj
 0002:00015abc       $chain$2$?append@?$basic_string@DU?$char_traits@D@std@@V?$allocator@D@2@@std@@QEAAAEAV12@PEBD_K@Z 0000000180068abc     node_snap7_client.obj
 0002:00015ad0       $unwind$?insert@?$basic_string@DU?$char_traits@D@std@@V?$allocator@D@2@@std@@QEAAAEAV12@_K0D@Z 0000000180068ad0     node_snap7_client.obj
 0002:00015ad0       $unwind$?append@?$basic_string@DU?$char_traits@D@std@@V?$allocator@D@2@@std@@QEAAAEAV12@AEBV12@_K1@Z 0000000180068ad0     node_snap7_client.obj
 0002:00015ae4       $chain$0$?append@?$basic_string@DU?$char_traits@D@std@@V?$allocator@D@2@@std@@QEAAAEAV12@AEBV12@_K1@Z 0000000180068ae4     node_snap7_client.obj
 0002:00015af8       $chain$1$?append@?$basic_string@DU?$char_traits@D@std@@V?$allocator@D@2@@std@@QEAAAEAV12@AEBV12@_K1@Z 0000000180068af8     node_snap7_client.obj
 0002:00015b08       $chain$2$?append@?$basic_string@DU?$char_traits@D@std@@V?$allocator@D@2@@std@@QEAAAEAV12@AEBV12@_K1@Z 0000000180068b08     node_snap7_client.obj
 0002:00015b1c       $unwind$?str@?$basic_stringbuf@DU?$char_traits@D@std@@V?$allocator@D@2@@std@@QEBA?AV?$basic_string@DU?$char_traits@D@std@@V?$allocator@D@2@@2@XZ 0000000180068b1c     node_snap7_client.obj
 0002:00015b34       $unwind$?_Iput@?$num_put@DV?$ostreambuf_iterator@DU?$char_traits@D@std@@@std@@@std@@AEBA?AV?$ostreambuf_iterator@DU?$char_traits@D@std@@@2@V32@AEAVios_base@2@DPEAD_K@Z 0000000180068b34     node_snap7_client.obj
 0002:00015b58       $unwind$?_Fput@?$num_put@DV?$ostreambuf_iterator@DU?$char_traits@D@std@@@std@@@std@@AEBA?AV?$ostreambuf_iterator@DU?$char_traits@D@std@@@2@V32@AEAVios_base@2@DPEBD_K@Z 0000000180068b58     node_snap7_client.obj
 0002:00015b7c       $chain$0$?append@?$basic_string@DU?$char_traits@D@std@@V?$allocator@D@2@@std@@QEAAAEAV12@_KD@Z 0000000180068b7c     node_snap7_client.obj
 0002:00015b90       $chain$1$?append@?$basic_string@DU?$char_traits@D@std@@V?$allocator@D@2@@std@@QEAAAEAV12@_KD@Z 0000000180068b90     node_snap7_client.obj
 0002:00015ba0       $chain$2$?append@?$basic_string@DU?$char_traits@D@std@@V?$allocator@D@2@@std@@QEAAAEAV12@_KD@Z 0000000180068ba0     node_snap7_client.obj
 0002:00015bb4       $chain$1$?flush@?$basic_ostream@DU?$char_traits@D@std@@@std@@QEAAAEAV12@XZ 0000000180068bb4     node_snap7_client.obj
 0002:00015bcc       $chain$4$?flush@?$basic_ostream@DU?$char_traits@D@std@@@std@@QEAAAEAV12@XZ 0000000180068bcc     node_snap7_client.obj
 0002:00015bcc       $chain$2$?flush@?$basic_ostream@DU?$char_traits@D@std@@@std@@QEAAAEAV12@XZ 0000000180068bcc     node_snap7_client.obj
 0002:00015bdc       $chain$3$?flush@?$basic_ostream@DU?$char_traits@D@std@@@std@@QEAAAEAV12@XZ 0000000180068bdc     node_snap7_client.obj
 0002:00015bf4       $unwind$?_Copy@?$basic_string@DU?$char_traits@D@std@@V?$allocator@D@2@@std@@QEAAX_K0@Z 0000000180068bf4     node_snap7_client.obj
 0002:00015c08       $chain$0$?insert@?$basic_string@DU?$char_traits@D@std@@V?$allocator@D@2@@std@@QEAAAEAV12@_K0D@Z 0000000180068c08     node_snap7_client.obj
 0002:00015c1c       $chain$1$?insert@?$basic_string@DU?$char_traits@D@std@@V?$allocator@D@2@@std@@QEAAAEAV12@_K0D@Z 0000000180068c1c     node_snap7_client.obj
 0002:00015c2c       $chain$2$?insert@?$basic_string@DU?$char_traits@D@std@@V?$allocator@D@2@@std@@QEAAAEAV12@_K0D@Z 0000000180068c2c     node_snap7_client.obj
 0002:00015c40       $unwind$?expand_if_necessary@?$argument_list@D@?A0xca0879c4@@AEAAHXZ 0000000180068c40     libucrt:argv_wildcards.obj
 0002:00015c40       $unwind$__scrt_dllmain_exception_filter 0000000180068c40     LIBCMT:utility.obj
 0002:00015c40       $unwind$__acrt_free_locale 0000000180068c40     libucrt:locale_refcounting.obj
 0002:00015c40       $unwind$??$ensure_buffer_is_big_enough@D@formatting_buffer@__crt_stdio_output@@QEAA_N_K@Z 0000000180068c40     libucrt:output.obj
 0002:00015c40       $unwind$?opSetPassword@TSnap7MicroClient@@AEAAHXZ 0000000180068c40     snap7:s7_micro_client.obj
 0002:00015c40       $unwind$?init@?$basic_ios@DU?$char_traits@D@std@@@std@@IEAAXPEAV?$basic_streambuf@DU?$char_traits@D@std@@@2@_N@Z 0000000180068c40     node_snap7_client.obj
 0002:00015c40       $unwind$_recalloc_base     0000000180068c40     libucrt:recalloc.obj
 0002:00015c40       $unwind$__acrt_InitializeCriticalSectionEx 0000000180068c40     libucrt:winapi_thunks.obj
 0002:00015c40       $unwind$?dllmain_raw@@YAHQEAUHINSTANCE__@@KQEAX@Z 0000000180068c40     LIBCMT:dll_dllmain.obj
 0002:00015c40       $unwind$_wassert           0000000180068c40     libucrt:assert.obj
 0002:00015c40       $unwind$__acrt_execute_initializers 0000000180068c40     libucrt:shared_initialization.obj
 0002:00015c40       $unwind$__crtInitializeCriticalSectionEx 0000000180068c40     libcpmt:winapisupp.obj
 0002:00015c40       $unwind$_seh_filter_exe    0000000180068c40     libucrt:exception_filter.obj
 0002:00015c40       $unwind$__acrt_lowio_create_handle_array 0000000180068c40     libucrt:osfinfo.obj
 0002:00015c40       $unwind$?process@?$output_processor@DV?$string_output_adapter@D@__crt_stdio_output@@V?$format_validation_base@DV?$string_output_adapter@D@__crt_stdio_output@@@2@@__crt_stdio_output@@QEAAHXZ 0000000180068c40     libucrt:output.obj
 0002:00015c40       $unwind$?setSBCS@@YAXPEAU__crt_multibyte_data@@@Z 0000000180068c40     libucrt:mbctype.obj
 0002:00015c40       $unwind$?_ExecutionInCatch@@YAHPEAU_xDISPATCHER_CONTEXT@@PEBU_s_FuncInfo@@@Z 0000000180068c40     libvcruntime:trnsctrl.obj
 0002:00015c40       $unwind$__vcrt_InitializeCriticalSectionEx 0000000180068c40     libvcruntime:winapi_downlevel.obj
 0002:00015c54       $unwind$?opPlcColdStart@TSnap7MicroClient@@AEAAHXZ 0000000180068c54     snap7:s7_micro_client.obj
 0002:00015c54       $unwind$?BlockRecv@TSnap7Partner@@AEAA_NXZ 0000000180068c54     snap7:s7_partner.obj
 0002:00015c54       $unwind$?opPlcStop@TSnap7MicroClient@@AEAAHXZ 0000000180068c54     snap7:s7_micro_client.obj
 0002:00015c54       $unwind$?widen@?$basic_ios@DU?$char_traits@D@std@@@std@@QEBADD@Z 0000000180068c54     node_snap7_client.obj
 0002:00015c54       $unwind$?opPlcHotStart@TSnap7MicroClient@@AEAAHXZ 0000000180068c54     snap7:s7_micro_client.obj
 0002:00015c60       $unwind$??$use_facet@V?$num_put@DV?$ostreambuf_iterator@DU?$char_traits@D@std@@@std@@@std@@@std@@YAAEBV?$num_put@DV?$ostreambuf_iterator@DU?$char_traits@D@std@@@std@@@0@AEBVlocale@0@@Z 0000000180068c60     node_snap7_client.obj
 0002:00015c60       $unwind$??$use_facet@V?$numpunct@D@std@@@std@@YAAEBV?$numpunct@D@0@AEBVlocale@0@@Z 0000000180068c60     node_snap7_client.obj
 0002:00015c60       $unwind$??$use_facet@V?$ctype@D@std@@@std@@YAAEBV?$ctype@D@0@AEBVlocale@0@@Z 0000000180068c60     node_snap7_client.obj
 0002:00015c70       $unwind$??$Unwrap@VS7Client@node_snap7@@@ObjectWrap@Nan@@SAPEAVS7Client@node_snap7@@V?$Local@VObject@v8@@@v8@@@Z 0000000180068c70     node_snap7_client.obj
 0002:00015c78       $unwind$?TerminateAll@TCustomMsgServer@@MEAAXXZ 0000000180068c78     snap7:snap_tcpsrvr.obj
 0002:00015c78       $unwind$Srv_StartTo        0000000180068c78     snap7:snap7_libmain.obj
 0002:00015c78       $unwind$?AsWriteArea@TSnap7Client@@QEAAHHHHHHPEAX@Z 0000000180068c78     snap7:s7_client.obj
 0002:00015c78       $unwind$?UnregisterSys@TSnap7Server@@IEAAHH@Z 0000000180068c78     snap7:s7_server.obj
 0002:00015c78       $unwind$??$?6U?$char_traits@D@std@@@std@@YAAEAV?$basic_ostream@DU?$char_traits@D@std@@@0@AEAV10@PEBD@Z 0000000180068c78     node_snap7_client.obj
 0002:00015c80       $chain$3$??$?6U?$char_traits@D@std@@@std@@YAAEAV?$basic_ostream@DU?$char_traits@D@std@@@0@AEAV10@PEBD@Z 0000000180068c80     node_snap7_client.obj
 0002:00015ca0       $chain$4$??$?6U?$char_traits@D@std@@@std@@YAAEAV?$basic_ostream@DU?$char_traits@D@std@@@0@AEAV10@PEBD@Z 0000000180068ca0     node_snap7_client.obj
 0002:00015cb4       $chain$5$??$?6U?$char_traits@D@std@@@std@@YAAEAV?$basic_ostream@DU?$char_traits@D@std@@@0@AEAV10@PEBD@Z 0000000180068cb4     node_snap7_client.obj
 0002:00015cb4       $chain$7$??$?6U?$char_traits@D@std@@@std@@YAAEAV?$basic_ostream@DU?$char_traits@D@std@@@0@AEAV10@PEBD@Z 0000000180068cb4     node_snap7_client.obj
 0002:00015cc4       $chain$6$??$?6U?$char_traits@D@std@@@std@@YAAEAV?$basic_ostream@DU?$char_traits@D@std@@@0@AEAV10@PEBD@Z 0000000180068cc4     node_snap7_client.obj
 0002:00015ce4       $unwind$?_Getcat@?$num_put@DV?$ostreambuf_iterator@DU?$char_traits@D@std@@@std@@@std@@SA_KPEAPEBVfacet@locale@2@PEBV42@@Z 0000000180068ce4     node_snap7_client.obj
 0002:00015ce4       $unwind$?_Getcat@?$numpunct@D@std@@SA_KPEAPEBVfacet@locale@2@PEBV42@@Z 0000000180068ce4     node_snap7_client.obj
 0002:00015cf4       $chain$0$?_Getcat@?$numpunct@D@std@@SA_KPEAPEBVfacet@locale@2@PEBV42@@Z 0000000180068cf4     node_snap7_client.obj
 0002:00015d08       $chain$1$?_Getcat@?$numpunct@D@std@@SA_KPEAPEBVfacet@locale@2@PEBV42@@Z 0000000180068d08     node_snap7_client.obj
 0002:00015d18       $chain$0$?_Getcat@?$num_put@DV?$ostreambuf_iterator@DU?$char_traits@D@std@@@std@@@std@@SA_KPEAPEBVfacet@locale@2@PEBV42@@Z 0000000180068d18     node_snap7_client.obj
 0002:00015d2c       $chain$1$?_Getcat@?$num_put@DV?$ostreambuf_iterator@DU?$char_traits@D@std@@@std@@@std@@SA_KPEAPEBVfacet@locale@2@PEBV42@@Z 0000000180068d2c     node_snap7_client.obj
 0002:00015d3c       $unwind$?_Init@?$numpunct@D@std@@IEAAXAEBV_Locinfo@2@_N@Z 0000000180068d3c     node_snap7_client.obj
 0002:00015d54       $unwind$Cli_ErrorText      0000000180068d54     snap7:snap7_libmain.obj
 0002:00015d6c       $stateUnwindMap$Cli_ErrorText 0000000180068d6c     snap7:snap7_libmain.obj
 0002:00015d84       $tryMap$Cli_ErrorText      0000000180068d84     snap7:snap7_libmain.obj
 0002:00015d98       $handlerMap$0$Cli_ErrorText 0000000180068d98     snap7:snap7_libmain.obj
 0002:00015db0       $ip2state$Cli_ErrorText    0000000180068db0     snap7:snap7_libmain.obj
 0002:00015de0       $unwind$Cli_ErrorText$catch$1 0000000180068de0     snap7:snap7_libmain.obj
 0002:00015df0       $unwind$Cli_AsDBWrite      0000000180068df0     snap7:snap7_libmain.obj
 0002:00015df0       $unwind$_raise_exc         0000000180068df0     libucrt:fpexcept.obj
 0002:00015df0       $unwind$Cli_AsTMWrite      0000000180068df0     snap7:snap7_libmain.obj
 0002:00015df0       $unwind$?__scrt_throw_std_bad_array_new_length@@YAXXZ 0000000180068df0     LIBCMT:throw_bad_alloc.obj
 0002:00015df0       $unwind$Cli_AsABWrite      0000000180068df0     snap7:snap7_libmain.obj
 0002:00015df0       $unwind$_raise_excf        0000000180068df0     libucrt:fpexcept.obj
 0002:00015df0       $unwind$?_Xbad_alloc@std@@YAXXZ 0000000180068df0     libcpmt:xthrow.obj
 0002:00015df0       $unwind$?_Xlength_error@std@@YAXPEBD@Z 0000000180068df0     libcpmt:xthrow.obj
 0002:00015df0       $unwind$__dcrt_lowio_initialize_console_output 0000000180068df0     libucrt:initcon.obj
 0002:00015df0       $unwind$Cli_AsMBWrite      0000000180068df0     snap7:snap7_libmain.obj
 0002:00015df0       $unwind$Cli_AsCTWrite      0000000180068df0     snap7:snap7_libmain.obj
 0002:00015df0       $unwind$?_Xout_of_range@std@@YAXPEBD@Z 0000000180068df0     libcpmt:xthrow.obj
 0002:00015df0       $unwind$?__scrt_throw_std_bad_alloc@@YAXXZ 0000000180068df0     LIBCMT:throw_bad_alloc.obj
 0002:00015df0       $unwind$Cli_AsEBWrite      0000000180068df0     snap7:snap7_libmain.obj
 0002:00015df8       $chain$0$Srv_StartTo       0000000180068df8     snap7:snap7_libmain.obj
 0002:00015e0c       $chain$1$Srv_StartTo       0000000180068e0c     snap7:snap7_libmain.obj
 0002:00015e1c       $unwind$Srv_ErrorText      0000000180068e1c     snap7:snap7_libmain.obj
 0002:00015e34       $stateUnwindMap$Srv_ErrorText 0000000180068e34     snap7:snap7_libmain.obj
 0002:00015e4c       $tryMap$Srv_ErrorText      0000000180068e4c     snap7:snap7_libmain.obj
 0002:00015e60       $handlerMap$0$Srv_ErrorText 0000000180068e60     snap7:snap7_libmain.obj
 0002:00015e78       $ip2state$Srv_ErrorText    0000000180068e78     snap7:snap7_libmain.obj
 0002:00015ea8       $unwind$Srv_ErrorText$catch$1 0000000180068ea8     snap7:snap7_libmain.obj
 0002:00015eb8       $unwind$Srv_EventText      0000000180068eb8     snap7:snap7_libmain.obj
 0002:00015ed0       $stateUnwindMap$Srv_EventText 0000000180068ed0     snap7:snap7_libmain.obj
 0002:00015ee8       $tryMap$Srv_EventText      0000000180068ee8     snap7:snap7_libmain.obj
 0002:00015efc       $handlerMap$0$Srv_EventText 0000000180068efc     snap7:snap7_libmain.obj
 0002:00015f10       $ip2state$Srv_EventText    0000000180068f10     snap7:snap7_libmain.obj
 0002:00015f40       $unwind$Srv_EventText$catch$1 0000000180068f40     snap7:snap7_libmain.obj
 0002:00015f50       $unwind$Par_ErrorText      0000000180068f50     snap7:snap7_libmain.obj
 0002:00015f68       $stateUnwindMap$Par_ErrorText 0000000180068f68     snap7:snap7_libmain.obj
 0002:00015f80       $tryMap$Par_ErrorText      0000000180068f80     snap7:snap7_libmain.obj
 0002:00015f94       $handlerMap$0$Par_ErrorText 0000000180068f94     snap7:snap7_libmain.obj
 0002:00015fa8       $ip2state$Par_ErrorText    0000000180068fa8     snap7:snap7_libmain.obj
 0002:00015fd8       $unwind$Par_ErrorText$catch$1 0000000180068fd8     snap7:snap7_libmain.obj
 0002:00015fe8       $unwind$?ServersManager_GetServer@@YAHIAEAPEAVTConnectionServer@@@Z 0000000180068fe8     snap7:s7_partner.obj
 0002:00016004       $stateUnwindMap$?ServersManager_GetServer@@YAHIAEAPEAVTConnectionServer@@@Z 0000000180069004     snap7:s7_partner.obj
 0002:00016010       $ip2state$?ServersManager_GetServer@@YAHIAEAPEAVTConnectionServer@@@Z 0000000180069010     snap7:s7_partner.obj
 0002:00016028       $unwind$_IsNonwritableInCurrentImage$filt$0 0000000180069028     LIBCMT:pesect.obj
 0002:00016028       $unwind$?fin$0@?0???$?RV<lambda_7a5ef57ff966f610505f1d28a3d40618>@@AEAV<lambda_b721fa326cdb32351d23dfa67958c160>@@V<lambda_5e0fb27672408a07956fe59e48ccb2aa>@@@?$__crt_seh_guarded_call@H@@QEAAH$$QEAV<lambda_7a5ef57ff966f610505f1d28a3d40618>@@AEAV<lambda_b721fa326cdb32351d23dfa67958c160>@@$$QEAV<lambda_5e0fb27672408a07956fe59e48ccb2aa>@@@Z@4HA 0000000180069028     libucrt:setvbuf.obj
 0002:00016028       $unwind$?dtor$4@?0??TxtStartSize@@YA?AV?$basic_string@DU?$char_traits@D@std@@V?$allocator@D@2@@std@@AEAUTSrvEvent@@@Z@4HA 0000000180069028     snap7:s7_text.obj
 0002:00016028       $unwind$?dtor$0@?0??ClockText@@YA?AV?$basic_string@DU?$char_traits@D@std@@V?$allocator@D@2@@std@@G@Z@4HA 0000000180069028     snap7:s7_text.obj
 0002:00016028       $unwind$__CxxCallCatchBlock$filt$0 0000000180069028     libvcruntime:frame.obj
 0002:00016028       $unwind$_isindst$fin$0     0000000180069028     libucrt:tzset.obj
 0002:00016028       $unwind$?fin$0@?0???$?RV<lambda_b8c45f8f788dd370798f47cfe8ac3a86>@@AEAV<lambda_4e60a939b0d047cfe11ddc22648dfba9>@@V<lambda_332c3edc96d0294ec56c57d38c1cdfd5>@@@?$__crt_seh_guarded_call@H@@QEAAH$$QEAV<lambda_b8c45f8f788dd370798f47cfe8ac3a86>@@AEAV<lambda_4e60a939b0d047cfe11ddc22648dfba9>@@$$QEAV<lambda_332c3edc96d0294ec56c57d38c1cdfd5>@@@Z@4HA 0000000180069028     libucrt:onexit.obj
 0002:00016028       $unwind$__tzset$fin$0      0000000180069028     libucrt:tzset.obj
 0002:00016028       $unwind$?dtor$0@?0??TxtArea@@YA?AV?$basic_string@DU?$char_traits@D@std@@V?$allocator@D@2@@std@@AEAUTSrvEvent@@@Z@4HA 0000000180069028     snap7:s7_text.obj
 0002:00016028       $unwind$?dtor$5@?0??ReadSZLText@@YA?AV?$basic_string@DU?$char_traits@D@std@@V?$allocator@D@2@@std@@AEAUTSrvEvent@@@Z@4HA 0000000180069028     snap7:s7_text.obj
 0002:00016028       $unwind$?fin$0@?0???$?RV<lambda_e24bbb7b643b32fcea6fa61b31d4c984>@@AEAV<lambda_275893d493268fdec8709772e3fcec0e>@@V<lambda_9d71df4d7cf3f480f8d633942495c3b0>@@@?$__crt_seh_guarded_call@H@@QEAAH$$QEAV<lambda_e24bbb7b643b32fcea6fa61b31d4c984>@@AEAV<lambda_275893d493268fdec8709772e3fcec0e>@@$$QEAV<lambda_9d71df4d7cf3f480f8d633942495c3b0>@@@Z@4HA 0000000180069028     libucrt:onexit.obj
 0002:00016028       $unwind$?fin$0@?0???$?RV<lambda_99476a1ad63dd22509b5d3e65b0ffc95>@@AEAV<lambda_ad1ced32f4ac17aa236e5ef05d6b3b7c>@@V<lambda_f7424dd8d45958661754dc4f2697e9c3>@@@?$__crt_seh_guarded_call@X@@QEAAX$$QEAV<lambda_99476a1ad63dd22509b5d3e65b0ffc95>@@AEAV<lambda_ad1ced32f4ac17aa236e5ef05d6b3b7c>@@$$QEAV<lambda_f7424dd8d45958661754dc4f2697e9c3>@@@Z@4HA 0000000180069028     libucrt:mbctype.obj
 0002:00016028       $unwind$fclose$fin$0       0000000180069028     libucrt:fclose.obj
 0002:00016028       $unwind$?dtor$0@?0??UploadText@@YA?AV?$basic_string@DU?$char_traits@D@std@@V?$allocator@D@2@@std@@AEAUTSrvEvent@@@Z@4HA 0000000180069028     snap7:s7_text.obj
 0002:00016028       $unwind$__acrt_uninitialize_locale$fin$0 0000000180069028     libucrt:wsetlocale.obj
 0002:00016028       $unwind$?dtor$2@?0??PDUText@@YA?AV?$basic_string@DU?$char_traits@D@std@@V?$allocator@D@2@@std@@AEAUTSrvEvent@@@Z@4HA 0000000180069028     snap7:s7_text.obj
 0002:00016028       $unwind$?dtor$0@?0??TxtDataResult@@YA?AV?$basic_string@DU?$char_traits@D@std@@V?$allocator@D@2@@std@@AEAUTSrvEvent@@@Z@4HA 0000000180069028     snap7:s7_text.obj
 0002:00016028       $unwind$common_flush_all$fin$0 0000000180069028     libucrt:fflush.obj
 0002:00016028       $unwind$_write$fin$0       0000000180069028     libucrt:write.obj
 0002:00016028       $unwind$?dtor$1@?0??ControlText@@YA?AV?$basic_string@DU?$char_traits@D@std@@V?$allocator@D@2@@std@@G@Z@4HA 0000000180069028     snap7:s7_text.obj
 0002:00016028       $unwind$fflush$fin$0       0000000180069028     libucrt:fflush.obj
 0002:00016028       $unwind$?dtor$0@?0??StrBlockType@@YA?AV?$basic_string@DU?$char_traits@D@std@@V?$allocator@D@2@@std@@G@Z@4HA 0000000180069028     snap7:s7_text.obj
 0002:00016028       $unwind$?dtor$0@?0??TcpTextOf@@YA?AV?$basic_string@DU?$char_traits@D@std@@V?$allocator@D@2@@std@@H@Z@4HA 0000000180069028     snap7:s7_text.obj
 0002:00016028       $unwind$?dtor$9@?0??TcpServerEventText@@YA?AV?$basic_string@DU?$char_traits@D@std@@V?$allocator@D@2@@std@@AEAUTSrvEvent@@@Z@4HA 0000000180069028     snap7:s7_text.obj
 0002:00016028       $unwind$__acrt_update_thread_locale_data$fin$0 0000000180069028     libucrt:locale_refcounting.obj
 0002:00016028       $unwind$?dtor$12@?0??BlockInfoText@@YA?AV?$basic_string@DU?$char_traits@D@std@@V?$allocator@D@2@@std@@AEAUTSrvEvent@@@Z@4HA 0000000180069028     snap7:s7_text.obj
 0002:00016028       $unwind$?dtor$4@?0??SenderText@@YA?AV?$basic_string@DU?$char_traits@D@std@@V?$allocator@D@2@@std@@AEAUTSrvEvent@@@Z@4HA 0000000180069028     snap7:s7_text.obj
 0002:00016028       $unwind$?fin$0@?0???$?RV<lambda_630b2aca97f6d20d5b5ea6529ea6b6af>@@AEAV<lambda_af91936f1d075d609f72d9d8cba980af>@@V<lambda_e82fa975f615b5c7c7b0e4d178fdae67>@@@?$__crt_seh_guarded_call@H@@QEAAH$$QEAV<lambda_630b2aca97f6d20d5b5ea6529ea6b6af>@@AEAV<lambda_af91936f1d075d609f72d9d8cba980af>@@$$QEAV<lambda_e82fa975f615b5c7c7b0e4d178fdae67>@@@Z@4HA 0000000180069028     libucrt:winapi_thunks.obj
 0002:00016028       $unwind$?dtor$0@?0??ParTextOf@@YA?AV?$basic_string@DU?$char_traits@D@std@@V?$allocator@D@2@@std@@H@Z@4HA 0000000180069028     snap7:s7_text.obj
 0002:00016028       $unwind$_query_new_handler$fin$0 0000000180069028     libucrt:new_handler.obj
 0002:00016028       $unwind$?dtor$0@?0??ServersManager_GetServer@@YAHIAEAPEAVTConnectionServer@@@Z@4HA 0000000180069028     snap7:s7_partner.obj
 0002:00016028       $unwind$?dtor$0@?0??CreateWorkerSocket@TSnap7Server@@MEAAPEAVTMsgSocket@@_K@Z@4HA 0000000180069028     snap7:s7_server.obj
 0002:00016028       $unwind$?dtor$0@?0??SecurityText@@YA?AV?$basic_string@DU?$char_traits@D@std@@V?$allocator@D@2@@std@@AEAUTSrvEvent@@@Z@4HA 0000000180069028     snap7:s7_text.obj
 0002:00016028       $unwind$?dtor$0@?0??StartListener@TCustomMsgServer@@AEAAHXZ@4HA 0000000180069028     snap7:snap_tcpsrvr.obj
 0002:00016028       $unwind$common_flush_all$fin$1 0000000180069028     libucrt:fflush.obj
 0002:00016028       $unwind$?dtor$0@?0??SrvTextOf@@YA?AV?$basic_string@DU?$char_traits@D@std@@V?$allocator@D@2@@std@@H@Z@4HA 0000000180069028     snap7:s7_text.obj
 0002:00016028       $unwind$?dtor$2@?0???0TCustomMsgServer@@QEAA@XZ@4HA 0000000180069028     snap7:snap_tcpsrvr.obj
 0002:00016028       $unwind$?fin$0@?0??dllmain_crt_process_attach@@YAHQEAUHINSTANCE__@@QEAX@Z@4HA 0000000180069028     LIBCMT:dll_dllmain.obj
 0002:00016028       $unwind$?dtor$0@?0??IpAddressToString@@YA?AV?$basic_string@DU?$char_traits@D@std@@V?$allocator@D@2@@std@@H@Z@4HA 0000000180069028     snap7:s7_text.obj
 0002:00016028       $unwind$__acrt_lowio_ensure_fh_exists$fin$0 0000000180069028     libucrt:osfinfo.obj
 0002:00016028       $unwind$?dtor$0@?0??NumToString@@YA?AV?$basic_string@DU?$char_traits@D@std@@V?$allocator@D@2@@std@@HHI@Z@4HA 0000000180069028     snap7:s7_text.obj
 0002:00016028       $unwind$?dtor$0@?0??DownloadText@@YA?AV?$basic_string@DU?$char_traits@D@std@@V?$allocator@D@2@@std@@AEAUTSrvEvent@@@Z@4HA 0000000180069028     snap7:s7_text.obj
 0002:00016028       $unwind$?fin$0@?0??dllmain_crt_process_detach@@YAH_N@Z@4HA 0000000180069028     LIBCMT:dll_dllmain.obj
 0002:00016028       $unwind$?fin$0@?0???$?RV<lambda_d67e8342c384adda8f857579ab50b2ae>@@AEAV<lambda_30712929f77e709619002f448b6a9510>@@V<lambda_4525336fd7e478d965fb7ca7a337cad8>@@@?$__crt_seh_guarded_call@X@@QEAAX$$QEAV<lambda_d67e8342c384adda8f857579ab50b2ae>@@AEAV<lambda_30712929f77e709619002f448b6a9510>@@$$QEAV<lambda_4525336fd7e478d965fb7ca7a337cad8>@@@Z@4HA 0000000180069028     libucrt:wsetlocale.obj
 0002:00016028       $unwind$?dtor$0@?0???$?HDU?$char_traits@D@std@@V?$allocator@D@1@@std@@YA?AV?$basic_string@DU?$char_traits@D@std@@V?$allocator@D@2@@0@PEBD$$QEAV10@@Z@4HA 0000000180069028     snap7:s7_text.obj
 0002:00016028       $unwind$?filt$0@?0??common_exit@@YAXHW4_crt_exit_cleanup_mode@@W4_crt_exit_return_mode@@@Z@4HA 0000000180069028     libucrt:exit.obj
 0002:00016028       $unwind$__FrameUnwindToState$filt$0 0000000180069028     libvcruntime:frame.obj
 0002:00016028       $unwind$__FrameUnwindToState$fin$1 0000000180069028     libvcruntime:frame.obj
 0002:00016028       $unwind$?dtor$0@?0??ErrParText@@YA?AV?$basic_string@DU?$char_traits@D@std@@V?$allocator@D@2@@std@@H@Z@4HA 0000000180069028     snap7:s7_text.obj
 0002:00016028       $unwind$?dtor$0@?0???$?HDU?$char_traits@D@std@@V?$allocator@D@1@@std@@YA?AV?$basic_string@DU?$char_traits@D@std@@V?$allocator@D@2@@0@PEBDAEBV10@@Z@4HA 0000000180069028     snap7:s7_text.obj
 0002:00016028       $unwind$?dtor$0@?0??GetServer@TServersManager@@QEAAHIAEAPEAVTConnectionServer@@@Z@4HA 0000000180069028     snap7:s7_partner.obj
 0002:00016028       $unwind$?fin$0@?0???$common_lseek@_J@@YA_JH_JH@Z@4HA 0000000180069028     libucrt:lseek.obj
 0002:00016028       $unwind$?dtor$0@?0??CreateWorkerSocket@TCustomMsgServer@@MEAAPEAVTMsgSocket@@_K@Z@4HA 0000000180069028     snap7:snap_tcpsrvr.obj
 0002:00016028       $unwind$?dtor$0@?0???$?HDU?$char_traits@D@std@@V?$allocator@D@1@@std@@YA?AV?$basic_string@DU?$char_traits@D@std@@V?$allocator@D@2@@0@$$QEAV10@PEBD@Z@4HA 0000000180069028     snap7:s7_text.obj
 0002:00016028       $unwind$?fin$0@?0???$?RV<lambda_fb3a7dec4e47f37f22dae91bb15c9095>@@AEAV<lambda_698284760c8add0bfb0756c19673e34b>@@V<lambda_dfb8eca1e75fef3034a8fb18dd509707>@@@?$__crt_seh_guarded_call@X@@QEAAX$$QEAV<lambda_fb3a7dec4e47f37f22dae91bb15c9095>@@AEAV<lambda_698284760c8add0bfb0756c19673e34b>@@$$QEAV<lambda_dfb8eca1e75fef3034a8fb18dd509707>@@@Z@4HA 0000000180069028     libucrt:per_thread_data.obj
 0002:00016028       $unwind$_fcloseall$fin$0   0000000180069028     libucrt:closeall.obj
 0002:00016028       $unwind$?dtor$0@?0???$?HDU?$char_traits@D@std@@V?$allocator@D@1@@std@@YA?AV?$basic_string@DU?$char_traits@D@std@@V?$allocator@D@2@@0@AEBV10@PEBD@Z@4HA 0000000180069028     snap7:s7_text.obj
 0002:00016028       $unwind$?dtor$0@?0??Start@TConnectionServer@@IEAAHXZ@4HA 0000000180069028     snap7:s7_partner.obj
 0002:00016028       $unwind$?fin$0@?0???$?RV<lambda_c36588078e9f5dfd39652860aa6b3aaf>@@AEAV<lambda_ec61778202f4f5fc7e7711acc23c3bca>@@V<lambda_dc9d2797ccde5d239b4a0efae8ebd7db>@@@?$__crt_seh_guarded_call@P6AXH@Z@@QEAAP6AXH@Z$$QEAV<lambda_c36588078e9f5dfd39652860aa6b3aaf>@@AEAV<lambda_ec61778202f4f5fc7e7711acc23c3bca>@@$$QEAV<lambda_dc9d2797ccde5d239b4a0efae8ebd7db>@@@Z@4HA 0000000180069028     libucrt:signal.obj
 0002:00016028       $unwind$?fin$0@?0???$?RV<lambda_bfedae4ebbf01fab1bb6dcc6a9e276e0>@@AEAV<lambda_2fe9b910cf3cbf4a0ab98a02ba45b3ec>@@V<lambda_237c231691f317818eb88cc1d5d642d6>@@@?$__crt_seh_guarded_call@H@@QEAAH$$QEAV<lambda_bfedae4ebbf01fab1bb6dcc6a9e276e0>@@AEAV<lambda_2fe9b910cf3cbf4a0ab98a02ba45b3ec>@@$$QEAV<lambda_237c231691f317818eb88cc1d5d642d6>@@@Z@4HA 0000000180069028     libucrt:close.obj
 0002:00016028       $unwind$raise$fin$0        0000000180069028     libucrt:signal.obj
 0002:00016028       $unwind$?dtor$0@?0???$?HDU?$char_traits@D@std@@V?$allocator@D@1@@std@@YA?AV?$basic_string@DU?$char_traits@D@std@@V?$allocator@D@2@@0@$$QEAV10@0@Z@4HA 0000000180069028     snap7:s7_text.obj
 0002:00016028       $unwind$__acrt_update_thread_multibyte_data$fin$0 0000000180069028     libucrt:mbctype.obj
 0002:00016028       $unwind$?fin$0@?0???$?RV<lambda_72d1df2b273a38828b1ce30cbf4cdab5>@@AEAV<lambda_876a65b173b8412d3a47c70a915b0cf4>@@V<lambda_41932305e351933ebe8f8be3ed8bb5dc>@@@?$__crt_seh_guarded_call@X@@QEAAX$$QEAV<lambda_72d1df2b273a38828b1ce30cbf4cdab5>@@AEAV<lambda_876a65b173b8412d3a47c70a915b0cf4>@@$$QEAV<lambda_41932305e351933ebe8f8be3ed8bb5dc>@@@Z@4HA 0000000180069028     libucrt:per_thread_data.obj
 0002:00016028       $unwind$?fin$0@?0???$?RV<lambda_b521505b218e5242e90febf6bfebc422>@@AEAV<lambda_6978c1fb23f02e42e1d9e99668cc68aa>@@V<lambda_314360699dd331753a4119843814e9a7>@@@?$__crt_seh_guarded_call@H@@QEAAH$$QEAV<lambda_b521505b218e5242e90febf6bfebc422>@@AEAV<lambda_6978c1fb23f02e42e1d9e99668cc68aa>@@$$QEAV<lambda_314360699dd331753a4119843814e9a7>@@@Z@4HA 0000000180069028     libucrt:commit.obj
 0002:00016028       $unwind$__acrt_initialize_lowio$fin$0 0000000180069028     libucrt:ioinit.obj
 0002:00016028       $unwind$common_control87$filt$0 0000000180069028     libucrt:ieee.obj
 0002:00016028       $unwind$?dtor$1@?0??TimeToString@@YA?AV?$basic_string@DU?$char_traits@D@std@@V?$allocator@D@2@@std@@_J@Z@4HA 0000000180069028     snap7:s7_text.obj
 0002:00016028       $unwind$_ctrlfp$filt$0     0000000180069028     libucrt:fpctrl.obj
 0002:00016028       $unwind$?dtor$0@?0??CliTextOf@@YA?AV?$basic_string@DU?$char_traits@D@std@@V?$allocator@D@2@@std@@H@Z@4HA 0000000180069028     snap7:s7_text.obj
 0002:00016028       $unwind$?dtor$0@?0???$?HDU?$char_traits@D@std@@V?$allocator@D@1@@std@@YA?AV?$basic_string@DU?$char_traits@D@std@@V?$allocator@D@2@@0@$$QEAV10@AEBV10@@Z@4HA 0000000180069028     snap7:s7_text.obj
 0002:00016028       $unwind$?fin$0@?0???$?RV<lambda_5e887d1dcbef67a5eb4283622ba103bf>@@AEAV<lambda_4466841279450cc726390878d4a41900>@@V<lambda_341c25c0346d94847f1f3c463c57e077>@@@?$__crt_seh_guarded_call@X@@QEAAX$$QEAV<lambda_5e887d1dcbef67a5eb4283622ba103bf>@@AEAV<lambda_4466841279450cc726390878d4a41900>@@$$QEAV<lambda_341c25c0346d94847f1f3c463c57e077>@@@Z@4HA 0000000180069028     libucrt:per_thread_data.obj
 0002:00016028       $unwind$?fin$0@?0???$?RV<lambda_5df02c53a8f32f81fd64e5bbb78039f1>@@AEAV<lambda_2af78c5f5901b1372d98f9ab3177dfa6>@@AEAV<lambda_f51fe5fd7c79a33db34fc9310f277369>@@@?$__crt_seh_guarded_call@X@@QEAAX$$QEAV<lambda_5df02c53a8f32f81fd64e5bbb78039f1>@@AEAV<lambda_2af78c5f5901b1372d98f9ab3177dfa6>@@AEAV<lambda_f51fe5fd7c79a33db34fc9310f277369>@@@Z@4HA 0000000180069028     libucrt:wsetlocale.obj
 0002:00016028       $unwind$?dtor$29@?0??EvtSrvText@@YA?AV?$basic_string@DU?$char_traits@D@std@@V?$allocator@D@2@@std@@AEAUTSrvEvent@@@Z@4HA 0000000180069028     snap7:s7_text.obj
 0002:00016028       $unwind$?dtor$0@?0??ErrSrvText@@YA?AV?$basic_string@DU?$char_traits@D@std@@V?$allocator@D@2@@std@@H@Z@4HA 0000000180069028     snap7:s7_text.obj
 0002:00016028       $unwind$__DestructExceptionObject$filt$0 0000000180069028     libvcruntime:frame.obj
 0002:00016028       $unwind$?dtor$0@?0??ErrCliText@@YA?AV?$basic_string@DU?$char_traits@D@std@@V?$allocator@D@2@@std@@H@Z@4HA 0000000180069028     snap7:s7_text.obj
 0002:00016028       $unwind$?fin$0@?0???$?RV<lambda_46352004c1216016012b18bd6f87e700>@@AEAV<lambda_3bd07e1a1191394380780325891bf33f>@@V<lambda_334532d3f185bcaa59b5be82d7d22bff>@@@?$__crt_seh_guarded_call@X@@QEAAX$$QEAV<lambda_46352004c1216016012b18bd6f87e700>@@AEAV<lambda_3bd07e1a1191394380780325891bf33f>@@$$QEAV<lambda_334532d3f185bcaa59b5be82d7d22bff>@@@Z@4HA 0000000180069028     libucrt:per_thread_data.obj
 0002:00016028       $unwind$?fin$0@?0???$?RV<lambda_7b91131dde12e1c3dfc74ff76b3f2eac>@@AEAV<lambda_dd75445284c072d0bd3768540cc698fa>@@V<lambda_16bc4ecb55b4718497c16bceaea2ceaf>@@@?$__crt_seh_guarded_call@H@@QEAAH$$QEAV<lambda_7b91131dde12e1c3dfc74ff76b3f2eac>@@AEAV<lambda_dd75445284c072d0bd3768540cc698fa>@@$$QEAV<lambda_16bc4ecb55b4718497c16bceaea2ceaf>@@@Z@4HA 0000000180069028     libucrt:output.obj
 0002:00016028       $unwind$?dtor$0@?0??IsoTextOf@@YA?AV?$basic_string@DU?$char_traits@D@std@@V?$allocator@D@2@@std@@H@Z@4HA 0000000180069028     snap7:s7_text.obj
 0002:00016028       $unwind$?fin$1@?0??common_exit@@YAXHW4_crt_exit_cleanup_mode@@W4_crt_exit_return_mode@@@Z@4HA 0000000180069028     libucrt:exit.obj
 0002:00016030       $chain$1$??1TServersManager@@QEAA@XZ 0000000180069030     snap7:s7_partner.obj
 0002:00016048       $chain$5$??1TServersManager@@QEAA@XZ 0000000180069048     snap7:s7_partner.obj
 0002:00016068       $chain$6$??1TServersManager@@QEAA@XZ 0000000180069068     snap7:s7_partner.obj
 0002:00016078       $chain$7$??1TServersManager@@QEAA@XZ 0000000180069078     snap7:s7_partner.obj
 0002:00016088       $unwind$?GetServer@TServersManager@@QEAAHIAEAPEAVTConnectionServer@@@Z 0000000180069088     snap7:s7_partner.obj
 0002:000160a4       $stateUnwindMap$?GetServer@TServersManager@@QEAAHIAEAPEAVTConnectionServer@@@Z 00000001800690a4     snap7:s7_partner.obj
 0002:000160b0       $ip2state$?GetServer@TServersManager@@QEAAHIAEAPEAVTConnectionServer@@@Z 00000001800690b0     snap7:s7_partner.obj
 0002:000160c8       $chain$2$?Execute@TConnListenerThread@@UEAAXXZ 00000001800690c8     snap7:s7_partner.obj
 0002:000160e4       $chain$3$?Execute@TConnListenerThread@@UEAAXXZ 00000001800690e4     snap7:s7_partner.obj
 0002:000160f4       $unwind$?Start@TConnectionServer@@IEAAHXZ 00000001800690f4     snap7:s7_partner.obj
 0002:0001610c       $stateUnwindMap$?Start@TConnectionServer@@IEAAHXZ 000000018006910c     snap7:s7_partner.obj
 0002:0001610c       $stateUnwindMap$?StartListener@TCustomMsgServer@@AEAAHXZ 000000018006910c     snap7:snap_tcpsrvr.obj
 0002:00016118       $ip2state$?Start@TConnectionServer@@IEAAHXZ 0000000180069118     snap7:s7_partner.obj
 0002:00016130       $chain$0$?Stop@TConnectionServer@@QEAAXXZ 0000000180069130     snap7:s7_partner.obj
 0002:00016144       $chain$1$?Stop@TConnectionServer@@QEAAXXZ 0000000180069144     snap7:s7_partner.obj
 0002:00016154       $chain$0$?RegisterPartner@TConnectionServer@@QEAAHPEAVTSnap7Partner@@@Z 0000000180069154     snap7:s7_partner.obj
 0002:00016168       $chain$3$?RegisterPartner@TConnectionServer@@QEAAHPEAVTSnap7Partner@@@Z 0000000180069168     snap7:s7_partner.obj
 0002:00016168       $chain$1$?RegisterPartner@TConnectionServer@@QEAAHPEAVTSnap7Partner@@@Z 0000000180069168     snap7:s7_partner.obj
 0002:00016178       $chain$2$?RegisterPartner@TConnectionServer@@QEAAHPEAVTSnap7Partner@@@Z 0000000180069178     snap7:s7_partner.obj
 0002:0001618c       $unwind$?Incoming@TConnectionServer@@IEAAX_K@Z 000000018006918c     snap7:s7_partner.obj
 0002:000161a4       $unwind$?Execute@TPartnerThread@@MEAAXXZ 00000001800691a4     snap7:s7_partner.obj
 0002:000161b8       $chain$2$?Execute@TPartnerThread@@MEAAXXZ 00000001800691b8     snap7:s7_partner.obj
 0002:000161d4       $chain$3$?Execute@TPartnerThread@@MEAAXXZ 00000001800691d4     snap7:s7_partner.obj
 0002:000161e4       $unwind$??0TSnap7Partner@@QEAA@_N@Z 00000001800691e4     snap7:s7_partner.obj
 0002:000161fc       $stateUnwindMap$??0TSnap7Partner@@QEAA@_N@Z 00000001800691fc     snap7:s7_partner.obj
 0002:00016208       $ip2state$??0TSnap7Partner@@QEAA@_N@Z 0000000180069208     snap7:s7_partner.obj
 0002:00016220       $unwind$?SckBind@TMsgSocket@@QEAAHXZ 0000000180069220     snap7:snap_msgsock.obj
 0002:00016220       $unwind$?Start@TSnap7Partner@@QEAAHXZ 0000000180069220     snap7:s7_partner.obj
 0002:00016230       $chain$0$?Stop@TSnap7Partner@@QEAAHXZ 0000000180069230     snap7:s7_partner.obj
 0002:00016244       $chain$1$?Stop@TSnap7Partner@@QEAAHXZ 0000000180069244     snap7:s7_partner.obj
 0002:00016258       $chain$2$?Stop@TSnap7Partner@@QEAAHXZ 0000000180069258     snap7:s7_partner.obj
 0002:00016268       $chain$3$?Stop@TSnap7Partner@@QEAAHXZ 0000000180069268     snap7:s7_partner.obj
 0002:00016278       $unwind$?PerformFunctionNegotiate@TSnap7Partner@@IEAA_NXZ 0000000180069278     snap7:s7_partner.obj
 0002:0001628c       $unwind$?CloseWorker@TSnap7Partner@@AEAAXXZ 000000018006928c     snap7:s7_partner.obj
 0002:000162a0       $stateUnwindMap$?ThreadProc@@YAKPEAX@Z 00000001800692a0     snap7:snap_threads.obj
 0002:000162a0       $stateUnwindMap$?ForceClose@TMsgSocket@@QEAAXXZ 00000001800692a0     snap7:snap_msgsock.obj
 0002:000162a0       $stateUnwindMap$?PickEvent@TCustomMsgServer@@QEAA_NPEAX@Z 00000001800692a0     snap7:snap_tcpsrvr.obj
 0002:000162a0       $stateUnwindMap$?DoWriteArea@TSnap7Server@@IEAA_NHHHHHHPEAX@Z 00000001800692a0     snap7:s7_server.obj
 0002:000162a0       $stateUnwindMap$?DoEvent@TCustomMsgServer@@MEAAXHIGGGGG@Z 00000001800692a0     snap7:snap_tcpsrvr.obj
 0002:000162a0       $stateUnwindMap$?DoCompletion@TSnap7Client@@IEAAXXZ 00000001800692a0     snap7:s7_client.obj
 0002:000162a0       $stateUnwindMap$?CloseWorker@TSnap7Partner@@AEAAXXZ 00000001800692a0     snap7:s7_partner.obj
 0002:000162a0       $stateUnwindMap$?Execute@TMsgWorkerThread@@UEAAXXZ 00000001800692a0     snap7:snap_tcpsrvr.obj
 0002:000162a0       $stateUnwindMap$?CloseThread@TSnap7Client@@AEAAXXZ 00000001800692a0     snap7:s7_client.obj
 0002:000162a0       $stateUnwindMap$?KillAll@TCustomMsgServer@@IEAAXXZ 00000001800692a0     snap7:snap_tcpsrvr.obj
 0002:000162a0       $stateUnwindMap$?DoReadArea@TSnap7Server@@IEAA_NHHHHHHPEAX@Z 00000001800692a0     snap7:s7_server.obj
 0002:000162a0       $stateUnwindMap$?DoReadEvent@TSnap7Server@@IEAAXHIGGGGG@Z 00000001800692a0     snap7:s7_server.obj
 0002:000162b0       $tryMap$?CloseWorker@TSnap7Partner@@AEAAXXZ 00000001800692b0     snap7:s7_partner.obj
 0002:000162c4       $handlerMap$0$?CloseWorker@TSnap7Partner@@AEAAXXZ 00000001800692c4     snap7:s7_partner.obj
 0002:000162d8       $ip2state$?CloseWorker@TSnap7Partner@@AEAAXXZ 00000001800692d8     snap7:s7_partner.obj
 0002:000162f8       $unwind$?catch$0@?0??CloseWorker@TSnap7Partner@@AEAAXXZ@4HA 00000001800692f8     snap7:s7_partner.obj
 0002:00016308       $chain$3$?BlockSend@TSnap7Partner@@AEAA_NXZ 0000000180069308     snap7:s7_partner.obj
 0002:00016328       $chain$5$?BlockSend@TSnap7Partner@@AEAA_NXZ 0000000180069328     snap7:s7_partner.obj
 0002:00016340       $chain$6$?BlockSend@TSnap7Partner@@AEAA_NXZ 0000000180069340     snap7:s7_partner.obj
 0002:00016350       $chain$7$?BlockSend@TSnap7Partner@@AEAA_NXZ 0000000180069350     snap7:s7_partner.obj
 0002:00016360       $unwind$?PickData@TSnap7Partner@@AEAA_NXZ 0000000180069360     snap7:s7_partner.obj
 0002:00016370       $chain$1$?PickData@TSnap7Partner@@AEAA_NXZ 0000000180069370     snap7:s7_partner.obj
 0002:00016388       $chain$2$?PickData@TSnap7Partner@@AEAA_NXZ 0000000180069388     snap7:s7_partner.obj
 0002:00016398       $unwind$?Execute@TSnap7Partner@@MEAA_NXZ 0000000180069398     snap7:s7_partner.obj
 0002:000163a4       $chain$1$?Execute@TSnap7Partner@@MEAA_NXZ 00000001800693a4     snap7:s7_partner.obj
 0002:000163bc       $chain$2$?Execute@TSnap7Partner@@MEAA_NXZ 00000001800693bc     snap7:s7_partner.obj
 0002:000163d0       $unwind$?BRecv@TSnap7Partner@@QEAAHAEAIPEAXAEAHI@Z 00000001800693d0     snap7:s7_partner.obj
 0002:000163e8       $unwind$?CheckAsBRecvCompletion@TSnap7Partner@@QEAA_NAEAHAEAIPEAX0@Z 00000001800693e8     snap7:s7_partner.obj
 0002:000163f4       $unwind$?CloseThread@TSnap7Client@@AEAAXXZ 00000001800693f4     snap7:s7_client.obj
 0002:00016408       $tryMap$?CloseThread@TSnap7Client@@AEAAXXZ 0000000180069408     snap7:s7_client.obj
 0002:0001641c       $handlerMap$0$?CloseThread@TSnap7Client@@AEAAXXZ 000000018006941c     snap7:s7_client.obj
 0002:00016430       $ip2state$?CloseThread@TSnap7Client@@AEAAXXZ 0000000180069430     snap7:s7_client.obj
 0002:00016450       $unwind$?catch$0@?0??CloseThread@TSnap7Client@@AEAAXXZ@4HA 0000000180069450     snap7:s7_client.obj
 0002:00016460       $unwind$?OpenThread@TSnap7Client@@AEAAXXZ 0000000180069460     snap7:s7_client.obj
 0002:00016460       $unwind$?GetRemote@TMsgSocket@@AEAAXXZ 0000000180069460     snap7:snap_msgsock.obj
 0002:00016460       $unwind$?GetLocal@TMsgSocket@@AEAAXXZ 0000000180069460     snap7:snap_msgsock.obj
 0002:0001646c       $unwind$?DoCompletion@TSnap7Client@@IEAAXXZ 000000018006946c     snap7:s7_client.obj
 0002:0001647c       $tryMap$?DoCompletion@TSnap7Client@@IEAAXXZ 000000018006947c     snap7:s7_client.obj
 0002:00016490       $handlerMap$0$?DoCompletion@TSnap7Client@@IEAAXXZ 0000000180069490     snap7:s7_client.obj
 0002:000164a8       $ip2state$?DoCompletion@TSnap7Client@@IEAAXXZ 00000001800694a8     snap7:s7_client.obj
 0002:000164c8       $unwind$?catch$0@?0??DoCompletion@TSnap7Client@@IEAAXXZ@4HA 00000001800694c8     snap7:s7_client.obj
 0002:000164d8       $chain$0$?AsWriteArea@TSnap7Client@@QEAAHHHHHHPEAX@Z 00000001800694d8     snap7:s7_client.obj
 0002:000164ec       $chain$1$?AsWriteArea@TSnap7Client@@QEAAHHHHHHPEAX@Z 00000001800694ec     snap7:s7_client.obj
 0002:000164fc       $chain$0$?StartAsyncJob@TSnap7Client@@AEAAXXZ 00000001800694fc     snap7:s7_client.obj
 0002:00016510       $chain$1$?StartAsyncJob@TSnap7Client@@AEAAXXZ 0000000180069510     snap7:s7_client.obj
 0002:00016524       $chain$2$?StartAsyncJob@TSnap7Client@@AEAAXXZ 0000000180069524     snap7:s7_client.obj
 0002:00016534       $chain$3$?StartAsyncJob@TSnap7Client@@AEAAXXZ 0000000180069534     snap7:s7_client.obj
 0002:00016544       $chain$1$?opReadArea@TSnap7MicroClient@@AEAAHXZ 0000000180069544     snap7:s7_micro_client.obj
 0002:0001655c       $chain$6$?opReadArea@TSnap7MicroClient@@AEAAHXZ 000000018006955c     snap7:s7_micro_client.obj
 0002:00016580       $chain$7$?opReadArea@TSnap7MicroClient@@AEAAHXZ 0000000180069580     snap7:s7_micro_client.obj
 0002:00016594       $chain$8$?opReadArea@TSnap7MicroClient@@AEAAHXZ 0000000180069594     snap7:s7_micro_client.obj
 0002:000165a4       $chain$10$?opReadArea@TSnap7MicroClient@@AEAAHXZ 00000001800695a4     snap7:s7_micro_client.obj
 0002:000165bc       $chain$11$?opReadArea@TSnap7MicroClient@@AEAAHXZ 00000001800695bc     snap7:s7_micro_client.obj
 0002:000165cc       $unwind$?opWriteArea@TSnap7MicroClient@@AEAAHXZ 00000001800695cc     snap7:s7_micro_client.obj
 0002:000165d8       $chain$1$?opWriteArea@TSnap7MicroClient@@AEAAHXZ 00000001800695d8     snap7:s7_micro_client.obj
 0002:000165f0       $chain$3$?opWriteArea@TSnap7MicroClient@@AEAAHXZ 00000001800695f0     snap7:s7_micro_client.obj
 0002:00016608       $chain$4$?opWriteArea@TSnap7MicroClient@@AEAAHXZ 0000000180069608     snap7:s7_micro_client.obj
 0002:0001661c       $chain$6$?opWriteArea@TSnap7MicroClient@@AEAAHXZ 000000018006961c     snap7:s7_micro_client.obj
 0002:00016634       $chain$7$?opWriteArea@TSnap7MicroClient@@AEAAHXZ 0000000180069634     snap7:s7_micro_client.obj
 0002:00016644       $chain$8$?opWriteArea@TSnap7MicroClient@@AEAAHXZ 0000000180069644     snap7:s7_micro_client.obj
 0002:00016654       $chain$9$?opWriteArea@TSnap7MicroClient@@AEAAHXZ 0000000180069654     snap7:s7_micro_client.obj
 0002:00016664       $unwind$?opReadMultiVars@TSnap7MicroClient@@AEAAHXZ 0000000180069664     snap7:s7_micro_client.obj
 0002:0001667c       $chain$0$?opReadMultiVars@TSnap7MicroClient@@AEAAHXZ 000000018006967c     snap7:s7_micro_client.obj
 0002:00016690       $chain$1$?opReadMultiVars@TSnap7MicroClient@@AEAAHXZ 0000000180069690     snap7:s7_micro_client.obj
 0002:000166a4       $chain$2$?opReadMultiVars@TSnap7MicroClient@@AEAAHXZ 00000001800696a4     snap7:s7_micro_client.obj
 0002:000166b8       $chain$3$?opReadMultiVars@TSnap7MicroClient@@AEAAHXZ 00000001800696b8     snap7:s7_micro_client.obj
 0002:000166c8       $chain$4$?opReadMultiVars@TSnap7MicroClient@@AEAAHXZ 00000001800696c8     snap7:s7_micro_client.obj
 0002:000166d8       $chain$5$?opReadMultiVars@TSnap7MicroClient@@AEAAHXZ 00000001800696d8     snap7:s7_micro_client.obj
 0002:000166e8       $unwind$?opWriteMultiVars@TSnap7MicroClient@@AEAAHXZ 00000001800696e8     snap7:s7_micro_client.obj
 0002:000166fc       $chain$3$?opWriteMultiVars@TSnap7MicroClient@@AEAAHXZ 00000001800696fc     snap7:s7_micro_client.obj
 0002:0001671c       $chain$5$?opWriteMultiVars@TSnap7MicroClient@@AEAAHXZ 000000018006971c     snap7:s7_micro_client.obj
 0002:00016734       $chain$6$?opWriteMultiVars@TSnap7MicroClient@@AEAAHXZ 0000000180069734     snap7:s7_micro_client.obj
 0002:00016744       $chain$7$?opWriteMultiVars@TSnap7MicroClient@@AEAAHXZ 0000000180069744     snap7:s7_micro_client.obj
 0002:0001675c       $chain$8$?opWriteMultiVars@TSnap7MicroClient@@AEAAHXZ 000000018006975c     snap7:s7_micro_client.obj
 0002:00016770       $chain$9$?opWriteMultiVars@TSnap7MicroClient@@AEAAHXZ 0000000180069770     snap7:s7_micro_client.obj
 0002:00016780       $unwind$?opUpload@TSnap7MicroClient@@AEAAHXZ 0000000180069780     snap7:s7_micro_client.obj
 0002:00016780       $unwind$?opListBlocksOfType@TSnap7MicroClient@@AEAAHXZ 0000000180069780     snap7:s7_micro_client.obj
 0002:00016798       $unwind$?FillTime@TSnap7MicroClient@@AEAAXGPEAD@Z 0000000180069798     snap7:s7_micro_client.obj
 0002:00016798       $unwind$_free_base         0000000180069798     libucrt:free_base.obj
 0002:00016798       $unwind$?FillTime@TS7Worker@@AEAAXPEAUTS7Time@@@Z 0000000180069798     snap7:s7_server.obj
 0002:00016798       $unwind$?destroy_fls@@YAXPEAX@Z 0000000180069798     libucrt:per_thread_data.obj
 0002:00016798       $unwind$__acrt_locale_free_lc_time_if_unreferenced 0000000180069798     libucrt:locale_refcounting.obj
 0002:00016798       $unwind$__acrt_locale_free_numeric 0000000180069798     libucrt:initnum.obj
 0002:000167a0       $unwind$?isoRecvBuffer@TIsoTcpSocket@@QEAAHPEAXAEAH@Z 00000001800697a0     snap7:s7_isotcp.obj
 0002:000167a0       $unwind$?isoConnect@TIsoTcpSocket@@QEAAHXZ 00000001800697a0     snap7:s7_isotcp.obj
 0002:000167a0       $unwind$?opAgBlockInfo@TSnap7MicroClient@@AEAAHXZ 00000001800697a0     snap7:s7_micro_client.obj
 0002:000167b8       $unwind$?opDBGet@TSnap7MicroClient@@AEAAHXZ 00000001800697b8     snap7:s7_micro_client.obj
 0002:000167d8       $unwind$?opDBFill@TSnap7MicroClient@@AEAAHXZ 00000001800697d8     snap7:s7_micro_client.obj
 0002:000167ec       $chain$0$?opDBFill@TSnap7MicroClient@@AEAAHXZ 00000001800697ec     snap7:s7_micro_client.obj
 0002:00016800       $chain$1$?opDBFill@TSnap7MicroClient@@AEAAHXZ 0000000180069800     snap7:s7_micro_client.obj
 0002:00016810       $unwind$?opDownload@TSnap7MicroClient@@AEAAHXZ 0000000180069810     snap7:s7_micro_client.obj
 0002:00016824       $chain$5$?opDownload@TSnap7MicroClient@@AEAAHXZ 0000000180069824     snap7:s7_micro_client.obj
 0002:00016844       $chain$6$?opDownload@TSnap7MicroClient@@AEAAHXZ 0000000180069844     snap7:s7_micro_client.obj
 0002:00016854       $unwind$?opReadSZL@TSnap7MicroClient@@AEAAHXZ 0000000180069854     snap7:s7_micro_client.obj
 0002:0001686c       $unwind$?GetPgBlockInfo@TSnap7MicroClient@@QEAAHPEAXPEAUTS7BlockInfo@@H@Z 000000018006986c     snap7:s7_micro_client.obj
 0002:00016880       $unwind$?NumToString@@YA?AV?$basic_string@DU?$char_traits@D@std@@V?$allocator@D@2@@std@@HHI@Z 0000000180069880     snap7:s7_text.obj
 0002:0001689c       $stateUnwindMap$?NumToString@@YA?AV?$basic_string@DU?$char_traits@D@std@@V?$allocator@D@2@@std@@HHI@Z 000000018006989c     snap7:s7_text.obj
 0002:000168b8       $ip2state$?NumToString@@YA?AV?$basic_string@DU?$char_traits@D@std@@V?$allocator@D@2@@std@@HHI@Z 00000001800698b8     snap7:s7_text.obj
 0002:000168e8       $unwind$?TimeToString@@YA?AV?$basic_string@DU?$char_traits@D@std@@V?$allocator@D@2@@std@@_J@Z 00000001800698e8     snap7:s7_text.obj
 0002:00016908       $stateUnwindMap$?TimeToString@@YA?AV?$basic_string@DU?$char_traits@D@std@@V?$allocator@D@2@@std@@_J@Z 0000000180069908     snap7:s7_text.obj
 0002:00016918       $ip2state$?TimeToString@@YA?AV?$basic_string@DU?$char_traits@D@std@@V?$allocator@D@2@@std@@_J@Z 0000000180069918     snap7:s7_text.obj
 0002:00016940       $unwind$?IpAddressToString@@YA?AV?$basic_string@DU?$char_traits@D@std@@V?$allocator@D@2@@std@@H@Z 0000000180069940     snap7:s7_text.obj
 0002:00016954       $stateUnwindMap$??$?HDU?$char_traits@D@std@@V?$allocator@D@1@@std@@YA?AV?$basic_string@DU?$char_traits@D@std@@V?$allocator@D@2@@0@AEBV10@PEBD@Z 0000000180069954     snap7:s7_text.obj
 0002:00016954       $stateUnwindMap$??$?HDU?$char_traits@D@std@@V?$allocator@D@1@@std@@YA?AV?$basic_string@DU?$char_traits@D@std@@V?$allocator@D@2@@0@PEBDAEBV10@@Z 0000000180069954     snap7:s7_text.obj
 0002:00016954       $stateUnwindMap$?IpAddressToString@@YA?AV?$basic_string@DU?$char_traits@D@std@@V?$allocator@D@2@@std@@H@Z 0000000180069954     snap7:s7_text.obj
 0002:00016954       $stateUnwindMap$?UploadText@@YA?AV?$basic_string@DU?$char_traits@D@std@@V?$allocator@D@2@@std@@AEAUTSrvEvent@@@Z 0000000180069954     snap7:s7_text.obj
 0002:00016954       $stateUnwindMap$?SecurityText@@YA?AV?$basic_string@DU?$char_traits@D@std@@V?$allocator@D@2@@std@@AEAUTSrvEvent@@@Z 0000000180069954     snap7:s7_text.obj
 0002:00016954       $stateUnwindMap$?ClockText@@YA?AV?$basic_string@DU?$char_traits@D@std@@V?$allocator@D@2@@std@@G@Z 0000000180069954     snap7:s7_text.obj
 0002:00016954       $stateUnwindMap$?DownloadText@@YA?AV?$basic_string@DU?$char_traits@D@std@@V?$allocator@D@2@@std@@AEAUTSrvEvent@@@Z 0000000180069954     snap7:s7_text.obj
 0002:00016960       $ip2state$?IpAddressToString@@YA?AV?$basic_string@DU?$char_traits@D@std@@V?$allocator@D@2@@std@@H@Z 0000000180069960     snap7:s7_text.obj
 0002:00016970       $unwind$?TcpTextOf@@YA?AV?$basic_string@DU?$char_traits@D@std@@V?$allocator@D@2@@std@@H@Z 0000000180069970     snap7:s7_text.obj
 0002:00016988       $stateUnwindMap$?IsoTextOf@@YA?AV?$basic_string@DU?$char_traits@D@std@@V?$allocator@D@2@@std@@H@Z 0000000180069988     snap7:s7_text.obj
 0002:00016988       $stateUnwindMap$?StrBlockType@@YA?AV?$basic_string@DU?$char_traits@D@std@@V?$allocator@D@2@@std@@G@Z 0000000180069988     snap7:s7_text.obj
 0002:00016988       $stateUnwindMap$?TxtDataResult@@YA?AV?$basic_string@DU?$char_traits@D@std@@V?$allocator@D@2@@std@@AEAUTSrvEvent@@@Z 0000000180069988     snap7:s7_text.obj
 0002:00016988       $stateUnwindMap$?CliTextOf@@YA?AV?$basic_string@DU?$char_traits@D@std@@V?$allocator@D@2@@std@@H@Z 0000000180069988     snap7:s7_text.obj
 0002:00016988       $stateUnwindMap$?ParTextOf@@YA?AV?$basic_string@DU?$char_traits@D@std@@V?$allocator@D@2@@std@@H@Z 0000000180069988     snap7:s7_text.obj
 0002:00016988       $stateUnwindMap$?TcpTextOf@@YA?AV?$basic_string@DU?$char_traits@D@std@@V?$allocator@D@2@@std@@H@Z 0000000180069988     snap7:s7_text.obj
 0002:00016988       $stateUnwindMap$?SrvTextOf@@YA?AV?$basic_string@DU?$char_traits@D@std@@V?$allocator@D@2@@std@@H@Z 0000000180069988     snap7:s7_text.obj
 0002:000169a0       $ip2state$?TcpTextOf@@YA?AV?$basic_string@DU?$char_traits@D@std@@V?$allocator@D@2@@std@@H@Z 00000001800699a0     snap7:s7_text.obj
 0002:000169e8       $unwind$?IsoTextOf@@YA?AV?$basic_string@DU?$char_traits@D@std@@V?$allocator@D@2@@std@@H@Z 00000001800699e8     snap7:s7_text.obj
 0002:00016a00       $ip2state$?IsoTextOf@@YA?AV?$basic_string@DU?$char_traits@D@std@@V?$allocator@D@2@@std@@H@Z 0000000180069a00     snap7:s7_text.obj
 0002:00016a38       $unwind$?CliTextOf@@YA?AV?$basic_string@DU?$char_traits@D@std@@V?$allocator@D@2@@std@@H@Z 0000000180069a38     snap7:s7_text.obj
 0002:00016a50       $ip2state$?CliTextOf@@YA?AV?$basic_string@DU?$char_traits@D@std@@V?$allocator@D@2@@std@@H@Z 0000000180069a50     snap7:s7_text.obj
 0002:00016a88       $unwind$?SrvTextOf@@YA?AV?$basic_string@DU?$char_traits@D@std@@V?$allocator@D@2@@std@@H@Z 0000000180069a88     snap7:s7_text.obj
 0002:00016aa0       $ip2state$?SrvTextOf@@YA?AV?$basic_string@DU?$char_traits@D@std@@V?$allocator@D@2@@std@@H@Z 0000000180069aa0     snap7:s7_text.obj
 0002:00016ad8       $unwind$?ParTextOf@@YA?AV?$basic_string@DU?$char_traits@D@std@@V?$allocator@D@2@@std@@H@Z 0000000180069ad8     snap7:s7_text.obj
 0002:00016af0       $ip2state$?ParTextOf@@YA?AV?$basic_string@DU?$char_traits@D@std@@V?$allocator@D@2@@std@@H@Z 0000000180069af0     snap7:s7_text.obj
 0002:00016b28       $unwind$?ErrCliText@@YA?AV?$basic_string@DU?$char_traits@D@std@@V?$allocator@D@2@@std@@H@Z 0000000180069b28     snap7:s7_text.obj
 0002:00016b48       $stateUnwindMap$?ErrCliText@@YA?AV?$basic_string@DU?$char_traits@D@std@@V?$allocator@D@2@@std@@H@Z 0000000180069b48     snap7:s7_text.obj
 0002:00016b48       $stateUnwindMap$?ErrSrvText@@YA?AV?$basic_string@DU?$char_traits@D@std@@V?$allocator@D@2@@std@@H@Z 0000000180069b48     snap7:s7_text.obj
 0002:00016b48       $stateUnwindMap$?ErrParText@@YA?AV?$basic_string@DU?$char_traits@D@std@@V?$allocator@D@2@@std@@H@Z 0000000180069b48     snap7:s7_text.obj
 0002:00016b70       $ip2state$?ErrCliText@@YA?AV?$basic_string@DU?$char_traits@D@std@@V?$allocator@D@2@@std@@H@Z 0000000180069b70     snap7:s7_text.obj
 0002:00016bc8       $unwind$?ErrSrvText@@YA?AV?$basic_string@DU?$char_traits@D@std@@V?$allocator@D@2@@std@@H@Z 0000000180069bc8     snap7:s7_text.obj
 0002:00016bf0       $ip2state$?ErrSrvText@@YA?AV?$basic_string@DU?$char_traits@D@std@@V?$allocator@D@2@@std@@H@Z 0000000180069bf0     snap7:s7_text.obj
 0002:00016c48       $unwind$?ErrParText@@YA?AV?$basic_string@DU?$char_traits@D@std@@V?$allocator@D@2@@std@@H@Z 0000000180069c48     snap7:s7_text.obj
 0002:00016c70       $ip2state$?ErrParText@@YA?AV?$basic_string@DU?$char_traits@D@std@@V?$allocator@D@2@@std@@H@Z 0000000180069c70     snap7:s7_text.obj
 0002:00016cc8       $unwind$?SenderText@@YA?AV?$basic_string@DU?$char_traits@D@std@@V?$allocator@D@2@@std@@AEAUTSrvEvent@@@Z 0000000180069cc8     snap7:s7_text.obj
 0002:00016cec       $stateUnwindMap$?SenderText@@YA?AV?$basic_string@DU?$char_traits@D@std@@V?$allocator@D@2@@std@@AEAUTSrvEvent@@@Z 0000000180069cec     snap7:s7_text.obj
 0002:00016d20       $ip2state$?SenderText@@YA?AV?$basic_string@DU?$char_traits@D@std@@V?$allocator@D@2@@std@@AEAUTSrvEvent@@@Z 0000000180069d20     snap7:s7_text.obj
 0002:00016d80       $unwind$?TcpServerEventText@@YA?AV?$basic_string@DU?$char_traits@D@std@@V?$allocator@D@2@@std@@AEAUTSrvEvent@@@Z 0000000180069d80     snap7:s7_text.obj
 0002:00016da0       $stateUnwindMap$?TcpServerEventText@@YA?AV?$basic_string@DU?$char_traits@D@std@@V?$allocator@D@2@@std@@AEAUTSrvEvent@@@Z 0000000180069da0     snap7:s7_text.obj
 0002:00016df0       $ip2state$?TcpServerEventText@@YA?AV?$basic_string@DU?$char_traits@D@std@@V?$allocator@D@2@@std@@AEAUTSrvEvent@@@Z 0000000180069df0     snap7:s7_text.obj
 0002:00016e88       $unwind$?PDUText@@YA?AV?$basic_string@DU?$char_traits@D@std@@V?$allocator@D@2@@std@@AEAUTSrvEvent@@@Z 0000000180069e88     snap7:s7_text.obj
 0002:00016ea4       $stateUnwindMap$?PDUText@@YA?AV?$basic_string@DU?$char_traits@D@std@@V?$allocator@D@2@@std@@AEAUTSrvEvent@@@Z 0000000180069ea4     snap7:s7_text.obj
 0002:00016ef0       $ip2state$?PDUText@@YA?AV?$basic_string@DU?$char_traits@D@std@@V?$allocator@D@2@@std@@AEAUTSrvEvent@@@Z 0000000180069ef0     snap7:s7_text.obj
 0002:00016fc0       $unwind$?TxtArea@@YA?AV?$basic_string@DU?$char_traits@D@std@@V?$allocator@D@2@@std@@AEAUTSrvEvent@@@Z 0000000180069fc0     snap7:s7_text.obj
 0002:00016fdc       $stateUnwindMap$?TxtArea@@YA?AV?$basic_string@DU?$char_traits@D@std@@V?$allocator@D@2@@std@@AEAUTSrvEvent@@@Z 0000000180069fdc     snap7:s7_text.obj
 0002:00017010       $ip2state$?TxtArea@@YA?AV?$basic_string@DU?$char_traits@D@std@@V?$allocator@D@2@@std@@AEAUTSrvEvent@@@Z 000000018006a010     snap7:s7_text.obj
 0002:000170c0       $unwind$?TxtStartSize@@YA?AV?$basic_string@DU?$char_traits@D@std@@V?$allocator@D@2@@std@@AEAUTSrvEvent@@@Z 000000018006a0c0     snap7:s7_text.obj
 0002:000170e4       $stateUnwindMap$?TxtStartSize@@YA?AV?$basic_string@DU?$char_traits@D@std@@V?$allocator@D@2@@std@@AEAUTSrvEvent@@@Z 000000018006a0e4     snap7:s7_text.obj
 0002:00017110       $ip2state$?TxtStartSize@@YA?AV?$basic_string@DU?$char_traits@D@std@@V?$allocator@D@2@@std@@AEAUTSrvEvent@@@Z 000000018006a110     snap7:s7_text.obj
 0002:00017158       $unwind$?TxtDataResult@@YA?AV?$basic_string@DU?$char_traits@D@std@@V?$allocator@D@2@@std@@AEAUTSrvEvent@@@Z 000000018006a158     snap7:s7_text.obj
 0002:00017180       $ip2state$?TxtDataResult@@YA?AV?$basic_string@DU?$char_traits@D@std@@V?$allocator@D@2@@std@@AEAUTSrvEvent@@@Z 000000018006a180     snap7:s7_text.obj
 0002:00017228       $unwind$?ControlText@@YA?AV?$basic_string@DU?$char_traits@D@std@@V?$allocator@D@2@@std@@G@Z 000000018006a228     snap7:s7_text.obj
 0002:00017248       $stateUnwindMap$?ControlText@@YA?AV?$basic_string@DU?$char_traits@D@std@@V?$allocator@D@2@@std@@G@Z 000000018006a248     snap7:s7_text.obj
 0002:00017270       $ip2state$?ControlText@@YA?AV?$basic_string@DU?$char_traits@D@std@@V?$allocator@D@2@@std@@G@Z 000000018006a270     snap7:s7_text.obj
 0002:000172d8       $unwind$?ClockText@@YA?AV?$basic_string@DU?$char_traits@D@std@@V?$allocator@D@2@@std@@G@Z 000000018006a2d8     snap7:s7_text.obj
 0002:000172e8       $ip2state$?ClockText@@YA?AV?$basic_string@DU?$char_traits@D@std@@V?$allocator@D@2@@std@@G@Z 000000018006a2e8     snap7:s7_text.obj
 0002:000172f8       $unwind$?ReadSZLText@@YA?AV?$basic_string@DU?$char_traits@D@std@@V?$allocator@D@2@@std@@AEAUTSrvEvent@@@Z 000000018006a2f8     snap7:s7_text.obj
 0002:0001731c       $stateUnwindMap$?ReadSZLText@@YA?AV?$basic_string@DU?$char_traits@D@std@@V?$allocator@D@2@@std@@AEAUTSrvEvent@@@Z 000000018006a31c     snap7:s7_text.obj
 0002:00017370       $ip2state$?ReadSZLText@@YA?AV?$basic_string@DU?$char_traits@D@std@@V?$allocator@D@2@@std@@AEAUTSrvEvent@@@Z 000000018006a370     snap7:s7_text.obj
 0002:000173d0       $unwind$?UploadText@@YA?AV?$basic_string@DU?$char_traits@D@std@@V?$allocator@D@2@@std@@AEAUTSrvEvent@@@Z 000000018006a3d0     snap7:s7_text.obj
 0002:000173e0       $ip2state$?UploadText@@YA?AV?$basic_string@DU?$char_traits@D@std@@V?$allocator@D@2@@std@@AEAUTSrvEvent@@@Z 000000018006a3e0     snap7:s7_text.obj
 0002:000173f0       $unwind$?DownloadText@@YA?AV?$basic_string@DU?$char_traits@D@std@@V?$allocator@D@2@@std@@AEAUTSrvEvent@@@Z 000000018006a3f0     snap7:s7_text.obj
 0002:00017400       $ip2state$?DownloadText@@YA?AV?$basic_string@DU?$char_traits@D@std@@V?$allocator@D@2@@std@@AEAUTSrvEvent@@@Z 000000018006a400     snap7:s7_text.obj
 0002:00017410       $unwind$?StrBlockType@@YA?AV?$basic_string@DU?$char_traits@D@std@@V?$allocator@D@2@@std@@G@Z 000000018006a410     snap7:s7_text.obj
 0002:00017430       $ip2state$?StrBlockType@@YA?AV?$basic_string@DU?$char_traits@D@std@@V?$allocator@D@2@@std@@G@Z 000000018006a430     snap7:s7_text.obj
 0002:000174d8       $unwind$?BlockInfoText@@YA?AV?$basic_string@DU?$char_traits@D@std@@V?$allocator@D@2@@std@@AEAUTSrvEvent@@@Z 000000018006a4d8     snap7:s7_text.obj
 0002:000174fc       $stateUnwindMap$?BlockInfoText@@YA?AV?$basic_string@DU?$char_traits@D@std@@V?$allocator@D@2@@std@@AEAUTSrvEvent@@@Z 000000018006a4fc     snap7:s7_text.obj
 0002:00017570       $ip2state$?BlockInfoText@@YA?AV?$basic_string@DU?$char_traits@D@std@@V?$allocator@D@2@@std@@AEAUTSrvEvent@@@Z 000000018006a570     snap7:s7_text.obj
 0002:00017648       $unwind$?SecurityText@@YA?AV?$basic_string@DU?$char_traits@D@std@@V?$allocator@D@2@@std@@AEAUTSrvEvent@@@Z 000000018006a648     snap7:s7_text.obj
 0002:00017658       $ip2state$?SecurityText@@YA?AV?$basic_string@DU?$char_traits@D@std@@V?$allocator@D@2@@std@@AEAUTSrvEvent@@@Z 000000018006a658     snap7:s7_text.obj
 0002:00017668       $unwind$?EvtSrvText@@YA?AV?$basic_string@DU?$char_traits@D@std@@V?$allocator@D@2@@std@@AEAUTSrvEvent@@@Z 000000018006a668     snap7:s7_text.obj
 0002:0001768c       $stateUnwindMap$?EvtSrvText@@YA?AV?$basic_string@DU?$char_traits@D@std@@V?$allocator@D@2@@std@@AEAUTSrvEvent@@@Z 000000018006a68c     snap7:s7_text.obj
 0002:00017780       $ip2state$?EvtSrvText@@YA?AV?$basic_string@DU?$char_traits@D@std@@V?$allocator@D@2@@std@@AEAUTSrvEvent@@@Z 000000018006a780     snap7:s7_text.obj
 0002:00017968       $unwind$??4?$basic_string@DU?$char_traits@D@std@@V?$allocator@D@2@@std@@QEAAAEAV01@$$QEAV01@@Z 000000018006a968     snap7:s7_text.obj
 0002:0001797c       $stateUnwindMap$??4?$basic_string@DU?$char_traits@D@std@@V?$allocator@D@2@@std@@QEAAAEAV01@$$QEAV01@@Z 000000018006a97c     snap7:s7_text.obj
 0002:000179a0       $ip2state$??4?$basic_string@DU?$char_traits@D@std@@V?$allocator@D@2@@std@@QEAAAEAV01@$$QEAV01@@Z 000000018006a9a0     snap7:s7_text.obj
 0002:000179a8       $unwind$??$?HDU?$char_traits@D@std@@V?$allocator@D@1@@std@@YA?AV?$basic_string@DU?$char_traits@D@std@@V?$allocator@D@2@@0@PEBD$$QEAV10@@Z 000000018006a9a8     snap7:s7_text.obj
 0002:000179b8       $stateUnwindMap$??$?HDU?$char_traits@D@std@@V?$allocator@D@1@@std@@YA?AV?$basic_string@DU?$char_traits@D@std@@V?$allocator@D@2@@0@PEBD$$QEAV10@@Z 000000018006a9b8     snap7:s7_text.obj
 0002:000179b8       $stateUnwindMap$??$?HDU?$char_traits@D@std@@V?$allocator@D@1@@std@@YA?AV?$basic_string@DU?$char_traits@D@std@@V?$allocator@D@2@@0@$$QEAV10@AEBV10@@Z 000000018006a9b8     snap7:s7_text.obj
 0002:000179b8       $stateUnwindMap$??$?HDU?$char_traits@D@std@@V?$allocator@D@1@@std@@YA?AV?$basic_string@DU?$char_traits@D@std@@V?$allocator@D@2@@0@$$QEAV10@PEBD@Z 000000018006a9b8     snap7:s7_text.obj
 0002:000179c8       $ip2state$??$?HDU?$char_traits@D@std@@V?$allocator@D@1@@std@@YA?AV?$basic_string@DU?$char_traits@D@std@@V?$allocator@D@2@@0@PEBD$$QEAV10@@Z 000000018006a9c8     snap7:s7_text.obj
 0002:000179d8       $unwind$??$?HDU?$char_traits@D@std@@V?$allocator@D@1@@std@@YA?AV?$basic_string@DU?$char_traits@D@std@@V?$allocator@D@2@@0@PEBDAEBV10@@Z 000000018006a9d8     snap7:s7_text.obj
 0002:000179f0       $ip2state$??$?HDU?$char_traits@D@std@@V?$allocator@D@1@@std@@YA?AV?$basic_string@DU?$char_traits@D@std@@V?$allocator@D@2@@0@PEBDAEBV10@@Z 000000018006a9f0     snap7:s7_text.obj
 0002:00017a00       $unwind$??$?HDU?$char_traits@D@std@@V?$allocator@D@1@@std@@YA?AV?$basic_string@DU?$char_traits@D@std@@V?$allocator@D@2@@0@$$QEAV10@PEBD@Z 000000018006aa00     snap7:s7_text.obj
 0002:00017a10       $ip2state$??$?HDU?$char_traits@D@std@@V?$allocator@D@1@@std@@YA?AV?$basic_string@DU?$char_traits@D@std@@V?$allocator@D@2@@0@$$QEAV10@PEBD@Z 000000018006aa10     snap7:s7_text.obj
 0002:00017a20       $unwind$??$?HDU?$char_traits@D@std@@V?$allocator@D@1@@std@@YA?AV?$basic_string@DU?$char_traits@D@std@@V?$allocator@D@2@@0@AEBV10@PEBD@Z 000000018006aa20     snap7:s7_text.obj
 0002:00017a40       $ip2state$??$?HDU?$char_traits@D@std@@V?$allocator@D@1@@std@@YA?AV?$basic_string@DU?$char_traits@D@std@@V?$allocator@D@2@@0@AEBV10@PEBD@Z 000000018006aa40     snap7:s7_text.obj
 0002:00017a50       $unwind$??$?HDU?$char_traits@D@std@@V?$allocator@D@1@@std@@YA?AV?$basic_string@DU?$char_traits@D@std@@V?$allocator@D@2@@0@$$QEAV10@0@Z 000000018006aa50     snap7:s7_text.obj
 0002:00017a60       $stateUnwindMap$??$?HDU?$char_traits@D@std@@V?$allocator@D@1@@std@@YA?AV?$basic_string@DU?$char_traits@D@std@@V?$allocator@D@2@@0@$$QEAV10@0@Z 000000018006aa60     snap7:s7_text.obj
 0002:00017a98       $ip2state$??$?HDU?$char_traits@D@std@@V?$allocator@D@1@@std@@YA?AV?$basic_string@DU?$char_traits@D@std@@V?$allocator@D@2@@0@$$QEAV10@0@Z 000000018006aa98     snap7:s7_text.obj
 0002:00017ac0       $unwind$??$?HDU?$char_traits@D@std@@V?$allocator@D@1@@std@@YA?AV?$basic_string@DU?$char_traits@D@std@@V?$allocator@D@2@@0@$$QEAV10@AEBV10@@Z 000000018006aac0     snap7:s7_text.obj
 0002:00017ad0       $ip2state$??$?HDU?$char_traits@D@std@@V?$allocator@D@1@@std@@YA?AV?$basic_string@DU?$char_traits@D@std@@V?$allocator@D@2@@0@$$QEAV10@AEBV10@@Z 000000018006aad0     snap7:s7_text.obj
 0002:00017ae0       $unwind$?insert@?$basic_string@DU?$char_traits@D@std@@V?$allocator@D@2@@std@@QEAAAEAV12@_KPEBD0@Z 000000018006aae0     snap7:s7_text.obj
 0002:00017af0       $chain$0$?insert@?$basic_string@DU?$char_traits@D@std@@V?$allocator@D@2@@std@@QEAAAEAV12@_KPEBD0@Z 000000018006aaf0     snap7:s7_text.obj
 0002:00017b04       $chain$1$?insert@?$basic_string@DU?$char_traits@D@std@@V?$allocator@D@2@@std@@QEAAAEAV12@_KPEBD0@Z 000000018006ab04     snap7:s7_text.obj
 0002:00017b14       $chain$2$?insert@?$basic_string@DU?$char_traits@D@std@@V?$allocator@D@2@@std@@QEAAAEAV12@_KPEBD0@Z 000000018006ab14     snap7:s7_text.obj
 0002:00017b28       $unwind$?insert@?$basic_string@DU?$char_traits@D@std@@V?$allocator@D@2@@std@@QEAAAEAV12@_KAEBV12@00@Z 000000018006ab28     snap7:s7_text.obj
 0002:00017b38       $chain$0$?insert@?$basic_string@DU?$char_traits@D@std@@V?$allocator@D@2@@std@@QEAAAEAV12@_KAEBV12@00@Z 000000018006ab38     snap7:s7_text.obj
 0002:00017b4c       $chain$1$?insert@?$basic_string@DU?$char_traits@D@std@@V?$allocator@D@2@@std@@QEAAAEAV12@_KAEBV12@00@Z 000000018006ab4c     snap7:s7_text.obj
 0002:00017b60       $chain$3$?insert@?$basic_string@DU?$char_traits@D@std@@V?$allocator@D@2@@std@@QEAAAEAV12@_KAEBV12@00@Z 000000018006ab60     snap7:s7_text.obj
 0002:00017b70       $chain$4$?insert@?$basic_string@DU?$char_traits@D@std@@V?$allocator@D@2@@std@@QEAAAEAV12@_KAEBV12@00@Z 000000018006ab70     snap7:s7_text.obj
 0002:00017b84       $chain$5$?insert@?$basic_string@DU?$char_traits@D@std@@V?$allocator@D@2@@std@@QEAAAEAV12@_KAEBV12@00@Z 000000018006ab84     snap7:s7_text.obj
 0002:00017b9c       $chain$0$?ExecuteRecv@TIsoTcpWorker@@MEAA_NXZ 000000018006ab9c     snap7:s7_server.obj
 0002:00017bb0       $chain$6$?ExecuteRecv@TIsoTcpWorker@@MEAA_NXZ 000000018006abb0     snap7:s7_server.obj
 0002:00017bb0       $chain$4$?ExecuteRecv@TIsoTcpWorker@@MEAA_NXZ 000000018006abb0     snap7:s7_server.obj
 0002:00017bb0       $chain$2$?ExecuteRecv@TIsoTcpWorker@@MEAA_NXZ 000000018006abb0     snap7:s7_server.obj
 0002:00017bb0       $chain$8$?ExecuteRecv@TIsoTcpWorker@@MEAA_NXZ 000000018006abb0     snap7:s7_server.obj
 0002:00017bb0       $chain$10$?ExecuteRecv@TIsoTcpWorker@@MEAA_NXZ 000000018006abb0     snap7:s7_server.obj
 0002:00017bc4       $chain$11$?ExecuteRecv@TIsoTcpWorker@@MEAA_NXZ 000000018006abc4     snap7:s7_server.obj
 0002:00017bd4       $unwind$?ReadArea@TS7Worker@@IEAAGPEAUTResFunReadItem@@PEAUTReqFunReadItem@@AEAHAEAUTEv@@@Z 000000018006abd4     snap7:s7_server.obj
 0002:00017bec       $chain$1$?ReadArea@TS7Worker@@IEAAGPEAUTResFunReadItem@@PEAUTReqFunReadItem@@AEAHAEAUTEv@@@Z 000000018006abec     snap7:s7_server.obj
 0002:00017c00       $chain$2$?ReadArea@TS7Worker@@IEAAGPEAUTResFunReadItem@@PEAUTReqFunReadItem@@AEAHAEAUTEv@@@Z 000000018006ac00     snap7:s7_server.obj
 0002:00017c00       $chain$4$?ReadArea@TS7Worker@@IEAAGPEAUTResFunReadItem@@PEAUTReqFunReadItem@@AEAHAEAUTEv@@@Z 000000018006ac00     snap7:s7_server.obj
 0002:00017c10       $chain$3$?ReadArea@TS7Worker@@IEAAGPEAUTResFunReadItem@@PEAUTReqFunReadItem@@AEAHAEAUTEv@@@Z 000000018006ac10     snap7:s7_server.obj
 0002:00017c24       $unwind$?PerformFunctionRead@TS7Worker@@IEAA_NXZ 000000018006ac24     snap7:s7_server.obj
 0002:00017c38       $chain$1$?PerformFunctionRead@TS7Worker@@IEAA_NXZ 000000018006ac38     snap7:s7_server.obj
 0002:00017c50       $chain$2$?PerformFunctionRead@TS7Worker@@IEAA_NXZ 000000018006ac50     snap7:s7_server.obj
 0002:00017c64       $chain$5$?PerformFunctionRead@TS7Worker@@IEAA_NXZ 000000018006ac64     snap7:s7_server.obj
 0002:00017c80       $chain$6$?PerformFunctionRead@TS7Worker@@IEAA_NXZ 000000018006ac80     snap7:s7_server.obj
 0002:00017c98       $chain$7$?PerformFunctionRead@TS7Worker@@IEAA_NXZ 000000018006ac98     snap7:s7_server.obj
 0002:00017cb0       $chain$8$?PerformFunctionRead@TS7Worker@@IEAA_NXZ 000000018006acb0     snap7:s7_server.obj
 0002:00017cc4       $unwind$?WriteArea@TS7Worker@@IEAAEPEAUTReqFunWriteDataItem@@PEAUTReqFunWriteItem@@AEAUTEv@@@Z 000000018006acc4     snap7:s7_server.obj
 0002:00017cd8       $chain$1$?WriteArea@TS7Worker@@IEAAEPEAUTReqFunWriteDataItem@@PEAUTReqFunWriteItem@@AEAUTEv@@@Z 000000018006acd8     snap7:s7_server.obj
 0002:00017cf0       $chain$2$?WriteArea@TS7Worker@@IEAAEPEAUTReqFunWriteDataItem@@PEAUTReqFunWriteItem@@AEAUTEv@@@Z 000000018006acf0     snap7:s7_server.obj
 0002:00017cf0       $chain$4$?WriteArea@TS7Worker@@IEAAEPEAUTReqFunWriteDataItem@@PEAUTReqFunWriteItem@@AEAUTEv@@@Z 000000018006acf0     snap7:s7_server.obj
 0002:00017d00       $chain$3$?WriteArea@TS7Worker@@IEAAEPEAUTReqFunWriteDataItem@@PEAUTReqFunWriteItem@@AEAUTEv@@@Z 000000018006ad00     snap7:s7_server.obj
 0002:00017d18       $unwind$?PerformFunctionWrite@TS7Worker@@IEAA_NXZ 000000018006ad18     snap7:s7_server.obj
 0002:00017d2c       $chain$5$?PerformFunctionWrite@TS7Worker@@IEAA_NXZ 000000018006ad2c     snap7:s7_server.obj
 0002:00017d54       $chain$6$?PerformFunctionWrite@TS7Worker@@IEAA_NXZ 000000018006ad54     snap7:s7_server.obj
 0002:00017d68       $unwind$?PerformGetClock@TS7Worker@@IEAA_NXZ 000000018006ad68     snap7:s7_server.obj
 0002:00017d68       $unwind$?PerformFunctionNegotiate@TS7Worker@@IEAA_NXZ 000000018006ad68     snap7:s7_server.obj
 0002:00017d68       $unwind$?PerformSetClock@TS7Worker@@IEAA_NXZ 000000018006ad68     snap7:s7_server.obj
 0002:00017d80       $unwind$?PerformGroupSecurity@TS7Worker@@IEAA_NXZ 000000018006ad80     snap7:s7_server.obj
 0002:00017d80       $unwind$?PerformFunctionControl@TS7Worker@@IEAA_NE@Z 000000018006ad80     snap7:s7_server.obj
 0002:00017d9c       $unwind$?PerformFunctionDownload@TS7Worker@@IEAA_NXZ 000000018006ad9c     snap7:s7_server.obj
 0002:00017d9c       $unwind$?PerformFunctionUpload@TS7Worker@@IEAA_NXZ 000000018006ad9c     snap7:s7_server.obj
 0002:00017dac       $unwind$?BLK_ListBoT@TS7Worker@@IEAAXE_NAEAUTCB@@@Z 000000018006adac     snap7:s7_server.obj
 0002:00017dc4       $unwind$??$write_multiple_characters@V?$string_output_adapter@D@__crt_stdio_output@@D@__crt_stdio_output@@YAXAEBV?$string_output_adapter@D@0@DHQEAH@Z 000000018006adc4     libucrt:output.obj
 0002:00017dc4       $unwind$??$type_case_integer_parse_into_buffer@_K@?$output_processor@DV?$string_output_adapter@D@__crt_stdio_output@@V?$format_validation_base@DV?$string_output_adapter@D@__crt_stdio_output@@@2@@__crt_stdio_output@@AEAAX_KI_N@Z 000000018006adc4     libucrt:output.obj
 0002:00017dc4       $unwind$??$type_case_integer_parse_into_buffer@_K@?$output_processor@_WV?$stream_output_adapter@_W@__crt_stdio_output@@V?$standard_base@_WV?$stream_output_adapter@_W@__crt_stdio_output@@@2@@__crt_stdio_output@@AEAAX_KI_N@Z 000000018006adc4     libucrt:output.obj
 0002:00017dc4       $unwind$??$type_case_integer_parse_into_buffer@I@?$output_processor@_WV?$string_output_adapter@_W@__crt_stdio_output@@V?$standard_base@_WV?$string_output_adapter@_W@__crt_stdio_output@@@2@@__crt_stdio_output@@AEAAXII_N@Z 000000018006adc4     libucrt:output.obj
 0002:00017dc4       $unwind$?BLK_DoBlockInfo_GetBlkInfo@TS7Worker@@IEAAXPEAUTS7Area@@PEAUTResDataBlockInfo@@AEAUTCB@@@Z 000000018006adc4     snap7:s7_server.obj
 0002:00017dc4       $unwind$??$type_case_integer_parse_into_buffer@_K@?$output_processor@_WV?$string_output_adapter@_W@__crt_stdio_output@@V?$standard_base@_WV?$string_output_adapter@_W@__crt_stdio_output@@@2@@__crt_stdio_output@@AEAAX_KI_N@Z 000000018006adc4     libucrt:output.obj
 0002:00017dc4       $unwind$??$type_case_integer_parse_into_buffer@I@?$output_processor@_WV?$stream_output_adapter@_W@__crt_stdio_output@@V?$standard_base@_WV?$stream_output_adapter@_W@__crt_stdio_output@@@2@@__crt_stdio_output@@AEAAXII_N@Z 000000018006adc4     libucrt:output.obj
 0002:00017dc4       $unwind$??$type_case_integer_parse_into_buffer@I@?$output_processor@DV?$string_output_adapter@D@__crt_stdio_output@@V?$format_validation_base@DV?$string_output_adapter@D@__crt_stdio_output@@@2@@__crt_stdio_output@@AEAAXII_N@Z 000000018006adc4     libucrt:output.obj
 0002:00017dcc       $unwind$?BLK_GetBlkInfo@TS7Worker@@IEAAXAEAUTCB@@@Z 000000018006adcc     snap7:s7_server.obj
 0002:00017de8       $unwind$?PerformGroupBlockInfo@TS7Worker@@IEAA_NXZ 000000018006ade8     snap7:s7_server.obj
 0002:00017df8       $unwind$?PerformGroupSZL@TS7Worker@@IEAA_NXZ 000000018006adf8     snap7:s7_server.obj
 0002:00017e0c       $chain$0$?PerformGroupSZL@TS7Worker@@IEAA_NXZ 000000018006ae0c     snap7:s7_server.obj
 0002:00017e20       $chain$1$?PerformGroupSZL@TS7Worker@@IEAA_NXZ 000000018006ae20     snap7:s7_server.obj
 0002:00017e30       $unwind$??0TSnap7Server@@QEAA@XZ 000000018006ae30     snap7:s7_server.obj
 0002:00017e44       $stateUnwindMap$??0TSnap7Server@@QEAA@XZ 000000018006ae44     snap7:s7_server.obj
 0002:00017e50       $ip2state$??0TSnap7Server@@QEAA@XZ 000000018006ae50     snap7:s7_server.obj
 0002:00017e68       $unwind$?CreateWorkerSocket@TSnap7Server@@MEAAPEAVTMsgSocket@@_K@Z 000000018006ae68     snap7:s7_server.obj
 0002:00017e80       $stateUnwindMap$?CreateWorkerSocket@TSnap7Server@@MEAAPEAVTMsgSocket@@_K@Z 000000018006ae80     snap7:s7_server.obj
 0002:00017e88       $ip2state$?CreateWorkerSocket@TSnap7Server@@MEAAPEAVTMsgSocket@@_K@Z 000000018006ae88     snap7:s7_server.obj
 0002:00017ea0       $unwind$?RegisterDB@TSnap7Server@@IEAAHGPEAXG@Z 000000018006aea0     snap7:s7_server.obj
 0002:00017eb4       $chain$1$?RegisterDB@TSnap7Server@@IEAAHGPEAXG@Z 000000018006aeb4     snap7:s7_server.obj
 0002:00017ec8       $chain$2$?RegisterDB@TSnap7Server@@IEAAHGPEAXG@Z 000000018006aec8     snap7:s7_server.obj
 0002:00017ed8       $unwind$?DisposeAll@TSnap7Server@@AEAAXXZ 000000018006aed8     snap7:s7_server.obj
 0002:00017ee8       $chain$1$?DisposeAll@TSnap7Server@@AEAAXXZ 000000018006aee8     snap7:s7_server.obj
 0002:00017f00       $chain$2$?DisposeAll@TSnap7Server@@AEAAXXZ 000000018006af00     snap7:s7_server.obj
 0002:00017f14       $unwind$?RegisterSys@TSnap7Server@@IEAAHHPEAXG@Z 000000018006af14     snap7:s7_server.obj
 0002:00017f20       $chain$2$?RegisterSys@TSnap7Server@@IEAAHHPEAXG@Z 000000018006af20     snap7:s7_server.obj
 0002:00017f3c       $chain$4$?RegisterSys@TSnap7Server@@IEAAHHPEAXG@Z 000000018006af3c     snap7:s7_server.obj
 0002:00017f50       $chain$5$?RegisterSys@TSnap7Server@@IEAAHHPEAXG@Z 000000018006af50     snap7:s7_server.obj
 0002:00017f60       $unwind$?UnregisterDB@TSnap7Server@@IEAAHG@Z 000000018006af60     snap7:s7_server.obj
 0002:00017f70       $chain$0$?UnregisterSys@TSnap7Server@@IEAAHH@Z 000000018006af70     snap7:s7_server.obj
 0002:00017f84       $chain$1$?UnregisterSys@TSnap7Server@@IEAAHH@Z 000000018006af84     snap7:s7_server.obj
 0002:00017f94       $unwind$?DoReadEvent@TSnap7Server@@IEAAXHIGGGGG@Z 000000018006af94     snap7:s7_server.obj
 0002:00017fac       $tryMap$?DoReadEvent@TSnap7Server@@IEAAXHIGGGGG@Z 000000018006afac     snap7:s7_server.obj
 0002:00017fc0       $handlerMap$0$?DoReadEvent@TSnap7Server@@IEAAXHIGGGGG@Z 000000018006afc0     snap7:s7_server.obj
 0002:00017fd8       $ip2state$?DoReadEvent@TSnap7Server@@IEAAXHIGGGGG@Z 000000018006afd8     snap7:s7_server.obj
 0002:00017ff8       $unwind$?catch$0@?0??DoReadEvent@TSnap7Server@@IEAAXHIGGGGG@Z@4HA 000000018006aff8     snap7:s7_server.obj
 0002:00018008       $unwind$?DoReadArea@TSnap7Server@@IEAA_NHHHHHHPEAX@Z 000000018006b008     snap7:s7_server.obj
 0002:00018024       $tryMap$?DoReadArea@TSnap7Server@@IEAA_NHHHHHHPEAX@Z 000000018006b024     snap7:s7_server.obj
 0002:00018038       $handlerMap$0$?DoReadArea@TSnap7Server@@IEAA_NHHHHHHPEAX@Z 000000018006b038     snap7:s7_server.obj
 0002:00018050       $ip2state$?DoReadArea@TSnap7Server@@IEAA_NHHHHHHPEAX@Z 000000018006b050     snap7:s7_server.obj
 0002:00018080       $unwind$?catch$0@?0??DoReadArea@TSnap7Server@@IEAA_NHHHHHHPEAX@Z@4HA 000000018006b080     snap7:s7_server.obj
 0002:00018090       $unwind$?DoWriteArea@TSnap7Server@@IEAA_NHHHHHHPEAX@Z 000000018006b090     snap7:s7_server.obj
 0002:000180ac       $tryMap$?DoWriteArea@TSnap7Server@@IEAA_NHHHHHHPEAX@Z 000000018006b0ac     snap7:s7_server.obj
 0002:000180c0       $handlerMap$0$?DoWriteArea@TSnap7Server@@IEAA_NHHHHHHPEAX@Z 000000018006b0c0     snap7:s7_server.obj
 0002:000180d8       $ip2state$?DoWriteArea@TSnap7Server@@IEAA_NHHHHHHPEAX@Z 000000018006b0d8     snap7:s7_server.obj
 0002:00018108       $unwind$?catch$0@?0??DoWriteArea@TSnap7Server@@IEAA_NHHHHHHPEAX@Z@4HA 000000018006b108     snap7:s7_server.obj
 0002:00018118       $chain$0$?isoSendBuffer@TIsoTcpSocket@@QEAAHPEAXH@Z 000000018006b118     snap7:s7_isotcp.obj
 0002:0001812c       $chain$1$?isoSendBuffer@TIsoTcpSocket@@QEAAHPEAXH@Z 000000018006b12c     snap7:s7_isotcp.obj
 0002:0001813c       $unwind$?isoRecvFragment@TIsoTcpSocket@@AEAAHPEAXHAEAHAEA_N@Z 000000018006b13c     snap7:s7_isotcp.obj
 0002:00018158       $unwind$?isoRecvPDU@TIsoTcpSocket@@QEAAHPEAUTIsoDataPDU@@@Z 000000018006b158     snap7:s7_isotcp.obj
 0002:0001816c       $unwind$?Execute@TEcoTcpWorker@@UEAA_NXZ 000000018006b16c     snap7:snap_tcpsrvr.obj
 0002:00018180       $chain$0$?Execute@TEcoTcpWorker@@UEAA_NXZ 000000018006b180     snap7:snap_tcpsrvr.obj
 0002:00018194       $chain$3$?Execute@TEcoTcpWorker@@UEAA_NXZ 000000018006b194     snap7:snap_tcpsrvr.obj
 0002:00018194       $chain$1$?Execute@TEcoTcpWorker@@UEAA_NXZ 000000018006b194     snap7:snap_tcpsrvr.obj
 0002:000181a4       $chain$2$?Execute@TEcoTcpWorker@@UEAA_NXZ 000000018006b1a4     snap7:snap_tcpsrvr.obj
 0002:000181b8       $unwind$?Execute@TMsgWorkerThread@@UEAAXXZ 000000018006b1b8     snap7:snap_tcpsrvr.obj
 0002:000181d0       $tryMap$?Execute@TMsgWorkerThread@@UEAAXXZ 000000018006b1d0     snap7:snap_tcpsrvr.obj
 0002:000181e4       $handlerMap$0$?Execute@TMsgWorkerThread@@UEAAXXZ 000000018006b1e4     snap7:snap_tcpsrvr.obj
 0002:000181f8       $ip2state$?Execute@TMsgWorkerThread@@UEAAXXZ 000000018006b1f8     snap7:snap_tcpsrvr.obj
 0002:00018218       $unwind$?catch$0@?0??Execute@TMsgWorkerThread@@UEAAXXZ@4HA 000000018006b218     snap7:snap_tcpsrvr.obj
 0002:00018228       $chain$2$?Execute@TMsgListenerThread@@UEAAXXZ 000000018006b228     snap7:snap_tcpsrvr.obj
 0002:00018244       $chain$3$?Execute@TMsgListenerThread@@UEAAXXZ 000000018006b244     snap7:snap_tcpsrvr.obj
 0002:00018254       $unwind$??0TCustomMsgServer@@QEAA@XZ 000000018006b254     snap7:snap_tcpsrvr.obj
 0002:0001826c       $stateUnwindMap$??0TCustomMsgServer@@QEAA@XZ 000000018006b26c     snap7:snap_tcpsrvr.obj
 0002:00018278       $ip2state$??0TCustomMsgServer@@QEAA@XZ 000000018006b278     snap7:snap_tcpsrvr.obj
 0002:00018290       $unwind$??1TCustomMsgServer@@UEAA@XZ 000000018006b290     snap7:snap_tcpsrvr.obj
 0002:000182a8       $ip2state$??1TCustomMsgServer@@UEAA@XZ 000000018006b2a8     snap7:snap_tcpsrvr.obj
 0002:000182b0       $unwind$?StartListener@TCustomMsgServer@@AEAAHXZ 000000018006b2b0     snap7:snap_tcpsrvr.obj
 0002:000182c8       $ip2state$?StartListener@TCustomMsgServer@@AEAAHXZ 000000018006b2c8     snap7:snap_tcpsrvr.obj
 0002:000182e0       $chain$1$?TerminateAll@TCustomMsgServer@@MEAAXXZ 000000018006b2e0     snap7:snap_tcpsrvr.obj
 0002:000182f8       $chain$2$?TerminateAll@TCustomMsgServer@@MEAAXXZ 000000018006b2f8     snap7:snap_tcpsrvr.obj
 0002:0001830c       $chain$3$?TerminateAll@TCustomMsgServer@@MEAAXXZ 000000018006b30c     snap7:snap_tcpsrvr.obj
 0002:0001831c       $unwind$?KillAll@TCustomMsgServer@@IEAAXXZ 000000018006b31c     snap7:snap_tcpsrvr.obj
 0002:00018338       $tryMap$?KillAll@TCustomMsgServer@@IEAAXXZ 000000018006b338     snap7:snap_tcpsrvr.obj
 0002:0001834c       $handlerMap$0$?KillAll@TCustomMsgServer@@IEAAXXZ 000000018006b34c     snap7:snap_tcpsrvr.obj
 0002:00018360       $ip2state$?KillAll@TCustomMsgServer@@IEAAXXZ 000000018006b360     snap7:snap_tcpsrvr.obj
 0002:00018380       $unwind$?catch$0@?0??KillAll@TCustomMsgServer@@IEAAXXZ@4HA 000000018006b380     snap7:snap_tcpsrvr.obj
 0002:00018390       $unwind$?CreateWorkerSocket@TCustomMsgServer@@MEAAPEAVTMsgSocket@@_K@Z 000000018006b390     snap7:snap_tcpsrvr.obj
 0002:000183a4       $stateUnwindMap$?CreateWorkerSocket@TCustomMsgServer@@MEAAPEAVTMsgSocket@@_K@Z 000000018006b3a4     snap7:snap_tcpsrvr.obj
 0002:000183b0       $ip2state$?CreateWorkerSocket@TCustomMsgServer@@MEAAPEAVTMsgSocket@@_K@Z 000000018006b3b0     snap7:snap_tcpsrvr.obj
 0002:000183c8       $unwind$?DoEvent@TCustomMsgServer@@MEAAXHIGGGGG@Z 000000018006b3c8     snap7:snap_tcpsrvr.obj
 0002:000183e8       $tryMap$?DoEvent@TCustomMsgServer@@MEAAXHIGGGGG@Z 000000018006b3e8     snap7:snap_tcpsrvr.obj
 0002:000183fc       $handlerMap$0$?DoEvent@TCustomMsgServer@@MEAAXHIGGGGG@Z 000000018006b3fc     snap7:snap_tcpsrvr.obj
 0002:00018410       $ip2state$?DoEvent@TCustomMsgServer@@MEAAXHIGGGGG@Z 000000018006b410     snap7:snap_tcpsrvr.obj
 0002:00018430       $unwind$?catch$0@?0??DoEvent@TCustomMsgServer@@MEAAXHIGGGGG@Z@4HA 000000018006b430     snap7:snap_tcpsrvr.obj
 0002:00018440       $unwind$?Incoming@TCustomMsgServer@@MEAAX_K@Z 000000018006b440     snap7:snap_tcpsrvr.obj
 0002:00018458       $chain$0$?Incoming@TCustomMsgServer@@MEAAX_K@Z 000000018006b458     snap7:snap_tcpsrvr.obj
 0002:0001846c       $chain$2$?Incoming@TCustomMsgServer@@MEAAX_K@Z 000000018006b46c     snap7:snap_tcpsrvr.obj
 0002:00018480       $chain$3$?Incoming@TCustomMsgServer@@MEAAX_K@Z 000000018006b480     snap7:snap_tcpsrvr.obj
 0002:00018490       $unwind$?Start@TCustomMsgServer@@QEAAHXZ 000000018006b490     snap7:snap_tcpsrvr.obj
 0002:0001849c       $chain$0$?Start@TCustomMsgServer@@QEAAHXZ 000000018006b49c     snap7:snap_tcpsrvr.obj
 0002:000184b0       $chain$2$?Start@TCustomMsgServer@@QEAAHXZ 000000018006b4b0     snap7:snap_tcpsrvr.obj
 0002:000184c4       $chain$3$?Start@TCustomMsgServer@@QEAAHXZ 000000018006b4c4     snap7:snap_tcpsrvr.obj
 0002:000184d4       $unwind$?PickEvent@TCustomMsgServer@@QEAA_NPEAX@Z 000000018006b4d4     snap7:snap_tcpsrvr.obj
 0002:000184e8       $tryMap$?PickEvent@TCustomMsgServer@@QEAA_NPEAX@Z 000000018006b4e8     snap7:snap_tcpsrvr.obj
 0002:000184fc       $handlerMap$0$?PickEvent@TCustomMsgServer@@QEAA_NPEAX@Z 000000018006b4fc     snap7:snap_tcpsrvr.obj
 0002:00018510       $ip2state$?PickEvent@TCustomMsgServer@@QEAA_NPEAX@Z 000000018006b510     snap7:snap_tcpsrvr.obj
 0002:00018530       $unwind$?catch$0@?0??PickEvent@TCustomMsgServer@@QEAA_NPEAX@Z@4HA 000000018006b530     snap7:snap_tcpsrvr.obj
 0002:00018540       $unwind$?Purge@TMsgSocket@@IEAAXXZ 000000018006b540     snap7:snap_msgsock.obj
 0002:00018554       $chain$2$?WaitForData@TMsgSocket@@IEAAHHH@Z 000000018006b554     snap7:snap_msgsock.obj
 0002:00018570       $chain$5$?WaitForData@TMsgSocket@@IEAAHHH@Z 000000018006b570     snap7:snap_msgsock.obj
 0002:0001858c       $chain$6$?WaitForData@TMsgSocket@@IEAAHHH@Z 000000018006b58c     snap7:snap_msgsock.obj
 0002:0001859c       $chain$7$?WaitForData@TMsgSocket@@IEAAHHH@Z 000000018006b59c     snap7:snap_msgsock.obj
 0002:000185ac       $unwind$?CanRead@TMsgSocket@@QEAA_NH@Z 000000018006b5ac     snap7:snap_msgsock.obj
 0002:000185ac       $unwind$?CanWrite@TMsgSocket@@AEAA_NH@Z 000000018006b5ac     snap7:snap_msgsock.obj
 0002:000185c0       $unwind$?ForceClose@TMsgSocket@@QEAAXXZ 000000018006b5c0     snap7:snap_msgsock.obj
 0002:000185d0       $tryMap$?ForceClose@TMsgSocket@@QEAAXXZ 000000018006b5d0     snap7:snap_msgsock.obj
 0002:000185e4       $handlerMap$0$?ForceClose@TMsgSocket@@QEAAXXZ 000000018006b5e4     snap7:snap_msgsock.obj
 0002:000185f8       $ip2state$?ForceClose@TMsgSocket@@QEAAXXZ 000000018006b5f8     snap7:snap_msgsock.obj
 0002:00018618       $unwind$?catch$0@?0??ForceClose@TMsgSocket@@QEAAXXZ@4HA 000000018006b618     snap7:snap_msgsock.obj
 0002:00018628       $unwind$?IcmpInit@@YA_NXZ  000000018006b628     snap7:snap_msgsock.obj
 0002:00018638       $unwind$?CanRead@TRawSocketPinger@@AEAA_NH@Z 000000018006b638     snap7:snap_msgsock.obj
 0002:00018648       $unwind$?Ping@TRawSocketPinger@@QEAA_NIH@Z 000000018006b648     snap7:snap_msgsock.obj
 0002:0001865c       $chain$1$?Ping@TRawSocketPinger@@QEAA_NIH@Z 000000018006b65c     snap7:snap_msgsock.obj
 0002:00018674       $chain$2$?Ping@TRawSocketPinger@@QEAA_NIH@Z 000000018006b674     snap7:snap_msgsock.obj
 0002:00018684       $unwind$?WinPing@TPinger@@AEAA_NIH@Z 000000018006b684     snap7:snap_msgsock.obj
 0002:000186a0       $unwind$?PeerConnect@TSnap7Peer@@QEAAHXZ 000000018006b6a0     snap7:s7_peer.obj
 0002:000186ac       $chain$0$?PeerConnect@TSnap7Peer@@QEAAHXZ 000000018006b6ac     snap7:s7_peer.obj
 0002:000186c0       $chain$1$?PeerConnect@TSnap7Peer@@QEAAHXZ 000000018006b6c0     snap7:s7_peer.obj
 0002:000186d0       $unwind$?ThreadProc@@YAKPEAX@Z 000000018006b6d0     snap7:snap_threads.obj
 0002:000186e0       $tryMap$?ThreadProc@@YAKPEAX@Z 000000018006b6e0     snap7:snap_threads.obj
 0002:000186f4       $handlerMap$0$?ThreadProc@@YAKPEAX@Z 000000018006b6f4     snap7:snap_threads.obj
 0002:00018708       $ip2state$?ThreadProc@@YAKPEAX@Z 000000018006b708     snap7:snap_threads.obj
 0002:00018728       $unwind$?catch$0@?0??ThreadProc@@YAKPEAX@Z@4HA 000000018006b728     snap7:snap_threads.obj
 0002:00018738       xdata                      000000018006b738     node:node.exe
 0002:00018740       $unwind$??_G_Fac_node@std@@QEAAPEAXI@Z 000000018006b740     libcpmt:locale0.obj
 0002:00018760       $ip2state$??_G_Fac_node@std@@QEAAPEAXI@Z 000000018006b760     libcpmt:locale0.obj
 0002:00018778       $unwind$?_Locimp_dtor@_Locimp@locale@std@@CAXPEAV123@@Z 000000018006b778     libcpmt:locale0.obj
 0002:00018798       $ip2state$?_Locimp_dtor@_Locimp@locale@std@@CAXPEAV123@@Z 000000018006b798     libcpmt:locale0.obj
 0002:000187b0       $unwind$??_G_Locimp@locale@std@@MEAAPEAXI@Z 000000018006b7b0     libcpmt:locale0.obj
 0002:000187c8       $ip2state$??_G_Locimp@locale@std@@MEAAPEAXI@Z 000000018006b7c8     libcpmt:locale0.obj
 0002:000187e0       $unwind$?_Init@locale@std@@CAPEAV_Locimp@12@_N@Z 000000018006b7e0     libcpmt:locale0.obj
 0002:000187f8       $stateUnwindMap$?_Init@locale@std@@CAPEAV_Locimp@12@_N@Z 000000018006b7f8     libcpmt:locale0.obj
 0002:000187f8       $stateUnwindMap$?_Locimp_dtor@_Locimp@locale@std@@CAXPEAV123@@Z 000000018006b7f8     libcpmt:locale0.obj
 0002:00018800       $ip2state$?_Init@locale@std@@CAPEAV_Locimp@12@_N@Z 000000018006b800     libcpmt:locale0.obj
 0002:00018818       $unwind$??__Fclassic_locale@std@@YAXXZ 000000018006b818     libcpmt:locale0.obj
 0002:00018830       $ip2state$??__Fclassic_locale@std@@YAXXZ 000000018006b830     libcpmt:locale0.obj
 0002:00018848       $unwind$_Tolower           000000018006b848     libcpmt:_tolower.obj
 0002:00018858       $unwind$_Toupper           000000018006b858     libcpmt:_toupper.obj
 0002:0001886c       $unwind$??__Finit_atexit@@YAXXZ 000000018006b86c     libcpmt:iosptrs.obj
 0002:0001887c       $stateUnwindMap$??__Fclassic_locale@std@@YAXXZ 000000018006b87c     libcpmt:locale0.obj
 0002:0001887c       $stateUnwindMap$??__Finit_atexit@@YAXXZ 000000018006b87c     libcpmt:iosptrs.obj
 0002:0001887c       $stateUnwindMap$??_G_Locimp@locale@std@@MEAAPEAXI@Z 000000018006b87c     libcpmt:locale0.obj
 0002:0001887c       $stateUnwindMap$??_G_Fac_node@std@@QEAAPEAXI@Z 000000018006b87c     libcpmt:locale0.obj
 0002:00018888       $ip2state$??__Finit_atexit@@YAXXZ 000000018006b888     libcpmt:iosptrs.obj
 0002:000188a0       $unwind$__crtLCMapStringA  000000018006b8a0     libcpmt:StlLCMapStringA.obj
 0002:000188c8       $xdatasym                  000000018006b8c8     LIBCMT:_amdsecgs_.obj
 0002:000188cc       $unwind$__scrt_is_nonwritable_in_current_image 000000018006b8cc     LIBCMT:utility.obj
 0002:000188ec       $unwind$__scrt_is_nonwritable_in_current_image$filt$0 000000018006b8ec     LIBCMT:utility.obj
 0002:000188f4       $unwind$__scrt_initialize_onexit_tables 000000018006b8f4     LIBCMT:utility.obj
 0002:00018900       $unwind$?dllmain_crt_process_attach@@YAHQEAUHINSTANCE__@@QEAX@Z 000000018006b900     LIBCMT:dll_dllmain.obj
 0002:0001892c       $unwind$?dllmain_crt_process_detach@@YAH_N@Z 000000018006b92c     LIBCMT:dll_dllmain.obj
 0002:00018954       $unwind$?dllmain_dispatch@@YAHQEAUHINSTANCE__@@KQEAX@Z 000000018006b954     LIBCMT:dll_dllmain.obj
 0002:0001897c       $unwind$?fin$0@?0???$common_getenv_s@D@@YAHQEA_KQEAD_KQEBD@Z@4HA 000000018006b97c     libucrt:getenv.obj
 0002:0001897c       $unwind$setlocale$fin$0    000000018006b97c     libucrt:setlocale.obj
 0002:0001897c       $unwind$?filt$0@?0??dllmain_dispatch@@YAHQEAUHINSTANCE__@@KQEAX@Z@4HA 000000018006b97c     LIBCMT:dll_dllmain.obj
 0002:00018984       $unwind$__GSHandlerCheckCommon 000000018006b984     LIBCMT:_gshandler_.obj
 0002:0001898c       $unwind$__acrt_initialize_stdio 000000018006b98c     libucrt:_file.obj
 0002:0001898c       $unwind$_initterm          000000018006b98c     libucrt:initterm.obj
 0002:0001898c       $unwind$TranslateName      000000018006b98c     libucrt:getqloc_downlevel.obj
 0002:0001898c       $unwind$GetTableIndexFromLocaleName 000000018006b98c     libcpmt:winapinls.obj
 0002:0001898c       $unwind$__TypeMatch        000000018006b98c     libvcruntime:frame.obj
 0002:0001898c       $unwind$__GSHandlerCheck_EH 000000018006b98c     LIBCMT:gshandlereh.obj
 0002:0001898c       $unwind$?process@?$output_processor@_WV?$string_output_adapter@_W@__crt_stdio_output@@V?$standard_base@_WV?$string_output_adapter@_W@__crt_stdio_output@@@2@@__crt_stdio_output@@QEAAHXZ 000000018006b98c     libucrt:output.obj
 0002:0001898c       $unwind$__acrt_MessageBoxW 000000018006b98c     libucrt:winapi_thunks.obj
 0002:0001898c       $unwind$__acrt_LCIDToLocaleName 000000018006b98c     libucrt:winapi_thunks.obj
 0002:0001898c       $unwind$__acrt_GetLocaleInfoEx 000000018006b98c     libucrt:winapi_thunks.obj
 0002:000189a8       $xdatasym                  000000018006b9a8     LIBCMT:_chkstk_.obj
 0002:000189b0       $unwind$__report_securityfailure 000000018006b9b0     LIBCMT:gs_report.obj
 0002:000189b8       $unwind$capture_current_context 000000018006b9b8     LIBCMT:gs_report.obj
 0002:000189c4       $unwind$capture_previous_context 000000018006b9c4     LIBCMT:gs_report.obj
 0002:000189d0       $unwind$__scrt_fastfail    000000018006b9d0     LIBCMT:utility_desktop.obj
 0002:000189e0       $unwind$__isa_available_init 000000018006b9e0     LIBCMT:_cpu_disp_.obj
 0002:000189f0       $unwind$__security_init_cookie 000000018006b9f0     LIBCMT:gs_support.obj
 0002:00018a00       $xdatasym                  000000018006ba00     LIBCMT:_guard_dispatch_.obj
 0002:00018a08       $xdatasym                  000000018006ba08     libvcruntime:memcpy.obj
 0002:00018a0c       $unwind$__CxxCallCatchBlock 000000018006ba0c     libvcruntime:frame.obj
 0002:00018a48       $unwind$__FrameUnwindToState 000000018006ba48     libvcruntime:frame.obj
 0002:00018a84       $unwind$?FindHandler@@YAXPEAUEHExceptionRecord@@PEA_KPEAU_CONTEXT@@PEAU_xDISPATCHER_CONTEXT@@PEBU_s_FuncInfo@@EH1@Z 000000018006ba84     libvcruntime:frame.obj
 0002:00018aa4       $unwind$?CatchIt@@YAXPEAUEHExceptionRecord@@PEA_KPEAU_CONTEXT@@PEAU_xDISPATCHER_CONTEXT@@PEBU_s_FuncInfo@@PEBU_s_HandlerType@@PEBU_s_CatchableType@@PEBU_s_TryBlockMapEntry@@H1EE@Z 000000018006baa4     libvcruntime:frame.obj
 0002:00018abc       $unwind$__BuildCatchObject 000000018006babc     libvcruntime:frame.obj
 0002:00018ae8       $unwind$?FindHandlerForForeignException@@YAXPEAUEHExceptionRecord@@PEA_KPEAU_CONTEXT@@PEAU_xDISPATCHER_CONTEXT@@PEBU_s_FuncInfo@@HH1@Z 000000018006bae8     libvcruntime:frame.obj
 0002:00018b00       $unwind$__DestructExceptionObject 000000018006bb00     libvcruntime:frame.obj
 0002:00018b24       $unwind$?try_get_function@@YAPEAXW4function_id@?A0x679b24ab@@QEBDQEBW4module_id@2@2@Z 000000018006bb24     libvcruntime:winapi_downlevel.obj
 0002:00018b24       $unwind$?write_string@?$string_output_adapter@_W@__crt_stdio_output@@QEBAXQEB_WHQEAH1@Z 000000018006bb24     libucrt:output.obj
 0002:00018b24       $unwind$?IsInExceptionSpec@@YAEPEAUEHExceptionRecord@@PEBU_s_ESTypeList@@@Z 000000018006bb24     libvcruntime:frame.obj
 0002:00018b24       $unwind$?try_get_function@@YAPEAXW4function_id@?A0x63058377@@QEBDQEBW4module_id@2@2@Z 000000018006bb24     libucrt:winapi_thunks.obj
 0002:00018b40       $unwind$__BuildCatchObjectHelper 000000018006bb40     libvcruntime:frame.obj
 0002:00018b80       $unwind$?_GetEstablisherFrame@@YAPEA_KPEA_KPEAU_xDISPATCHER_CONTEXT@@PEBU_s_FuncInfo@@0@Z 000000018006bb80     libvcruntime:trnsctrl.obj
 0002:00018b98       $unwind$?__FrameUnwindToEmptyState@@YAXPEA_KPEAU_xDISPATCHER_CONTEXT@@PEBU_s_FuncInfo@@@Z 000000018006bb98     libvcruntime:trnsctrl.obj
 0002:00018bac       $unwind$_CallSETranslator  000000018006bbac     libvcruntime:trnsctrl.obj
 0002:00018bd0       $unwind$_CallSETranslator$filt$0 000000018006bbd0     libvcruntime:trnsctrl.obj
 0002:00018bd8       $unwind$_UnwindNestedFrames 000000018006bbd8     libvcruntime:trnsctrl.obj
 0002:00018bec       $unwind$_CxxThrowException 000000018006bbec     libvcruntime:throw.obj
 0002:00018c00       $xdatasym                  000000018006bc00     libvcruntime:memset.obj
 0002:00018c08       $xdatasym                  000000018006bc08     libvcruntime:memcmp.obj
 0002:00018c0c       $unwind$__vcrt_uninitialize_winapi_thunks 000000018006bc0c     libvcruntime:winapi_downlevel.obj
 0002:00018c0c       $unwind$__acrt_stdio_end_temporary_buffering_nolock 000000018006bc0c     libucrt:_sftbuf.obj
 0002:00018c14       $unwind$__acrt_locale_initialize_numeric 000000018006bc14     libucrt:initnum.obj
 0002:00018c14       $unwind$__C_specific_handler 000000018006bc14     libvcruntime:_chandler_.obj
 0002:00018c14       $unwind$__InternalCxxFrameHandler 000000018006bc14     libvcruntime:frame.obj
 0002:00018c30       $xdatasym                  000000018006bc30     libvcruntime:handlers.obj
 0002:00018c38       $xdatasym                  000000018006bc38     libvcruntime:_jmpuwind_.obj
 0002:00018c4c       $unwind$__acrt_call_reportfault 000000018006bc4c     libucrt:invalid_parameter.obj
 0002:00018c6c       $unwind$??$common_mktime@_J@@YA_JQEAUtm@@_N@Z 000000018006bc6c     libucrt:mktime.obj
 0002:00018c88       $unwind$strcspn            000000018006bc88     libucrt:strcspn.obj
 0002:00018c88       $unwind$strpbrk            000000018006bc88     libucrt:strpbrk.obj
 0002:00018c98       $unwind$__stdio_common_vfwprintf 000000018006bc98     libucrt:output.obj
 0002:00018ca0       $unwind$__stdio_common_vswprintf 000000018006bca0     libucrt:output.obj
 0002:00018cc4       $unwind$?write_string@?$stream_output_adapter@_W@__crt_stdio_output@@QEBAXQEB_WHQEAH1@Z 000000018006bcc4     libucrt:output.obj
 0002:00018cdc       $unwind$?process@?$output_processor@_WV?$stream_output_adapter@_W@__crt_stdio_output@@V?$standard_base@_WV?$stream_output_adapter@_W@__crt_stdio_output@@@2@@__crt_stdio_output@@QEAAHXZ 000000018006bcdc     libucrt:output.obj
 0002:00018cf4       $unwind$?write_stored_string_tchar@?$output_processor@_WV?$stream_output_adapter@_W@__crt_stdio_output@@V?$standard_base@_WV?$stream_output_adapter@_W@__crt_stdio_output@@@2@@__crt_stdio_output@@AEAA_N_W@Z 000000018006bcf4     libucrt:output.obj
 0002:00018d08       $unwind$??R<lambda_dd75445284c072d0bd3768540cc698fa>@@QEBAHXZ 000000018006bd08     libucrt:output.obj
 0002:00018d24       $unwind$?parse_int_from_format_string@?$output_processor@_WV?$stream_output_adapter@_W@__crt_stdio_output@@V?$standard_base@_WV?$stream_output_adapter@_W@__crt_stdio_output@@@2@@__crt_stdio_output@@AEAA_NQEAH@Z 000000018006bd24     libucrt:output.obj
 0002:00018d24       $unwind$?parse_int_from_format_string@?$output_processor@_WV?$string_output_adapter@_W@__crt_stdio_output@@V?$standard_base@_WV?$string_output_adapter@_W@__crt_stdio_output@@@2@@__crt_stdio_output@@AEAA_NQEAH@Z 000000018006bd24     libucrt:output.obj
 0002:00018d38       $unwind$?state_case_type@?$output_processor@_WV?$string_output_adapter@_W@__crt_stdio_output@@V?$standard_base@_WV?$string_output_adapter@_W@__crt_stdio_output@@@2@@__crt_stdio_output@@AEAA_NXZ 000000018006bd38     libucrt:output.obj
 0002:00018d38       $unwind$?state_case_type@?$output_processor@_WV?$stream_output_adapter@_W@__crt_stdio_output@@V?$standard_base@_WV?$stream_output_adapter@_W@__crt_stdio_output@@@2@@__crt_stdio_output@@AEAA_NXZ 000000018006bd38     libucrt:output.obj
 0002:00018d5c       $unwind$?type_case_a@?$output_processor@_WV?$string_output_adapter@_W@__crt_stdio_output@@V?$standard_base@_WV?$string_output_adapter@_W@__crt_stdio_output@@@2@@__crt_stdio_output@@AEAA_NXZ 000000018006bd5c     libucrt:output.obj
 0002:00018d5c       $unwind$?type_case_a@?$output_processor@_WV?$stream_output_adapter@_W@__crt_stdio_output@@V?$standard_base@_WV?$stream_output_adapter@_W@__crt_stdio_output@@@2@@__crt_stdio_output@@AEAA_NXZ 000000018006bd5c     libucrt:output.obj
 0002:00018d6c       $unwind$?write_stored_string_tchar@?$output_processor@_WV?$string_output_adapter@_W@__crt_stdio_output@@V?$standard_base@_WV?$string_output_adapter@_W@__crt_stdio_output@@@2@@__crt_stdio_output@@AEAA_N_W@Z 000000018006bd6c     libucrt:output.obj
 0002:00018d6c       $unwind$?cvtdate@@YAXW4transition_type@?A0x1b14ceb2@@W4date_type@2@HHHHHHHHH@Z 000000018006bd6c     libucrt:tzset.obj
 0002:00018d80       $unwind$??$common_vsprintf@Vformat_validation_base@__crt_stdio_output@@D@@YAH_KQEAD0QEBDQEAU__crt_locale_pointers@@1@Z 000000018006bd80     libucrt:output.obj
 0002:00018da0       $unwind$??$write_multiple_characters@V?$stream_output_adapter@_W@__crt_stdio_output@@D@__crt_stdio_output@@YAXAEBV?$stream_output_adapter@_W@0@DHQEAH@Z 000000018006bda0     libucrt:output.obj
 0002:00018db8       $unwind$??$write_multiple_characters@V?$string_output_adapter@_W@__crt_stdio_output@@D@__crt_stdio_output@@YAXAEBV?$string_output_adapter@_W@0@DHQEAH@Z 000000018006bdb8     libucrt:output.obj
 0002:00018dc4       $unwind$??$?RV<lambda_7b91131dde12e1c3dfc74ff76b3f2eac>@@AEAV<lambda_dd75445284c072d0bd3768540cc698fa>@@V<lambda_16bc4ecb55b4718497c16bceaea2ceaf>@@@?$__crt_seh_guarded_call@H@@QEAAH$$QEAV<lambda_7b91131dde12e1c3dfc74ff76b3f2eac>@@AEAV<lambda_dd75445284c072d0bd3768540cc698fa>@@$$QEAV<lambda_16bc4ecb55b4718497c16bceaea2ceaf>@@@Z 000000018006bdc4     libucrt:output.obj
 0002:00018de8       $unwind$?parse_int_from_format_string@?$output_processor@DV?$string_output_adapter@D@__crt_stdio_output@@V?$format_validation_base@DV?$string_output_adapter@D@__crt_stdio_output@@@2@@__crt_stdio_output@@AEAA_NQEAH@Z 000000018006bde8     libucrt:output.obj
 0002:00018dfc       $unwind$?state_case_type@?$output_processor@DV?$string_output_adapter@D@__crt_stdio_output@@V?$format_validation_base@DV?$string_output_adapter@D@__crt_stdio_output@@@2@@__crt_stdio_output@@AEAA_NXZ 000000018006bdfc     libucrt:output.obj
 0002:00018e14       $unwind$?type_case_a@?$output_processor@DV?$string_output_adapter@D@__crt_stdio_output@@V?$format_validation_base@DV?$string_output_adapter@D@__crt_stdio_output@@@2@@__crt_stdio_output@@AEAA_NXZ 000000018006be14     libucrt:output.obj
 0002:00018e20       $unwind$?write_stored_string_tchar@?$output_processor@DV?$string_output_adapter@D@__crt_stdio_output@@V?$format_validation_base@DV?$string_output_adapter@D@__crt_stdio_output@@@2@@__crt_stdio_output@@AEAA_ND@Z 000000018006be20     libucrt:output.obj
 0002:00018e38       $unwind$??$common_localtime_s@_J@@YAHQEAUtm@@QEB_J@Z 000000018006be38     libucrt:localtime.obj
 0002:00018e44       $unwind$frexp              000000018006be44     libucrt:frexp.obj
 0002:00018e58       $unwind$fwprintf           000000018006be58     libucrt:assert.obj
 0002:00018e64       $unwind$??$common_assert_to_stderr@_W@@YAXQEB_W0I@Z 000000018006be64     libucrt:assert.obj
 0002:00018e80       $unwind$??$common_assert_to_message_box@_W@@YAXQEB_W0IQEAX@Z 000000018006be80     libucrt:assert.obj
 0002:00018e9c       $unwind$??$common_assert_to_message_box_build_string@_W@@YAXQEA_W_KQEB_W2IQEAX@Z 000000018006be9c     libucrt:assert.obj
 0002:00018ec0       $xdatasym                  000000018006bec0     libucrt:strncpy.obj
 0002:00018ec4       $unwind$_Strftime_l        000000018006bec4     libucrt:strftime.obj
 0002:00018ec4       $unwind$__acrt_fp_format   000000018006bec4     libucrt:cvt.obj
 0002:00018ee0       $unwind$setlocale          000000018006bee0     libucrt:setlocale.obj
 0002:00018f10       $unwind$call_wsetlocale    000000018006bf10     libucrt:setlocale.obj
 0002:00018f24       $unwind$__acrt_locale_initialize_ctype 000000018006bf24     libucrt:initctype.obj
 0002:00018f4c       $unwind$?divide@__crt_strtox@@YA_KAEAUbig_integer@1@AEBU21@@Z 000000018006bf4c     libucrt:strtod.obj
 0002:00018f6c       $chain$5$?divide@__crt_strtox@@YA_KAEAUbig_integer@1@AEBU21@@Z 000000018006bf6c     libucrt:strtod.obj
 0002:00018f80       $chain$6$?divide@__crt_strtox@@YA_KAEAUbig_integer@1@AEBU21@@Z 000000018006bf80     libucrt:strtod.obj
 0002:00018f90       $xdatasym                  000000018006bf90     libucrt:pow.obj
 0002:00018fa0       $xdatasym                  000000018006bfa0     libucrt:powf.obj
 0002:00018fb0       $unwind$_Wcsftime_l        000000018006bfb0     libucrt:wcsftime.obj
 0002:00018fcc       $unwind$?store_number@@YAXHHQEAPEA_WQEA_K_W@Z 000000018006bfcc     libucrt:wcsftime.obj
 0002:00018fe0       $unwind$?expand_time@@YA_NPEAU__crt_locale_pointers@@_WPEBUtm@@PEAPEA_WPEA_KPEBU__crt_lc_time_data@@_N@Z 000000018006bfe0     libucrt:wcsftime.obj
 0002:00018ff0       $unwind$?store_winword@@YA_NQEAU__crt_locale_pointers@@HQEBUtm@@QEAPEA_WQEA_KQEBU__crt_lc_time_data@@@Z 000000018006bff0     libucrt:wcsftime.obj
 0002:00019014       $unwind$_tolower_l         000000018006c014     libucrt:tolower_toupper.obj
 0002:00019024       $unwind$wcsnlen            000000018006c024     libucrt:strnlen.obj
 0002:00019024       $unwind$strnlen            000000018006c024     libucrt:strnlen.obj
 0002:0001902c       $unwind$_query_new_handler 000000018006c02c     libucrt:new_handler.obj
 0002:0001904c       $unwind$?common_exit@@YAXHW4_crt_exit_cleanup_mode@@W4_crt_exit_return_mode@@@Z 000000018006c04c     libucrt:exit.obj
 0002:0001908c       $unwind$_configure_narrow_argv 000000018006c08c     libucrt:argv_parsing.obj
 0002:000190a0       $unwind$??$initialize_environment_by_cloning_nolock@D@@YAHXZ 000000018006c0a0     libucrt:environment_initialization.obj
 0002:000190b0       $unwind$_register_onexit_function 000000018006c0b0     libucrt:onexit.obj
 0002:000190b8       $unwind$_execute_onexit_table 000000018006c0b8     libucrt:onexit.obj
 0002:000190c0       $unwind$??$?RV<lambda_b8c45f8f788dd370798f47cfe8ac3a86>@@AEAV<lambda_4e60a939b0d047cfe11ddc22648dfba9>@@V<lambda_332c3edc96d0294ec56c57d38c1cdfd5>@@@?$__crt_seh_guarded_call@H@@QEAAH$$QEAV<lambda_b8c45f8f788dd370798f47cfe8ac3a86>@@AEAV<lambda_4e60a939b0d047cfe11ddc22648dfba9>@@$$QEAV<lambda_332c3edc96d0294ec56c57d38c1cdfd5>@@@Z 000000018006c0c0     libucrt:onexit.obj
 0002:000190e4       $unwind$??$?RV<lambda_e24bbb7b643b32fcea6fa61b31d4c984>@@AEAV<lambda_275893d493268fdec8709772e3fcec0e>@@V<lambda_9d71df4d7cf3f480f8d633942495c3b0>@@@?$__crt_seh_guarded_call@H@@QEAAH$$QEAV<lambda_e24bbb7b643b32fcea6fa61b31d4c984>@@AEAV<lambda_275893d493268fdec8709772e3fcec0e>@@$$QEAV<lambda_9d71df4d7cf3f480f8d633942495c3b0>@@@Z 000000018006c0e4     libucrt:onexit.obj
 0002:00019114       $unwind$terminate          000000018006c114     libucrt:terminate.obj
 0002:00019134       $unwind$??$parse_integer@KV?$c_string_character_source@D@__crt_strtox@@@__crt_strtox@@YAKQEAU__crt_locale_pointers@@V?$c_string_character_source@D@0@H_N@Z 000000018006c134     libucrt:atox.obj
 0002:00019150       $unwind$??$parse_integer@KV?$c_string_character_source@_W@__crt_strtox@@@__crt_strtox@@YAKQEAU__crt_locale_pointers@@V?$c_string_character_source@_W@0@H_N@Z 000000018006c150     libucrt:atox.obj
 0002:0001916c       $unwind$__acrt_get_sigabrt_handler 000000018006c16c     libucrt:signal.obj
 0002:00019174       $unwind$raise              000000018006c174     libucrt:signal.obj
 0002:000191a0       $unwind$??$?RV<lambda_c36588078e9f5dfd39652860aa6b3aaf>@@AEAV<lambda_ec61778202f4f5fc7e7711acc23c3bca>@@V<lambda_dc9d2797ccde5d239b4a0efae8ebd7db>@@@?$__crt_seh_guarded_call@P6AXH@Z@@QEAAP6AXH@Z$$QEAV<lambda_c36588078e9f5dfd39652860aa6b3aaf>@@AEAV<lambda_ec61778202f4f5fc7e7711acc23c3bca>@@$$QEAV<lambda_dc9d2797ccde5d239b4a0efae8ebd7db>@@@Z 000000018006c1a0     libucrt:signal.obj
 0002:000191c4       $unwind$?construct_ptd_array@@YAXQEAU__acrt_ptd@@@Z 000000018006c1c4     libucrt:per_thread_data.obj
 0002:000191cc       $unwind$?destroy_ptd_array@@YAXQEAU__acrt_ptd@@@Z 000000018006c1cc     libucrt:per_thread_data.obj
 0002:000191d4       $unwind$??$?RV<lambda_72d1df2b273a38828b1ce30cbf4cdab5>@@AEAV<lambda_876a65b173b8412d3a47c70a915b0cf4>@@V<lambda_41932305e351933ebe8f8be3ed8bb5dc>@@@?$__crt_seh_guarded_call@X@@QEAAX$$QEAV<lambda_72d1df2b273a38828b1ce30cbf4cdab5>@@AEAV<lambda_876a65b173b8412d3a47c70a915b0cf4>@@$$QEAV<lambda_41932305e351933ebe8f8be3ed8bb5dc>@@@Z 000000018006c1d4     libucrt:per_thread_data.obj
 0002:000191f8       $unwind$??$?RV<lambda_5e887d1dcbef67a5eb4283622ba103bf>@@AEAV<lambda_4466841279450cc726390878d4a41900>@@V<lambda_341c25c0346d94847f1f3c463c57e077>@@@?$__crt_seh_guarded_call@X@@QEAAX$$QEAV<lambda_5e887d1dcbef67a5eb4283622ba103bf>@@AEAV<lambda_4466841279450cc726390878d4a41900>@@$$QEAV<lambda_341c25c0346d94847f1f3c463c57e077>@@@Z 000000018006c1f8     libucrt:per_thread_data.obj
 0002:0001921c       $unwind$??$?RV<lambda_46352004c1216016012b18bd6f87e700>@@AEAV<lambda_3bd07e1a1191394380780325891bf33f>@@V<lambda_334532d3f185bcaa59b5be82d7d22bff>@@@?$__crt_seh_guarded_call@X@@QEAAX$$QEAV<lambda_46352004c1216016012b18bd6f87e700>@@AEAV<lambda_3bd07e1a1191394380780325891bf33f>@@$$QEAV<lambda_334532d3f185bcaa59b5be82d7d22bff>@@@Z 000000018006c21c     libucrt:per_thread_data.obj
 0002:00019240       $unwind$??$?RV<lambda_fb3a7dec4e47f37f22dae91bb15c9095>@@AEAV<lambda_698284760c8add0bfb0756c19673e34b>@@V<lambda_dfb8eca1e75fef3034a8fb18dd509707>@@@?$__crt_seh_guarded_call@X@@QEAAX$$QEAV<lambda_fb3a7dec4e47f37f22dae91bb15c9095>@@AEAV<lambda_698284760c8add0bfb0756c19673e34b>@@$$QEAV<lambda_dfb8eca1e75fef3034a8fb18dd509707>@@@Z 000000018006c240     libucrt:per_thread_data.obj
 0002:00019264       $unwind$_isindst           000000018006c264     libucrt:tzset.obj
 0002:00019284       $unwind$__tzset            000000018006c284     libucrt:tzset.obj
 0002:000192a4       $unwind$?tzset_from_system_nolock@@YAXXZ 000000018006c2a4     libucrt:tzset.obj
 0002:000192b4       $unwind$?tzset_from_environment_nolock@@YAXPEAD@Z 000000018006c2b4     libucrt:tzset.obj
 0002:000192c8       $unwind$?tzset_nolock@@YAXXZ 000000018006c2c8     libucrt:tzset.obj
 0002:000192e4       $unwind$?_isindst_nolock@@YAHQEAUtm@@@Z 000000018006c2e4     libucrt:tzset.obj
 0002:00019300       $unwind$_wctomb_s_l        000000018006c300     libucrt:wctomb.obj
 0002:00019310       $unwind$?fp_format_nan_or_infinity@@YAHW4__acrt_fp_class@@_NPEAD_K1@Z 000000018006c310     libucrt:cvt.obj
 0002:00019324       $unwind$?fp_format_e_internal@@YAHQEAD_KH_NIQEAU_strflt@@2QEAU__crt_locale_pointers@@@Z 000000018006c324     libucrt:cvt.obj
 0002:0001933c       $unwind$?fp_format_a@@YAHQEBNPEAD_KQEAD2H_NIQEAU__crt_locale_pointers@@@Z 000000018006c33c     libucrt:cvt.obj
 0002:00019358       $unwind$?fp_format_g@@YAHQEBNQEAD_K12H_NIQEAU__crt_locale_pointers@@@Z 000000018006c358     libucrt:cvt.obj
 0002:0001936c       $unwind$_fputwc_nolock     000000018006c36c     libucrt:fputwc.obj
 0002:00019388       $unwind$__acrt_copy_locale_name 000000018006c388     libucrt:wsetlocale.obj
 0002:00019398       $unwind$_wsetlocale        000000018006c398     libucrt:wsetlocale.obj
 0002:000193a0       $unwind$_expandlocale      000000018006c3a0     libucrt:wsetlocale.obj
 0002:000193c0       $unwind$_wcscats           000000018006c3c0     libucrt:wsetlocale.obj
 0002:000193d0       $unwind$__acrt_DownlevelLCIDToLocaleName 000000018006c3d0     libucrt:lcidtoname_downlevel.obj
 0002:000193d0       $unwind$__lc_lctowcs       000000018006c3d0     libucrt:wsetlocale.obj
 0002:000193d0       $unwind$_wcsdup            000000018006c3d0     libucrt:wcsdup.obj
 0002:000193e4       $unwind$??$create_environment@D@@YAQEAPEADQEAD@Z 000000018006c3e4     libucrt:environment_initialization.obj
 0002:000193e4       $unwind$__lc_wcstolc       000000018006c3e4     libucrt:wsetlocale.obj
 0002:000193fc       $unwind$_wsetlocale_set_cat 000000018006c3fc     libucrt:wsetlocale.obj
 0002:00019420       $unwind$_wsetlocale_get_all 000000018006c420     libucrt:wsetlocale.obj
 0002:0001943c       $unwind$_wsetlocale_nolock 000000018006c43c     libucrt:wsetlocale.obj
 0002:00019460       $unwind$__acrt_uninitialize_locale 000000018006c460     libucrt:wsetlocale.obj
 0002:00019480       $unwind$??R<lambda_2af78c5f5901b1372d98f9ab3177dfa6>@@QEBAXXZ 000000018006c480     libucrt:wsetlocale.obj
 0002:0001948c       $unwind$??$?RV<lambda_5df02c53a8f32f81fd64e5bbb78039f1>@@AEAV<lambda_2af78c5f5901b1372d98f9ab3177dfa6>@@AEAV<lambda_f51fe5fd7c79a33db34fc9310f277369>@@@?$__crt_seh_guarded_call@X@@QEAAX$$QEAV<lambda_5df02c53a8f32f81fd64e5bbb78039f1>@@AEAV<lambda_2af78c5f5901b1372d98f9ab3177dfa6>@@AEAV<lambda_f51fe5fd7c79a33db34fc9310f277369>@@@Z 000000018006c48c     libucrt:wsetlocale.obj
 0002:000194ac       $unwind$??$?RV<lambda_d67e8342c384adda8f857579ab50b2ae>@@AEAV<lambda_30712929f77e709619002f448b6a9510>@@V<lambda_4525336fd7e478d965fb7ca7a337cad8>@@@?$__crt_seh_guarded_call@X@@QEAAX$$QEAV<lambda_d67e8342c384adda8f857579ab50b2ae>@@AEAV<lambda_30712929f77e709619002f448b6a9510>@@$$QEAV<lambda_4525336fd7e478d965fb7ca7a337cad8>@@@Z 000000018006c4ac     libucrt:wsetlocale.obj
 0002:000194d0       $unwind$__acrt_initialize_lowio 000000018006c4d0     libucrt:ioinit.obj
 0002:000194f0       $unwind$?initialize_inherited_file_handles_nolock@@YAXXZ 000000018006c4f0     libucrt:ioinit.obj
 0002:0001950c       $unwind$_except1           000000018006c50c     libucrt:fpexcept.obj
 0002:0001952c       $unwind$_handle_exc        000000018006c52c     libucrt:fpexcept.obj
 0002:00019548       $unwind$_umatherr          000000018006c548     libucrt:fpexcept.obj
 0002:00019550       $unwind$_raise_exc_ex      000000018006c550     libucrt:fpexcept.obj
 0002:00019564       $unwind$_ctrlfp            000000018006c564     libucrt:fpctrl.obj
 0002:0001958c       $unwind$fflush             000000018006c58c     libucrt:fflush.obj
 0002:000195b0       $unwind$common_flush_all   000000018006c5b0     libucrt:fflush.obj
 0002:000195ec       $unwind$setvbuf            000000018006c5ec     libucrt:setvbuf.obj
 0002:000195f4       $unwind$??$?RV<lambda_7a5ef57ff966f610505f1d28a3d40618>@@AEAV<lambda_b721fa326cdb32351d23dfa67958c160>@@V<lambda_5e0fb27672408a07956fe59e48ccb2aa>@@@?$__crt_seh_guarded_call@H@@QEAAH$$QEAV<lambda_7a5ef57ff966f610505f1d28a3d40618>@@AEAV<lambda_b721fa326cdb32351d23dfa67958c160>@@$$QEAV<lambda_5e0fb27672408a07956fe59e48ccb2aa>@@@Z 000000018006c5f4     libucrt:setvbuf.obj
 0002:00019618       $unwind$__acrt_initialize_winapi_thunks 000000018006c618     libucrt:winapi_thunks.obj
 0002:00019620       $unwind$__acrt_EnumSystemLocalesEx 000000018006c620     libucrt:winapi_thunks.obj
 0002:00019634       $unwind$__acrt_GetTimeFormatEx 000000018006c634     libucrt:winapi_thunks.obj
 0002:00019634       $unwind$_invalid_parameter 000000018006c634     libucrt:invalid_parameter.obj
 0002:0001964c       $unwind$_mbtowc_l          000000018006c64c     libucrt:mbtowc.obj
 0002:0001964c       $unwind$__acrt_CompareStringEx 000000018006c64c     libucrt:winapi_thunks.obj
 0002:0001964c       $unwind$__acrt_LCMapStringEx 000000018006c64c     libucrt:winapi_thunks.obj
 0002:0001964c       $unwind$__crtLCMapStringEx 000000018006c64c     libcpmt:winapinls.obj
 0002:0001964c       $unwind$__acrt_show_wide_message_box 000000018006c64c     libucrt:crtmbox.obj
 0002:00019664       $unwind$__acrt_is_interactive 000000018006c664     libucrt:winapi_thunks.obj
 0002:00019678       $unwind$??$?RV<lambda_630b2aca97f6d20d5b5ea6529ea6b6af>@@AEAV<lambda_af91936f1d075d609f72d9d8cba980af>@@V<lambda_e82fa975f615b5c7c7b0e4d178fdae67>@@@?$__crt_seh_guarded_call@H@@QEAAH$$QEAV<lambda_630b2aca97f6d20d5b5ea6529ea6b6af>@@AEAV<lambda_af91936f1d075d609f72d9d8cba980af>@@$$QEAV<lambda_e82fa975f615b5c7c7b0e4d178fdae67>@@@Z 000000018006c678     libucrt:winapi_thunks.obj
 0002:000196a0       $unwind$_mbstowcs_s_l      000000018006c6a0     libucrt:mbstowcs.obj
 0002:000196b8       $unwind$?_mbstowcs_l_helper@@YA_KPEA_WPEBD_KPEAU__crt_locale_pointers@@@Z 000000018006c6b8     libucrt:mbstowcs.obj
 0002:000196d4       $unwind$?_wcstombs_l_helper@@YA_KPEADPEB_W_KPEAU__crt_locale_pointers@@@Z 000000018006c6d4     libucrt:wcstombs.obj
 0002:000196f4       $unwind$_isctype_l         000000018006c6f4     libucrt:isctype.obj
 0002:00019710       $unwind$__acrt_GetLocaleInfoA 000000018006c710     libucrt:getlocaleinfoa.obj
 0002:00019730       $unwind$?InternalGetLocaleInfoA@@YAHQEAU__crt_locale_pointers@@QEB_WKQEADH@Z 000000018006c730     libucrt:getlocaleinfoa.obj
 0002:00019758       $unwind$__acrt_GetStringTypeA 000000018006c758     libucrt:getstringtypea.obj
 0002:00019780       $unwind$__acrt_LCMapStringA 000000018006c780     libucrt:lcmapstringa.obj
 0002:00019790       $unwind$?__acrt_LCMapStringA_stat@@YAHPEAU__crt_locale_pointers@@PEB_WKPEBDHPEADHHH@Z 000000018006c790     libucrt:lcmapstringa.obj
 0002:000197b8       $unwind$__acrt_initialize_fma3 000000018006c7b8     libucrt:fma3_available.obj
 0002:000197c0       $unwind$_powf_special      000000018006c7c0     libucrt:pow_special.obj
 0002:000197d0       $unwind$_pow_special       000000018006c7d0     libucrt:pow_special.obj
 0002:000197dc       $unwind$??$common_expand_argv_wildcards@D@@YAHQEAPEADQEAPEAPEAD@Z 000000018006c7dc     libucrt:argv_wildcards.obj
 0002:000197f4       $unwind$__acrt_get_qualified_locale 000000018006c7f4     libucrt:get_qualified_locale.obj
 0002:000197f4       $unwind$??$copy_and_add_argument_to_buffer@D@@YAHQEBD0_KAEAV?$argument_list@D@?A0xca0879c4@@@Z 000000018006c7f4     libucrt:argv_wildcards.obj
 0002:00019810       $unwind$??$expand_argument_wildcards@D@@YAHQEAD0AEAV?$argument_list@D@?A0xca0879c4@@@Z 000000018006c810     libucrt:argv_wildcards.obj
 0002:00019830       $unwind$__acrt_update_thread_multibyte_data 000000018006c830     libucrt:mbctype.obj
 0002:00019854       $unwind$_setmbcp_nolock    000000018006c854     libucrt:mbctype.obj
 0002:00019874       $unwind$?setSBUpLow@@YAXPEAU__crt_multibyte_data@@@Z 000000018006c874     libucrt:mbctype.obj
 0002:00019890       $unwind$?setmbcp_internal@@YAHH_N@Z 000000018006c890     libucrt:mbctype.obj
 0002:000198a0       $unwind$??$?RV<lambda_99476a1ad63dd22509b5d3e65b0ffc95>@@AEAV<lambda_ad1ced32f4ac17aa236e5ef05d6b3b7c>@@V<lambda_f7424dd8d45958661754dc4f2697e9c3>@@@?$__crt_seh_guarded_call@X@@QEAAX$$QEAV<lambda_99476a1ad63dd22509b5d3e65b0ffc95>@@AEAV<lambda_ad1ced32f4ac17aa236e5ef05d6b3b7c>@@$$QEAV<lambda_f7424dd8d45958661754dc4f2697e9c3>@@@Z 000000018006c8a0     libucrt:mbctype.obj
 0002:000198c4       $unwind$??$common_set_variable_in_environment_nolock@D@@YAHQEADH@Z 000000018006c8c4     libucrt:setenv.obj
 0002:000198dc       $unwind$??$copy_environment@D@@YAPEAPEADQEAPEAD@Z 000000018006c8dc     libucrt:setenv.obj
 0002:000198f0       $unwind$__acrt_update_thread_locale_data 000000018006c8f0     libucrt:locale_refcounting.obj
 0002:00019914       $unwind$??$common_getenv_s@D@@YAHQEA_KQEAD_KQEBD@Z 000000018006c914     libucrt:getenv.obj
 0002:00019954       $unwind$__acrt_fltout      000000018006c954     libucrt:cfout.obj
 0002:00019974       $unwind$??$write_buffer_nolock@D@@YA_NDV__crt_stdio_stream@@@Z 000000018006c974     libucrt:_flsbuf.obj
 0002:00019984       $unwind$??$write_buffer_nolock@_W@@YA_N_WV__crt_stdio_stream@@@Z 000000018006c984     libucrt:_flsbuf.obj
 0002:00019994       $unwind$_fcloseall         000000018006c994     libucrt:closeall.obj
 0002:000199b8       $unwind$__acrt_locale_initialize_monetary 000000018006c9b8     libucrt:initmon.obj
 0002:000199d4       $unwind$__acrt_locale_free_monetary 000000018006c9d4     libucrt:initmon.obj
 0002:000199dc       $unwind$__acrt_locale_free_time 000000018006c9dc     libucrt:inittime.obj
 0002:000199ec       $unwind$?initialize_lc_time@@YA_NQEAU__crt_lc_time_data@@QEAU__crt_locale_data@@@Z 000000018006c9ec     libucrt:inittime.obj
 0002:00019a08       $unwind$?_GetRangeOfTrysToCheck@@YAPEBU_s_TryBlockMapEntry@@PEA_KPEBU_s_FuncInfo@@HHPEAI2PEAU_xDISPATCHER_CONTEXT@@@Z 000000018006ca08     libvcruntime:trnsctrl.obj
 0002:00019a08       $unwind$??R<lambda_4e60a939b0d047cfe11ddc22648dfba9>@@QEBAHXZ 000000018006ca08     libucrt:onexit.obj
 0002:00019a08       $unwind$??$parse_command_line@D@@YAXPEADPEAPEAD0PEA_K2@Z 000000018006ca08     libucrt:argv_parsing.obj
 0002:00019a08       $unwind$TranslateName      000000018006ca08     libucrt:get_qualified_locale.obj
 0002:00019a08       $unwind$?write_string@?$string_output_adapter@D@__crt_stdio_output@@QEBAXQEBDHQEAH1@Z 000000018006ca08     libucrt:output.obj
 0002:00019a24       $unwind$LangCountryEnumProcEx 000000018006ca24     libucrt:get_qualified_locale.obj
 0002:00019a44       $unwind$LanguageEnumProcEx 000000018006ca44     libucrt:get_qualified_locale.obj
 0002:00019a60       $unwind$GetLocaleNameFromDefault 000000018006ca60     libucrt:get_qualified_locale.obj
 0002:00019a78       $unwind$TestDefaultCountry 000000018006ca78     libucrt:get_qualified_locale.obj
 0002:00019a8c       $unwind$__acrt_get_qualified_locale_downlevel 000000018006ca8c     libucrt:getqloc_downlevel.obj
 0002:00019aa8       $unwind$LangCountryEnumProc 000000018006caa8     libucrt:getqloc_downlevel.obj
 0002:00019ac8       $unwind$LanguageEnumProc   000000018006cac8     libucrt:getqloc_downlevel.obj
 0002:00019ae4       $unwind$CountryEnumProc    000000018006cae4     libucrt:getqloc_downlevel.obj
 0002:00019b04       $unwind$__acrt_lowio_destroy_handle_array 000000018006cb04     libucrt:osfinfo.obj
 0002:00019b14       $unwind$__acrt_lowio_ensure_fh_exists 000000018006cb14     libucrt:osfinfo.obj
 0002:00019b40       $xdatasym                  000000018006cb40     libucrt:fpsr.obj
 0002:00019b48       $unwind$_close             000000018006cb48     libucrt:close.obj
 0002:00019b48       $unwind$_commit            000000018006cb48     libucrt:commit.obj
 0002:00019b50       $unwind$??$?RV<lambda_b521505b218e5242e90febf6bfebc422>@@AEAV<lambda_6978c1fb23f02e42e1d9e99668cc68aa>@@V<lambda_314360699dd331753a4119843814e9a7>@@@?$__crt_seh_guarded_call@H@@QEAAH$$QEAV<lambda_b521505b218e5242e90febf6bfebc422>@@AEAV<lambda_6978c1fb23f02e42e1d9e99668cc68aa>@@$$QEAV<lambda_314360699dd331753a4119843814e9a7>@@@Z 000000018006cb50     libucrt:commit.obj
 0002:00019b74       $unwind$_write             000000018006cb74     libucrt:write.obj
 0002:00019ba4       $unwind$_write_nolock      000000018006cba4     libucrt:write.obj
 0002:00019bbc       $unwind$?write_double_translated_ansi_nolock@@YA?AUwrite_result@?A0x9c548279@@HQEBDI@Z 000000018006cbbc     libucrt:write.obj
 0002:00019bdc       $unwind$?write_text_ansi_nolock@@YA?AUwrite_result@?A0x9c548279@@HQEBDI@Z 000000018006cbdc     libucrt:write.obj
 0002:00019bdc       $unwind$?write_text_utf16le_nolock@@YA?AUwrite_result@?A0x9c548279@@HQEBDI@Z 000000018006cbdc     libucrt:write.obj
 0002:00019bfc       $unwind$?write_text_utf8_nolock@@YA?AUwrite_result@?A0x9c548279@@HQEBDI@Z 000000018006cbfc     libucrt:write.obj
 0002:00019c20       $unwind$?GetTableIndexFromLocaleName@@YAHPEB_W@Z 000000018006cc20     libucrt:lcidtoname_downlevel.obj
 0002:00019c38       $unwind$_call_matherr      000000018006cc38     libucrt:libm_error.obj
 0002:00019c40       $unwind$_handle_error      000000018006cc40     libucrt:libm_error.obj
 0002:00019c40       $unwind$_handle_errorf     000000018006cc40     libucrt:libm_error.obj
 0002:00019c60       $unwind$_towlower_l        000000018006cc60     libucrt:towlower.obj
 0002:00019c68       $unwind$qsort              000000018006cc68     libucrt:qsort.obj
 0002:00019c80       $chain$4$qsort             000000018006cc80     libucrt:qsort.obj
 0002:00019ca4       $chain$5$qsort             000000018006cca4     libucrt:qsort.obj
 0002:00019cb4       $unwind$?shortsort@@YAXPEAD0_KP6AHPEBX2@Z@Z 000000018006ccb4     libucrt:qsort.obj
 0002:00019cc4       $chain$2$?shortsort@@YAXPEAD0_KP6AHPEBX2@Z@Z 000000018006ccc4     libucrt:qsort.obj
 0002:00019ce0       $chain$3$?shortsort@@YAXPEAD0_KP6AHPEBX2@Z@Z 000000018006cce0     libucrt:qsort.obj
 0002:00019cf0       $unwind$_strnicoll_l       000000018006ccf0     libucrt:strnicol.obj
 0002:00019d08       $xdatasym                  000000018006cd08     libucrt:log10.obj
 0002:00019d14       $unwind$??$common_lseek@_J@@YA_JH_JH@Z 000000018006cd14     libucrt:lseek.obj
 0002:00019d44       $unwind$fclose             000000018006cd44     libucrt:fclose.obj
 0002:00019d68       $unwind$?fp_format_f_internal@@YAHQEAD_KHQEAU_strflt@@_NQEAU__crt_locale_pointers@@@Z 000000018006cd68     libucrt:cvt.obj
 0002:00019d68       $unwind$__acrt_GetDateFormatEx 000000018006cd68     libucrt:winapi_thunks.obj
 0002:00019d68       $unwind$_wcsnicmp_l        000000018006cd68     libucrt:wcsnicmp.obj
 0002:00019d68       $unwind$__dcrt_get_narrow_environment_from_os 000000018006cd68     libucrt:get_environment_from_os.obj
 0002:00019d80       $unwind$_putwch_nolock     000000018006cd80     libucrt:putwch.obj
 0002:00019d80       $unwind$__report_gsfailure 000000018006cd80     LIBCMT:gs_report.obj
 0002:00019d88       $unwind$common_control87   000000018006cd88     libucrt:ieee.obj
 0002:00019db8       $unwind$?fp_format_e@@YAHQEBNQEAD_K12H_NIQEAU__crt_locale_pointers@@@Z 000000018006cdb8     libucrt:cvt.obj
 0002:00019db8       $unwind$__acrt_LCMapStringW 000000018006cdb8     libucrt:lcmapstringw.obj
 0002:00019dcc       $unwind$_strnicmp_l        000000018006cdcc     libucrt:strnicmp.obj
 0002:00019dcc       $unwind$?__SehTransFilter@@YAHPEAU_EXCEPTION_POINTERS@@PEAUEHExceptionRecord@@PEA_KPEAU_CONTEXT@@PEAU_xDISPATCHER_CONTEXT@@PEBU_s_FuncInfo@@PEAH@Z 000000018006cdcc     libvcruntime:trnsctrl.obj
 0002:00019dcc       $unwind$_wcsicmp_l         000000018006cdcc     libucrt:wcsicmp.obj
 0002:00019de0       $unwind$__acrt_CompareStringA 000000018006cde0     libucrt:comparestringa.obj
 0002:00019df0       $unwind$?InternalCompareStringA@@YAHPEAU__crt_locale_pointers@@PEB_WKPEBDH2HH@Z 000000018006cdf0     libucrt:comparestringa.obj
 0002:00019e14       $unwind$_log_special_common 000000018006ce14     libucrt:log_special.obj
 0002:00019e20       $unwind$??$?RV<lambda_bfedae4ebbf01fab1bb6dcc6a9e276e0>@@AEAV<lambda_2fe9b910cf3cbf4a0ab98a02ba45b3ec>@@V<lambda_237c231691f317818eb88cc1d5d642d6>@@@?$__crt_seh_guarded_call@H@@QEAAH$$QEAV<lambda_bfedae4ebbf01fab1bb6dcc6a9e276e0>@@AEAV<lambda_2fe9b910cf3cbf4a0ab98a02ba45b3ec>@@$$QEAV<lambda_237c231691f317818eb88cc1d5d642d6>@@@Z 000000018006ce20     libucrt:close.obj
 0002:00019e44       $unwind$?DloadObtainSection@@YAPEAXPEAK0@Z 000000018006ce44     DelayImp:delayhlp.obj
 0002:00019e54       $unwind$?DloadMakePermanentImageCommit@@YAXPEAX_K@Z 000000018006ce54     DelayImp:delayhlp.obj
 0002:00019e60       $unwind$?DloadProtectSection@@YAXKPEAK@Z 000000018006ce60     DelayImp:delayhlp.obj
 0002:00019e70       $unwind$__delayLoadHelper2 000000018006ce70     DelayImp:delayhlp.obj
 0002:00019e88       $unwind$_IsNonwritableInCurrentImage 000000018006ce88     LIBCMT:pesect.obj
 0002:00019eac       $unwind$strrchr            000000018006ceac     libvcruntime:strrchr.obj
 0002:00019eac       $unwind$wcschr             000000018006ceac     libvcruntime:wcschr.obj
 0002:00019eac       $unwind$strchr             000000018006ceac     libvcruntime:strchr.obj
 0002:0001b860       .edata                     000000018006e860     node_snap7.exp
 0002:0001b888       rgpv                       000000018006e888     node_snap7.exp
 0002:0001ba88       rgszName                   000000018006ea88     node_snap7.exp
 0002:0001bc88       rgwOrd                     000000018006ec88     node_snap7.exp
 0002:0001bd88       szName                     000000018006ed88     node_snap7.exp
 0002:0001bd98       $N00001                    000000018006ed98     node_snap7.exp
 0002:0001bda3       $N00002                    000000018006eda3     node_snap7.exp
 0002:0001bdaf       $N00003                    000000018006edaf     node_snap7.exp
 0002:0001bdbc       $N00004                    000000018006edbc     node_snap7.exp
 0002:0001bdca       $N00005                    000000018006edca     node_snap7.exp
 0002:0001bdd7       $N00006                    000000018006edd7     node_snap7.exp
 0002:0001bde5       $N00007                    000000018006ede5     node_snap7.exp
 0002:0001bdf4       $N00008                    000000018006edf4     node_snap7.exp
 0002:0001be07       $N00009                    000000018006ee07     node_snap7.exp
 0002:0001be14       $N00010                    000000018006ee14     node_snap7.exp
 0002:0001be20       $N00011                    000000018006ee20     node_snap7.exp
 0002:0001be2d       $N00012                    000000018006ee2d     node_snap7.exp
 0002:0001be3b       $N00013                    000000018006ee3b     node_snap7.exp
 0002:0001be4a       $N00014                    000000018006ee4a     node_snap7.exp
 0002:0001be57       $N00015                    000000018006ee57     node_snap7.exp
 0002:0001be65       $N00016                    000000018006ee65     node_snap7.exp
 0002:0001be76       $N00017                    000000018006ee76     node_snap7.exp
 0002:0001be8d       $N00018                    000000018006ee8d     node_snap7.exp
 0002:0001be9a       $N00019                    000000018006ee9a     node_snap7.exp
 0002:0001bea8       $N00020                    000000018006eea8     node_snap7.exp
 0002:0001beb7       $N00021                    000000018006eeb7     node_snap7.exp
 0002:0001bec5       $N00022                    000000018006eec5     node_snap7.exp
 0002:0001bed7       $N00023                    000000018006eed7     node_snap7.exp
 0002:0001bee4       $N00024                    000000018006eee4     node_snap7.exp
 0002:0001bef2       $N00025                    000000018006eef2     node_snap7.exp
 0002:0001beff       $N00026                    000000018006eeff     node_snap7.exp
 0002:0001bf0f       $N00027                    000000018006ef0f     node_snap7.exp
 0002:0001bf1a       $N00028                    000000018006ef1a     node_snap7.exp
 0002:0001bf26       $N00029                    000000018006ef26     node_snap7.exp
 0002:0001bf3c       $N00030                    000000018006ef3c     node_snap7.exp
 0002:0001bf55       $N00031                    000000018006ef55     node_snap7.exp
 0002:0001bf62       $N00032                    000000018006ef62     node_snap7.exp
 0002:0001bf6e       $N00033                    000000018006ef6e     node_snap7.exp
 0002:0001bf7c       $N00034                    000000018006ef7c     node_snap7.exp
 0002:0001bf8d       $N00035                    000000018006ef8d     node_snap7.exp
 0002:0001bf98       $N00036                    000000018006ef98     node_snap7.exp
 0002:0001bfa3       $N00037                    000000018006efa3     node_snap7.exp
 0002:0001bfad       $N00038                    000000018006efad     node_snap7.exp
 0002:0001bfb8       $N00039                    000000018006efb8     node_snap7.exp
 0002:0001bfc4       $N00040                    000000018006efc4     node_snap7.exp
 0002:0001bfcf       $N00041                    000000018006efcf     node_snap7.exp
 0002:0001bfdb       $N00042                    000000018006efdb     node_snap7.exp
 0002:0001bfea       $N00043                    000000018006efea     node_snap7.exp
 0002:0001bff7       $N00044                    000000018006eff7     node_snap7.exp
 0002:0001c002       $N00045                    000000018006f002     node_snap7.exp
 0002:0001c00e       $N00046                    000000018006f00e     node_snap7.exp
 0002:0001c01c       $N00047                    000000018006f01c     node_snap7.exp
 0002:0001c02b       $N00048                    000000018006f02b     node_snap7.exp
 0002:0001c03e       $N00049                    000000018006f03e     node_snap7.exp
 0002:0001c04f       $N00050                    000000018006f04f     node_snap7.exp
 0002:0001c05d       $N00051                    000000018006f05d     node_snap7.exp
 0002:0001c06c       $N00052                    000000018006f06c     node_snap7.exp
 0002:0001c07c       $N00053                    000000018006f07c     node_snap7.exp
 0002:0001c08d       $N00054                    000000018006f08d     node_snap7.exp
 0002:0001c09e       $N00055                    000000018006f09e     node_snap7.exp
 0002:0001c0ab       $N00056                    000000018006f0ab     node_snap7.exp
 0002:0001c0bc       $N00057                    000000018006f0bc     node_snap7.exp
 0002:0001c0cf       $N00058                    000000018006f0cf     node_snap7.exp
 0002:0001c0e2       $N00059                    000000018006f0e2     node_snap7.exp
 0002:0001c0f3       $N00060                    000000018006f0f3     node_snap7.exp
 0002:0001c105       $N00061                    000000018006f105     node_snap7.exp
 0002:0001c11b       $N00062                    000000018006f11b     node_snap7.exp
 0002:0001c12a       $N00063                    000000018006f12a     node_snap7.exp
 0002:0001c13f       $N00064                    000000018006f13f     node_snap7.exp
 0002:0001c14a       $N00065                    000000018006f14a     node_snap7.exp
 0002:0001c156       $N00066                    000000018006f156     node_snap7.exp
 0002:0001c167       $N00067                    000000018006f167     node_snap7.exp
 0002:0001c177       $N00068                    000000018006f177     node_snap7.exp
 0002:0001c183       $N00069                    000000018006f183     node_snap7.exp
 0002:0001c190       $N00070                    000000018006f190     node_snap7.exp
 0002:0001c1a2       $N00071                    000000018006f1a2     node_snap7.exp
 0002:0001c1ae       $N00072                    000000018006f1ae     node_snap7.exp
 0002:0001c1be       $N00073                    000000018006f1be     node_snap7.exp
 0002:0001c1d0       $N00074                    000000018006f1d0     node_snap7.exp
 0002:0001c1e8       $N00075                    000000018006f1e8     node_snap7.exp
 0002:0001c1fe       $N00076                    000000018006f1fe     node_snap7.exp
 0002:0001c20b       $N00077                    000000018006f20b     node_snap7.exp
 0002:0001c21e       $N00078                    000000018006f21e     node_snap7.exp
 0002:0001c237       $N00079                    000000018006f237     node_snap7.exp
 0002:0001c24e       $N00080                    000000018006f24e     node_snap7.exp
 0002:0001c259       $N00081                    000000018006f259     node_snap7.exp
 0002:0001c265       $N00082                    000000018006f265     node_snap7.exp
 0002:0001c270       $N00083                    000000018006f270     node_snap7.exp
 0002:0001c285       $N00084                    000000018006f285     node_snap7.exp
 0002:0001c293       $N00085                    000000018006f293     node_snap7.exp
 0002:0001c2a6       $N00086                    000000018006f2a6     node_snap7.exp
 0002:0001c2b2       $N00087                    000000018006f2b2     node_snap7.exp
 0002:0001c2bc       $N00088                    000000018006f2bc     node_snap7.exp
 0002:0001c2c6       $N00089                    000000018006f2c6     node_snap7.exp
 0002:0001c2e1       $N00090                    000000018006f2e1     node_snap7.exp
 0002:0001c2fc       $N00091                    000000018006f2fc     node_snap7.exp
 0002:0001c307       $N00092                    000000018006f307     node_snap7.exp
 0002:0001c313       $N00093                    000000018006f313     node_snap7.exp
 0002:0001c321       $N00094                    000000018006f321     node_snap7.exp
 0002:0001c332       $N00095                    000000018006f332     node_snap7.exp
 0002:0001c33f       $N00096                    000000018006f33f     node_snap7.exp
 0002:0001c34c       $N00097                    000000018006f34c     node_snap7.exp
 0002:0001c35a       $N00098                    000000018006f35a     node_snap7.exp
 0002:0001c367       $N00099                    000000018006f367     node_snap7.exp
 0002:0001c374       $N00100                    000000018006f374     node_snap7.exp
 0002:0001c388       $N00101                    000000018006f388     node_snap7.exp
 0002:0001c39c       $N00102                    000000018006f39c     node_snap7.exp
 0002:0001c3a6       $N00103                    000000018006f3a6     node_snap7.exp
 0002:0001c3b2       $N00104                    000000018006f3b2     node_snap7.exp
 0002:0001c3bb       $N00105                    000000018006f3bb     node_snap7.exp
 0002:0001c3d5       $N00106                    000000018006f3d5     node_snap7.exp
 0002:0001c3e5       $N00107                    000000018006f3e5     node_snap7.exp
 0002:0001c3f0       $N00108                    000000018006f3f0     node_snap7.exp
 0002:0001c3fc       $N00109                    000000018006f3fc     node_snap7.exp
 0002:0001c40a       $N00110                    000000018006f40a     node_snap7.exp
 0002:0001c418       $N00111                    000000018006f418     node_snap7.exp
 0002:0001c424       $N00112                    000000018006f424     node_snap7.exp
 0002:0001c431       $N00113                    000000018006f431     node_snap7.exp
 0002:0001c43f       $N00114                    000000018006f43f     node_snap7.exp
 0002:0001c44c       $N00115                    000000018006f44c     node_snap7.exp
 0002:0001c45a       $N00116                    000000018006f45a     node_snap7.exp
 0002:0001c46b       $N00117                    000000018006f46b     node_snap7.exp
 0002:0001c47c       $N00118                    000000018006f47c     node_snap7.exp
 0002:0001c492       $N00119                    000000018006f492     node_snap7.exp
 0002:0001c49e       $N00120                    000000018006f49e     node_snap7.exp
 0002:0001c4ab       $N00121                    000000018006f4ab     node_snap7.exp
 0002:0001c4c1       $N00122                    000000018006f4c1     node_snap7.exp
 0002:0001c4db       $N00123                    000000018006f4db     node_snap7.exp
 0002:0001c4e5       $N00124                    000000018006f4e5     node_snap7.exp
 0002:0001c4f1       $N00125                    000000018006f4f1     node_snap7.exp
 0002:0001c4fa       $N00126                    000000018006f4fa     node_snap7.exp
 0002:0001c509       $N00127                    000000018006f509     node_snap7.exp
 0002:0001c51c       $N00128                    000000018006f51c     node_snap7.exp
 0002:0001c97c       .idata$6                   000000018006f97c     kernel32:KERNEL32.dll
 0002:0001d058       .idata$6                   0000000180070058     ws2_32:WS2_32.dll
 0002:0001d094       .idata$6                   0000000180070094     winmm:WINMM.dll
 0003:00000000       ?init@std@@3JA             0000000180071000     libcpmt:xlock.obj
 0003:00000010       ?atcount_cdecl@@3_KA       0000000180071010     libcpmt:iosptrs.obj
 0003:000000b0       ?__vcrt_flsindex@@3KA      00000001800710b0     libvcruntime:per_thread_data.obj
 0003:00000190       errno_no_memory            0000000180071190     libucrt:errno.obj
 0003:00000194       doserrno_no_memory         0000000180071194     libucrt:errno.obj
 0003:000001a0       __acrt_flsindex            00000001800711a0     libucrt:per_thread_data.obj
 0003:000001b0       tzstd_program              00000001800711b0     libucrt:timeset.obj
 0003:000001f0       tzdst_program              00000001800711f0     libucrt:timeset.obj
 0003:00000230       tzname_states              0000000180071230     libucrt:timeset.obj
 0003:00000240       dststart                   0000000180071240     libucrt:tzset.obj
 0003:00000250       dstend                     0000000180071250     libucrt:tzset.obj
 0003:00000368       _ctype_loc_style           0000000180071368     libucrt:wsetlocale.obj
 0003:00000520       ?dazSupported@?1??_ctrlfp@@9@9 0000000180071520     libucrt:fpctrl.obj
 0003:00000760       __rgctypeflag              0000000180071760     libucrt:mbctype.obj
 0003:00000770       __rgcode_page_info         0000000180071770     libucrt:mbctype.obj
 0003:00000a70       ?dazSupported@?1??common_control87@@9@9 0000000180071a70     libucrt:ieee.obj
 0003:00000a90       _module                    0000000180071a90     node_snap7.obj
 0003:00000ad0       ?libresult@@3_NA           0000000180071ad0     snap7:snap7_libmain.obj
 0003:00004390       ?initlocks@std@@3V_Init_locks@1@A 0000000180075390     libcpmt:xlock.obj
 0003:000043a0       ?mtx@std@@3PAU_RTL_CRITICAL_SECTION@@A 00000001800753a0     libcpmt:xlock.obj
 0003:000044e0       ?_Fac_head@std@@3PEAU_Fac_node@1@EA 00000001800754e0     libcpmt:locale0.obj
 0003:000044f8       global_locale              00000001800754f8     libcpmt:locale0.obj
 0003:00004520       ?classic_locale@std@@3Vlocale@1@A 0000000180075520     libcpmt:locale0.obj
 0003:00004538       ?_Fac_tidy_reg@std@@3U_Fac_tidy_reg_t@1@B 0000000180075538     libcpmt:locale0.obj
 0003:00004539       ?registered@?1??_Setgloballocale@locale@std@@CAXPEAX@Z@4_NA 0000000180075539     libcpmt:locale0.obj
 0003:00004540       ?stdstr@std@@3PAPEAVios_base@1@A 0000000180075540     libcpmt:ios.obj
 0003:00004590       ?stdopens@std@@3PADA       0000000180075590     libcpmt:ios.obj
 0003:000045f0       ?atfuns_cdecl@@3PAP6AXXZA  00000001800755f0     libcpmt:iosptrs.obj
 0003:00004640       ?initlocks@std@@3V_Init_locks@1@A 0000000180075640     libcpmt:iosptrs.obj
 0003:00004641       ?init_atexit@@3U_Init_atexit@@A 0000000180075641     libcpmt:iosptrs.obj
 0003:00004890       ?_Tss_mutex@@3U_RTL_CRITICAL_SECTION@@A 0000000180075890     LIBCMT:thread_safe_statics.obj
 0003:000048b8       ?_Tss_cv@@3U_RTL_CONDITION_VARIABLE@@A 00000001800758b8     LIBCMT:thread_safe_statics.obj
 0003:000048c0       ?_Tss_event@@3PEAXEA       00000001800758c0     LIBCMT:thread_safe_statics.obj
 0003:000048c8       ?encoded_sleep_condition_variable_cs@@3P6AHPEAU_RTL_CONDITION_VARIABLE@@PEAU_RTL_CRITICAL_SECTION@@K@ZEA 00000001800758c8     LIBCMT:thread_safe_statics.obj
 0003:000048d0       ?encoded_wake_all_condition_variable@@3P6AXPEAU_RTL_CONDITION_VARIABLE@@@ZEA 00000001800758d0     LIBCMT:thread_safe_statics.obj
 0003:000048e8       ?module_local_atexit_table@@3U_onexit_table_t@@A 00000001800758e8     LIBCMT:utility.obj
 0003:00004900       ?module_local_at_quick_exit_table@@3U_onexit_table_t@@A 0000000180075900     LIBCMT:utility.obj
 0003:00004918       ?is_initialized_as_dll@@3_NA 0000000180075918     LIBCMT:utility.obj
 0003:0000491c       ?__proc_attached@@3HA      000000018007591c     LIBCMT:dll_dllmain.obj
 0003:00004920       GS_ExceptionRecord         0000000180075920     LIBCMT:gs_report.obj
 0003:000049c0       GS_ContextRecord           00000001800759c0     LIBCMT:gs_report.obj
 0003:00004ec0       ?module_handles@@3PAPEAUHINSTANCE__@@A 0000000180075ec0     libvcruntime:winapi_downlevel.obj
 0003:00004ee0       ?encoded_function_pointers@@3PAPEAXA 0000000180075ee0     libvcruntime:winapi_downlevel.obj
 0003:00004f30       ?__vcrt_startup_thread_ptd@@3U__vcrt_ptd@@A 0000000180075f30     libvcruntime:per_thread_data.obj
 0003:00004fa8       __vcrt_lock_table          0000000180075fa8     libvcruntime:locks.obj
 0003:00004fd0       __vcrt_locks_initialized   0000000180075fd0     libvcruntime:locks.obj
 0003:00005020       ?heap@@3V_HeapManager@@A   0000000180076020     libvcruntime:undname.obj
 0003:00005048       __acrt_invalid_parameter_handler 0000000180076048     libucrt:invalid_parameter.obj
 0003:00005060       __acrt_lock_table          0000000180076060     libucrt:locks.obj
 0003:00005268       __acrt_locks_initialized   0000000180076268     libucrt:locks.obj
 0003:00005270       __acrt_new_handler         0000000180076270     libucrt:new_handler.obj
 0003:00005278       c_termination_complete     0000000180076278     libucrt:exit.obj
 0003:00005280       thread_local_exit_callback_func 0000000180076280     libucrt:exit.obj
 0003:00005288       ?c_exit_complete@?5??common_exit@@YAXHW4_crt_exit_cleanup_mode@@W4_crt_exit_return_mode@@@Z@4_NA 0000000180076288     libucrt:exit.obj
 0003:00005290       ?program_name@?5???$common_configure_argv@D@@YAHW4_crt_argv_mode@@@Z@4PADA 0000000180076290     libucrt:argv_parsing.obj
 0003:000053e8       ctrlc_action               00000001800763e8     libucrt:signal.obj
 0003:000053f0       ctrlbreak_action           00000001800763f0     libucrt:signal.obj
 0003:000053f8       abort_action               00000001800763f8     libucrt:signal.obj
 0003:00005400       term_action                0000000180076400     libucrt:signal.obj
 0003:00005418       _tzname                    0000000180076418     libucrt:timeset.obj
 0003:00005420       last_tz                    0000000180076420     libucrt:tzset.obj
 0003:00005430       tz_api_used                0000000180076430     libucrt:tzset.obj
 0003:00005440       tz_info                    0000000180076440     libucrt:tzset.obj
 0003:000054ec       ?first_time@?1??__tzset@@9@4JA 00000001800764ec     libucrt:tzset.obj
 0003:00005508       enable_percent_n           0000000180076508     libucrt:printf_count_output.obj
 0003:00005934       __acrt_app_type            0000000180076934     libucrt:report_runtime_error.obj
 0003:00005938       __acrt_error_mode          0000000180076938     libucrt:set_error_mode.obj
 0003:00005940       module_handles             0000000180076940     libucrt:winapi_thunks.obj
 0003:000059e0       encoded_function_pointers  00000001800769e0     libucrt:winapi_thunks.obj
 0003:00005ae0       ?static_enum_proc@?1??enum_system_locales_ex_nolock@@YAHQ6AHPEA_WK_J@Z@Z@4P6AH0K1@ZEA 0000000180076ae0     libucrt:winapi_thunks.obj
 0003:00005ae8       ?state_cache@?1??__acrt_is_packaged_app@@9@4JA 0000000180076ae8     libucrt:winapi_thunks.obj
 0003:00005aec       __acrt_global_new_mode     0000000180076aec     libucrt:new_mode.obj
 0003:00005b14       fSystemSet                 0000000180076b14     libucrt:mbctype.obj
 0003:00005b20       ?initialized@?1??__acrt_initialize_multibyte@@9@4_NA 0000000180076b20     libucrt:mbctype.obj
 0003:00005b50       user_matherr               0000000180076b50     libucrt:matherr.obj
 0003:00005bc0       ?ServersManager@@3PEAVTServersManager@@EA 0000000180076bc0     snap7:s7_partner.obj
 0003:00005bc8       ?IcmpDllHandle@@3PEAUHINSTANCE__@@EA 0000000180076bc8     snap7:snap_msgsock.obj
 0003:00005bd8       ?IcmpCloseHandle@@3P6A_NPEAX@ZEA 0000000180076bd8     snap7:snap_msgsock.obj
 0003:00005be0       ?SocketsLayerInitializer@@3VSocketsLayer@@A 0000000180076be0     snap7:snap_msgsock.obj
 0003:00005d78       ?PingKind@@3HA             0000000180076d78     snap7:snap_msgsock.obj
 0003:00005d80       ?IcmpCreateFile@@3P6APEAXXZEA 0000000180076d80     snap7:snap_msgsock.obj
 0003:00005d88       ?IcmpSendEcho2@@3P6AHPEAX000K0H00HH@ZEA 0000000180076d88     snap7:snap_msgsock.obj
 0004:00000000       $pdata$??__ESocketsLayerInitializer@@YAXXZ 0000000180077000     snap7:snap_msgsock.obj
 0004:0000000c       $pdata$??__Einitlocks@std@@YAXXZ 000000018007700c     libcpmt:xlock.obj
 0004:00000018       $pdata$??__Einitlocks@std@@YAXXZ 0000000180077018     libcpmt:iosptrs.obj
 0004:00000024       $pdata$?InitAll@node_snap7@@YAXV?$Local@VObject@v8@@@v8@@@Z 0000000180077024     node_snap7.obj
 0004:00000030       $pdata$sprintf_s           0000000180077030     node_snap7_client.obj
 0004:0000003c       $pdata$??_Gruntime_error@std@@UEAAPEAXI@Z 000000018007703c     node_snap7_client.obj
 0004:0000003c       $pdata$??_Gexception@stdext@@UEAAPEAXI@Z 000000018007703c     node_snap7_client.obj
 0004:00000048       $pdata$?_Doraise@failure@ios_base@std@@MEBAXXZ 0000000180077048     node_snap7_client.obj
 0004:00000048       $pdata$?_Doraise@runtime_error@std@@MEBAXXZ 0000000180077048     node_snap7_client.obj
 0004:00000054       $pdata$??0_Locinfo@std@@QEAA@PEBD@Z 0000000180077054     node_snap7_client.obj
 0004:00000060       $pdata$??1_Locinfo@std@@QEAA@XZ 0000000180077060     node_snap7_client.obj
 0004:0000006c       $pdata$??_G_Facet_base@std@@UEAAPEAXI@Z 000000018007706c     node_snap7_client.obj
 0004:00000078       $pdata$?_Getcat@?$ctype@D@std@@SA_KPEAPEBVfacet@locale@2@PEBV42@@Z 0000000180077078     node_snap7_client.obj
 0004:00000084       $pdata$0$?_Getcat@?$ctype@D@std@@SA_KPEAPEBVfacet@locale@2@PEBV42@@Z 0000000180077084     node_snap7_client.obj
 0004:00000090       $pdata$1$?_Getcat@?$ctype@D@std@@SA_KPEAPEBVfacet@locale@2@PEBV42@@Z 0000000180077090     node_snap7_client.obj
 0004:0000009c       $pdata$?do_tolower@?$ctype@D@std@@MEBAPEBDPEADPEBD@Z 000000018007709c     node_snap7_client.obj
 0004:000000a8       $pdata$0$?do_tolower@?$ctype@D@std@@MEBAPEBDPEADPEBD@Z 00000001800770a8     node_snap7_client.obj
 0004:000000b4       $pdata$1$?do_tolower@?$ctype@D@std@@MEBAPEBDPEADPEBD@Z 00000001800770b4     node_snap7_client.obj
 0004:000000c0       $pdata$?do_toupper@?$ctype@D@std@@MEBAPEBDPEADPEBD@Z 00000001800770c0     node_snap7_client.obj
 0004:000000cc       $pdata$0$?do_toupper@?$ctype@D@std@@MEBAPEBDPEADPEBD@Z 00000001800770cc     node_snap7_client.obj
 0004:000000d8       $pdata$1$?do_toupper@?$ctype@D@std@@MEBAPEBDPEADPEBD@Z 00000001800770d8     node_snap7_client.obj
 0004:000000e4       $pdata$?do_widen@?$ctype@D@std@@MEBAPEBDPEBD0PEAD@Z 00000001800770e4     node_snap7_client.obj
 0004:000000f0       $pdata$?do_narrow@?$ctype@D@std@@MEBAPEBDPEBD0DPEAD@Z 00000001800770f0     node_snap7_client.obj
 0004:000000fc       $pdata$??_G?$ctype@D@std@@MEAAPEAXI@Z 00000001800770fc     node_snap7_client.obj
 0004:00000108       $pdata$??_Gerror_category@std@@UEAAPEAXI@Z 0000000180077108     node_snap7_client.obj
 0004:00000108       $pdata$??_G_Iostream_error_category@std@@UEAAPEAXI@Z 0000000180077108     node_snap7_client.obj
 0004:00000114       $pdata$?_Makestr@_System_error@std@@CA?AV?$basic_string@DU?$char_traits@D@std@@V?$allocator@D@2@@2@Verror_code@2@V32@@Z 0000000180077114     node_snap7_client.obj
 0004:00000120       $pdata$??_G_System_error@std@@UEAAPEAXI@Z 0000000180077120     node_snap7_client.obj
 0004:00000120       $pdata$??_Gfailure@ios_base@std@@UEAAPEAXI@Z 0000000180077120     node_snap7_client.obj
 0004:0000012c       $pdata$?message@_Iostream_error_category@std@@UEBA?AV?$basic_string@DU?$char_traits@D@std@@V?$allocator@D@2@@2@H@Z 000000018007712c     node_snap7_client.obj
 0004:00000138       $pdata$?clear@ios_base@std@@QEAAXH_N@Z 0000000180077138     node_snap7_client.obj
 0004:00000144       $pdata$1$?clear@ios_base@std@@QEAAXH_N@Z 0000000180077144     node_snap7_client.obj
 0004:00000150       $pdata$2$?clear@ios_base@std@@QEAAXH_N@Z 0000000180077150     node_snap7_client.obj
 0004:0000015c       $pdata$3$?clear@ios_base@std@@QEAAXH_N@Z 000000018007715c     node_snap7_client.obj
 0004:00000168       $pdata$??_Gios_base@std@@UEAAPEAXI@Z 0000000180077168     node_snap7_client.obj
 0004:00000174       $pdata$?FunctionCallbackWrapper@imp@Nan@@YAXAEBV?$FunctionCallbackInfo@VValue@v8@@@v8@@@Z 0000000180077174     node_snap7_client.obj
 0004:00000180       $pdata$?New@?$Factory@VFunctionTemplate@v8@@@imp@Nan@@SA?AV?$Local@VFunctionTemplate@v8@@@v8@@P6AXAEBV?$FunctionCallbackInfo@VValue@v8@@@3@@ZV?$Local@VValue@v8@@@5@V?$Local@VSignature@v8@@@5@@Z 0000000180077180     node_snap7_client.obj
 0004:0000018c       $pdata$0$?New@?$Factory@VFunctionTemplate@v8@@@imp@Nan@@SA?AV?$Local@VFunctionTemplate@v8@@@v8@@P6AXAEBV?$FunctionCallbackInfo@VValue@v8@@@3@@ZV?$Local@VValue@v8@@@5@V?$Local@VSignature@v8@@@5@@Z 000000018007718c     node_snap7_client.obj
 0004:00000198       $pdata$1$?New@?$Factory@VFunctionTemplate@v8@@@imp@Nan@@SA?AV?$Local@VFunctionTemplate@v8@@@v8@@P6AXAEBV?$FunctionCallbackInfo@VValue@v8@@@3@@ZV?$Local@VValue@v8@@@5@V?$Local@VSignature@v8@@@5@@Z 0000000180077198     node_snap7_client.obj
 0004:000001a4       $pdata$?ThrowTypeError@Nan@@YAXPEBD@Z 00000001800771a4     node_snap7_client.obj
 0004:000001b0       $pdata$??0Utf8String@Nan@@QEAA@V?$Local@VValue@v8@@@v8@@@Z 00000001800771b0     node_snap7_client.obj
 0004:000001bc       $pdata$0$??0Utf8String@Nan@@QEAA@V?$Local@VValue@v8@@@v8@@@Z 00000001800771bc     node_snap7_client.obj
 0004:000001c8       $pdata$1$??0Utf8String@Nan@@QEAA@V?$Local@VValue@v8@@@v8@@@Z 00000001800771c8     node_snap7_client.obj
 0004:000001d4       $pdata$??0Callback@Nan@@QEAA@AEBV?$Local@VFunction@v8@@@v8@@@Z 00000001800771d4     node_snap7_client.obj
 0004:000001e0       $pdata$?SetFunction@Callback@Nan@@QEAAXAEBV?$Local@VFunction@v8@@@v8@@@Z 00000001800771e0     node_snap7_client.obj
 0004:000001ec       $pdata$??0AsyncWorker@Nan@@QEAA@PEAVCallback@1@@Z 00000001800771ec     node_snap7_client.obj
 0004:000001f8       $pdata$??1AsyncWorker@Nan@@UEAA@XZ 00000001800771f8     node_snap7_client.obj
 0004:00000204       $pdata$?WorkComplete@AsyncWorker@Nan@@UEAAXXZ 0000000180077204     node_snap7_client.obj
 0004:00000210       $pdata$?HandleOKCallback@AsyncWorker@Nan@@MEAAXXZ 0000000180077210     node_snap7_client.obj
 0004:0000021c       $pdata$?HandleErrorCallback@AsyncWorker@Nan@@MEAAXXZ 000000018007721c     node_snap7_client.obj
 0004:00000228       $pdata$??_GAsyncWorker@Nan@@UEAAPEAXI@Z 0000000180077228     node_snap7_client.obj
 0004:00000234       $pdata$?AsyncExecuteComplete@Nan@@YAXPEAUuv_work_s@@@Z 0000000180077234     node_snap7_client.obj
 0004:00000240       $pdata$?AsyncQueueWorker@Nan@@YAXPEAVAsyncWorker@1@@Z 0000000180077240     node_snap7_client.obj
 0004:0000024c       $pdata$?SetPrototypeMethod@Nan@@YAXV?$Local@VFunctionTemplate@v8@@@v8@@PEBDP6AXAEBV?$FunctionCallbackInfo@VValue@v8@@@1@@Z@Z 000000018007724c     node_snap7_client.obj
 0004:00000258       $pdata$??1ObjectWrap@Nan@@UEAA@XZ 0000000180077258     node_snap7_client.obj
 0004:00000264       $pdata$?Wrap@ObjectWrap@Nan@@IEAAXV?$Local@VObject@v8@@@v8@@@Z 0000000180077264     node_snap7_client.obj
 0004:00000270       $pdata$?Ref@ObjectWrap@Nan@@MEAAXXZ 0000000180077270     node_snap7_client.obj
 0004:0000027c       $pdata$?Unref@ObjectWrap@Nan@@MEAAXXZ 000000018007727c     node_snap7_client.obj
 0004:00000288       $pdata$?WeakCallback@ObjectWrap@Nan@@CAXAEBV?$WeakCallbackInfo@VObjectWrap@Nan@@@v8@@@Z 0000000180077288     node_snap7_client.obj
 0004:00000294       $pdata$??_GObjectWrap@Nan@@UEAAPEAXI@Z 0000000180077294     node_snap7_client.obj
 0004:000002a0       $pdata$??0IOWorker@node_snap7@@QEAA@PEAVCallback@Nan@@PEAVS7Client@1@W4DataIOFunction@1@PEAXHH@Z 00000001800772a0     node_snap7_client.obj
 0004:000002ac       $pdata$??0IOWorker@node_snap7@@QEAA@PEAVCallback@Nan@@PEAVS7Client@1@W4DataIOFunction@1@PEAXHHH@Z 00000001800772ac     node_snap7_client.obj
 0004:000002b8       $pdata$??0IOWorker@node_snap7@@QEAA@PEAVCallback@Nan@@PEAVS7Client@1@W4DataIOFunction@1@PEAXHHHHH@Z 00000001800772b8     node_snap7_client.obj
 0004:000002c4       $pdata$??_GIOWorker@node_snap7@@UEAAPEAXI@Z 00000001800772c4     node_snap7_client.obj
 0004:000002d0       $pdata$?Init@S7Client@node_snap7@@SAXV?$Local@VObject@v8@@@v8@@@Z 00000001800772d0     node_snap7_client.obj
 0004:000002dc       $pdata$?New@S7Client@node_snap7@@SAXAEBV?$FunctionCallbackInfo@VValue@v8@@@Nan@@@Z 00000001800772dc     node_snap7_client.obj
 0004:000002e8       $pdata$0$?New@S7Client@node_snap7@@SAXAEBV?$FunctionCallbackInfo@VValue@v8@@@Nan@@@Z 00000001800772e8     node_snap7_client.obj
 0004:000002f4       $pdata$1$?New@S7Client@node_snap7@@SAXAEBV?$FunctionCallbackInfo@VValue@v8@@@Nan@@@Z 00000001800772f4     node_snap7_client.obj
 0004:00000300       $pdata$??_GS7Client@node_snap7@@EEAAPEAXI@Z 0000000180077300     node_snap7_client.obj
 0004:0000030c       $pdata$??1S7Client@node_snap7@@EEAA@XZ 000000018007730c     node_snap7_client.obj
 0004:00000318       $pdata$?Connect@S7Client@node_snap7@@SAXAEBV?$FunctionCallbackInfo@VValue@v8@@@Nan@@@Z 0000000180077318     node_snap7_client.obj
 0004:00000324       $pdata$2$?Connect@S7Client@node_snap7@@SAXAEBV?$FunctionCallbackInfo@VValue@v8@@@Nan@@@Z 0000000180077324     node_snap7_client.obj
 0004:00000330       $pdata$3$?Connect@S7Client@node_snap7@@SAXAEBV?$FunctionCallbackInfo@VValue@v8@@@Nan@@@Z 0000000180077330     node_snap7_client.obj
 0004:0000033c       $pdata$4$?Connect@S7Client@node_snap7@@SAXAEBV?$FunctionCallbackInfo@VValue@v8@@@Nan@@@Z 000000018007733c     node_snap7_client.obj
 0004:00000348       $pdata$5$?Connect@S7Client@node_snap7@@SAXAEBV?$FunctionCallbackInfo@VValue@v8@@@Nan@@@Z 0000000180077348     node_snap7_client.obj
 0004:00000354       $pdata$?ConnectTo@S7Client@node_snap7@@SAXAEBV?$FunctionCallbackInfo@VValue@v8@@@Nan@@@Z 0000000180077354     node_snap7_client.obj
 0004:00000360       $pdata$3$?ConnectTo@S7Client@node_snap7@@SAXAEBV?$FunctionCallbackInfo@VValue@v8@@@Nan@@@Z 0000000180077360     node_snap7_client.obj
 0004:0000036c       $pdata$5$?ConnectTo@S7Client@node_snap7@@SAXAEBV?$FunctionCallbackInfo@VValue@v8@@@Nan@@@Z 000000018007736c     node_snap7_client.obj
 0004:00000378       $pdata$6$?ConnectTo@S7Client@node_snap7@@SAXAEBV?$FunctionCallbackInfo@VValue@v8@@@Nan@@@Z 0000000180077378     node_snap7_client.obj
 0004:00000384       $pdata$8$?ConnectTo@S7Client@node_snap7@@SAXAEBV?$FunctionCallbackInfo@VValue@v8@@@Nan@@@Z 0000000180077384     node_snap7_client.obj
 0004:00000390       $pdata$??_GUtf8String@Nan@@QEAAPEAXI@Z 0000000180077390     node_snap7_client.obj
 0004:0000039c       $pdata$?SetConnectionParams@S7Client@node_snap7@@SAXAEBV?$FunctionCallbackInfo@VValue@v8@@@Nan@@@Z 000000018007739c     node_snap7_client.obj
 0004:000003a8       $pdata$0$?SetConnectionParams@S7Client@node_snap7@@SAXAEBV?$FunctionCallbackInfo@VValue@v8@@@Nan@@@Z 00000001800773a8     node_snap7_client.obj
 0004:000003b4       $pdata$1$?SetConnectionParams@S7Client@node_snap7@@SAXAEBV?$FunctionCallbackInfo@VValue@v8@@@Nan@@@Z 00000001800773b4     node_snap7_client.obj
 0004:000003c0       $pdata$?SetConnectionType@S7Client@node_snap7@@SAXAEBV?$FunctionCallbackInfo@VValue@v8@@@Nan@@@Z 00000001800773c0     node_snap7_client.obj
 0004:000003cc       $pdata$?Disconnect@S7Client@node_snap7@@SAXAEBV?$FunctionCallbackInfo@VValue@v8@@@Nan@@@Z 00000001800773cc     node_snap7_client.obj
 0004:000003d8       $pdata$?GetParam@S7Client@node_snap7@@SAXAEBV?$FunctionCallbackInfo@VValue@v8@@@Nan@@@Z 00000001800773d8     node_snap7_client.obj
 0004:000003e4       $pdata$0$?GetParam@S7Client@node_snap7@@SAXAEBV?$FunctionCallbackInfo@VValue@v8@@@Nan@@@Z 00000001800773e4     node_snap7_client.obj
 0004:000003f0       $pdata$2$?GetParam@S7Client@node_snap7@@SAXAEBV?$FunctionCallbackInfo@VValue@v8@@@Nan@@@Z 00000001800773f0     node_snap7_client.obj
 0004:000003fc       $pdata$3$?GetParam@S7Client@node_snap7@@SAXAEBV?$FunctionCallbackInfo@VValue@v8@@@Nan@@@Z 00000001800773fc     node_snap7_client.obj
 0004:00000408       $pdata$?SetParam@S7Client@node_snap7@@SAXAEBV?$FunctionCallbackInfo@VValue@v8@@@Nan@@@Z 0000000180077408     node_snap7_client.obj
 0004:00000414       $pdata$?Execute@IOWorker@node_snap7@@EEAAXXZ 0000000180077414     node_snap7_client.obj
 0004:00000420       $pdata$0$?Execute@IOWorker@node_snap7@@EEAAXXZ 0000000180077420     node_snap7_client.obj
 0004:0000042c       $pdata$1$?Execute@IOWorker@node_snap7@@EEAAXXZ 000000018007742c     node_snap7_client.obj
 0004:00000438       $pdata$?HandleOKCallback@IOWorker@node_snap7@@EEAAXXZ 0000000180077438     node_snap7_client.obj
 0004:00000444       $pdata$0$?HandleOKCallback@IOWorker@node_snap7@@EEAAXXZ 0000000180077444     node_snap7_client.obj
 0004:00000450       $pdata$1$?HandleOKCallback@IOWorker@node_snap7@@EEAAXXZ 0000000180077450     node_snap7_client.obj
 0004:0000045c       $pdata$2$?HandleOKCallback@IOWorker@node_snap7@@EEAAXXZ 000000018007745c     node_snap7_client.obj
 0004:00000468       $pdata$3$?HandleOKCallback@IOWorker@node_snap7@@EEAAXXZ 0000000180077468     node_snap7_client.obj
 0004:00000474       $pdata$?ReadArea@S7Client@node_snap7@@SAXAEBV?$FunctionCallbackInfo@VValue@v8@@@Nan@@@Z 0000000180077474     node_snap7_client.obj
 0004:00000480       $pdata$6$?ReadArea@S7Client@node_snap7@@SAXAEBV?$FunctionCallbackInfo@VValue@v8@@@Nan@@@Z 0000000180077480     node_snap7_client.obj
 0004:0000048c       $pdata$8$?ReadArea@S7Client@node_snap7@@SAXAEBV?$FunctionCallbackInfo@VValue@v8@@@Nan@@@Z 000000018007748c     node_snap7_client.obj
 0004:00000498       $pdata$9$?ReadArea@S7Client@node_snap7@@SAXAEBV?$FunctionCallbackInfo@VValue@v8@@@Nan@@@Z 0000000180077498     node_snap7_client.obj
 0004:000004a4       $pdata$?WriteArea@S7Client@node_snap7@@SAXAEBV?$FunctionCallbackInfo@VValue@v8@@@Nan@@@Z 00000001800774a4     node_snap7_client.obj
 0004:000004b0       $pdata$5$?WriteArea@S7Client@node_snap7@@SAXAEBV?$FunctionCallbackInfo@VValue@v8@@@Nan@@@Z 00000001800774b0     node_snap7_client.obj
 0004:000004bc       $pdata$7$?WriteArea@S7Client@node_snap7@@SAXAEBV?$FunctionCallbackInfo@VValue@v8@@@Nan@@@Z 00000001800774bc     node_snap7_client.obj
 0004:000004c8       $pdata$8$?WriteArea@S7Client@node_snap7@@SAXAEBV?$FunctionCallbackInfo@VValue@v8@@@Nan@@@Z 00000001800774c8     node_snap7_client.obj
 0004:000004d4       $pdata$?ReadMultiVars@S7Client@node_snap7@@SAXAEBV?$FunctionCallbackInfo@VValue@v8@@@Nan@@@Z 00000001800774d4     node_snap7_client.obj
 0004:000004e0       $pdata$1$?ReadMultiVars@S7Client@node_snap7@@SAXAEBV?$FunctionCallbackInfo@VValue@v8@@@Nan@@@Z 00000001800774e0     node_snap7_client.obj
 0004:000004ec       $pdata$5$?ReadMultiVars@S7Client@node_snap7@@SAXAEBV?$FunctionCallbackInfo@VValue@v8@@@Nan@@@Z 00000001800774ec     node_snap7_client.obj
 0004:000004f8       $pdata$6$?ReadMultiVars@S7Client@node_snap7@@SAXAEBV?$FunctionCallbackInfo@VValue@v8@@@Nan@@@Z 00000001800774f8     node_snap7_client.obj
 0004:00000504       $pdata$7$?ReadMultiVars@S7Client@node_snap7@@SAXAEBV?$FunctionCallbackInfo@VValue@v8@@@Nan@@@Z 0000000180077504     node_snap7_client.obj
 0004:00000510       $pdata$?S7DataItemToArray@S7Client@node_snap7@@QEAA?AV?$Local@VArray@v8@@@v8@@PEAUTS7DataItem@@H_N@Z 0000000180077510     node_snap7_client.obj
 0004:0000051c       $pdata$2$?S7DataItemToArray@S7Client@node_snap7@@QEAA?AV?$Local@VArray@v8@@@v8@@PEAUTS7DataItem@@H_N@Z 000000018007751c     node_snap7_client.obj
 0004:00000528       $pdata$3$?S7DataItemToArray@S7Client@node_snap7@@QEAA?AV?$Local@VArray@v8@@@v8@@PEAUTS7DataItem@@H_N@Z 0000000180077528     node_snap7_client.obj
 0004:00000534       $pdata$?WriteMultiVars@S7Client@node_snap7@@SAXAEBV?$FunctionCallbackInfo@VValue@v8@@@Nan@@@Z 0000000180077534     node_snap7_client.obj
 0004:00000540       $pdata$1$?WriteMultiVars@S7Client@node_snap7@@SAXAEBV?$FunctionCallbackInfo@VValue@v8@@@Nan@@@Z 0000000180077540     node_snap7_client.obj
 0004:0000054c       $pdata$5$?WriteMultiVars@S7Client@node_snap7@@SAXAEBV?$FunctionCallbackInfo@VValue@v8@@@Nan@@@Z 000000018007754c     node_snap7_client.obj
 0004:00000558       $pdata$6$?WriteMultiVars@S7Client@node_snap7@@SAXAEBV?$FunctionCallbackInfo@VValue@v8@@@Nan@@@Z 0000000180077558     node_snap7_client.obj
 0004:00000564       $pdata$7$?WriteMultiVars@S7Client@node_snap7@@SAXAEBV?$FunctionCallbackInfo@VValue@v8@@@Nan@@@Z 0000000180077564     node_snap7_client.obj
 0004:00000570       $pdata$?ListBlocks@S7Client@node_snap7@@SAXAEBV?$FunctionCallbackInfo@VValue@v8@@@Nan@@@Z 0000000180077570     node_snap7_client.obj
 0004:0000057c       $pdata$2$?ListBlocks@S7Client@node_snap7@@SAXAEBV?$FunctionCallbackInfo@VValue@v8@@@Nan@@@Z 000000018007757c     node_snap7_client.obj
 0004:00000588       $pdata$3$?ListBlocks@S7Client@node_snap7@@SAXAEBV?$FunctionCallbackInfo@VValue@v8@@@Nan@@@Z 0000000180077588     node_snap7_client.obj
 0004:00000594       $pdata$4$?ListBlocks@S7Client@node_snap7@@SAXAEBV?$FunctionCallbackInfo@VValue@v8@@@Nan@@@Z 0000000180077594     node_snap7_client.obj
 0004:000005a0       $pdata$5$?ListBlocks@S7Client@node_snap7@@SAXAEBV?$FunctionCallbackInfo@VValue@v8@@@Nan@@@Z 00000001800775a0     node_snap7_client.obj
 0004:000005ac       $pdata$?S7BlocksListToObject@S7Client@node_snap7@@QEAA?AV?$Local@VObject@v8@@@v8@@PEAUTS7BlocksList@@@Z 00000001800775ac     node_snap7_client.obj
 0004:000005b8       $pdata$?GetAgBlockInfo@S7Client@node_snap7@@SAXAEBV?$FunctionCallbackInfo@VValue@v8@@@Nan@@@Z 00000001800775b8     node_snap7_client.obj
 0004:000005c4       $pdata$2$?GetAgBlockInfo@S7Client@node_snap7@@SAXAEBV?$FunctionCallbackInfo@VValue@v8@@@Nan@@@Z 00000001800775c4     node_snap7_client.obj
 0004:000005d0       $pdata$4$?GetAgBlockInfo@S7Client@node_snap7@@SAXAEBV?$FunctionCallbackInfo@VValue@v8@@@Nan@@@Z 00000001800775d0     node_snap7_client.obj
 0004:000005dc       $pdata$6$?GetAgBlockInfo@S7Client@node_snap7@@SAXAEBV?$FunctionCallbackInfo@VValue@v8@@@Nan@@@Z 00000001800775dc     node_snap7_client.obj
 0004:000005e8       $pdata$8$?GetAgBlockInfo@S7Client@node_snap7@@SAXAEBV?$FunctionCallbackInfo@VValue@v8@@@Nan@@@Z 00000001800775e8     node_snap7_client.obj
 0004:000005f4       $pdata$?GetPgBlockInfo@S7Client@node_snap7@@SAXAEBV?$FunctionCallbackInfo@VValue@v8@@@Nan@@@Z 00000001800775f4     node_snap7_client.obj
 0004:00000600       $pdata$2$?GetPgBlockInfo@S7Client@node_snap7@@SAXAEBV?$FunctionCallbackInfo@VValue@v8@@@Nan@@@Z 0000000180077600     node_snap7_client.obj
 0004:0000060c       $pdata$3$?GetPgBlockInfo@S7Client@node_snap7@@SAXAEBV?$FunctionCallbackInfo@VValue@v8@@@Nan@@@Z 000000018007760c     node_snap7_client.obj
 0004:00000618       $pdata$5$?GetPgBlockInfo@S7Client@node_snap7@@SAXAEBV?$FunctionCallbackInfo@VValue@v8@@@Nan@@@Z 0000000180077618     node_snap7_client.obj
 0004:00000624       $pdata$7$?GetPgBlockInfo@S7Client@node_snap7@@SAXAEBV?$FunctionCallbackInfo@VValue@v8@@@Nan@@@Z 0000000180077624     node_snap7_client.obj
 0004:00000630       $pdata$9$?GetPgBlockInfo@S7Client@node_snap7@@SAXAEBV?$FunctionCallbackInfo@VValue@v8@@@Nan@@@Z 0000000180077630     node_snap7_client.obj
 0004:0000063c       $pdata$?S7BlockInfoToObject@S7Client@node_snap7@@QEAA?AV?$Local@VObject@v8@@@v8@@PEAUTS7BlockInfo@@@Z 000000018007763c     node_snap7_client.obj
 0004:00000648       $pdata$?ListBlocksOfType@S7Client@node_snap7@@SAXAEBV?$FunctionCallbackInfo@VValue@v8@@@Nan@@@Z 0000000180077648     node_snap7_client.obj
 0004:00000654       $pdata$1$?ListBlocksOfType@S7Client@node_snap7@@SAXAEBV?$FunctionCallbackInfo@VValue@v8@@@Nan@@@Z 0000000180077654     node_snap7_client.obj
 0004:00000660       $pdata$3$?ListBlocksOfType@S7Client@node_snap7@@SAXAEBV?$FunctionCallbackInfo@VValue@v8@@@Nan@@@Z 0000000180077660     node_snap7_client.obj
 0004:0000066c       $pdata$5$?ListBlocksOfType@S7Client@node_snap7@@SAXAEBV?$FunctionCallbackInfo@VValue@v8@@@Nan@@@Z 000000018007766c     node_snap7_client.obj
 0004:00000678       $pdata$10$?ListBlocksOfType@S7Client@node_snap7@@SAXAEBV?$FunctionCallbackInfo@VValue@v8@@@Nan@@@Z 0000000180077678     node_snap7_client.obj
 0004:00000684       $pdata$7$?ListBlocksOfType@S7Client@node_snap7@@SAXAEBV?$FunctionCallbackInfo@VValue@v8@@@Nan@@@Z 0000000180077684     node_snap7_client.obj
 0004:00000690       $pdata$?S7BlocksOfTypeToArray@S7Client@node_snap7@@QEAA?AV?$Local@VArray@v8@@@v8@@PEAY0CAAA@GH@Z 0000000180077690     node_snap7_client.obj
 0004:0000069c       $pdata$1$?S7BlocksOfTypeToArray@S7Client@node_snap7@@QEAA?AV?$Local@VArray@v8@@@v8@@PEAY0CAAA@GH@Z 000000018007769c     node_snap7_client.obj
 0004:000006a8       $pdata$2$?S7BlocksOfTypeToArray@S7Client@node_snap7@@QEAA?AV?$Local@VArray@v8@@@v8@@PEAY0CAAA@GH@Z 00000001800776a8     node_snap7_client.obj
 0004:000006b4       $pdata$?Upload@S7Client@node_snap7@@SAXAEBV?$FunctionCallbackInfo@VValue@v8@@@Nan@@@Z 00000001800776b4     node_snap7_client.obj
 0004:000006c0       $pdata$2$?Upload@S7Client@node_snap7@@SAXAEBV?$FunctionCallbackInfo@VValue@v8@@@Nan@@@Z 00000001800776c0     node_snap7_client.obj
 0004:000006cc       $pdata$4$?Upload@S7Client@node_snap7@@SAXAEBV?$FunctionCallbackInfo@VValue@v8@@@Nan@@@Z 00000001800776cc     node_snap7_client.obj
 0004:000006d8       $pdata$6$?Upload@S7Client@node_snap7@@SAXAEBV?$FunctionCallbackInfo@VValue@v8@@@Nan@@@Z 00000001800776d8     node_snap7_client.obj
 0004:000006e4       $pdata$8$?Upload@S7Client@node_snap7@@SAXAEBV?$FunctionCallbackInfo@VValue@v8@@@Nan@@@Z 00000001800776e4     node_snap7_client.obj
 0004:000006f0       $pdata$?FullUpload@S7Client@node_snap7@@SAXAEBV?$FunctionCallbackInfo@VValue@v8@@@Nan@@@Z 00000001800776f0     node_snap7_client.obj
 0004:000006fc       $pdata$2$?FullUpload@S7Client@node_snap7@@SAXAEBV?$FunctionCallbackInfo@VValue@v8@@@Nan@@@Z 00000001800776fc     node_snap7_client.obj
 0004:00000708       $pdata$4$?FullUpload@S7Client@node_snap7@@SAXAEBV?$FunctionCallbackInfo@VValue@v8@@@Nan@@@Z 0000000180077708     node_snap7_client.obj
 0004:00000714       $pdata$6$?FullUpload@S7Client@node_snap7@@SAXAEBV?$FunctionCallbackInfo@VValue@v8@@@Nan@@@Z 0000000180077714     node_snap7_client.obj
 0004:00000720       $pdata$8$?FullUpload@S7Client@node_snap7@@SAXAEBV?$FunctionCallbackInfo@VValue@v8@@@Nan@@@Z 0000000180077720     node_snap7_client.obj
 0004:0000072c       $pdata$?Download@S7Client@node_snap7@@SAXAEBV?$FunctionCallbackInfo@VValue@v8@@@Nan@@@Z 000000018007772c     node_snap7_client.obj
 0004:00000738       $pdata$2$?Download@S7Client@node_snap7@@SAXAEBV?$FunctionCallbackInfo@VValue@v8@@@Nan@@@Z 0000000180077738     node_snap7_client.obj
 0004:00000744       $pdata$4$?Download@S7Client@node_snap7@@SAXAEBV?$FunctionCallbackInfo@VValue@v8@@@Nan@@@Z 0000000180077744     node_snap7_client.obj
 0004:00000750       $pdata$6$?Download@S7Client@node_snap7@@SAXAEBV?$FunctionCallbackInfo@VValue@v8@@@Nan@@@Z 0000000180077750     node_snap7_client.obj
 0004:0000075c       $pdata$8$?Download@S7Client@node_snap7@@SAXAEBV?$FunctionCallbackInfo@VValue@v8@@@Nan@@@Z 000000018007775c     node_snap7_client.obj
 0004:00000768       $pdata$?Delete@S7Client@node_snap7@@SAXAEBV?$FunctionCallbackInfo@VValue@v8@@@Nan@@@Z 0000000180077768     node_snap7_client.obj
 0004:00000774       $pdata$1$?Delete@S7Client@node_snap7@@SAXAEBV?$FunctionCallbackInfo@VValue@v8@@@Nan@@@Z 0000000180077774     node_snap7_client.obj
 0004:00000780       $pdata$3$?Delete@S7Client@node_snap7@@SAXAEBV?$FunctionCallbackInfo@VValue@v8@@@Nan@@@Z 0000000180077780     node_snap7_client.obj
 0004:0000078c       $pdata$7$?Delete@S7Client@node_snap7@@SAXAEBV?$FunctionCallbackInfo@VValue@v8@@@Nan@@@Z 000000018007778c     node_snap7_client.obj
 0004:00000798       $pdata$8$?Delete@S7Client@node_snap7@@SAXAEBV?$FunctionCallbackInfo@VValue@v8@@@Nan@@@Z 0000000180077798     node_snap7_client.obj
 0004:000007a4       $pdata$?DBGet@S7Client@node_snap7@@SAXAEBV?$FunctionCallbackInfo@VValue@v8@@@Nan@@@Z 00000001800777a4     node_snap7_client.obj
 0004:000007b0       $pdata$0$?DBGet@S7Client@node_snap7@@SAXAEBV?$FunctionCallbackInfo@VValue@v8@@@Nan@@@Z 00000001800777b0     node_snap7_client.obj
 0004:000007bc       $pdata$2$?DBGet@S7Client@node_snap7@@SAXAEBV?$FunctionCallbackInfo@VValue@v8@@@Nan@@@Z 00000001800777bc     node_snap7_client.obj
 0004:000007c8       $pdata$4$?DBGet@S7Client@node_snap7@@SAXAEBV?$FunctionCallbackInfo@VValue@v8@@@Nan@@@Z 00000001800777c8     node_snap7_client.obj
 0004:000007d4       $pdata$6$?DBGet@S7Client@node_snap7@@SAXAEBV?$FunctionCallbackInfo@VValue@v8@@@Nan@@@Z 00000001800777d4     node_snap7_client.obj
 0004:000007e0       $pdata$10$?DBGet@S7Client@node_snap7@@SAXAEBV?$FunctionCallbackInfo@VValue@v8@@@Nan@@@Z 00000001800777e0     node_snap7_client.obj
 0004:000007ec       $pdata$11$?DBGet@S7Client@node_snap7@@SAXAEBV?$FunctionCallbackInfo@VValue@v8@@@Nan@@@Z 00000001800777ec     node_snap7_client.obj
 0004:000007f8       $pdata$?DBFill@S7Client@node_snap7@@SAXAEBV?$FunctionCallbackInfo@VValue@v8@@@Nan@@@Z 00000001800777f8     node_snap7_client.obj
 0004:00000804       $pdata$1$?DBFill@S7Client@node_snap7@@SAXAEBV?$FunctionCallbackInfo@VValue@v8@@@Nan@@@Z 0000000180077804     node_snap7_client.obj
 0004:00000810       $pdata$2$?DBFill@S7Client@node_snap7@@SAXAEBV?$FunctionCallbackInfo@VValue@v8@@@Nan@@@Z 0000000180077810     node_snap7_client.obj
 0004:0000081c       $pdata$3$?DBFill@S7Client@node_snap7@@SAXAEBV?$FunctionCallbackInfo@VValue@v8@@@Nan@@@Z 000000018007781c     node_snap7_client.obj
 0004:00000828       $pdata$5$?DBFill@S7Client@node_snap7@@SAXAEBV?$FunctionCallbackInfo@VValue@v8@@@Nan@@@Z 0000000180077828     node_snap7_client.obj
 0004:00000834       $pdata$7$?DBFill@S7Client@node_snap7@@SAXAEBV?$FunctionCallbackInfo@VValue@v8@@@Nan@@@Z 0000000180077834     node_snap7_client.obj
 0004:00000840       $pdata$?GetPlcDateTime@S7Client@node_snap7@@SAXAEBV?$FunctionCallbackInfo@VValue@v8@@@Nan@@@Z 0000000180077840     node_snap7_client.obj
 0004:0000084c       $pdata$1$?GetPlcDateTime@S7Client@node_snap7@@SAXAEBV?$FunctionCallbackInfo@VValue@v8@@@Nan@@@Z 000000018007784c     node_snap7_client.obj
 0004:00000858       $pdata$2$?GetPlcDateTime@S7Client@node_snap7@@SAXAEBV?$FunctionCallbackInfo@VValue@v8@@@Nan@@@Z 0000000180077858     node_snap7_client.obj
 0004:00000864       $pdata$3$?GetPlcDateTime@S7Client@node_snap7@@SAXAEBV?$FunctionCallbackInfo@VValue@v8@@@Nan@@@Z 0000000180077864     node_snap7_client.obj
 0004:00000870       $pdata$6$?GetPlcDateTime@S7Client@node_snap7@@SAXAEBV?$FunctionCallbackInfo@VValue@v8@@@Nan@@@Z 0000000180077870     node_snap7_client.obj
 0004:0000087c       $pdata$7$?GetPlcDateTime@S7Client@node_snap7@@SAXAEBV?$FunctionCallbackInfo@VValue@v8@@@Nan@@@Z 000000018007787c     node_snap7_client.obj
 0004:00000888       $pdata$8$?GetPlcDateTime@S7Client@node_snap7@@SAXAEBV?$FunctionCallbackInfo@VValue@v8@@@Nan@@@Z 0000000180077888     node_snap7_client.obj
 0004:00000894       $pdata$?SetPlcDateTime@S7Client@node_snap7@@SAXAEBV?$FunctionCallbackInfo@VValue@v8@@@Nan@@@Z 0000000180077894     node_snap7_client.obj
 0004:000008a0       $pdata$4$?SetPlcDateTime@S7Client@node_snap7@@SAXAEBV?$FunctionCallbackInfo@VValue@v8@@@Nan@@@Z 00000001800778a0     node_snap7_client.obj
 0004:000008ac       $pdata$5$?SetPlcDateTime@S7Client@node_snap7@@SAXAEBV?$FunctionCallbackInfo@VValue@v8@@@Nan@@@Z 00000001800778ac     node_snap7_client.obj
 0004:000008b8       $pdata$6$?SetPlcDateTime@S7Client@node_snap7@@SAXAEBV?$FunctionCallbackInfo@VValue@v8@@@Nan@@@Z 00000001800778b8     node_snap7_client.obj
 0004:000008c4       $pdata$?SetPlcSystemDateTime@S7Client@node_snap7@@SAXAEBV?$FunctionCallbackInfo@VValue@v8@@@Nan@@@Z 00000001800778c4     node_snap7_client.obj
 0004:000008d0       $pdata$2$?SetPlcSystemDateTime@S7Client@node_snap7@@SAXAEBV?$FunctionCallbackInfo@VValue@v8@@@Nan@@@Z 00000001800778d0     node_snap7_client.obj
 0004:000008dc       $pdata$3$?SetPlcSystemDateTime@S7Client@node_snap7@@SAXAEBV?$FunctionCallbackInfo@VValue@v8@@@Nan@@@Z 00000001800778dc     node_snap7_client.obj
 0004:000008e8       $pdata$4$?SetPlcSystemDateTime@S7Client@node_snap7@@SAXAEBV?$FunctionCallbackInfo@VValue@v8@@@Nan@@@Z 00000001800778e8     node_snap7_client.obj
 0004:000008f4       $pdata$5$?SetPlcSystemDateTime@S7Client@node_snap7@@SAXAEBV?$FunctionCallbackInfo@VValue@v8@@@Nan@@@Z 00000001800778f4     node_snap7_client.obj
 0004:00000900       $pdata$?GetOrderCode@S7Client@node_snap7@@SAXAEBV?$FunctionCallbackInfo@VValue@v8@@@Nan@@@Z 0000000180077900     node_snap7_client.obj
 0004:0000090c       $pdata$2$?GetOrderCode@S7Client@node_snap7@@SAXAEBV?$FunctionCallbackInfo@VValue@v8@@@Nan@@@Z 000000018007790c     node_snap7_client.obj
 0004:00000918       $pdata$3$?GetOrderCode@S7Client@node_snap7@@SAXAEBV?$FunctionCallbackInfo@VValue@v8@@@Nan@@@Z 0000000180077918     node_snap7_client.obj
 0004:00000924       $pdata$4$?GetOrderCode@S7Client@node_snap7@@SAXAEBV?$FunctionCallbackInfo@VValue@v8@@@Nan@@@Z 0000000180077924     node_snap7_client.obj
 0004:00000930       $pdata$?S7OrderCodeToObject@S7Client@node_snap7@@QEAA?AV?$Local@VObject@v8@@@v8@@PEAUTS7OrderCode@@@Z 0000000180077930     node_snap7_client.obj
 0004:0000093c       $pdata$?GetCpuInfo@S7Client@node_snap7@@SAXAEBV?$FunctionCallbackInfo@VValue@v8@@@Nan@@@Z 000000018007793c     node_snap7_client.obj
 0004:00000948       $pdata$2$?GetCpuInfo@S7Client@node_snap7@@SAXAEBV?$FunctionCallbackInfo@VValue@v8@@@Nan@@@Z 0000000180077948     node_snap7_client.obj
 0004:00000954       $pdata$3$?GetCpuInfo@S7Client@node_snap7@@SAXAEBV?$FunctionCallbackInfo@VValue@v8@@@Nan@@@Z 0000000180077954     node_snap7_client.obj
 0004:00000960       $pdata$4$?GetCpuInfo@S7Client@node_snap7@@SAXAEBV?$FunctionCallbackInfo@VValue@v8@@@Nan@@@Z 0000000180077960     node_snap7_client.obj
 0004:0000096c       $pdata$?S7CpuInfoToObject@S7Client@node_snap7@@QEAA?AV?$Local@VObject@v8@@@v8@@PEAUTS7CpuInfo@@@Z 000000018007796c     node_snap7_client.obj
 0004:00000978       $pdata$?GetCpInfo@S7Client@node_snap7@@SAXAEBV?$FunctionCallbackInfo@VValue@v8@@@Nan@@@Z 0000000180077978     node_snap7_client.obj
 0004:00000984       $pdata$2$?GetCpInfo@S7Client@node_snap7@@SAXAEBV?$FunctionCallbackInfo@VValue@v8@@@Nan@@@Z 0000000180077984     node_snap7_client.obj
 0004:00000990       $pdata$3$?GetCpInfo@S7Client@node_snap7@@SAXAEBV?$FunctionCallbackInfo@VValue@v8@@@Nan@@@Z 0000000180077990     node_snap7_client.obj
 0004:0000099c       $pdata$4$?GetCpInfo@S7Client@node_snap7@@SAXAEBV?$FunctionCallbackInfo@VValue@v8@@@Nan@@@Z 000000018007799c     node_snap7_client.obj
 0004:000009a8       $pdata$?S7CpInfoToObject@S7Client@node_snap7@@QEAA?AV?$Local@VObject@v8@@@v8@@PEAUTS7CpInfo@@@Z 00000001800779a8     node_snap7_client.obj
 0004:000009b4       $pdata$?ReadSZL@S7Client@node_snap7@@SAXAEBV?$FunctionCallbackInfo@VValue@v8@@@Nan@@@Z 00000001800779b4     node_snap7_client.obj
 0004:000009c0       $pdata$5$?ReadSZL@S7Client@node_snap7@@SAXAEBV?$FunctionCallbackInfo@VValue@v8@@@Nan@@@Z 00000001800779c0     node_snap7_client.obj
 0004:000009cc       $pdata$6$?ReadSZL@S7Client@node_snap7@@SAXAEBV?$FunctionCallbackInfo@VValue@v8@@@Nan@@@Z 00000001800779cc     node_snap7_client.obj
 0004:000009d8       $pdata$?ReadSZLList@S7Client@node_snap7@@SAXAEBV?$FunctionCallbackInfo@VValue@v8@@@Nan@@@Z 00000001800779d8     node_snap7_client.obj
 0004:000009e4       $pdata$2$?ReadSZLList@S7Client@node_snap7@@SAXAEBV?$FunctionCallbackInfo@VValue@v8@@@Nan@@@Z 00000001800779e4     node_snap7_client.obj
 0004:000009f0       $pdata$3$?ReadSZLList@S7Client@node_snap7@@SAXAEBV?$FunctionCallbackInfo@VValue@v8@@@Nan@@@Z 00000001800779f0     node_snap7_client.obj
 0004:000009fc       $pdata$4$?ReadSZLList@S7Client@node_snap7@@SAXAEBV?$FunctionCallbackInfo@VValue@v8@@@Nan@@@Z 00000001800779fc     node_snap7_client.obj
 0004:00000a08       $pdata$5$?ReadSZLList@S7Client@node_snap7@@SAXAEBV?$FunctionCallbackInfo@VValue@v8@@@Nan@@@Z 0000000180077a08     node_snap7_client.obj
 0004:00000a14       $pdata$?S7SZLListToArray@S7Client@node_snap7@@QEAA?AV?$Local@VArray@v8@@@v8@@PEAUTS7SZLList@@H@Z 0000000180077a14     node_snap7_client.obj
 0004:00000a20       $pdata$1$?S7SZLListToArray@S7Client@node_snap7@@QEAA?AV?$Local@VArray@v8@@@v8@@PEAUTS7SZLList@@H@Z 0000000180077a20     node_snap7_client.obj
 0004:00000a2c       $pdata$2$?S7SZLListToArray@S7Client@node_snap7@@QEAA?AV?$Local@VArray@v8@@@v8@@PEAUTS7SZLList@@H@Z 0000000180077a2c     node_snap7_client.obj
 0004:00000a38       $pdata$?PlcHotStart@S7Client@node_snap7@@SAXAEBV?$FunctionCallbackInfo@VValue@v8@@@Nan@@@Z 0000000180077a38     node_snap7_client.obj
 0004:00000a44       $pdata$2$?PlcHotStart@S7Client@node_snap7@@SAXAEBV?$FunctionCallbackInfo@VValue@v8@@@Nan@@@Z 0000000180077a44     node_snap7_client.obj
 0004:00000a50       $pdata$3$?PlcHotStart@S7Client@node_snap7@@SAXAEBV?$FunctionCallbackInfo@VValue@v8@@@Nan@@@Z 0000000180077a50     node_snap7_client.obj
 0004:00000a5c       $pdata$4$?PlcHotStart@S7Client@node_snap7@@SAXAEBV?$FunctionCallbackInfo@VValue@v8@@@Nan@@@Z 0000000180077a5c     node_snap7_client.obj
 0004:00000a68       $pdata$5$?PlcHotStart@S7Client@node_snap7@@SAXAEBV?$FunctionCallbackInfo@VValue@v8@@@Nan@@@Z 0000000180077a68     node_snap7_client.obj
 0004:00000a74       $pdata$?PlcColdStart@S7Client@node_snap7@@SAXAEBV?$FunctionCallbackInfo@VValue@v8@@@Nan@@@Z 0000000180077a74     node_snap7_client.obj
 0004:00000a80       $pdata$2$?PlcColdStart@S7Client@node_snap7@@SAXAEBV?$FunctionCallbackInfo@VValue@v8@@@Nan@@@Z 0000000180077a80     node_snap7_client.obj
 0004:00000a8c       $pdata$3$?PlcColdStart@S7Client@node_snap7@@SAXAEBV?$FunctionCallbackInfo@VValue@v8@@@Nan@@@Z 0000000180077a8c     node_snap7_client.obj
 0004:00000a98       $pdata$4$?PlcColdStart@S7Client@node_snap7@@SAXAEBV?$FunctionCallbackInfo@VValue@v8@@@Nan@@@Z 0000000180077a98     node_snap7_client.obj
 0004:00000aa4       $pdata$5$?PlcColdStart@S7Client@node_snap7@@SAXAEBV?$FunctionCallbackInfo@VValue@v8@@@Nan@@@Z 0000000180077aa4     node_snap7_client.obj
 0004:00000ab0       $pdata$?PlcStop@S7Client@node_snap7@@SAXAEBV?$FunctionCallbackInfo@VValue@v8@@@Nan@@@Z 0000000180077ab0     node_snap7_client.obj
 0004:00000abc       $pdata$2$?PlcStop@S7Client@node_snap7@@SAXAEBV?$FunctionCallbackInfo@VValue@v8@@@Nan@@@Z 0000000180077abc     node_snap7_client.obj
 0004:00000ac8       $pdata$3$?PlcStop@S7Client@node_snap7@@SAXAEBV?$FunctionCallbackInfo@VValue@v8@@@Nan@@@Z 0000000180077ac8     node_snap7_client.obj
 0004:00000ad4       $pdata$4$?PlcStop@S7Client@node_snap7@@SAXAEBV?$FunctionCallbackInfo@VValue@v8@@@Nan@@@Z 0000000180077ad4     node_snap7_client.obj
 0004:00000ae0       $pdata$5$?PlcStop@S7Client@node_snap7@@SAXAEBV?$FunctionCallbackInfo@VValue@v8@@@Nan@@@Z 0000000180077ae0     node_snap7_client.obj
 0004:00000aec       $pdata$?CopyRamToRom@S7Client@node_snap7@@SAXAEBV?$FunctionCallbackInfo@VValue@v8@@@Nan@@@Z 0000000180077aec     node_snap7_client.obj
 0004:00000af8       $pdata$0$?CopyRamToRom@S7Client@node_snap7@@SAXAEBV?$FunctionCallbackInfo@VValue@v8@@@Nan@@@Z 0000000180077af8     node_snap7_client.obj
 0004:00000b04       $pdata$2$?CopyRamToRom@S7Client@node_snap7@@SAXAEBV?$FunctionCallbackInfo@VValue@v8@@@Nan@@@Z 0000000180077b04     node_snap7_client.obj
 0004:00000b10       $pdata$6$?CopyRamToRom@S7Client@node_snap7@@SAXAEBV?$FunctionCallbackInfo@VValue@v8@@@Nan@@@Z 0000000180077b10     node_snap7_client.obj
 0004:00000b1c       $pdata$?Compress@S7Client@node_snap7@@SAXAEBV?$FunctionCallbackInfo@VValue@v8@@@Nan@@@Z 0000000180077b1c     node_snap7_client.obj
 0004:00000b28       $pdata$0$?Compress@S7Client@node_snap7@@SAXAEBV?$FunctionCallbackInfo@VValue@v8@@@Nan@@@Z 0000000180077b28     node_snap7_client.obj
 0004:00000b34       $pdata$2$?Compress@S7Client@node_snap7@@SAXAEBV?$FunctionCallbackInfo@VValue@v8@@@Nan@@@Z 0000000180077b34     node_snap7_client.obj
 0004:00000b40       $pdata$6$?Compress@S7Client@node_snap7@@SAXAEBV?$FunctionCallbackInfo@VValue@v8@@@Nan@@@Z 0000000180077b40     node_snap7_client.obj
 0004:00000b4c       $pdata$?GetProtection@S7Client@node_snap7@@SAXAEBV?$FunctionCallbackInfo@VValue@v8@@@Nan@@@Z 0000000180077b4c     node_snap7_client.obj
 0004:00000b58       $pdata$2$?GetProtection@S7Client@node_snap7@@SAXAEBV?$FunctionCallbackInfo@VValue@v8@@@Nan@@@Z 0000000180077b58     node_snap7_client.obj
 0004:00000b64       $pdata$3$?GetProtection@S7Client@node_snap7@@SAXAEBV?$FunctionCallbackInfo@VValue@v8@@@Nan@@@Z 0000000180077b64     node_snap7_client.obj
 0004:00000b70       $pdata$4$?GetProtection@S7Client@node_snap7@@SAXAEBV?$FunctionCallbackInfo@VValue@v8@@@Nan@@@Z 0000000180077b70     node_snap7_client.obj
 0004:00000b7c       $pdata$?S7ProtectionToObject@S7Client@node_snap7@@QEAA?AV?$Local@VObject@v8@@@v8@@PEAUTS7Protection@@@Z 0000000180077b7c     node_snap7_client.obj
 0004:00000b88       $pdata$?SetSessionPassword@S7Client@node_snap7@@SAXAEBV?$FunctionCallbackInfo@VValue@v8@@@Nan@@@Z 0000000180077b88     node_snap7_client.obj
 0004:00000b94       $pdata$1$?SetSessionPassword@S7Client@node_snap7@@SAXAEBV?$FunctionCallbackInfo@VValue@v8@@@Nan@@@Z 0000000180077b94     node_snap7_client.obj
 0004:00000ba0       $pdata$4$?SetSessionPassword@S7Client@node_snap7@@SAXAEBV?$FunctionCallbackInfo@VValue@v8@@@Nan@@@Z 0000000180077ba0     node_snap7_client.obj
 0004:00000bac       $pdata$5$?SetSessionPassword@S7Client@node_snap7@@SAXAEBV?$FunctionCallbackInfo@VValue@v8@@@Nan@@@Z 0000000180077bac     node_snap7_client.obj
 0004:00000bb8       $pdata$?ClearSessionPassword@S7Client@node_snap7@@SAXAEBV?$FunctionCallbackInfo@VValue@v8@@@Nan@@@Z 0000000180077bb8     node_snap7_client.obj
 0004:00000bc4       $pdata$2$?ClearSessionPassword@S7Client@node_snap7@@SAXAEBV?$FunctionCallbackInfo@VValue@v8@@@Nan@@@Z 0000000180077bc4     node_snap7_client.obj
 0004:00000bd0       $pdata$3$?ClearSessionPassword@S7Client@node_snap7@@SAXAEBV?$FunctionCallbackInfo@VValue@v8@@@Nan@@@Z 0000000180077bd0     node_snap7_client.obj
 0004:00000bdc       $pdata$4$?ClearSessionPassword@S7Client@node_snap7@@SAXAEBV?$FunctionCallbackInfo@VValue@v8@@@Nan@@@Z 0000000180077bdc     node_snap7_client.obj
 0004:00000be8       $pdata$5$?ClearSessionPassword@S7Client@node_snap7@@SAXAEBV?$FunctionCallbackInfo@VValue@v8@@@Nan@@@Z 0000000180077be8     node_snap7_client.obj
 0004:00000bf4       $pdata$?ExecTime@S7Client@node_snap7@@SAXAEBV?$FunctionCallbackInfo@VValue@v8@@@Nan@@@Z 0000000180077bf4     node_snap7_client.obj
 0004:00000c00       $pdata$?LastError@S7Client@node_snap7@@SAXAEBV?$FunctionCallbackInfo@VValue@v8@@@Nan@@@Z 0000000180077c00     node_snap7_client.obj
 0004:00000c0c       $pdata$?PDURequested@S7Client@node_snap7@@SAXAEBV?$FunctionCallbackInfo@VValue@v8@@@Nan@@@Z 0000000180077c0c     node_snap7_client.obj
 0004:00000c18       $pdata$?PDULength@S7Client@node_snap7@@SAXAEBV?$FunctionCallbackInfo@VValue@v8@@@Nan@@@Z 0000000180077c18     node_snap7_client.obj
 0004:00000c24       $pdata$?PlcStatus@S7Client@node_snap7@@SAXAEBV?$FunctionCallbackInfo@VValue@v8@@@Nan@@@Z 0000000180077c24     node_snap7_client.obj
 0004:00000c30       $pdata$2$?PlcStatus@S7Client@node_snap7@@SAXAEBV?$FunctionCallbackInfo@VValue@v8@@@Nan@@@Z 0000000180077c30     node_snap7_client.obj
 0004:00000c3c       $pdata$3$?PlcStatus@S7Client@node_snap7@@SAXAEBV?$FunctionCallbackInfo@VValue@v8@@@Nan@@@Z 0000000180077c3c     node_snap7_client.obj
 0004:00000c48       $pdata$4$?PlcStatus@S7Client@node_snap7@@SAXAEBV?$FunctionCallbackInfo@VValue@v8@@@Nan@@@Z 0000000180077c48     node_snap7_client.obj
 0004:00000c54       $pdata$5$?PlcStatus@S7Client@node_snap7@@SAXAEBV?$FunctionCallbackInfo@VValue@v8@@@Nan@@@Z 0000000180077c54     node_snap7_client.obj
 0004:00000c60       $pdata$?Connected@S7Client@node_snap7@@SAXAEBV?$FunctionCallbackInfo@VValue@v8@@@Nan@@@Z 0000000180077c60     node_snap7_client.obj
 0004:00000c6c       $pdata$?ErrorText@S7Client@node_snap7@@SAXAEBV?$FunctionCallbackInfo@VValue@v8@@@Nan@@@Z 0000000180077c6c     node_snap7_client.obj
 0004:00000c78       $pdata$0$?ErrorText@S7Client@node_snap7@@SAXAEBV?$FunctionCallbackInfo@VValue@v8@@@Nan@@@Z 0000000180077c78     node_snap7_client.obj
 0004:00000c84       $pdata$1$?ErrorText@S7Client@node_snap7@@SAXAEBV?$FunctionCallbackInfo@VValue@v8@@@Nan@@@Z 0000000180077c84     node_snap7_client.obj
 0004:00000c90       $pdata$??1?$basic_string@DU?$char_traits@D@std@@V?$allocator@D@2@@std@@QEAA@XZ 0000000180077c90     node_snap7_client.obj
 0004:00000c9c       $pdata$??0?$basic_string@DU?$char_traits@D@std@@V?$allocator@D@2@@std@@QEAA@PEBD@Z 0000000180077c9c     node_snap7_client.obj
 0004:00000ca8       $pdata$??1?$basic_stringstream@DU?$char_traits@D@std@@V?$allocator@D@2@@std@@UEAA@XZ 0000000180077ca8     node_snap7_client.obj
 0004:00000cb4       $pdata$??0?$basic_stringstream@DU?$char_traits@D@std@@V?$allocator@D@2@@std@@QEAA@H@Z 0000000180077cb4     node_snap7_client.obj
 0004:00000cc0       $pdata$?seekpos@?$basic_stringbuf@DU?$char_traits@D@std@@V?$allocator@D@2@@std@@MEAA?AV?$fpos@U_Mbstatet@@@2@V32@H@Z 0000000180077cc0     node_snap7_client.obj
 0004:00000ccc       $pdata$?seekoff@?$basic_stringbuf@DU?$char_traits@D@std@@V?$allocator@D@2@@std@@MEAA?AV?$fpos@U_Mbstatet@@@2@_JHH@Z 0000000180077ccc     node_snap7_client.obj
 0004:00000cd8       $pdata$?overflow@?$basic_stringbuf@DU?$char_traits@D@std@@V?$allocator@D@2@@std@@MEAAHH@Z 0000000180077cd8     node_snap7_client.obj
 0004:00000ce4       $pdata$0$?overflow@?$basic_stringbuf@DU?$char_traits@D@std@@V?$allocator@D@2@@std@@MEAAHH@Z 0000000180077ce4     node_snap7_client.obj
 0004:00000cf0       $pdata$6$?overflow@?$basic_stringbuf@DU?$char_traits@D@std@@V?$allocator@D@2@@std@@MEAAHH@Z 0000000180077cf0     node_snap7_client.obj
 0004:00000cfc       $pdata$7$?overflow@?$basic_stringbuf@DU?$char_traits@D@std@@V?$allocator@D@2@@std@@MEAAHH@Z 0000000180077cfc     node_snap7_client.obj
 0004:00000d08       $pdata$??6?$basic_ostream@DU?$char_traits@D@std@@@std@@QEAAAEAV01@H@Z 0000000180077d08     node_snap7_client.obj
 0004:00000d14       $pdata$0$??6?$basic_ostream@DU?$char_traits@D@std@@@std@@QEAAAEAV01@H@Z 0000000180077d14     node_snap7_client.obj
 0004:00000d20       $pdata$2$??6?$basic_ostream@DU?$char_traits@D@std@@@std@@QEAAAEAV01@H@Z 0000000180077d20     node_snap7_client.obj
 0004:00000d2c       $pdata$3$??6?$basic_ostream@DU?$char_traits@D@std@@@std@@QEAAAEAV01@H@Z 0000000180077d2c     node_snap7_client.obj
 0004:00000d38       $pdata$4$??6?$basic_ostream@DU?$char_traits@D@std@@@std@@QEAAAEAV01@H@Z 0000000180077d38     node_snap7_client.obj
 0004:00000d44       $pdata$5$??6?$basic_ostream@DU?$char_traits@D@std@@@std@@QEAAAEAV01@H@Z 0000000180077d44     node_snap7_client.obj
 0004:00000d50       $pdata$6$??6?$basic_ostream@DU?$char_traits@D@std@@@std@@QEAAAEAV01@H@Z 0000000180077d50     node_snap7_client.obj
 0004:00000d5c       $pdata$7$??6?$basic_ostream@DU?$char_traits@D@std@@@std@@QEAAAEAV01@H@Z 0000000180077d5c     node_snap7_client.obj
 0004:00000d68       $pdata$?xsputn@?$basic_streambuf@DU?$char_traits@D@std@@@std@@MEAA_JPEBD_J@Z 0000000180077d68     node_snap7_client.obj
 0004:00000d74       $pdata$0$?xsputn@?$basic_streambuf@DU?$char_traits@D@std@@@std@@MEAA_JPEBD_J@Z 0000000180077d74     node_snap7_client.obj
 0004:00000d80       $pdata$1$?xsputn@?$basic_streambuf@DU?$char_traits@D@std@@@std@@MEAA_JPEBD_J@Z 0000000180077d80     node_snap7_client.obj
 0004:00000d8c       $pdata$?xsgetn@?$basic_streambuf@DU?$char_traits@D@std@@@std@@MEAA_JPEAD_J@Z 0000000180077d8c     node_snap7_client.obj
 0004:00000d98       $pdata$1$?xsgetn@?$basic_streambuf@DU?$char_traits@D@std@@@std@@MEAA_JPEAD_J@Z 0000000180077d98     node_snap7_client.obj
 0004:00000da4       $pdata$2$?xsgetn@?$basic_streambuf@DU?$char_traits@D@std@@@std@@MEAA_JPEAD_J@Z 0000000180077da4     node_snap7_client.obj
 0004:00000db0       $pdata$3$?xsgetn@?$basic_streambuf@DU?$char_traits@D@std@@@std@@MEAA_JPEAD_J@Z 0000000180077db0     node_snap7_client.obj
 0004:00000dbc       $pdata$?uflow@?$basic_streambuf@DU?$char_traits@D@std@@@std@@MEAAHXZ 0000000180077dbc     node_snap7_client.obj
 0004:00000dc8       $pdata$??_G?$basic_stringstream@DU?$char_traits@D@std@@V?$allocator@D@2@@std@@UEAAPEAXI@Z 0000000180077dc8     node_snap7_client.obj
 0004:00000dd4       $pdata$??_G?$basic_stringbuf@DU?$char_traits@D@std@@V?$allocator@D@2@@std@@UEAAPEAXI@Z 0000000180077dd4     node_snap7_client.obj
 0004:00000de0       $pdata$??_G?$basic_iostream@DU?$char_traits@D@std@@@std@@UEAAPEAXI@Z 0000000180077de0     node_snap7_client.obj
 0004:00000dec       $pdata$??_G?$basic_ostream@DU?$char_traits@D@std@@@std@@UEAAPEAXI@Z 0000000180077dec     node_snap7_client.obj
 0004:00000df8       $pdata$??_G?$basic_istream@DU?$char_traits@D@std@@@std@@UEAAPEAXI@Z 0000000180077df8     node_snap7_client.obj
 0004:00000e04       $pdata$??_G?$basic_streambuf@DU?$char_traits@D@std@@@std@@UEAAPEAXI@Z 0000000180077e04     node_snap7_client.obj
 0004:00000e10       $pdata$??_Glocale@std@@QEAAPEAXI@Z 0000000180077e10     node_snap7_client.obj
 0004:00000e1c       $pdata$??_G?$basic_ios@DU?$char_traits@D@std@@@std@@UEAAPEAXI@Z 0000000180077e1c     node_snap7_client.obj
 0004:00000e28       $pdata$??0sentry@?$basic_ostream@DU?$char_traits@D@std@@@std@@QEAA@AEAV12@@Z 0000000180077e28     node_snap7_client.obj
 0004:00000e34       $pdata$?do_put@?$num_put@DV?$ostreambuf_iterator@DU?$char_traits@D@std@@@std@@@std@@MEBA?AV?$ostreambuf_iterator@DU?$char_traits@D@std@@@2@V32@AEAVios_base@2@DPEBX@Z 0000000180077e34     node_snap7_client.obj
 0004:00000e40       $pdata$?do_put@?$num_put@DV?$ostreambuf_iterator@DU?$char_traits@D@std@@@std@@@std@@MEBA?AV?$ostreambuf_iterator@DU?$char_traits@D@std@@@2@V32@AEAVios_base@2@DO@Z 0000000180077e40     node_snap7_client.obj
 0004:00000e4c       $pdata$?do_put@?$num_put@DV?$ostreambuf_iterator@DU?$char_traits@D@std@@@std@@@std@@MEBA?AV?$ostreambuf_iterator@DU?$char_traits@D@std@@@2@V32@AEAVios_base@2@DN@Z 0000000180077e4c     node_snap7_client.obj
 0004:00000e58       $pdata$?do_put@?$num_put@DV?$ostreambuf_iterator@DU?$char_traits@D@std@@@std@@@std@@MEBA?AV?$ostreambuf_iterator@DU?$char_traits@D@std@@@2@V32@AEAVios_base@2@D_K@Z 0000000180077e58     node_snap7_client.obj
 0004:00000e64       $pdata$?do_put@?$num_put@DV?$ostreambuf_iterator@DU?$char_traits@D@std@@@std@@@std@@MEBA?AV?$ostreambuf_iterator@DU?$char_traits@D@std@@@2@V32@AEAVios_base@2@D_J@Z 0000000180077e64     node_snap7_client.obj
 0004:00000e70       $pdata$?do_put@?$num_put@DV?$ostreambuf_iterator@DU?$char_traits@D@std@@@std@@@std@@MEBA?AV?$ostreambuf_iterator@DU?$char_traits@D@std@@@2@V32@AEAVios_base@2@DK@Z 0000000180077e70     node_snap7_client.obj
 0004:00000e7c       $pdata$?do_put@?$num_put@DV?$ostreambuf_iterator@DU?$char_traits@D@std@@@std@@@std@@MEBA?AV?$ostreambuf_iterator@DU?$char_traits@D@std@@@2@V32@AEAVios_base@2@DJ@Z 0000000180077e7c     node_snap7_client.obj
 0004:00000e88       $pdata$?do_put@?$num_put@DV?$ostreambuf_iterator@DU?$char_traits@D@std@@@std@@@std@@MEBA?AV?$ostreambuf_iterator@DU?$char_traits@D@std@@@2@V32@AEAVios_base@2@D_N@Z 0000000180077e88     node_snap7_client.obj
 0004:00000e94       $pdata$1$?do_put@?$num_put@DV?$ostreambuf_iterator@DU?$char_traits@D@std@@@std@@@std@@MEBA?AV?$ostreambuf_iterator@DU?$char_traits@D@std@@@2@V32@AEAVios_base@2@D_N@Z 0000000180077e94     node_snap7_client.obj
 0004:00000ea0       $pdata$2$?do_put@?$num_put@DV?$ostreambuf_iterator@DU?$char_traits@D@std@@@std@@@std@@MEBA?AV?$ostreambuf_iterator@DU?$char_traits@D@std@@@2@V32@AEAVios_base@2@D_N@Z 0000000180077ea0     node_snap7_client.obj
 0004:00000eac       $pdata$3$?do_put@?$num_put@DV?$ostreambuf_iterator@DU?$char_traits@D@std@@@std@@@std@@MEBA?AV?$ostreambuf_iterator@DU?$char_traits@D@std@@@2@V32@AEAVios_base@2@D_N@Z 0000000180077eac     node_snap7_client.obj
 0004:00000eb8       $pdata$4$?do_put@?$num_put@DV?$ostreambuf_iterator@DU?$char_traits@D@std@@@std@@@std@@MEBA?AV?$ostreambuf_iterator@DU?$char_traits@D@std@@@2@V32@AEAVios_base@2@D_N@Z 0000000180077eb8     node_snap7_client.obj
 0004:00000ec4       $pdata$5$?do_put@?$num_put@DV?$ostreambuf_iterator@DU?$char_traits@D@std@@@std@@@std@@MEBA?AV?$ostreambuf_iterator@DU?$char_traits@D@std@@@2@V32@AEAVios_base@2@D_N@Z 0000000180077ec4     node_snap7_client.obj
 0004:00000ed0       $pdata$?_Tidy@?$basic_string@DU?$char_traits@D@std@@V?$allocator@D@2@@std@@QEAAX_N_K@Z 0000000180077ed0     node_snap7_client.obj
 0004:00000edc       $pdata$?assign@?$basic_string@DU?$char_traits@D@std@@V?$allocator@D@2@@std@@QEAAAEAV12@_KD@Z 0000000180077edc     node_snap7_client.obj
 0004:00000ee8       $pdata$?assign@?$basic_string@DU?$char_traits@D@std@@V?$allocator@D@2@@std@@QEAAAEAV12@PEBD_K@Z 0000000180077ee8     node_snap7_client.obj
 0004:00000ef4       $pdata$?assign@?$basic_string@DU?$char_traits@D@std@@V?$allocator@D@2@@std@@QEAAAEAV12@AEBV12@_K1@Z 0000000180077ef4     node_snap7_client.obj
 0004:00000f00       $pdata$?append@?$basic_string@DU?$char_traits@D@std@@V?$allocator@D@2@@std@@QEAAAEAV12@PEBD_K@Z 0000000180077f00     node_snap7_client.obj
 0004:00000f0c       $pdata$0$?append@?$basic_string@DU?$char_traits@D@std@@V?$allocator@D@2@@std@@QEAAAEAV12@PEBD_K@Z 0000000180077f0c     node_snap7_client.obj
 0004:00000f18       $pdata$1$?append@?$basic_string@DU?$char_traits@D@std@@V?$allocator@D@2@@std@@QEAAAEAV12@PEBD_K@Z 0000000180077f18     node_snap7_client.obj
 0004:00000f24       $pdata$2$?append@?$basic_string@DU?$char_traits@D@std@@V?$allocator@D@2@@std@@QEAAAEAV12@PEBD_K@Z 0000000180077f24     node_snap7_client.obj
 0004:00000f30       $pdata$?append@?$basic_string@DU?$char_traits@D@std@@V?$allocator@D@2@@std@@QEAAAEAV12@AEBV12@_K1@Z 0000000180077f30     node_snap7_client.obj
 0004:00000f3c       $pdata$0$?append@?$basic_string@DU?$char_traits@D@std@@V?$allocator@D@2@@std@@QEAAAEAV12@AEBV12@_K1@Z 0000000180077f3c     node_snap7_client.obj
 0004:00000f48       $pdata$1$?append@?$basic_string@DU?$char_traits@D@std@@V?$allocator@D@2@@std@@QEAAAEAV12@AEBV12@_K1@Z 0000000180077f48     node_snap7_client.obj
 0004:00000f54       $pdata$2$?append@?$basic_string@DU?$char_traits@D@std@@V?$allocator@D@2@@std@@QEAAAEAV12@AEBV12@_K1@Z 0000000180077f54     node_snap7_client.obj
 0004:00000f60       $pdata$?_Assign_rv@?$basic_string@DU?$char_traits@D@std@@V?$allocator@D@2@@std@@QEAAX$$QEAV12@@Z 0000000180077f60     node_snap7_client.obj
 0004:00000f6c       $pdata$?_Tidy@?$basic_stringbuf@DU?$char_traits@D@std@@V?$allocator@D@2@@std@@IEAAXXZ 0000000180077f6c     node_snap7_client.obj
 0004:00000f78       $pdata$?str@?$basic_stringbuf@DU?$char_traits@D@std@@V?$allocator@D@2@@std@@QEBA?AV?$basic_string@DU?$char_traits@D@std@@V?$allocator@D@2@@2@XZ 0000000180077f78     node_snap7_client.obj
 0004:00000f84       $pdata$?allocate@?$allocator@D@std@@QEAAPEAD_K@Z 0000000180077f84     node_snap7_client.obj
 0004:00000f90       $pdata$?deallocate@?$allocator@D@std@@QEAAXPEAD_K@Z 0000000180077f90     node_snap7_client.obj
 0004:00000f9c       $pdata$??0?$basic_iostream@DU?$char_traits@D@std@@@std@@QEAA@PEAV?$basic_streambuf@DU?$char_traits@D@std@@@1@@Z 0000000180077f9c     node_snap7_client.obj
 0004:00000fa8       $pdata$??_G?$num_put@DV?$ostreambuf_iterator@DU?$char_traits@D@std@@@std@@@std@@MEAAPEAXI@Z 0000000180077fa8     node_snap7_client.obj
 0004:00000fb4       $pdata$?do_truename@?$numpunct@D@std@@MEBA?AV?$basic_string@DU?$char_traits@D@std@@V?$allocator@D@2@@2@XZ 0000000180077fb4     node_snap7_client.obj
 0004:00000fc0       $pdata$?do_falsename@?$numpunct@D@std@@MEBA?AV?$basic_string@DU?$char_traits@D@std@@V?$allocator@D@2@@2@XZ 0000000180077fc0     node_snap7_client.obj
 0004:00000fcc       $pdata$?do_grouping@?$numpunct@D@std@@MEBA?AV?$basic_string@DU?$char_traits@D@std@@V?$allocator@D@2@@2@XZ 0000000180077fcc     node_snap7_client.obj
 0004:00000fd8       $pdata$?_Iput@?$num_put@DV?$ostreambuf_iterator@DU?$char_traits@D@std@@@std@@@std@@AEBA?AV?$ostreambuf_iterator@DU?$char_traits@D@std@@@2@V32@AEAVios_base@2@DPEAD_K@Z 0000000180077fd8     node_snap7_client.obj
 0004:00000fe4       $pdata$?_Fput@?$num_put@DV?$ostreambuf_iterator@DU?$char_traits@D@std@@@std@@@std@@AEBA?AV?$ostreambuf_iterator@DU?$char_traits@D@std@@@2@V32@AEAVios_base@2@DPEBD_K@Z 0000000180077fe4     node_snap7_client.obj
 0004:00000ff0       $pdata$?erase@?$basic_string@DU?$char_traits@D@std@@V?$allocator@D@2@@std@@QEAAAEAV12@_K0@Z 0000000180077ff0     node_snap7_client.obj
 0004:00000ffc       $pdata$?append@?$basic_string@DU?$char_traits@D@std@@V?$allocator@D@2@@std@@QEAAAEAV12@_KD@Z 0000000180077ffc     node_snap7_client.obj
 0004:00001008       $pdata$0$?append@?$basic_string@DU?$char_traits@D@std@@V?$allocator@D@2@@std@@QEAAAEAV12@_KD@Z 0000000180078008     node_snap7_client.obj
 0004:00001014       $pdata$1$?append@?$basic_string@DU?$char_traits@D@std@@V?$allocator@D@2@@std@@QEAAAEAV12@_KD@Z 0000000180078014     node_snap7_client.obj
 0004:00001020       $pdata$2$?append@?$basic_string@DU?$char_traits@D@std@@V?$allocator@D@2@@std@@QEAAAEAV12@_KD@Z 0000000180078020     node_snap7_client.obj
 0004:0000102c       $pdata$?assign@?$basic_string@DU?$char_traits@D@std@@V?$allocator@D@2@@std@@QEAAAEAV12@$$QEAV12@@Z 000000018007802c     node_snap7_client.obj
 0004:00001038       $pdata$?flush@?$basic_ostream@DU?$char_traits@D@std@@@std@@QEAAAEAV12@XZ 0000000180078038     node_snap7_client.obj
 0004:00001044       $pdata$1$?flush@?$basic_ostream@DU?$char_traits@D@std@@@std@@QEAAAEAV12@XZ 0000000180078044     node_snap7_client.obj
 0004:00001050       $pdata$2$?flush@?$basic_ostream@DU?$char_traits@D@std@@@std@@QEAAAEAV12@XZ 0000000180078050     node_snap7_client.obj
 0004:0000105c       $pdata$3$?flush@?$basic_ostream@DU?$char_traits@D@std@@@std@@QEAAAEAV12@XZ 000000018007805c     node_snap7_client.obj
 0004:00001068       $pdata$4$?flush@?$basic_ostream@DU?$char_traits@D@std@@@std@@QEAAAEAV12@XZ 0000000180078068     node_snap7_client.obj
 0004:00001074       $pdata$??0?$basic_streambuf@DU?$char_traits@D@std@@@std@@IEAA@XZ 0000000180078074     node_snap7_client.obj
 0004:00001080       $pdata$??_G?$numpunct@D@std@@MEAAPEAXI@Z 0000000180078080     node_snap7_client.obj
 0004:0000108c       $pdata$?_Copy@?$basic_string@DU?$char_traits@D@std@@V?$allocator@D@2@@std@@QEAAX_K0@Z 000000018007808c     node_snap7_client.obj
 0004:00001098       $pdata$?insert@?$basic_string@DU?$char_traits@D@std@@V?$allocator@D@2@@std@@QEAAAEAV12@_K0D@Z 0000000180078098     node_snap7_client.obj
 0004:000010a4       $pdata$0$?insert@?$basic_string@DU?$char_traits@D@std@@V?$allocator@D@2@@std@@QEAAAEAV12@_K0D@Z 00000001800780a4     node_snap7_client.obj
 0004:000010b0       $pdata$1$?insert@?$basic_string@DU?$char_traits@D@std@@V?$allocator@D@2@@std@@QEAAAEAV12@_K0D@Z 00000001800780b0     node_snap7_client.obj
 0004:000010bc       $pdata$2$?insert@?$basic_string@DU?$char_traits@D@std@@V?$allocator@D@2@@std@@QEAAAEAV12@_K0D@Z 00000001800780bc     node_snap7_client.obj
 0004:000010c8       $pdata$?init@?$basic_ios@DU?$char_traits@D@std@@@std@@IEAAXPEAV?$basic_streambuf@DU?$char_traits@D@std@@@2@_N@Z 00000001800780c8     node_snap7_client.obj
 0004:000010d4       $pdata$?widen@?$basic_ios@DU?$char_traits@D@std@@@std@@QEBADD@Z 00000001800780d4     node_snap7_client.obj
 0004:000010e0       $pdata$??$use_facet@V?$ctype@D@std@@@std@@YAAEBV?$ctype@D@0@AEBVlocale@0@@Z 00000001800780e0     node_snap7_client.obj
 0004:000010ec       $pdata$??$_Immortalize@V_Iostream_error_category@std@@@std@@YAAEAV_Iostream_error_category@0@XZ 00000001800780ec     node_snap7_client.obj
 0004:000010f8       $pdata$??$New@VInteger@v8@@I@Nan@@YA?AV?$Local@VInteger@v8@@@v8@@I@Z 00000001800780f8     node_snap7_client.obj
 0004:00001104       $pdata$??$Unwrap@VS7Client@node_snap7@@@ObjectWrap@Nan@@SAPEAVS7Client@node_snap7@@V?$Local@VObject@v8@@@v8@@@Z 0000000180078104     node_snap7_client.obj
 0004:00001110       $pdata$??$?6U?$char_traits@D@std@@@std@@YAAEAV?$basic_ostream@DU?$char_traits@D@std@@@0@AEAV10@PEBD@Z 0000000180078110     node_snap7_client.obj
 0004:0000111c       $pdata$3$??$?6U?$char_traits@D@std@@@std@@YAAEAV?$basic_ostream@DU?$char_traits@D@std@@@0@AEAV10@PEBD@Z 000000018007811c     node_snap7_client.obj
 0004:00001128       $pdata$4$??$?6U?$char_traits@D@std@@@std@@YAAEAV?$basic_ostream@DU?$char_traits@D@std@@@0@AEAV10@PEBD@Z 0000000180078128     node_snap7_client.obj
 0004:00001134       $pdata$5$??$?6U?$char_traits@D@std@@@std@@YAAEAV?$basic_ostream@DU?$char_traits@D@std@@@0@AEAV10@PEBD@Z 0000000180078134     node_snap7_client.obj
 0004:00001140       $pdata$6$??$?6U?$char_traits@D@std@@@std@@YAAEAV?$basic_ostream@DU?$char_traits@D@std@@@0@AEAV10@PEBD@Z 0000000180078140     node_snap7_client.obj
 0004:0000114c       $pdata$7$??$?6U?$char_traits@D@std@@@std@@YAAEAV?$basic_ostream@DU?$char_traits@D@std@@@0@AEAV10@PEBD@Z 000000018007814c     node_snap7_client.obj
 0004:00001158       $pdata$??$use_facet@V?$num_put@DV?$ostreambuf_iterator@DU?$char_traits@D@std@@@std@@@std@@@std@@YAAEBV?$num_put@DV?$ostreambuf_iterator@DU?$char_traits@D@std@@@std@@@0@AEBVlocale@0@@Z 0000000180078158     node_snap7_client.obj
 0004:00001164       $pdata$??$use_facet@V?$numpunct@D@std@@@std@@YAAEBV?$numpunct@D@0@AEBVlocale@0@@Z 0000000180078164     node_snap7_client.obj
 0004:00001170       $pdata$?_Getcat@?$numpunct@D@std@@SA_KPEAPEBVfacet@locale@2@PEBV42@@Z 0000000180078170     node_snap7_client.obj
 0004:0000117c       $pdata$0$?_Getcat@?$numpunct@D@std@@SA_KPEAPEBVfacet@locale@2@PEBV42@@Z 000000018007817c     node_snap7_client.obj
 0004:00001188       $pdata$1$?_Getcat@?$numpunct@D@std@@SA_KPEAPEBVfacet@locale@2@PEBV42@@Z 0000000180078188     node_snap7_client.obj
 0004:00001194       $pdata$?_Getcat@?$num_put@DV?$ostreambuf_iterator@DU?$char_traits@D@std@@@std@@@std@@SA_KPEAPEBVfacet@locale@2@PEBV42@@Z 0000000180078194     node_snap7_client.obj
 0004:000011a0       $pdata$0$?_Getcat@?$num_put@DV?$ostreambuf_iterator@DU?$char_traits@D@std@@@std@@@std@@SA_KPEAPEBVfacet@locale@2@PEBV42@@Z 00000001800781a0     node_snap7_client.obj
 0004:000011ac       $pdata$1$?_Getcat@?$num_put@DV?$ostreambuf_iterator@DU?$char_traits@D@std@@@std@@@std@@SA_KPEAPEBVfacet@locale@2@PEBV42@@Z 00000001800781ac     node_snap7_client.obj
 0004:000011b8       $pdata$?_Init@?$numpunct@D@std@@IEAAXAEBV_Locinfo@2@_N@Z 00000001800781b8     node_snap7_client.obj
 0004:000011c4       $pdata$?New@?$IntegerFactory@VInteger@v8@@@imp@Nan@@SA?AV?$Local@VInteger@v8@@@v8@@H@Z 00000001800781c4     node_snap7_client.obj
 0004:000011d0       $pdata$?ConnectTo@TS7Client@@QEAAHPEBDHH@Z 00000001800781d0     snap7.obj
 0004:000011dc       $pdata$?PlcStatus@TS7Client@@QEAAHXZ 00000001800781dc     snap7.obj
 0004:000011e8       $pdata$?load_exe_hook@@YAP6A_JXZIPEAUDelayLoadInfo@@@Z 00000001800781e8     win_delay_load_hook.obj
 0004:000011f4       $pdata$Cli_Create          00000001800781f4     snap7:snap7_libmain.obj
 0004:00001200       $pdata$Cli_Destroy         0000000180078200     snap7:snap7_libmain.obj
 0004:00001200       $pdata$Par_Destroy         0000000180078200     snap7:snap7_libmain.obj
 0004:0000120c       $pdata$Cli_SetConnectionParams 000000018007820c     snap7:snap7_libmain.obj
 0004:00001218       $pdata$Cli_ConnectTo       0000000180078218     snap7:snap7_libmain.obj
 0004:00001224       $pdata$Cli_Disconnect      0000000180078224     snap7:snap7_libmain.obj
 0004:00001230       $pdata$Cli_ReadMultiVars   0000000180078230     snap7:snap7_libmain.obj
 0004:0000123c       $pdata$Cli_WriteMultiVars  000000018007823c     snap7:snap7_libmain.obj
 0004:00001248       $pdata$Cli_ListBlocks      0000000180078248     snap7:snap7_libmain.obj
 0004:00001254       $pdata$Cli_GetAgBlockInfo  0000000180078254     snap7:snap7_libmain.obj
 0004:00001260       $pdata$Cli_Delete          0000000180078260     snap7:snap7_libmain.obj
 0004:0000126c       $pdata$Cli_DBFill          000000018007826c     snap7:snap7_libmain.obj
 0004:00001278       $pdata$Cli_GetPlcDateTime  0000000180078278     snap7:snap7_libmain.obj
 0004:00001284       $pdata$Cli_SetPlcDateTime  0000000180078284     snap7:snap7_libmain.obj
 0004:00001290       $pdata$Cli_GetOrderCode    0000000180078290     snap7:snap7_libmain.obj
 0004:0000129c       $pdata$Cli_GetCpuInfo      000000018007829c     snap7:snap7_libmain.obj
 0004:000012a8       $pdata$Cli_GetCpInfo       00000001800782a8     snap7:snap7_libmain.obj
 0004:000012b4       $pdata$Cli_ReadSZLList     00000001800782b4     snap7:snap7_libmain.obj
 0004:000012c0       $pdata$Cli_PlcHotStart     00000001800782c0     snap7:snap7_libmain.obj
 0004:000012cc       $pdata$Cli_PlcColdStart    00000001800782cc     snap7:snap7_libmain.obj
 0004:000012d8       $pdata$Cli_PlcStop         00000001800782d8     snap7:snap7_libmain.obj
 0004:000012e4       $pdata$Cli_GetPlcStatus    00000001800782e4     snap7:snap7_libmain.obj
 0004:000012f0       $pdata$Cli_GetProtection   00000001800782f0     snap7:snap7_libmain.obj
 0004:000012fc       $pdata$Cli_ClearSessionPassword 00000001800782fc     snap7:snap7_libmain.obj
 0004:00001308       $pdata$Cli_IsoExchangeBuffer 0000000180078308     snap7:snap7_libmain.obj
 0004:00001314       $pdata$Cli_ErrorText       0000000180078314     snap7:snap7_libmain.obj
 0004:00001320       $pdata$Cli_AsDBWrite       0000000180078320     snap7:snap7_libmain.obj
 0004:0000132c       $pdata$Cli_AsMBWrite       000000018007832c     snap7:snap7_libmain.obj
 0004:00001338       $pdata$Cli_AsEBWrite       0000000180078338     snap7:snap7_libmain.obj
 0004:00001344       $pdata$Cli_AsABWrite       0000000180078344     snap7:snap7_libmain.obj
 0004:00001350       $pdata$Cli_AsTMWrite       0000000180078350     snap7:snap7_libmain.obj
 0004:0000135c       $pdata$Cli_AsCTWrite       000000018007835c     snap7:snap7_libmain.obj
 0004:00001368       $pdata$Cli_AsListBlocksOfType 0000000180078368     snap7:snap7_libmain.obj
 0004:00001374       $pdata$Cli_AsReadSZLList   0000000180078374     snap7:snap7_libmain.obj
 0004:00001380       $pdata$Cli_AsDBFill        0000000180078380     snap7:snap7_libmain.obj
 0004:0000138c       $pdata$Srv_Create          000000018007838c     snap7:snap7_libmain.obj
 0004:00001398       $pdata$Srv_Destroy         0000000180078398     snap7:snap7_libmain.obj
 0004:000013a4       $pdata$Srv_StartTo         00000001800783a4     snap7:snap7_libmain.obj
 0004:000013b0       $pdata$0$Srv_StartTo       00000001800783b0     snap7:snap7_libmain.obj
 0004:000013bc       $pdata$1$Srv_StartTo       00000001800783bc     snap7:snap7_libmain.obj
 0004:000013c8       $pdata$Srv_Stop            00000001800783c8     snap7:snap7_libmain.obj
 0004:000013d4       $pdata$Srv_ErrorText       00000001800783d4     snap7:snap7_libmain.obj
 0004:000013e0       $pdata$Srv_EventText       00000001800783e0     snap7:snap7_libmain.obj
 0004:000013ec       $pdata$Srv_PickEvent       00000001800783ec     snap7:snap7_libmain.obj
 0004:000013f8       $pdata$Srv_ClearEvents     00000001800783f8     snap7:snap7_libmain.obj
 0004:00001404       $pdata$Par_Create          0000000180078404     snap7:snap7_libmain.obj
 0004:00001410       $pdata$Par_BSend           0000000180078410     snap7:snap7_libmain.obj
 0004:0000141c       $pdata$Par_CheckAsBRecvCompletion 000000018007841c     snap7:snap7_libmain.obj
 0004:00001428       $pdata$Par_ErrorText       0000000180078428     snap7:snap7_libmain.obj
 0004:00001434       $pdata$??_GTMsgListenerThread@@UEAAPEAXI@Z 0000000180078434     snap7:snap_tcpsrvr.obj
 0004:00001434       $pdata$??_GTConnListenerThread@@UEAAPEAXI@Z 0000000180078434     snap7:s7_partner.obj
 0004:00001434       $pdata$??_GTPartnerThread@@UEAAPEAXI@Z 0000000180078434     snap7:s7_partner.obj
 0004:00001440       $pdata$?ServersManager_GetServer@@YAHIAEAPEAVTConnectionServer@@@Z 0000000180078440     snap7:s7_partner.obj
 0004:0000144c       $pdata$??1TServersManager@@QEAA@XZ 000000018007844c     snap7:s7_partner.obj
 0004:00001458       $pdata$1$??1TServersManager@@QEAA@XZ 0000000180078458     snap7:s7_partner.obj
 0004:00001464       $pdata$5$??1TServersManager@@QEAA@XZ 0000000180078464     snap7:s7_partner.obj
 0004:00001470       $pdata$6$??1TServersManager@@QEAA@XZ 0000000180078470     snap7:s7_partner.obj
 0004:0000147c       $pdata$7$??1TServersManager@@QEAA@XZ 000000018007847c     snap7:s7_partner.obj
 0004:00001488       $pdata$?GetServer@TServersManager@@QEAAHIAEAPEAVTConnectionServer@@@Z 0000000180078488     snap7:s7_partner.obj
 0004:00001494       $pdata$?RemovePartner@TServersManager@@QEAAXPEAVTConnectionServer@@PEAVTSnap7Partner@@@Z 0000000180078494     snap7:s7_partner.obj
 0004:000014a0       $pdata$?Execute@TConnListenerThread@@UEAAXXZ 00000001800784a0     snap7:s7_partner.obj
 0004:000014ac       $pdata$2$?Execute@TConnListenerThread@@UEAAXXZ 00000001800784ac     snap7:s7_partner.obj
 0004:000014b8       $pdata$3$?Execute@TConnListenerThread@@UEAAXXZ 00000001800784b8     snap7:s7_partner.obj
 0004:000014c4       $pdata$?Start@TConnectionServer@@IEAAHXZ 00000001800784c4     snap7:s7_partner.obj
 0004:000014d0       $pdata$?Stop@TConnectionServer@@QEAAXXZ 00000001800784d0     snap7:s7_partner.obj
 0004:000014dc       $pdata$0$?Stop@TConnectionServer@@QEAAXXZ 00000001800784dc     snap7:s7_partner.obj
 0004:000014e8       $pdata$1$?Stop@TConnectionServer@@QEAAXXZ 00000001800784e8     snap7:s7_partner.obj
 0004:000014f4       $pdata$?RegisterPartner@TConnectionServer@@QEAAHPEAVTSnap7Partner@@@Z 00000001800784f4     snap7:s7_partner.obj
 0004:00001500       $pdata$0$?RegisterPartner@TConnectionServer@@QEAAHPEAVTSnap7Partner@@@Z 0000000180078500     snap7:s7_partner.obj
 0004:0000150c       $pdata$1$?RegisterPartner@TConnectionServer@@QEAAHPEAVTSnap7Partner@@@Z 000000018007850c     snap7:s7_partner.obj
 0004:00001518       $pdata$2$?RegisterPartner@TConnectionServer@@QEAAHPEAVTSnap7Partner@@@Z 0000000180078518     snap7:s7_partner.obj
 0004:00001524       $pdata$3$?RegisterPartner@TConnectionServer@@QEAAHPEAVTSnap7Partner@@@Z 0000000180078524     snap7:s7_partner.obj
 0004:00001530       $pdata$?Incoming@TConnectionServer@@IEAAX_K@Z 0000000180078530     snap7:s7_partner.obj
 0004:0000153c       $pdata$?Execute@TPartnerThread@@MEAAXXZ 000000018007853c     snap7:s7_partner.obj
 0004:00001548       $pdata$2$?Execute@TPartnerThread@@MEAAXXZ 0000000180078548     snap7:s7_partner.obj
 0004:00001554       $pdata$3$?Execute@TPartnerThread@@MEAAXXZ 0000000180078554     snap7:s7_partner.obj
 0004:00001560       $pdata$??0TSnap7Partner@@QEAA@_N@Z 0000000180078560     snap7:s7_partner.obj
 0004:0000156c       $pdata$??_GTSnap7Partner@@UEAAPEAXI@Z 000000018007856c     snap7:s7_partner.obj
 0004:00001578       $pdata$??1TSnap7Partner@@UEAA@XZ 0000000180078578     snap7:s7_partner.obj
 0004:00001584       $pdata$?Start@TSnap7Partner@@QEAAHXZ 0000000180078584     snap7:s7_partner.obj
 0004:00001590       $pdata$?Stop@TSnap7Partner@@QEAAHXZ 0000000180078590     snap7:s7_partner.obj
 0004:0000159c       $pdata$0$?Stop@TSnap7Partner@@QEAAHXZ 000000018007859c     snap7:s7_partner.obj
 0004:000015a8       $pdata$1$?Stop@TSnap7Partner@@QEAAHXZ 00000001800785a8     snap7:s7_partner.obj
 0004:000015b4       $pdata$2$?Stop@TSnap7Partner@@QEAAHXZ 00000001800785b4     snap7:s7_partner.obj
 0004:000015c0       $pdata$3$?Stop@TSnap7Partner@@QEAAHXZ 00000001800785c0     snap7:s7_partner.obj
 0004:000015cc       $pdata$?PerformFunctionNegotiate@TSnap7Partner@@IEAA_NXZ 00000001800785cc     snap7:s7_partner.obj
 0004:000015d8       $pdata$?CloseWorker@TSnap7Partner@@AEAAXXZ 00000001800785d8     snap7:s7_partner.obj
 0004:000015e4       $pdata$?BlockSend@TSnap7Partner@@AEAA_NXZ 00000001800785e4     snap7:s7_partner.obj
 0004:000015f0       $pdata$3$?BlockSend@TSnap7Partner@@AEAA_NXZ 00000001800785f0     snap7:s7_partner.obj
 0004:000015fc       $pdata$5$?BlockSend@TSnap7Partner@@AEAA_NXZ 00000001800785fc     snap7:s7_partner.obj
 0004:00001608       $pdata$6$?BlockSend@TSnap7Partner@@AEAA_NXZ 0000000180078608     snap7:s7_partner.obj
 0004:00001614       $pdata$7$?BlockSend@TSnap7Partner@@AEAA_NXZ 0000000180078614     snap7:s7_partner.obj
 0004:00001620       $pdata$?PickData@TSnap7Partner@@AEAA_NXZ 0000000180078620     snap7:s7_partner.obj
 0004:0000162c       $pdata$1$?PickData@TSnap7Partner@@AEAA_NXZ 000000018007862c     snap7:s7_partner.obj
 0004:00001638       $pdata$2$?PickData@TSnap7Partner@@AEAA_NXZ 0000000180078638     snap7:s7_partner.obj
 0004:00001644       $pdata$?BlockRecv@TSnap7Partner@@AEAA_NXZ 0000000180078644     snap7:s7_partner.obj
 0004:00001650       $pdata$?ConnectionConfirm@TSnap7Partner@@AEAA_NXZ 0000000180078650     snap7:s7_partner.obj
 0004:0000165c       $pdata$?Execute@TSnap7Partner@@MEAA_NXZ 000000018007865c     snap7:s7_partner.obj
 0004:00001668       $pdata$1$?Execute@TSnap7Partner@@MEAA_NXZ 0000000180078668     snap7:s7_partner.obj
 0004:00001674       $pdata$2$?Execute@TSnap7Partner@@MEAA_NXZ 0000000180078674     snap7:s7_partner.obj
 0004:00001680       $pdata$?AsBSend@TSnap7Partner@@QEAAHIPEAXH@Z 0000000180078680     snap7:s7_partner.obj
 0004:0000168c       $pdata$?WaitAsBSendCompletion@TSnap7Partner@@QEAAHI@Z 000000018007868c     snap7:s7_partner.obj
 0004:00001698       $pdata$?BRecv@TSnap7Partner@@QEAAHAEAIPEAXAEAHI@Z 0000000180078698     snap7:s7_partner.obj
 0004:000016a4       $pdata$?CheckAsBRecvCompletion@TSnap7Partner@@QEAA_NAEAHAEAIPEAX0@Z 00000001800786a4     snap7:s7_partner.obj
 0004:000016b0       $pdata$??_GTClientThread@@UEAAPEAXI@Z 00000001800786b0     snap7:s7_client.obj
 0004:000016bc       $pdata$??_GTSnap7Client@@UEAAPEAXI@Z 00000001800786bc     snap7:s7_client.obj
 0004:000016c8       $pdata$??1TSnap7Client@@UEAA@XZ 00000001800786c8     snap7:s7_client.obj
 0004:000016d4       $pdata$?CloseThread@TSnap7Client@@AEAAXXZ 00000001800786d4     snap7:s7_client.obj
 0004:000016e0       $pdata$?OpenThread@TSnap7Client@@AEAAXXZ 00000001800786e0     snap7:s7_client.obj
 0004:000016ec       $pdata$?DoCompletion@TSnap7Client@@IEAAXXZ 00000001800786ec     snap7:s7_client.obj
 0004:000016f8       $pdata$?AsReadArea@TSnap7Client@@QEAAHHHHHHPEAX@Z 00000001800786f8     snap7:s7_client.obj
 0004:00001704       $pdata$?AsWriteArea@TSnap7Client@@QEAAHHHHHHPEAX@Z 0000000180078704     snap7:s7_client.obj
 0004:00001710       $pdata$0$?AsWriteArea@TSnap7Client@@QEAAHHHHHHPEAX@Z 0000000180078710     snap7:s7_client.obj
 0004:0000171c       $pdata$1$?AsWriteArea@TSnap7Client@@QEAAHHHHHHPEAX@Z 000000018007871c     snap7:s7_client.obj
 0004:00001728       $pdata$?AsReadSZL@TSnap7Client@@QEAAHHHPEAUTS7SZL@@AEAH@Z 0000000180078728     snap7:s7_client.obj
 0004:00001734       $pdata$?AsUpload@TSnap7Client@@QEAAHHHPEAXAEAH@Z 0000000180078734     snap7:s7_client.obj
 0004:00001740       $pdata$?AsFullUpload@TSnap7Client@@QEAAHHHPEAXAEAH@Z 0000000180078740     snap7:s7_client.obj
 0004:0000174c       $pdata$?AsDownload@TSnap7Client@@QEAAHHPEAXH@Z 000000018007874c     snap7:s7_client.obj
 0004:00001758       $pdata$?AsCopyRamToRom@TSnap7Client@@QEAAHH@Z 0000000180078758     snap7:s7_client.obj
 0004:00001764       $pdata$?AsDBRead@TSnap7Client@@QEAAHHHHPEAX@Z 0000000180078764     snap7:s7_client.obj
 0004:00001770       $pdata$?AsMBRead@TSnap7Client@@QEAAHHHPEAX@Z 0000000180078770     snap7:s7_client.obj
 0004:0000177c       $pdata$?AsEBRead@TSnap7Client@@QEAAHHHPEAX@Z 000000018007877c     snap7:s7_client.obj
 0004:00001788       $pdata$?AsABRead@TSnap7Client@@QEAAHHHPEAX@Z 0000000180078788     snap7:s7_client.obj
 0004:00001794       $pdata$?AsTMRead@TSnap7Client@@QEAAHHHPEAX@Z 0000000180078794     snap7:s7_client.obj
 0004:000017a0       $pdata$?AsCTRead@TSnap7Client@@QEAAHHHPEAX@Z 00000001800787a0     snap7:s7_client.obj
 0004:000017ac       $pdata$?AsDBGet@TSnap7Client@@QEAAHHPEAXAEAH@Z 00000001800787ac     snap7:s7_client.obj
 0004:000017b8       $pdata$?StartAsyncJob@TSnap7Client@@AEAAXXZ 00000001800787b8     snap7:s7_client.obj
 0004:000017c4       $pdata$0$?StartAsyncJob@TSnap7Client@@AEAAXXZ 00000001800787c4     snap7:s7_client.obj
 0004:000017d0       $pdata$1$?StartAsyncJob@TSnap7Client@@AEAAXXZ 00000001800787d0     snap7:s7_client.obj
 0004:000017dc       $pdata$2$?StartAsyncJob@TSnap7Client@@AEAAXXZ 00000001800787dc     snap7:s7_client.obj
 0004:000017e8       $pdata$3$?StartAsyncJob@TSnap7Client@@AEAAXXZ 00000001800787e8     snap7:s7_client.obj
 0004:000017f4       $pdata$?WaitAsCompletion@TSnap7Client@@QEAAHK@Z 00000001800787f4     snap7:s7_client.obj
 0004:00001800       $pdata$?Execute@TClientThread@@UEAAXXZ 0000000180078800     snap7:s7_client.obj
 0004:0000180c       $pdata$??0TSnap7MicroClient@@QEAA@XZ 000000018007880c     snap7:s7_micro_client.obj
 0004:00001818       $pdata$??_GTSnap7MicroClient@@UEAAPEAXI@Z 0000000180078818     snap7:s7_micro_client.obj
 0004:00001824       $pdata$?opReadArea@TSnap7MicroClient@@AEAAHXZ 0000000180078824     snap7:s7_micro_client.obj
 0004:00001830       $pdata$1$?opReadArea@TSnap7MicroClient@@AEAAHXZ 0000000180078830     snap7:s7_micro_client.obj
 0004:0000183c       $pdata$6$?opReadArea@TSnap7MicroClient@@AEAAHXZ 000000018007883c     snap7:s7_micro_client.obj
 0004:00001848       $pdata$7$?opReadArea@TSnap7MicroClient@@AEAAHXZ 0000000180078848     snap7:s7_micro_client.obj
 0004:00001854       $pdata$8$?opReadArea@TSnap7MicroClient@@AEAAHXZ 0000000180078854     snap7:s7_micro_client.obj
 0004:00001860       $pdata$10$?opReadArea@TSnap7MicroClient@@AEAAHXZ 0000000180078860     snap7:s7_micro_client.obj
 0004:0000186c       $pdata$11$?opReadArea@TSnap7MicroClient@@AEAAHXZ 000000018007886c     snap7:s7_micro_client.obj
 0004:00001878       $pdata$?opWriteArea@TSnap7MicroClient@@AEAAHXZ 0000000180078878     snap7:s7_micro_client.obj
 0004:00001884       $pdata$1$?opWriteArea@TSnap7MicroClient@@AEAAHXZ 0000000180078884     snap7:s7_micro_client.obj
 0004:00001890       $pdata$3$?opWriteArea@TSnap7MicroClient@@AEAAHXZ 0000000180078890     snap7:s7_micro_client.obj
 0004:0000189c       $pdata$4$?opWriteArea@TSnap7MicroClient@@AEAAHXZ 000000018007889c     snap7:s7_micro_client.obj
 0004:000018a8       $pdata$6$?opWriteArea@TSnap7MicroClient@@AEAAHXZ 00000001800788a8     snap7:s7_micro_client.obj
 0004:000018b4       $pdata$7$?opWriteArea@TSnap7MicroClient@@AEAAHXZ 00000001800788b4     snap7:s7_micro_client.obj
 0004:000018c0       $pdata$8$?opWriteArea@TSnap7MicroClient@@AEAAHXZ 00000001800788c0     snap7:s7_micro_client.obj
 0004:000018cc       $pdata$9$?opWriteArea@TSnap7MicroClient@@AEAAHXZ 00000001800788cc     snap7:s7_micro_client.obj
 0004:000018d8       $pdata$?opReadMultiVars@TSnap7MicroClient@@AEAAHXZ 00000001800788d8     snap7:s7_micro_client.obj
 0004:000018e4       $pdata$0$?opReadMultiVars@TSnap7MicroClient@@AEAAHXZ 00000001800788e4     snap7:s7_micro_client.obj
 0004:000018f0       $pdata$1$?opReadMultiVars@TSnap7MicroClient@@AEAAHXZ 00000001800788f0     snap7:s7_micro_client.obj
 0004:000018fc       $pdata$2$?opReadMultiVars@TSnap7MicroClient@@AEAAHXZ 00000001800788fc     snap7:s7_micro_client.obj
 0004:00001908       $pdata$3$?opReadMultiVars@TSnap7MicroClient@@AEAAHXZ 0000000180078908     snap7:s7_micro_client.obj
 0004:00001914       $pdata$4$?opReadMultiVars@TSnap7MicroClient@@AEAAHXZ 0000000180078914     snap7:s7_micro_client.obj
 0004:00001920       $pdata$5$?opReadMultiVars@TSnap7MicroClient@@AEAAHXZ 0000000180078920     snap7:s7_micro_client.obj
 0004:0000192c       $pdata$?opWriteMultiVars@TSnap7MicroClient@@AEAAHXZ 000000018007892c     snap7:s7_micro_client.obj
 0004:00001938       $pdata$3$?opWriteMultiVars@TSnap7MicroClient@@AEAAHXZ 0000000180078938     snap7:s7_micro_client.obj
 0004:00001944       $pdata$5$?opWriteMultiVars@TSnap7MicroClient@@AEAAHXZ 0000000180078944     snap7:s7_micro_client.obj
 0004:00001950       $pdata$6$?opWriteMultiVars@TSnap7MicroClient@@AEAAHXZ 0000000180078950     snap7:s7_micro_client.obj
 0004:0000195c       $pdata$7$?opWriteMultiVars@TSnap7MicroClient@@AEAAHXZ 000000018007895c     snap7:s7_micro_client.obj
 0004:00001968       $pdata$8$?opWriteMultiVars@TSnap7MicroClient@@AEAAHXZ 0000000180078968     snap7:s7_micro_client.obj
 0004:00001974       $pdata$9$?opWriteMultiVars@TSnap7MicroClient@@AEAAHXZ 0000000180078974     snap7:s7_micro_client.obj
 0004:00001980       $pdata$?opListBlocks@TSnap7MicroClient@@AEAAHXZ 0000000180078980     snap7:s7_micro_client.obj
 0004:0000198c       $pdata$?opListBlocksOfType@TSnap7MicroClient@@AEAAHXZ 000000018007898c     snap7:s7_micro_client.obj
 0004:00001998       $pdata$?FillTime@TSnap7MicroClient@@AEAAXGPEAD@Z 0000000180078998     snap7:s7_micro_client.obj
 0004:000019a4       $pdata$?opAgBlockInfo@TSnap7MicroClient@@AEAAHXZ 00000001800789a4     snap7:s7_micro_client.obj
 0004:000019b0       $pdata$?opDBGet@TSnap7MicroClient@@AEAAHXZ 00000001800789b0     snap7:s7_micro_client.obj
 0004:000019bc       $pdata$?opDBFill@TSnap7MicroClient@@AEAAHXZ 00000001800789bc     snap7:s7_micro_client.obj
 0004:000019c8       $pdata$0$?opDBFill@TSnap7MicroClient@@AEAAHXZ 00000001800789c8     snap7:s7_micro_client.obj
 0004:000019d4       $pdata$1$?opDBFill@TSnap7MicroClient@@AEAAHXZ 00000001800789d4     snap7:s7_micro_client.obj
 0004:000019e0       $pdata$?opUpload@TSnap7MicroClient@@AEAAHXZ 00000001800789e0     snap7:s7_micro_client.obj
 0004:000019ec       $pdata$?opDownload@TSnap7MicroClient@@AEAAHXZ 00000001800789ec     snap7:s7_micro_client.obj
 0004:000019f8       $pdata$5$?opDownload@TSnap7MicroClient@@AEAAHXZ 00000001800789f8     snap7:s7_micro_client.obj
 0004:00001a04       $pdata$6$?opDownload@TSnap7MicroClient@@AEAAHXZ 0000000180078a04     snap7:s7_micro_client.obj
 0004:00001a10       $pdata$?opDelete@TSnap7MicroClient@@AEAAHXZ 0000000180078a10     snap7:s7_micro_client.obj
 0004:00001a1c       $pdata$?opReadSZL@TSnap7MicroClient@@AEAAHXZ 0000000180078a1c     snap7:s7_micro_client.obj
 0004:00001a28       $pdata$?opReadSZLList@TSnap7MicroClient@@AEAAHXZ 0000000180078a28     snap7:s7_micro_client.obj
 0004:00001a34       $pdata$?opGetDateTime@TSnap7MicroClient@@AEAAHXZ 0000000180078a34     snap7:s7_micro_client.obj
 0004:00001a40       $pdata$?opSetDateTime@TSnap7MicroClient@@AEAAHXZ 0000000180078a40     snap7:s7_micro_client.obj
 0004:00001a4c       $pdata$?opGetOrderCode@TSnap7MicroClient@@AEAAHXZ 0000000180078a4c     snap7:s7_micro_client.obj
 0004:00001a58       $pdata$?opGetCpuInfo@TSnap7MicroClient@@AEAAHXZ 0000000180078a58     snap7:s7_micro_client.obj
 0004:00001a64       $pdata$?opGetCpInfo@TSnap7MicroClient@@AEAAHXZ 0000000180078a64     snap7:s7_micro_client.obj
 0004:00001a70       $pdata$?opGetPlcStatus@TSnap7MicroClient@@AEAAHXZ 0000000180078a70     snap7:s7_micro_client.obj
 0004:00001a7c       $pdata$?opPlcStop@TSnap7MicroClient@@AEAAHXZ 0000000180078a7c     snap7:s7_micro_client.obj
 0004:00001a88       $pdata$?opPlcHotStart@TSnap7MicroClient@@AEAAHXZ 0000000180078a88     snap7:s7_micro_client.obj
 0004:00001a94       $pdata$?opPlcColdStart@TSnap7MicroClient@@AEAAHXZ 0000000180078a94     snap7:s7_micro_client.obj
 0004:00001aa0       $pdata$?opCopyRamToRom@TSnap7MicroClient@@AEAAHXZ 0000000180078aa0     snap7:s7_micro_client.obj
 0004:00001aac       $pdata$?opCompress@TSnap7MicroClient@@AEAAHXZ 0000000180078aac     snap7:s7_micro_client.obj
 0004:00001ab8       $pdata$?opGetProtection@TSnap7MicroClient@@AEAAHXZ 0000000180078ab8     snap7:s7_micro_client.obj
 0004:00001ac4       $pdata$?opSetPassword@TSnap7MicroClient@@AEAAHXZ 0000000180078ac4     snap7:s7_micro_client.obj
 0004:00001ad0       $pdata$?opClearPassword@TSnap7MicroClient@@AEAAHXZ 0000000180078ad0     snap7:s7_micro_client.obj
 0004:00001adc       $pdata$?PerformOperation@TSnap7MicroClient@@IEAAHXZ 0000000180078adc     snap7:s7_micro_client.obj
 0004:00001ae8       $pdata$?Connect@TSnap7MicroClient@@QEAAHXZ 0000000180078ae8     snap7:s7_micro_client.obj
 0004:00001af4       $pdata$?ReadArea@TSnap7MicroClient@@QEAAHHHHHHPEAX@Z 0000000180078af4     snap7:s7_micro_client.obj
 0004:00001b00       $pdata$?WriteArea@TSnap7MicroClient@@QEAAHHHHHHPEAX@Z 0000000180078b00     snap7:s7_micro_client.obj
 0004:00001b0c       $pdata$?DBRead@TSnap7MicroClient@@QEAAHHHHPEAX@Z 0000000180078b0c     snap7:s7_micro_client.obj
 0004:00001b18       $pdata$?DBWrite@TSnap7MicroClient@@QEAAHHHHPEAX@Z 0000000180078b18     snap7:s7_micro_client.obj
 0004:00001b24       $pdata$?MBRead@TSnap7MicroClient@@QEAAHHHPEAX@Z 0000000180078b24     snap7:s7_micro_client.obj
 0004:00001b30       $pdata$?MBWrite@TSnap7MicroClient@@QEAAHHHPEAX@Z 0000000180078b30     snap7:s7_micro_client.obj
 0004:00001b3c       $pdata$?EBRead@TSnap7MicroClient@@QEAAHHHPEAX@Z 0000000180078b3c     snap7:s7_micro_client.obj
 0004:00001b48       $pdata$?EBWrite@TSnap7MicroClient@@QEAAHHHPEAX@Z 0000000180078b48     snap7:s7_micro_client.obj
 0004:00001b54       $pdata$?ABRead@TSnap7MicroClient@@QEAAHHHPEAX@Z 0000000180078b54     snap7:s7_micro_client.obj
 0004:00001b60       $pdata$?ABWrite@TSnap7MicroClient@@QEAAHHHPEAX@Z 0000000180078b60     snap7:s7_micro_client.obj
 0004:00001b6c       $pdata$?TMRead@TSnap7MicroClient@@QEAAHHHPEAX@Z 0000000180078b6c     snap7:s7_micro_client.obj
 0004:00001b78       $pdata$?TMWrite@TSnap7MicroClient@@QEAAHHHPEAX@Z 0000000180078b78     snap7:s7_micro_client.obj
 0004:00001b84       $pdata$?CTRead@TSnap7MicroClient@@QEAAHHHPEAX@Z 0000000180078b84     snap7:s7_micro_client.obj
 0004:00001b90       $pdata$?CTWrite@TSnap7MicroClient@@QEAAHHHPEAX@Z 0000000180078b90     snap7:s7_micro_client.obj
 0004:00001b9c       $pdata$?GetPgBlockInfo@TSnap7MicroClient@@QEAAHPEAXPEAUTS7BlockInfo@@H@Z 0000000180078b9c     snap7:s7_micro_client.obj
 0004:00001ba8       $pdata$?ListBlocksOfType@TSnap7MicroClient@@QEAAHHPEAY0CAAA@GAEAH@Z 0000000180078ba8     snap7:s7_micro_client.obj
 0004:00001bb4       $pdata$?Upload@TSnap7MicroClient@@QEAAHHHPEAXAEAH@Z 0000000180078bb4     snap7:s7_micro_client.obj
 0004:00001bc0       $pdata$?FullUpload@TSnap7MicroClient@@QEAAHHHPEAXAEAH@Z 0000000180078bc0     snap7:s7_micro_client.obj
 0004:00001bcc       $pdata$?Download@TSnap7MicroClient@@QEAAHHPEAXH@Z 0000000180078bcc     snap7:s7_micro_client.obj
 0004:00001bd8       $pdata$?DBGet@TSnap7MicroClient@@QEAAHHPEAXAEAH@Z 0000000180078bd8     snap7:s7_micro_client.obj
 0004:00001be4       $pdata$?SetPlcSystemDateTime@TSnap7MicroClient@@QEAAHXZ 0000000180078be4     snap7:s7_micro_client.obj
 0004:00001bf0       $pdata$?ReadSZL@TSnap7MicroClient@@QEAAHHHPEAUTS7SZL@@AEAH@Z 0000000180078bf0     snap7:s7_micro_client.obj
 0004:00001bfc       $pdata$?CopyRamToRom@TSnap7MicroClient@@QEAAHH@Z 0000000180078bfc     snap7:s7_micro_client.obj
 0004:00001c08       $pdata$?Compress@TSnap7MicroClient@@QEAAHH@Z 0000000180078c08     snap7:s7_micro_client.obj
 0004:00001c14       $pdata$?SetSessionPassword@TSnap7MicroClient@@QEAAHPEAD@Z 0000000180078c14     snap7:s7_micro_client.obj
 0004:00001c20       $pdata$?NumToString@@YA?AV?$basic_string@DU?$char_traits@D@std@@V?$allocator@D@2@@std@@HHI@Z 0000000180078c20     snap7:s7_text.obj
 0004:00001c2c       $pdata$?IntToString@@YA?AV?$basic_string@DU?$char_traits@D@std@@V?$allocator@D@2@@std@@H@Z 0000000180078c2c     snap7:s7_text.obj
 0004:00001c38       $pdata$?TimeToString@@YA?AV?$basic_string@DU?$char_traits@D@std@@V?$allocator@D@2@@std@@_J@Z 0000000180078c38     snap7:s7_text.obj
 0004:00001c44       $pdata$?IpAddressToString@@YA?AV?$basic_string@DU?$char_traits@D@std@@V?$allocator@D@2@@std@@H@Z 0000000180078c44     snap7:s7_text.obj
 0004:00001c50       $pdata$?TcpTextOf@@YA?AV?$basic_string@DU?$char_traits@D@std@@V?$allocator@D@2@@std@@H@Z 0000000180078c50     snap7:s7_text.obj
 0004:00001c5c       $pdata$?IsoTextOf@@YA?AV?$basic_string@DU?$char_traits@D@std@@V?$allocator@D@2@@std@@H@Z 0000000180078c5c     snap7:s7_text.obj
 0004:00001c68       $pdata$?CliTextOf@@YA?AV?$basic_string@DU?$char_traits@D@std@@V?$allocator@D@2@@std@@H@Z 0000000180078c68     snap7:s7_text.obj
 0004:00001c74       $pdata$?SrvTextOf@@YA?AV?$basic_string@DU?$char_traits@D@std@@V?$allocator@D@2@@std@@H@Z 0000000180078c74     snap7:s7_text.obj
 0004:00001c80       $pdata$?ParTextOf@@YA?AV?$basic_string@DU?$char_traits@D@std@@V?$allocator@D@2@@std@@H@Z 0000000180078c80     snap7:s7_text.obj
 0004:00001c8c       $pdata$?ErrCliText@@YA?AV?$basic_string@DU?$char_traits@D@std@@V?$allocator@D@2@@std@@H@Z 0000000180078c8c     snap7:s7_text.obj
 0004:00001c98       $pdata$?ErrSrvText@@YA?AV?$basic_string@DU?$char_traits@D@std@@V?$allocator@D@2@@std@@H@Z 0000000180078c98     snap7:s7_text.obj
 0004:00001ca4       $pdata$?ErrParText@@YA?AV?$basic_string@DU?$char_traits@D@std@@V?$allocator@D@2@@std@@H@Z 0000000180078ca4     snap7:s7_text.obj
 0004:00001cb0       $pdata$?SenderText@@YA?AV?$basic_string@DU?$char_traits@D@std@@V?$allocator@D@2@@std@@AEAUTSrvEvent@@@Z 0000000180078cb0     snap7:s7_text.obj
 0004:00001cbc       $pdata$?TcpServerEventText@@YA?AV?$basic_string@DU?$char_traits@D@std@@V?$allocator@D@2@@std@@AEAUTSrvEvent@@@Z 0000000180078cbc     snap7:s7_text.obj
 0004:00001cc8       $pdata$?PDUText@@YA?AV?$basic_string@DU?$char_traits@D@std@@V?$allocator@D@2@@std@@AEAUTSrvEvent@@@Z 0000000180078cc8     snap7:s7_text.obj
 0004:00001cd4       $pdata$?TxtArea@@YA?AV?$basic_string@DU?$char_traits@D@std@@V?$allocator@D@2@@std@@AEAUTSrvEvent@@@Z 0000000180078cd4     snap7:s7_text.obj
 0004:00001ce0       $pdata$?TxtStartSize@@YA?AV?$basic_string@DU?$char_traits@D@std@@V?$allocator@D@2@@std@@AEAUTSrvEvent@@@Z 0000000180078ce0     snap7:s7_text.obj
 0004:00001cec       $pdata$?TxtDataResult@@YA?AV?$basic_string@DU?$char_traits@D@std@@V?$allocator@D@2@@std@@AEAUTSrvEvent@@@Z 0000000180078cec     snap7:s7_text.obj
 0004:00001cf8       $pdata$?ControlText@@YA?AV?$basic_string@DU?$char_traits@D@std@@V?$allocator@D@2@@std@@G@Z 0000000180078cf8     snap7:s7_text.obj
 0004:00001d04       $pdata$?ClockText@@YA?AV?$basic_string@DU?$char_traits@D@std@@V?$allocator@D@2@@std@@G@Z 0000000180078d04     snap7:s7_text.obj
 0004:00001d10       $pdata$?ReadSZLText@@YA?AV?$basic_string@DU?$char_traits@D@std@@V?$allocator@D@2@@std@@AEAUTSrvEvent@@@Z 0000000180078d10     snap7:s7_text.obj
 0004:00001d1c       $pdata$?UploadText@@YA?AV?$basic_string@DU?$char_traits@D@std@@V?$allocator@D@2@@std@@AEAUTSrvEvent@@@Z 0000000180078d1c     snap7:s7_text.obj
 0004:00001d28       $pdata$?DownloadText@@YA?AV?$basic_string@DU?$char_traits@D@std@@V?$allocator@D@2@@std@@AEAUTSrvEvent@@@Z 0000000180078d28     snap7:s7_text.obj
 0004:00001d34       $pdata$?StrBlockType@@YA?AV?$basic_string@DU?$char_traits@D@std@@V?$allocator@D@2@@std@@G@Z 0000000180078d34     snap7:s7_text.obj
 0004:00001d40       $pdata$?BlockInfoText@@YA?AV?$basic_string@DU?$char_traits@D@std@@V?$allocator@D@2@@std@@AEAUTSrvEvent@@@Z 0000000180078d40     snap7:s7_text.obj
 0004:00001d4c       $pdata$?SecurityText@@YA?AV?$basic_string@DU?$char_traits@D@std@@V?$allocator@D@2@@std@@AEAUTSrvEvent@@@Z 0000000180078d4c     snap7:s7_text.obj
 0004:00001d58       $pdata$?EvtSrvText@@YA?AV?$basic_string@DU?$char_traits@D@std@@V?$allocator@D@2@@std@@AEAUTSrvEvent@@@Z 0000000180078d58     snap7:s7_text.obj
 0004:00001d64       $pdata$??4?$basic_string@DU?$char_traits@D@std@@V?$allocator@D@2@@std@@QEAAAEAV01@$$QEAV01@@Z 0000000180078d64     snap7:s7_text.obj
 0004:00001d70       $pdata$??$?HDU?$char_traits@D@std@@V?$allocator@D@1@@std@@YA?AV?$basic_string@DU?$char_traits@D@std@@V?$allocator@D@2@@0@PEBD$$QEAV10@@Z 0000000180078d70     snap7:s7_text.obj
 0004:00001d7c       $pdata$??$?HDU?$char_traits@D@std@@V?$allocator@D@1@@std@@YA?AV?$basic_string@DU?$char_traits@D@std@@V?$allocator@D@2@@0@PEBDAEBV10@@Z 0000000180078d7c     snap7:s7_text.obj
 0004:00001d88       $pdata$??$?HDU?$char_traits@D@std@@V?$allocator@D@1@@std@@YA?AV?$basic_string@DU?$char_traits@D@std@@V?$allocator@D@2@@0@$$QEAV10@PEBD@Z 0000000180078d88     snap7:s7_text.obj
 0004:00001d94       $pdata$??$?HDU?$char_traits@D@std@@V?$allocator@D@1@@std@@YA?AV?$basic_string@DU?$char_traits@D@std@@V?$allocator@D@2@@0@AEBV10@PEBD@Z 0000000180078d94     snap7:s7_text.obj
 0004:00001da0       $pdata$??$?HDU?$char_traits@D@std@@V?$allocator@D@1@@std@@YA?AV?$basic_string@DU?$char_traits@D@std@@V?$allocator@D@2@@0@$$QEAV10@0@Z 0000000180078da0     snap7:s7_text.obj
 0004:00001dac       $pdata$??$?HDU?$char_traits@D@std@@V?$allocator@D@1@@std@@YA?AV?$basic_string@DU?$char_traits@D@std@@V?$allocator@D@2@@0@$$QEAV10@AEBV10@@Z 0000000180078dac     snap7:s7_text.obj
 0004:00001db8       $pdata$?reserve@?$basic_string@DU?$char_traits@D@std@@V?$allocator@D@2@@std@@QEAAX_K@Z 0000000180078db8     snap7:s7_text.obj
 0004:00001dc4       $pdata$?insert@?$basic_string@DU?$char_traits@D@std@@V?$allocator@D@2@@std@@QEAAAEAV12@_KPEBD0@Z 0000000180078dc4     snap7:s7_text.obj
 0004:00001dd0       $pdata$0$?insert@?$basic_string@DU?$char_traits@D@std@@V?$allocator@D@2@@std@@QEAAAEAV12@_KPEBD0@Z 0000000180078dd0     snap7:s7_text.obj
 0004:00001ddc       $pdata$1$?insert@?$basic_string@DU?$char_traits@D@std@@V?$allocator@D@2@@std@@QEAAAEAV12@_KPEBD0@Z 0000000180078ddc     snap7:s7_text.obj
 0004:00001de8       $pdata$2$?insert@?$basic_string@DU?$char_traits@D@std@@V?$allocator@D@2@@std@@QEAAAEAV12@_KPEBD0@Z 0000000180078de8     snap7:s7_text.obj
 0004:00001df4       $pdata$?insert@?$basic_string@DU?$char_traits@D@std@@V?$allocator@D@2@@std@@QEAAAEAV12@_KAEBV12@00@Z 0000000180078df4     snap7:s7_text.obj
 0004:00001e00       $pdata$0$?insert@?$basic_string@DU?$char_traits@D@std@@V?$allocator@D@2@@std@@QEAAAEAV12@_KAEBV12@00@Z 0000000180078e00     snap7:s7_text.obj
 0004:00001e0c       $pdata$1$?insert@?$basic_string@DU?$char_traits@D@std@@V?$allocator@D@2@@std@@QEAAAEAV12@_KAEBV12@00@Z 0000000180078e0c     snap7:s7_text.obj
 0004:00001e18       $pdata$3$?insert@?$basic_string@DU?$char_traits@D@std@@V?$allocator@D@2@@std@@QEAAAEAV12@_KAEBV12@00@Z 0000000180078e18     snap7:s7_text.obj
 0004:00001e24       $pdata$4$?insert@?$basic_string@DU?$char_traits@D@std@@V?$allocator@D@2@@std@@QEAAAEAV12@_KAEBV12@00@Z 0000000180078e24     snap7:s7_text.obj
 0004:00001e30       $pdata$5$?insert@?$basic_string@DU?$char_traits@D@std@@V?$allocator@D@2@@std@@QEAAAEAV12@_KAEBV12@00@Z 0000000180078e30     snap7:s7_text.obj
 0004:00001e3c       $pdata$??_GTS7Worker@@UEAAPEAXI@Z 0000000180078e3c     snap7:s7_server.obj
 0004:00001e48       $pdata$?ExecuteRecv@TIsoTcpWorker@@MEAA_NXZ 0000000180078e48     snap7:s7_server.obj
 0004:00001e54       $pdata$0$?ExecuteRecv@TIsoTcpWorker@@MEAA_NXZ 0000000180078e54     snap7:s7_server.obj
 0004:00001e60       $pdata$2$?ExecuteRecv@TIsoTcpWorker@@MEAA_NXZ 0000000180078e60     snap7:s7_server.obj
 0004:00001e6c       $pdata$4$?ExecuteRecv@TIsoTcpWorker@@MEAA_NXZ 0000000180078e6c     snap7:s7_server.obj
 0004:00001e78       $pdata$6$?ExecuteRecv@TIsoTcpWorker@@MEAA_NXZ 0000000180078e78     snap7:s7_server.obj
 0004:00001e84       $pdata$8$?ExecuteRecv@TIsoTcpWorker@@MEAA_NXZ 0000000180078e84     snap7:s7_server.obj
 0004:00001e90       $pdata$10$?ExecuteRecv@TIsoTcpWorker@@MEAA_NXZ 0000000180078e90     snap7:s7_server.obj
 0004:00001e9c       $pdata$11$?ExecuteRecv@TIsoTcpWorker@@MEAA_NXZ 0000000180078e9c     snap7:s7_server.obj
 0004:00001ea8       $pdata$?Execute@TIsoTcpWorker@@UEAA_NXZ 0000000180078ea8     snap7:s7_server.obj
 0004:00001eb4       $pdata$??0TS7Worker@@QEAA@XZ 0000000180078eb4     snap7:s7_server.obj
 0004:00001ec0       $pdata$?FillTime@TS7Worker@@AEAAXPEAUTS7Time@@@Z 0000000180078ec0     snap7:s7_server.obj
 0004:00001ecc       $pdata$?IsoPerformCommand@TS7Worker@@MEAA_NAEAH@Z 0000000180078ecc     snap7:s7_server.obj
 0004:00001ed8       $pdata$?PerformPDURequest@TS7Worker@@IEAA_NAEAH@Z 0000000180078ed8     snap7:s7_server.obj
 0004:00001ee4       $pdata$?PerformPDUUsrData@TS7Worker@@IEAA_NAEAH@Z 0000000180078ee4     snap7:s7_server.obj
 0004:00001ef0       $pdata$?ReadArea@TS7Worker@@IEAAGPEAUTResFunReadItem@@PEAUTReqFunReadItem@@AEAHAEAUTEv@@@Z 0000000180078ef0     snap7:s7_server.obj
 0004:00001efc       $pdata$1$?ReadArea@TS7Worker@@IEAAGPEAUTResFunReadItem@@PEAUTReqFunReadItem@@AEAHAEAUTEv@@@Z 0000000180078efc     snap7:s7_server.obj
 0004:00001f08       $pdata$2$?ReadArea@TS7Worker@@IEAAGPEAUTResFunReadItem@@PEAUTReqFunReadItem@@AEAHAEAUTEv@@@Z 0000000180078f08     snap7:s7_server.obj
 0004:00001f14       $pdata$3$?ReadArea@TS7Worker@@IEAAGPEAUTResFunReadItem@@PEAUTReqFunReadItem@@AEAHAEAUTEv@@@Z 0000000180078f14     snap7:s7_server.obj
 0004:00001f20       $pdata$4$?ReadArea@TS7Worker@@IEAAGPEAUTResFunReadItem@@PEAUTReqFunReadItem@@AEAHAEAUTEv@@@Z 0000000180078f20     snap7:s7_server.obj
 0004:00001f2c       $pdata$?PerformFunctionRead@TS7Worker@@IEAA_NXZ 0000000180078f2c     snap7:s7_server.obj
 0004:00001f38       $pdata$1$?PerformFunctionRead@TS7Worker@@IEAA_NXZ 0000000180078f38     snap7:s7_server.obj
 0004:00001f44       $pdata$2$?PerformFunctionRead@TS7Worker@@IEAA_NXZ 0000000180078f44     snap7:s7_server.obj
 0004:00001f50       $pdata$5$?PerformFunctionRead@TS7Worker@@IEAA_NXZ 0000000180078f50     snap7:s7_server.obj
 0004:00001f5c       $pdata$6$?PerformFunctionRead@TS7Worker@@IEAA_NXZ 0000000180078f5c     snap7:s7_server.obj
 0004:00001f68       $pdata$7$?PerformFunctionRead@TS7Worker@@IEAA_NXZ 0000000180078f68     snap7:s7_server.obj
 0004:00001f74       $pdata$8$?PerformFunctionRead@TS7Worker@@IEAA_NXZ 0000000180078f74     snap7:s7_server.obj
 0004:00001f80       $pdata$?WriteArea@TS7Worker@@IEAAEPEAUTReqFunWriteDataItem@@PEAUTReqFunWriteItem@@AEAUTEv@@@Z 0000000180078f80     snap7:s7_server.obj
 0004:00001f8c       $pdata$1$?WriteArea@TS7Worker@@IEAAEPEAUTReqFunWriteDataItem@@PEAUTReqFunWriteItem@@AEAUTEv@@@Z 0000000180078f8c     snap7:s7_server.obj
 0004:00001f98       $pdata$2$?WriteArea@TS7Worker@@IEAAEPEAUTReqFunWriteDataItem@@PEAUTReqFunWriteItem@@AEAUTEv@@@Z 0000000180078f98     snap7:s7_server.obj
 0004:00001fa4       $pdata$3$?WriteArea@TS7Worker@@IEAAEPEAUTReqFunWriteDataItem@@PEAUTReqFunWriteItem@@AEAUTEv@@@Z 0000000180078fa4     snap7:s7_server.obj
 0004:00001fb0       $pdata$4$?WriteArea@TS7Worker@@IEAAEPEAUTReqFunWriteDataItem@@PEAUTReqFunWriteItem@@AEAUTEv@@@Z 0000000180078fb0     snap7:s7_server.obj
 0004:00001fbc       $pdata$?PerformFunctionWrite@TS7Worker@@IEAA_NXZ 0000000180078fbc     snap7:s7_server.obj
 0004:00001fc8       $pdata$5$?PerformFunctionWrite@TS7Worker@@IEAA_NXZ 0000000180078fc8     snap7:s7_server.obj
 0004:00001fd4       $pdata$6$?PerformFunctionWrite@TS7Worker@@IEAA_NXZ 0000000180078fd4     snap7:s7_server.obj
 0004:00001fe0       $pdata$?PerformFunctionNegotiate@TS7Worker@@IEAA_NXZ 0000000180078fe0     snap7:s7_server.obj
 0004:00001fec       $pdata$?PerformFunctionControl@TS7Worker@@IEAA_NE@Z 0000000180078fec     snap7:s7_server.obj
 0004:00001ff8       $pdata$?PerformFunctionUpload@TS7Worker@@IEAA_NXZ 0000000180078ff8     snap7:s7_server.obj
 0004:00002004       $pdata$?PerformFunctionDownload@TS7Worker@@IEAA_NXZ 0000000180079004     snap7:s7_server.obj
 0004:00002010       $pdata$?BLK_ListAll@TS7Worker@@IEAAXAEAUTCB@@@Z 0000000180079010     snap7:s7_server.obj
 0004:0000201c       $pdata$?BLK_ListBoT@TS7Worker@@IEAAXE_NAEAUTCB@@@Z 000000018007901c     snap7:s7_server.obj
 0004:00002028       $pdata$?BLK_DoBlockInfo_GetBlkInfo@TS7Worker@@IEAAXPEAUTS7Area@@PEAUTResDataBlockInfo@@AEAUTCB@@@Z 0000000180079028     snap7:s7_server.obj
 0004:00002034       $pdata$?BLK_GetBlkInfo@TS7Worker@@IEAAXAEAUTCB@@@Z 0000000180079034     snap7:s7_server.obj
 0004:00002040       $pdata$?PerformGroupBlockInfo@TS7Worker@@IEAA_NXZ 0000000180079040     snap7:s7_server.obj
 0004:0000204c       $pdata$?SZLNotAvailable@TS7Worker@@IEAAXXZ 000000018007904c     snap7:s7_server.obj
 0004:00002058       $pdata$?SZLData@TS7Worker@@IEAAXPEAXH@Z 0000000180079058     snap7:s7_server.obj
 0004:00002064       $pdata$?SZL_ID131_IDX003@TS7Worker@@IEAAXXZ 0000000180079064     snap7:s7_server.obj
 0004:00002070       $pdata$?PerformGroupSZL@TS7Worker@@IEAA_NXZ 0000000180079070     snap7:s7_server.obj
 0004:0000207c       $pdata$0$?PerformGroupSZL@TS7Worker@@IEAA_NXZ 000000018007907c     snap7:s7_server.obj
 0004:00002088       $pdata$1$?PerformGroupSZL@TS7Worker@@IEAA_NXZ 0000000180079088     snap7:s7_server.obj
 0004:00002094       $pdata$?PerformGroupSecurity@TS7Worker@@IEAA_NXZ 0000000180079094     snap7:s7_server.obj
 0004:000020a0       $pdata$?PerformGetClock@TS7Worker@@IEAA_NXZ 00000001800790a0     snap7:s7_server.obj
 0004:000020ac       $pdata$?PerformSetClock@TS7Worker@@IEAA_NXZ 00000001800790ac     snap7:s7_server.obj
 0004:000020b8       $pdata$??0TSnap7Server@@QEAA@XZ 00000001800790b8     snap7:s7_server.obj
 0004:000020c4       $pdata$??_GTSnap7Server@@UEAAPEAXI@Z 00000001800790c4     snap7:s7_server.obj
 0004:000020d0       $pdata$?CreateWorkerSocket@TSnap7Server@@MEAAPEAVTMsgSocket@@_K@Z 00000001800790d0     snap7:s7_server.obj
 0004:000020dc       $pdata$?RegisterDB@TSnap7Server@@IEAAHGPEAXG@Z 00000001800790dc     snap7:s7_server.obj
 0004:000020e8       $pdata$1$?RegisterDB@TSnap7Server@@IEAAHGPEAXG@Z 00000001800790e8     snap7:s7_server.obj
 0004:000020f4       $pdata$2$?RegisterDB@TSnap7Server@@IEAAHGPEAXG@Z 00000001800790f4     snap7:s7_server.obj
 0004:00002100       $pdata$?DisposeAll@TSnap7Server@@AEAAXXZ 0000000180079100     snap7:s7_server.obj
 0004:0000210c       $pdata$1$?DisposeAll@TSnap7Server@@AEAAXXZ 000000018007910c     snap7:s7_server.obj
 0004:00002118       $pdata$2$?DisposeAll@TSnap7Server@@AEAAXXZ 0000000180079118     snap7:s7_server.obj
 0004:00002124       $pdata$?RegisterSys@TSnap7Server@@IEAAHHPEAXG@Z 0000000180079124     snap7:s7_server.obj
 0004:00002130       $pdata$2$?RegisterSys@TSnap7Server@@IEAAHHPEAXG@Z 0000000180079130     snap7:s7_server.obj
 0004:0000213c       $pdata$4$?RegisterSys@TSnap7Server@@IEAAHHPEAXG@Z 000000018007913c     snap7:s7_server.obj
 0004:00002148       $pdata$5$?RegisterSys@TSnap7Server@@IEAAHHPEAXG@Z 0000000180079148     snap7:s7_server.obj
 0004:00002154       $pdata$?UnregisterDB@TSnap7Server@@IEAAHG@Z 0000000180079154     snap7:s7_server.obj
 0004:00002160       $pdata$?UnregisterSys@TSnap7Server@@IEAAHH@Z 0000000180079160     snap7:s7_server.obj
 0004:0000216c       $pdata$0$?UnregisterSys@TSnap7Server@@IEAAHH@Z 000000018007916c     snap7:s7_server.obj
 0004:00002178       $pdata$1$?UnregisterSys@TSnap7Server@@IEAAHH@Z 0000000180079178     snap7:s7_server.obj
 0004:00002184       $pdata$?LockArea@TSnap7Server@@QEAAHHG@Z 0000000180079184     snap7:s7_server.obj
 0004:00002190       $pdata$?UnlockArea@TSnap7Server@@QEAAHHG@Z 0000000180079190     snap7:s7_server.obj
 0004:0000219c       $pdata$?DoReadEvent@TSnap7Server@@IEAAXHIGGGGG@Z 000000018007919c     snap7:s7_server.obj
 0004:000021a8       $pdata$?DoReadArea@TSnap7Server@@IEAA_NHHHHHHPEAX@Z 00000001800791a8     snap7:s7_server.obj
 0004:000021b4       $pdata$?DoWriteArea@TSnap7Server@@IEAA_NHHHHHHPEAX@Z 00000001800791b4     snap7:s7_server.obj
 0004:000021c0       $pdata$??_GTIsoTcpSocket@@UEAAPEAXI@Z 00000001800791c0     snap7:s7_isotcp.obj
 0004:000021cc       $pdata$?isoConnect@TIsoTcpSocket@@QEAAHXZ 00000001800791cc     snap7:s7_isotcp.obj
 0004:000021d8       $pdata$?isoSendBuffer@TIsoTcpSocket@@QEAAHPEAXH@Z 00000001800791d8     snap7:s7_isotcp.obj
 0004:000021e4       $pdata$0$?isoSendBuffer@TIsoTcpSocket@@QEAAHPEAXH@Z 00000001800791e4     snap7:s7_isotcp.obj
 0004:000021f0       $pdata$1$?isoSendBuffer@TIsoTcpSocket@@QEAAHPEAXH@Z 00000001800791f0     snap7:s7_isotcp.obj
 0004:000021fc       $pdata$?isoRecvBuffer@TIsoTcpSocket@@QEAAHPEAXAEAH@Z 00000001800791fc     snap7:s7_isotcp.obj
 0004:00002208       $pdata$?isoDisconnect@TIsoTcpSocket@@QEAAH_N@Z 0000000180079208     snap7:s7_isotcp.obj
 0004:00002214       $pdata$?isoRecvFragment@TIsoTcpSocket@@AEAAHPEAXHAEAHAEA_N@Z 0000000180079214     snap7:s7_isotcp.obj
 0004:00002220       $pdata$?isoRecvPDU@TIsoTcpSocket@@QEAAHPEAUTIsoDataPDU@@@Z 0000000180079220     snap7:s7_isotcp.obj
 0004:0000222c       $pdata$?Execute@TEcoTcpWorker@@UEAA_NXZ 000000018007922c     snap7:snap_tcpsrvr.obj
 0004:00002238       $pdata$0$?Execute@TEcoTcpWorker@@UEAA_NXZ 0000000180079238     snap7:snap_tcpsrvr.obj
 0004:00002244       $pdata$1$?Execute@TEcoTcpWorker@@UEAA_NXZ 0000000180079244     snap7:snap_tcpsrvr.obj
 0004:00002250       $pdata$2$?Execute@TEcoTcpWorker@@UEAA_NXZ 0000000180079250     snap7:snap_tcpsrvr.obj
 0004:0000225c       $pdata$3$?Execute@TEcoTcpWorker@@UEAA_NXZ 000000018007925c     snap7:snap_tcpsrvr.obj
 0004:00002268       $pdata$??_GTMsgWorkerThread@@UEAAPEAXI@Z 0000000180079268     snap7:snap_tcpsrvr.obj
 0004:00002274       $pdata$?Execute@TMsgWorkerThread@@UEAAXXZ 0000000180079274     snap7:snap_tcpsrvr.obj
 0004:00002280       $pdata$?Execute@TMsgListenerThread@@UEAAXXZ 0000000180079280     snap7:snap_tcpsrvr.obj
 0004:0000228c       $pdata$2$?Execute@TMsgListenerThread@@UEAAXXZ 000000018007928c     snap7:snap_tcpsrvr.obj
 0004:00002298       $pdata$3$?Execute@TMsgListenerThread@@UEAAXXZ 0000000180079298     snap7:snap_tcpsrvr.obj
 0004:000022a4       $pdata$??0TCustomMsgServer@@QEAA@XZ 00000001800792a4     snap7:snap_tcpsrvr.obj
 0004:000022b0       $pdata$??_GTCustomMsgServer@@UEAAPEAXI@Z 00000001800792b0     snap7:snap_tcpsrvr.obj
 0004:000022bc       $pdata$??1TCustomMsgServer@@UEAA@XZ 00000001800792bc     snap7:snap_tcpsrvr.obj
 0004:000022c8       $pdata$?StartListener@TCustomMsgServer@@AEAAHXZ 00000001800792c8     snap7:snap_tcpsrvr.obj
 0004:000022d4       $pdata$?TerminateAll@TCustomMsgServer@@MEAAXXZ 00000001800792d4     snap7:snap_tcpsrvr.obj
 0004:000022e0       $pdata$1$?TerminateAll@TCustomMsgServer@@MEAAXXZ 00000001800792e0     snap7:snap_tcpsrvr.obj
 0004:000022ec       $pdata$2$?TerminateAll@TCustomMsgServer@@MEAAXXZ 00000001800792ec     snap7:snap_tcpsrvr.obj
 0004:000022f8       $pdata$3$?TerminateAll@TCustomMsgServer@@MEAAXXZ 00000001800792f8     snap7:snap_tcpsrvr.obj
 0004:00002304       $pdata$?KillAll@TCustomMsgServer@@IEAAXXZ 0000000180079304     snap7:snap_tcpsrvr.obj
 0004:00002310       $pdata$?CreateWorkerSocket@TCustomMsgServer@@MEAAPEAVTMsgSocket@@_K@Z 0000000180079310     snap7:snap_tcpsrvr.obj
 0004:0000231c       $pdata$??_GTEcoTcpWorker@@UEAAPEAXI@Z 000000018007931c     snap7:snap_tcpsrvr.obj
 0004:0000231c       $pdata$??_GTMsgSocket@@UEAAPEAXI@Z 000000018007931c     snap7:snap_msgsock.obj
 0004:00002328       $pdata$?DoEvent@TCustomMsgServer@@MEAAXHIGGGGG@Z 0000000180079328     snap7:snap_tcpsrvr.obj
 0004:00002334       $pdata$?Incoming@TCustomMsgServer@@MEAAX_K@Z 0000000180079334     snap7:snap_tcpsrvr.obj
 0004:00002340       $pdata$0$?Incoming@TCustomMsgServer@@MEAAX_K@Z 0000000180079340     snap7:snap_tcpsrvr.obj
 0004:0000234c       $pdata$2$?Incoming@TCustomMsgServer@@MEAAX_K@Z 000000018007934c     snap7:snap_tcpsrvr.obj
 0004:00002358       $pdata$3$?Incoming@TCustomMsgServer@@MEAAX_K@Z 0000000180079358     snap7:snap_tcpsrvr.obj
 0004:00002364       $pdata$?Start@TCustomMsgServer@@QEAAHXZ 0000000180079364     snap7:snap_tcpsrvr.obj
 0004:00002370       $pdata$0$?Start@TCustomMsgServer@@QEAAHXZ 0000000180079370     snap7:snap_tcpsrvr.obj
 0004:0000237c       $pdata$2$?Start@TCustomMsgServer@@QEAAHXZ 000000018007937c     snap7:snap_tcpsrvr.obj
 0004:00002388       $pdata$3$?Start@TCustomMsgServer@@QEAAHXZ 0000000180079388     snap7:snap_tcpsrvr.obj
 0004:00002394       $pdata$?Stop@TCustomMsgServer@@QEAAXXZ 0000000180079394     snap7:snap_tcpsrvr.obj
 0004:000023a0       $pdata$?PickEvent@TCustomMsgServer@@QEAA_NPEAX@Z 00000001800793a0     snap7:snap_tcpsrvr.obj
 0004:000023ac       $pdata$??0TMsgSocket@@QEAA@XZ 00000001800793ac     snap7:snap_msgsock.obj
 0004:000023b8       $pdata$??1TMsgSocket@@UEAA@XZ 00000001800793b8     snap7:snap_msgsock.obj
 0004:000023c4       $pdata$?GetLocal@TMsgSocket@@AEAAXXZ 00000001800793c4     snap7:snap_msgsock.obj
 0004:000023d0       $pdata$?GetRemote@TMsgSocket@@AEAAXXZ 00000001800793d0     snap7:snap_msgsock.obj
 0004:000023dc       $pdata$?Purge@TMsgSocket@@IEAAXXZ 00000001800793dc     snap7:snap_msgsock.obj
 0004:000023e8       $pdata$?CreateSocket@TMsgSocket@@IEAAXXZ 00000001800793e8     snap7:snap_msgsock.obj
 0004:000023f4       $pdata$?WaitForData@TMsgSocket@@IEAAHHH@Z 00000001800793f4     snap7:snap_msgsock.obj
 0004:00002400       $pdata$2$?WaitForData@TMsgSocket@@IEAAHHH@Z 0000000180079400     snap7:snap_msgsock.obj
 0004:0000240c       $pdata$5$?WaitForData@TMsgSocket@@IEAAHHH@Z 000000018007940c     snap7:snap_msgsock.obj
 0004:00002418       $pdata$6$?WaitForData@TMsgSocket@@IEAAHHH@Z 0000000180079418     snap7:snap_msgsock.obj
 0004:00002424       $pdata$7$?WaitForData@TMsgSocket@@IEAAHHH@Z 0000000180079424     snap7:snap_msgsock.obj
 0004:00002430       $pdata$?SetSocketOptions@TMsgSocket@@AEAAXXZ 0000000180079430     snap7:snap_msgsock.obj
 0004:0000243c       $pdata$?CanWrite@TMsgSocket@@AEAA_NH@Z 000000018007943c     snap7:snap_msgsock.obj
 0004:00002448       $pdata$?CanRead@TMsgSocket@@QEAA_NH@Z 0000000180079448     snap7:snap_msgsock.obj
 0004:00002454       $pdata$?SckConnect@TMsgSocket@@QEAAHXZ 0000000180079454     snap7:snap_msgsock.obj
 0004:00002460       $pdata$?SckDisconnect@TMsgSocket@@QEAAXXZ 0000000180079460     snap7:snap_msgsock.obj
 0004:0000246c       $pdata$?ForceClose@TMsgSocket@@QEAAXXZ 000000018007946c     snap7:snap_msgsock.obj
 0004:00002478       $pdata$?SckBind@TMsgSocket@@QEAAHXZ 0000000180079478     snap7:snap_msgsock.obj
 0004:00002484       $pdata$?SendPacket@TMsgSocket@@QEAAHPEAXH@Z 0000000180079484     snap7:snap_msgsock.obj
 0004:00002490       $pdata$?RecvPacket@TMsgSocket@@QEAAHPEAXH@Z 0000000180079490     snap7:snap_msgsock.obj
 0004:0000249c       $pdata$?IcmpInit@@YA_NXZ   000000018007949c     snap7:snap_msgsock.obj
 0004:000024a8       $pdata$?InitPacket@TRawSocketPinger@@AEAAXXZ 00000001800794a8     snap7:snap_msgsock.obj
 0004:000024b4       $pdata$?CanRead@TRawSocketPinger@@AEAA_NH@Z 00000001800794b4     snap7:snap_msgsock.obj
 0004:000024c0       $pdata$?Ping@TRawSocketPinger@@QEAA_NIH@Z 00000001800794c0     snap7:snap_msgsock.obj
 0004:000024cc       $pdata$1$?Ping@TRawSocketPinger@@QEAA_NIH@Z 00000001800794cc     snap7:snap_msgsock.obj
 0004:000024d8       $pdata$2$?Ping@TRawSocketPinger@@QEAA_NIH@Z 00000001800794d8     snap7:snap_msgsock.obj
 0004:000024e4       $pdata$?RawPing@TPinger@@AEAA_NIH@Z 00000001800794e4     snap7:snap_msgsock.obj
 0004:000024f0       $pdata$?WinPing@TPinger@@AEAA_NIH@Z 00000001800794f0     snap7:snap_msgsock.obj
 0004:000024fc       $pdata$??0SocketsLayer@@QEAA@XZ 00000001800794fc     snap7:snap_msgsock.obj
 0004:00002508       $pdata$??0TSnap7Peer@@QEAA@XZ 0000000180079508     snap7:s7_peer.obj
 0004:00002514       $pdata$??_GTSnap7Peer@@UEAAPEAXI@Z 0000000180079514     snap7:s7_peer.obj
 0004:00002520       $pdata$?NegotiatePDULength@TSnap7Peer@@IEAAHXZ 0000000180079520     snap7:s7_peer.obj
 0004:0000252c       $pdata$?PeerConnect@TSnap7Peer@@QEAAHXZ 000000018007952c     snap7:s7_peer.obj
 0004:00002538       $pdata$0$?PeerConnect@TSnap7Peer@@QEAAHXZ 0000000180079538     snap7:s7_peer.obj
 0004:00002544       $pdata$1$?PeerConnect@TSnap7Peer@@QEAAHXZ 0000000180079544     snap7:s7_peer.obj
 0004:00002550       $pdata$?ThreadProc@@YAKPEAX@Z 0000000180079550     snap7:snap_threads.obj
 0004:0000255c       $pdata$??_GTSnapThread@@UEAAPEAXI@Z 000000018007955c     snap7:snap_threads.obj
 0004:00002574       $pdata$??0_Init_locks@std@@QEAA@XZ 0000000180079574     libcpmt:xlock.obj
 0004:00002580       $pdata$??0_Lockit@std@@QEAA@H@Z 0000000180079580     libcpmt:xlock.obj
 0004:0000258c       $pdata$??1_Init_locks@std@@QEAA@XZ 000000018007958c     libcpmt:xlock.obj
 0004:00002598       $pdata$??1_Lockit@std@@QEAA@XZ 0000000180079598     libcpmt:xlock.obj
 0004:000025a4       $pdata$??4?$_Yarn@D@std@@QEAAAEAV01@PEBD@Z 00000001800795a4     libcpmt:locale0.obj
 0004:000025b0       $pdata$??_G_Fac_node@std@@QEAAPEAXI@Z 00000001800795b0     libcpmt:locale0.obj
 0004:000025bc       $pdata$??_G_Locimp@locale@std@@MEAAPEAXI@Z 00000001800795bc     libcpmt:locale0.obj
 0004:000025c8       $pdata$?_Facet_Register@std@@YAXPEAV_Facet_base@1@@Z 00000001800795c8     libcpmt:locale0.obj
 0004:000025d4       $pdata$?_Init@locale@std@@CAPEAV_Locimp@12@_N@Z 00000001800795d4     libcpmt:locale0.obj
 0004:000025e0       $pdata$?_Locimp_dtor@_Locimp@locale@std@@CAXPEAV123@@Z 00000001800795e0     libcpmt:locale0.obj
 0004:000025ec       $pdata$?_Locinfo_ctor@_Locinfo@std@@SAXPEAV12@PEBD@Z 00000001800795ec     libcpmt:locale0.obj
 0004:000025f8       $pdata$?_Locinfo_dtor@_Locinfo@std@@SAXPEAV12@@Z 00000001800795f8     libcpmt:locale0.obj
 0004:00002604       $pdata$?_New_Locimp@_Locimp@locale@std@@CAPEAV123@_N@Z 0000000180079604     libcpmt:locale0.obj
 0004:00002610       $pdata$?_Setgloballocale@locale@std@@CAXPEAX@Z 0000000180079610     libcpmt:locale0.obj
 0004:0000261c       $pdata$_Deletegloballocale 000000018007961c     libcpmt:locale0.obj
 0004:00002628       $pdata$tidy_global         0000000180079628     libcpmt:locale0.obj
 0004:00002634       $pdata$??0bad_alloc@std@@QEAA@AEBV01@@Z 0000000180079634     libcpmt:xthrow.obj
 0004:00002640       $pdata$??0exception@std@@QEAA@AEBV01@@Z 0000000180079640     libcpmt:xthrow.obj
 0004:0000264c       $pdata$??0length_error@std@@QEAA@AEBV01@@Z 000000018007964c     libcpmt:xthrow.obj
 0004:00002658       $pdata$??0length_error@std@@QEAA@PEBD@Z 0000000180079658     libcpmt:xthrow.obj
 0004:00002664       $pdata$??0logic_error@std@@QEAA@AEBV01@@Z 0000000180079664     libcpmt:xthrow.obj
 0004:00002670       $pdata$??0out_of_range@std@@QEAA@AEBV01@@Z 0000000180079670     libcpmt:xthrow.obj
 0004:0000267c       $pdata$??0out_of_range@std@@QEAA@PEBD@Z 000000018007967c     libcpmt:xthrow.obj
 0004:00002688       $pdata$??_Gout_of_range@std@@UEAAPEAXI@Z 0000000180079688     libcpmt:xthrow.obj
 0004:00002688       $pdata$??_Gexception@std@@UEAAPEAXI@Z 0000000180079688     libcpmt:xthrow.obj
 0004:00002688       $pdata$??_Gbad_array_new_length@std@@UEAAPEAXI@Z 0000000180079688     LIBCMT:throw_bad_alloc.obj
 0004:00002688       $pdata$??_Glogic_error@std@@UEAAPEAXI@Z 0000000180079688     libcpmt:xthrow.obj
 0004:00002688       $pdata$??_Gbad_exception@std@@UEAAPEAXI@Z 0000000180079688     libvcruntime:frame.obj
 0004:00002688       $pdata$??_Glength_error@std@@UEAAPEAXI@Z 0000000180079688     libcpmt:xthrow.obj
 0004:00002688       $pdata$??_Gbad_alloc@std@@UEAAPEAXI@Z 0000000180079688     libcpmt:xthrow.obj
 0004:00002694       $pdata$?_Xbad_alloc@std@@YAXXZ 0000000180079694     libcpmt:xthrow.obj
 0004:00002694       $pdata$?__scrt_throw_std_bad_alloc@@YAXXZ 0000000180079694     LIBCMT:throw_bad_alloc.obj
 0004:000026a0       $pdata$?_Xlength_error@std@@YAXPEBD@Z 00000001800796a0     libcpmt:xthrow.obj
 0004:000026ac       $pdata$?_Xout_of_range@std@@YAXPEBD@Z 00000001800796ac     libcpmt:xthrow.obj
 0004:000026b8       $pdata$?_Ios_base_dtor@ios_base@std@@CAXPEAV12@@Z 00000001800796b8     libcpmt:ios.obj
 0004:000026c4       $pdata$?_Tidy@ios_base@std@@AEAAXXZ 00000001800796c4     libcpmt:ios.obj
 0004:000026d0       $pdata$_Getctype           00000001800796d0     libcpmt:_tolower.obj
 0004:000026dc       $pdata$_Tolower            00000001800796dc     libcpmt:_tolower.obj
 0004:000026e8       $pdata$_Getcvt             00000001800796e8     libcpmt:xwctomb.obj
 0004:000026f4       $pdata$_Toupper            00000001800796f4     libcpmt:_toupper.obj
 0004:00002700       $pdata$?_Atexit@@YAXP6AXXZ@Z 0000000180079700     libcpmt:iosptrs.obj
 0004:0000270c       $pdata$__crtLCMapStringA   000000018007970c     libcpmt:StlLCMapStringA.obj
 0004:00002718       $pdata$?initialize_pointers@@YAHXZ 0000000180079718     libcpmt:winapisupp.obj
 0004:00002724       $pdata$__crtInitializeCriticalSectionEx 0000000180079724     libcpmt:winapisupp.obj
 0004:00002730       $pdata$GetTableIndexFromLocaleName 0000000180079730     libcpmt:winapinls.obj
 0004:0000273c       $pdata$__crtDownlevelLocaleNameToLCID 000000018007973c     libcpmt:winapinls.obj
 0004:00002748       $pdata$__crtLCMapStringEx  0000000180079748     libcpmt:winapinls.obj
 0004:00002760       $pdata$?__scrt_initialize_thread_safe_statics@@YAHXZ 0000000180079760     LIBCMT:thread_safe_statics.obj
 0004:0000276c       $pdata$?__scrt_uninitialize_thread_safe_statics@@YAXXZ 000000018007976c     LIBCMT:thread_safe_statics.obj
 0004:00002778       $pdata$_Init_thread_footer 0000000180079778     LIBCMT:thread_safe_statics.obj
 0004:00002784       $pdata$_Init_thread_header 0000000180079784     LIBCMT:thread_safe_statics.obj
 0004:00002790       $pdata$_Init_thread_notify 0000000180079790     LIBCMT:thread_safe_statics.obj
 0004:0000279c       $pdata$_Init_thread_wait   000000018007979c     LIBCMT:thread_safe_statics.obj
 0004:000027a8       $pdata$??2@YAPEAX_K@Z      00000001800797a8     LIBCMT:new_scalar.obj
 0004:000027b4       $pdata$__scrt_acquire_startup_lock 00000001800797b4     LIBCMT:utility.obj
 0004:000027c0       $pdata$__scrt_dllmain_after_initialize_c 00000001800797c0     LIBCMT:utility.obj
 0004:000027cc       $pdata$__scrt_dllmain_before_initialize_c 00000001800797cc     LIBCMT:utility.obj
 0004:000027d8       $pdata$__scrt_dllmain_crt_thread_attach 00000001800797d8     LIBCMT:utility.obj
 0004:000027e4       $pdata$__scrt_dllmain_crt_thread_detach 00000001800797e4     LIBCMT:utility.obj
 0004:000027f0       $pdata$__scrt_dllmain_exception_filter 00000001800797f0     LIBCMT:utility.obj
 0004:000027fc       $pdata$__scrt_dllmain_uninitialize_c 00000001800797fc     LIBCMT:utility.obj
 0004:00002808       $pdata$__scrt_dllmain_uninitialize_critical 0000000180079808     LIBCMT:utility.obj
 0004:00002814       $pdata$__scrt_initialize_crt 0000000180079814     LIBCMT:utility.obj
 0004:00002820       $pdata$__scrt_initialize_onexit_tables 0000000180079820     LIBCMT:utility.obj
 0004:0000282c       $pdata$__scrt_is_nonwritable_in_current_image 000000018007982c     LIBCMT:utility.obj
 0004:00002838       $pdata$__scrt_release_startup_lock 0000000180079838     LIBCMT:utility.obj
 0004:00002844       $pdata$__scrt_uninitialize_crt 0000000180079844     LIBCMT:utility.obj
 0004:00002850       $pdata$_onexit             0000000180079850     LIBCMT:utility.obj
 0004:0000285c       $pdata$atexit              000000018007985c     LIBCMT:utility.obj
 0004:00002868       $pdata$?dllmain_crt_dispatch@@YAHQEAUHINSTANCE__@@KQEAX@Z 0000000180079868     LIBCMT:dll_dllmain.obj
 0004:00002874       $pdata$?dllmain_crt_process_attach@@YAHQEAUHINSTANCE__@@QEAX@Z 0000000180079874     LIBCMT:dll_dllmain.obj
 0004:00002880       $pdata$?dllmain_crt_process_detach@@YAH_N@Z 0000000180079880     LIBCMT:dll_dllmain.obj
 0004:0000288c       $pdata$?dllmain_dispatch@@YAHQEAUHINSTANCE__@@KQEAX@Z 000000018007988c     LIBCMT:dll_dllmain.obj
 0004:00002898       $pdata$?dllmain_raw@@YAHQEAUHINSTANCE__@@KQEAX@Z 0000000180079898     LIBCMT:dll_dllmain.obj
 0004:000028a4       $pdata$_DllMainCRTStartup  00000001800798a4     LIBCMT:dll_dllmain.obj
 0004:000028b0       $pdata$??_Gtype_info@@UEAAPEAXI@Z 00000001800798b0     LIBCMT:std_type_info_static.obj
 0004:000028bc       $pdata$__GSHandlerCheck    00000001800798bc     LIBCMT:_gshandler_.obj
 0004:000028c8       $pdata$__GSHandlerCheckCommon 00000001800798c8     LIBCMT:_gshandler_.obj
 0004:000028d4       $pdata$__GSHandlerCheck_EH 00000001800798d4     LIBCMT:gshandlereh.obj
 0004:000028ec       $pdata$__raise_securityfailure 00000001800798ec     LIBCMT:gs_report.obj
 0004:000028f8       $pdata$__report_gsfailure  00000001800798f8     LIBCMT:gs_report.obj
 0004:00002904       $pdata$__report_rangecheckfailure 0000000180079904     LIBCMT:gs_report.obj
 0004:00002910       $pdata$__report_securityfailure 0000000180079910     LIBCMT:gs_report.obj
 0004:0000291c       $pdata$capture_current_context 000000018007991c     LIBCMT:gs_report.obj
 0004:00002928       $pdata$capture_previous_context 0000000180079928     LIBCMT:gs_report.obj
 0004:00002934       $pdata$__scrt_fastfail     0000000180079934     LIBCMT:utility_desktop.obj
 0004:00002940       $pdata$??0bad_array_new_length@std@@QEAA@AEBV01@@Z 0000000180079940     LIBCMT:throw_bad_alloc.obj
 0004:0000294c       $pdata$?__scrt_throw_std_bad_array_new_length@@YAXXZ 000000018007994c     LIBCMT:throw_bad_alloc.obj
 0004:00002958       $pdata$__isa_available_init 0000000180079958     LIBCMT:_cpu_disp_.obj
 0004:00002964       $pdata$__security_init_cookie 0000000180079964     LIBCMT:gs_support.obj
 0004:00002970       $pdata$__scrt_initialize_default_local_stdio_options 0000000180079970     LIBCMT:default_local_stdio_options.obj
 0004:0000297c       $pdata$_RTC_Initialize     000000018007997c     LIBCMT:_initsect_.obj
 0004:00002988       $pdata$_RTC_Terminate      0000000180079988     LIBCMT:_initsect_.obj
 0004:000029a0       $pdata$_purecall           00000001800799a0     libvcruntime:purevirt.obj
 0004:000029ac       $pdata$__DestructExceptionObject 00000001800799ac     libvcruntime:frame.obj
 0004:000029b8       $pdata$??0bad_exception@std@@QEAA@AEBV01@@Z 00000001800799b8     libvcruntime:frame.obj
 0004:000029c4       $pdata$?CatchIt@@YAXPEAUEHExceptionRecord@@PEA_KPEAU_CONTEXT@@PEAU_xDISPATCHER_CONTEXT@@PEBU_s_FuncInfo@@PEBU_s_HandlerType@@PEBU_s_CatchableType@@PEBU_s_TryBlockMapEntry@@H1EE@Z 00000001800799c4     libvcruntime:frame.obj
 0004:000029d0       $pdata$?ExFilterRethrow@@YAHPEAU_EXCEPTION_POINTERS@@PEAUEHExceptionRecord@@PEAH@Z 00000001800799d0     libvcruntime:frame.obj
 0004:000029dc       $pdata$?FindHandler@@YAXPEAUEHExceptionRecord@@PEA_KPEAU_CONTEXT@@PEAU_xDISPATCHER_CONTEXT@@PEBU_s_FuncInfo@@EH1@Z 00000001800799dc     libvcruntime:frame.obj
 0004:000029e8       $pdata$?FindHandlerForForeignException@@YAXPEAUEHExceptionRecord@@PEA_KPEAU_CONTEXT@@PEAU_xDISPATCHER_CONTEXT@@PEBU_s_FuncInfo@@HH1@Z 00000001800799e8     libvcruntime:frame.obj
 0004:000029f4       $pdata$?IsInExceptionSpec@@YAEPEAUEHExceptionRecord@@PEBU_s_ESTypeList@@@Z 00000001800799f4     libvcruntime:frame.obj
 0004:00002a00       $pdata$__BuildCatchObject  0000000180079a00     libvcruntime:frame.obj
 0004:00002a0c       $pdata$__BuildCatchObjectHelper 0000000180079a0c     libvcruntime:frame.obj
 0004:00002a18       $pdata$__CxxCallCatchBlock 0000000180079a18     libvcruntime:frame.obj
 0004:00002a24       $pdata$__FrameUnwindFilter 0000000180079a24     libvcruntime:frame.obj
 0004:00002a30       $pdata$__FrameUnwindToState 0000000180079a30     libvcruntime:frame.obj
 0004:00002a3c       $pdata$__InternalCxxFrameHandler 0000000180079a3c     libvcruntime:frame.obj
 0004:00002a48       $pdata$__TypeMatch         0000000180079a48     libvcruntime:frame.obj
 0004:00002a54       $pdata$__std_terminate     0000000180079a54     libvcruntime:frame.obj
 0004:00002a60       $pdata$?_ExecutionInCatch@@YAHPEAU_xDISPATCHER_CONTEXT@@PEBU_s_FuncInfo@@@Z 0000000180079a60     libvcruntime:trnsctrl.obj
 0004:00002a6c       $pdata$?_GetEstablisherFrame@@YAPEA_KPEA_KPEAU_xDISPATCHER_CONTEXT@@PEBU_s_FuncInfo@@0@Z 0000000180079a6c     libvcruntime:trnsctrl.obj
 0004:00002a78       $pdata$?_GetRangeOfTrysToCheck@@YAPEBU_s_TryBlockMapEntry@@PEA_KPEBU_s_FuncInfo@@HHPEAI2PEAU_xDISPATCHER_CONTEXT@@@Z 0000000180079a78     libvcruntime:trnsctrl.obj
 0004:00002a84       $pdata$?__FrameUnwindToEmptyState@@YAXPEA_KPEAU_xDISPATCHER_CONTEXT@@PEBU_s_FuncInfo@@@Z 0000000180079a84     libvcruntime:trnsctrl.obj
 0004:00002a90       $pdata$?__SehTransFilter@@YAHPEAU_EXCEPTION_POINTERS@@PEAUEHExceptionRecord@@PEA_KPEAU_CONTEXT@@PEAU_xDISPATCHER_CONTEXT@@PEBU_s_FuncInfo@@PEAH@Z 0000000180079a90     libvcruntime:trnsctrl.obj
 0004:00002a9c       $pdata$_CallSETranslator   0000000180079a9c     libvcruntime:trnsctrl.obj
 0004:00002aa8       $pdata$_CreateFrameInfo    0000000180079aa8     libvcruntime:trnsctrl.obj
 0004:00002ab4       $pdata$_FindAndUnlinkFrame 0000000180079ab4     libvcruntime:trnsctrl.obj
 0004:00002ac0       $pdata$_GetImageBase       0000000180079ac0     libvcruntime:trnsctrl.obj
 0004:00002acc       $pdata$_GetThrowImageBase  0000000180079acc     libvcruntime:trnsctrl.obj
 0004:00002ad8       $pdata$_IsExceptionObjectToBeDestroyed 0000000180079ad8     libvcruntime:trnsctrl.obj
 0004:00002ae4       $pdata$_SetImageBase       0000000180079ae4     libvcruntime:trnsctrl.obj
 0004:00002af0       $pdata$_SetThrowImageBase  0000000180079af0     libvcruntime:trnsctrl.obj
 0004:00002afc       $pdata$_UnwindNestedFrames 0000000180079afc     libvcruntime:trnsctrl.obj
 0004:00002b08       $pdata$__CxxFrameHandler3  0000000180079b08     libvcruntime:trnsctrl.obj
 0004:00002b14       $pdata$__std_exception_copy 0000000180079b14     libvcruntime:std_exception.obj
 0004:00002b20       $pdata$__std_exception_destroy 0000000180079b20     libvcruntime:std_exception.obj
 0004:00002b2c       $pdata$_CxxThrowException  0000000180079b2c     libvcruntime:throw.obj
 0004:00002b50       $pdata$?try_get_function@@YAPEAXW4function_id@?A0x679b24ab@@QEBDQEBW4module_id@2@2@Z 0000000180079b50     libvcruntime:winapi_downlevel.obj
 0004:00002b5c       $pdata$__vcrt_FlsAlloc     0000000180079b5c     libvcruntime:winapi_downlevel.obj
 0004:00002b68       $pdata$__vcrt_FlsFree      0000000180079b68     libvcruntime:winapi_downlevel.obj
 0004:00002b74       $pdata$__vcrt_FlsGetValue  0000000180079b74     libvcruntime:winapi_downlevel.obj
 0004:00002b80       $pdata$__vcrt_FlsSetValue  0000000180079b80     libvcruntime:winapi_downlevel.obj
 0004:00002b8c       $pdata$__vcrt_InitializeCriticalSectionEx 0000000180079b8c     libvcruntime:winapi_downlevel.obj
 0004:00002b98       $pdata$__vcrt_uninitialize_winapi_thunks 0000000180079b98     libvcruntime:winapi_downlevel.obj
 0004:00002ba4       $pdata$__vcrt_initialize   0000000180079ba4     libvcruntime:initialization.obj
 0004:00002bb0       $pdata$__vcrt_thread_attach 0000000180079bb0     libvcruntime:initialization.obj
 0004:00002bbc       $pdata$__vcrt_thread_detach 0000000180079bbc     libvcruntime:initialization.obj
 0004:00002bc8       $pdata$__vcrt_uninitialize 0000000180079bc8     libvcruntime:initialization.obj
 0004:00002bd4       $pdata$__vcrt_uninitialize_critical 0000000180079bd4     libvcruntime:initialization.obj
 0004:00002be0       $pdata$__C_specific_handler 0000000180079be0     libvcruntime:_chandler_.obj
 0004:00002bec       $pdata$__std_type_info_destroy_list 0000000180079bec     libvcruntime:std_type_info.obj
 0004:00002bf8       $pdata$__vcrt_freefls      0000000180079bf8     libvcruntime:per_thread_data.obj
 0004:00002c04       $pdata$__vcrt_freeptd      0000000180079c04     libvcruntime:per_thread_data.obj
 0004:00002c10       $pdata$__vcrt_getptd       0000000180079c10     libvcruntime:per_thread_data.obj
 0004:00002c1c       $pdata$__vcrt_getptd_noexit 0000000180079c1c     libvcruntime:per_thread_data.obj
 0004:00002c28       $pdata$__vcrt_initialize_ptd 0000000180079c28     libvcruntime:per_thread_data.obj
 0004:00002c34       $pdata$__vcrt_uninitialize_ptd 0000000180079c34     libvcruntime:per_thread_data.obj
 0004:00002c40       $pdata$?__GetCurrentState@@YAHPEA_KPEAU_xDISPATCHER_CONTEXT@@PEBU_s_FuncInfo@@@Z 0000000180079c40     libvcruntime:ehstate.obj
 0004:00002c4c       $pdata$?__GetUnwindTryBlock@@YAHPEA_KPEAU_xDISPATCHER_CONTEXT@@PEBU_s_FuncInfo@@@Z 0000000180079c4c     libvcruntime:ehstate.obj
 0004:00002c58       $pdata$?__SetUnwindTryBlock@@YAXPEA_KPEAU_xDISPATCHER_CONTEXT@@PEBU_s_FuncInfo@@H@Z 0000000180079c58     libvcruntime:ehstate.obj
 0004:00002c64       $pdata$?__StateFromIp@@YAHPEBU_s_FuncInfo@@PEAU_xDISPATCHER_CONTEXT@@_J@Z 0000000180079c64     libvcruntime:ehstate.obj
 0004:00002cac       $pdata$__vcrt_initialize_locks 0000000180079cac     libvcruntime:locks.obj
 0004:00002cb8       $pdata$__vcrt_uninitialize_locks 0000000180079cb8     libvcruntime:locks.obj
 0004:00002cc4       $pdata$abort               0000000180079cc4     libucrt:abort.obj
 0004:00002cd0       $pdata$__acrt_call_reportfault 0000000180079cd0     libucrt:invalid_parameter.obj
 0004:00002cdc       $pdata$_invalid_parameter  0000000180079cdc     libucrt:invalid_parameter.obj
 0004:00002ce8       $pdata$_invalid_parameter_noinfo 0000000180079ce8     libucrt:invalid_parameter.obj
 0004:00002cf4       $pdata$_invalid_parameter_noinfo_noreturn 0000000180079cf4     libucrt:invalid_parameter.obj
 0004:00002d00       $pdata$_invoke_watson      0000000180079d00     libucrt:invalid_parameter.obj
 0004:00002d0c       $pdata$??$common_mktime@_J@@YA_JQEAUtm@@_N@Z 0000000180079d0c     libucrt:mktime.obj
 0004:00002d18       $pdata$strcspn             0000000180079d18     libucrt:strcspn.obj
 0004:00002d24       $pdata$??$?RV<lambda_7b91131dde12e1c3dfc74ff76b3f2eac>@@AEAV<lambda_dd75445284c072d0bd3768540cc698fa>@@V<lambda_16bc4ecb55b4718497c16bceaea2ceaf>@@@?$__crt_seh_guarded_call@H@@QEAAH$$QEAV<lambda_7b91131dde12e1c3dfc74ff76b3f2eac>@@AEAV<lambda_dd75445284c072d0bd3768540cc698fa>@@$$QEAV<lambda_16bc4ecb55b4718497c16bceaea2ceaf>@@@Z 0000000180079d24     libucrt:output.obj
 0004:00002d30       $pdata$??$common_vsprintf@Vformat_validation_base@__crt_stdio_output@@D@@YAH_KQEAD0QEBDQEAU__crt_locale_pointers@@1@Z 0000000180079d30     libucrt:output.obj
 0004:00002d3c       $pdata$??$ensure_buffer_is_big_enough@D@formatting_buffer@__crt_stdio_output@@QEAA_N_K@Z 0000000180079d3c     libucrt:output.obj
 0004:00002d48       $pdata$??$type_case_integer_parse_into_buffer@I@?$output_processor@_WV?$string_output_adapter@_W@__crt_stdio_output@@V?$standard_base@_WV?$string_output_adapter@_W@__crt_stdio_output@@@2@@__crt_stdio_output@@AEAAXII_N@Z 0000000180079d48     libucrt:output.obj
 0004:00002d48       $pdata$??$type_case_integer_parse_into_buffer@I@?$output_processor@_WV?$stream_output_adapter@_W@__crt_stdio_output@@V?$standard_base@_WV?$stream_output_adapter@_W@__crt_stdio_output@@@2@@__crt_stdio_output@@AEAAXII_N@Z 0000000180079d48     libucrt:output.obj
 0004:00002d48       $pdata$??$type_case_integer_parse_into_buffer@I@?$output_processor@DV?$string_output_adapter@D@__crt_stdio_output@@V?$format_validation_base@DV?$string_output_adapter@D@__crt_stdio_output@@@2@@__crt_stdio_output@@AEAAXII_N@Z 0000000180079d48     libucrt:output.obj
 0004:00002d54       $pdata$??$type_case_integer_parse_into_buffer@_K@?$output_processor@_WV?$stream_output_adapter@_W@__crt_stdio_output@@V?$standard_base@_WV?$stream_output_adapter@_W@__crt_stdio_output@@@2@@__crt_stdio_output@@AEAAX_KI_N@Z 0000000180079d54     libucrt:output.obj
 0004:00002d54       $pdata$??$type_case_integer_parse_into_buffer@_K@?$output_processor@DV?$string_output_adapter@D@__crt_stdio_output@@V?$format_validation_base@DV?$string_output_adapter@D@__crt_stdio_output@@@2@@__crt_stdio_output@@AEAAX_KI_N@Z 0000000180079d54     libucrt:output.obj
 0004:00002d54       $pdata$??$type_case_integer_parse_into_buffer@_K@?$output_processor@_WV?$string_output_adapter@_W@__crt_stdio_output@@V?$standard_base@_WV?$string_output_adapter@_W@__crt_stdio_output@@@2@@__crt_stdio_output@@AEAAX_KI_N@Z 0000000180079d54     libucrt:output.obj
 0004:00002d60       $pdata$??$write_multiple_characters@V?$stream_output_adapter@_W@__crt_stdio_output@@D@__crt_stdio_output@@YAXAEBV?$stream_output_adapter@_W@0@DHQEAH@Z 0000000180079d60     libucrt:output.obj
 0004:00002d6c       $pdata$??$write_multiple_characters@V?$string_output_adapter@D@__crt_stdio_output@@D@__crt_stdio_output@@YAXAEBV?$string_output_adapter@D@0@DHQEAH@Z 0000000180079d6c     libucrt:output.obj
 0004:00002d78       $pdata$??$write_multiple_characters@V?$string_output_adapter@_W@__crt_stdio_output@@D@__crt_stdio_output@@YAXAEBV?$string_output_adapter@_W@0@DHQEAH@Z 0000000180079d78     libucrt:output.obj
 0004:00002d84       $pdata$??0?$output_processor@DV?$string_output_adapter@D@__crt_stdio_output@@V?$format_validation_base@DV?$string_output_adapter@D@__crt_stdio_output@@@2@@__crt_stdio_output@@QEAA@AEBV?$string_output_adapter@D@1@_KQEBDQEAU__crt_locale_pointers@@QEAD@Z 0000000180079d84     libucrt:output.obj
 0004:00002d90       $pdata$??0?$output_processor@_WV?$stream_output_adapter@_W@__crt_stdio_output@@V?$standard_base@_WV?$stream_output_adapter@_W@__crt_stdio_output@@@2@@__crt_stdio_output@@QEAA@AEBV?$stream_output_adapter@_W@1@_KQEB_WQEAU__crt_locale_pointers@@QEAD@Z 0000000180079d90     libucrt:output.obj
 0004:00002d90       $pdata$??0?$output_processor@_WV?$string_output_adapter@_W@__crt_stdio_output@@V?$standard_base@_WV?$string_output_adapter@_W@__crt_stdio_output@@@2@@__crt_stdio_output@@QEAA@AEBV?$string_output_adapter@_W@1@_KQEB_WQEAU__crt_locale_pointers@@QEAD@Z 0000000180079d90     libucrt:output.obj
 0004:00002d9c       $pdata$??0_LocaleUpdate@@QEAA@QEAU__crt_locale_pointers@@@Z 0000000180079d9c     libucrt:output.obj
 0004:00002da8       $pdata$??R<lambda_dd75445284c072d0bd3768540cc698fa>@@QEBAHXZ 0000000180079da8     libucrt:output.obj
 0004:00002db4       $pdata$?force_decimal_point@__crt_stdio_output@@YAXPEADQEAU__crt_locale_pointers@@@Z 0000000180079db4     libucrt:output.obj
 0004:00002dc0       $pdata$?parse_int_from_format_string@?$output_processor@DV?$string_output_adapter@D@__crt_stdio_output@@V?$format_validation_base@DV?$string_output_adapter@D@__crt_stdio_output@@@2@@__crt_stdio_output@@AEAA_NQEAH@Z 0000000180079dc0     libucrt:output.obj
 0004:00002dcc       $pdata$?parse_int_from_format_string@?$output_processor@_WV?$string_output_adapter@_W@__crt_stdio_output@@V?$standard_base@_WV?$string_output_adapter@_W@__crt_stdio_output@@@2@@__crt_stdio_output@@AEAA_NQEAH@Z 0000000180079dcc     libucrt:output.obj
 0004:00002dcc       $pdata$?parse_int_from_format_string@?$output_processor@_WV?$stream_output_adapter@_W@__crt_stdio_output@@V?$standard_base@_WV?$stream_output_adapter@_W@__crt_stdio_output@@@2@@__crt_stdio_output@@AEAA_NQEAH@Z 0000000180079dcc     libucrt:output.obj
 0004:00002dd8       $pdata$?process@?$output_processor@DV?$string_output_adapter@D@__crt_stdio_output@@V?$format_validation_base@DV?$string_output_adapter@D@__crt_stdio_output@@@2@@__crt_stdio_output@@QEAAHXZ 0000000180079dd8     libucrt:output.obj
 0004:00002de4       $pdata$?process@?$output_processor@_WV?$stream_output_adapter@_W@__crt_stdio_output@@V?$standard_base@_WV?$stream_output_adapter@_W@__crt_stdio_output@@@2@@__crt_stdio_output@@QEAAHXZ 0000000180079de4     libucrt:output.obj
 0004:00002df0       $pdata$?process@?$output_processor@_WV?$string_output_adapter@_W@__crt_stdio_output@@V?$standard_base@_WV?$string_output_adapter@_W@__crt_stdio_output@@@2@@__crt_stdio_output@@QEAAHXZ 0000000180079df0     libucrt:output.obj
 0004:00002dfc       $pdata$?state_case_normal@?$output_processor@DV?$string_output_adapter@D@__crt_stdio_output@@V?$format_validation_base@DV?$string_output_adapter@D@__crt_stdio_output@@@2@@__crt_stdio_output@@AEAA_NXZ 0000000180079dfc     libucrt:output.obj
 0004:00002e08       $pdata$?state_case_normal_tchar@?$output_processor@DV?$string_output_adapter@D@__crt_stdio_output@@V?$format_validation_base@DV?$string_output_adapter@D@__crt_stdio_output@@@2@@__crt_stdio_output@@AEAA_ND@Z 0000000180079e08     libucrt:output.obj
 0004:00002e14       $pdata$?state_case_size@?$output_processor@DV?$string_output_adapter@D@__crt_stdio_output@@V?$format_validation_base@DV?$string_output_adapter@D@__crt_stdio_output@@@2@@__crt_stdio_output@@AEAA_NXZ 0000000180079e14     libucrt:output.obj
 0004:00002e20       $pdata$?state_case_size@?$output_processor@_WV?$stream_output_adapter@_W@__crt_stdio_output@@V?$standard_base@_WV?$stream_output_adapter@_W@__crt_stdio_output@@@2@@__crt_stdio_output@@AEAA_NXZ 0000000180079e20     libucrt:output.obj
 0004:00002e2c       $pdata$?state_case_size@?$output_processor@_WV?$string_output_adapter@_W@__crt_stdio_output@@V?$standard_base@_WV?$string_output_adapter@_W@__crt_stdio_output@@@2@@__crt_stdio_output@@AEAA_NXZ 0000000180079e2c     libucrt:output.obj
 0004:00002e38       $pdata$?state_case_type@?$output_processor@DV?$string_output_adapter@D@__crt_stdio_output@@V?$format_validation_base@DV?$string_output_adapter@D@__crt_stdio_output@@@2@@__crt_stdio_output@@AEAA_NXZ 0000000180079e38     libucrt:output.obj
 0004:00002e44       $pdata$?state_case_type@?$output_processor@_WV?$stream_output_adapter@_W@__crt_stdio_output@@V?$standard_base@_WV?$stream_output_adapter@_W@__crt_stdio_output@@@2@@__crt_stdio_output@@AEAA_NXZ 0000000180079e44     libucrt:output.obj
 0004:00002e50       $pdata$?state_case_type@?$output_processor@_WV?$string_output_adapter@_W@__crt_stdio_output@@V?$standard_base@_WV?$string_output_adapter@_W@__crt_stdio_output@@@2@@__crt_stdio_output@@AEAA_NXZ 0000000180079e50     libucrt:output.obj
 0004:00002e5c       $pdata$?type_case_Z@?$output_processor@DV?$string_output_adapter@D@__crt_stdio_output@@V?$format_validation_base@DV?$string_output_adapter@D@__crt_stdio_output@@@2@@__crt_stdio_output@@AEAA_NXZ 0000000180079e5c     libucrt:output.obj
 0004:00002e68       $pdata$?type_case_Z@?$output_processor@_WV?$stream_output_adapter@_W@__crt_stdio_output@@V?$standard_base@_WV?$stream_output_adapter@_W@__crt_stdio_output@@@2@@__crt_stdio_output@@AEAA_NXZ 0000000180079e68     libucrt:output.obj
 0004:00002e68       $pdata$?type_case_Z@?$output_processor@_WV?$string_output_adapter@_W@__crt_stdio_output@@V?$standard_base@_WV?$string_output_adapter@_W@__crt_stdio_output@@@2@@__crt_stdio_output@@AEAA_NXZ 0000000180079e68     libucrt:output.obj
 0004:00002e74       $pdata$?type_case_a@?$output_processor@DV?$string_output_adapter@D@__crt_stdio_output@@V?$format_validation_base@DV?$string_output_adapter@D@__crt_stdio_output@@@2@@__crt_stdio_output@@AEAA_NXZ 0000000180079e74     libucrt:output.obj
 0004:00002e80       $pdata$?type_case_a@?$output_processor@_WV?$stream_output_adapter@_W@__crt_stdio_output@@V?$standard_base@_WV?$stream_output_adapter@_W@__crt_stdio_output@@@2@@__crt_stdio_output@@AEAA_NXZ 0000000180079e80     libucrt:output.obj
 0004:00002e80       $pdata$?type_case_a@?$output_processor@_WV?$string_output_adapter@_W@__crt_stdio_output@@V?$standard_base@_WV?$string_output_adapter@_W@__crt_stdio_output@@@2@@__crt_stdio_output@@AEAA_NXZ 0000000180079e80     libucrt:output.obj
 0004:00002e8c       $pdata$?type_case_c_tchar@?$output_processor@DV?$string_output_adapter@D@__crt_stdio_output@@V?$format_validation_base@DV?$string_output_adapter@D@__crt_stdio_output@@@2@@__crt_stdio_output@@AEAA_ND@Z 0000000180079e8c     libucrt:output.obj
 0004:00002e98       $pdata$?type_case_c_tchar@?$output_processor@_WV?$stream_output_adapter@_W@__crt_stdio_output@@V?$standard_base@_WV?$stream_output_adapter@_W@__crt_stdio_output@@@2@@__crt_stdio_output@@AEAA_N_W@Z 0000000180079e98     libucrt:output.obj
 0004:00002e98       $pdata$?type_case_c_tchar@?$output_processor@_WV?$string_output_adapter@_W@__crt_stdio_output@@V?$standard_base@_WV?$string_output_adapter@_W@__crt_stdio_output@@@2@@__crt_stdio_output@@AEAA_N_W@Z 0000000180079e98     libucrt:output.obj
 0004:00002ea4       $pdata$?type_case_integer@?$output_processor@DV?$string_output_adapter@D@__crt_stdio_output@@V?$format_validation_base@DV?$string_output_adapter@D@__crt_stdio_output@@@2@@__crt_stdio_output@@AEAA_NI_N@Z 0000000180079ea4     libucrt:output.obj
 0004:00002ea4       $pdata$?type_case_integer@?$output_processor@_WV?$string_output_adapter@_W@__crt_stdio_output@@V?$standard_base@_WV?$string_output_adapter@_W@__crt_stdio_output@@@2@@__crt_stdio_output@@AEAA_NI_N@Z 0000000180079ea4     libucrt:output.obj
 0004:00002ea4       $pdata$?type_case_integer@?$output_processor@_WV?$stream_output_adapter@_W@__crt_stdio_output@@V?$standard_base@_WV?$stream_output_adapter@_W@__crt_stdio_output@@@2@@__crt_stdio_output@@AEAA_NI_N@Z 0000000180079ea4     libucrt:output.obj
 0004:00002eb0       $pdata$?type_case_n@?$output_processor@_WV?$string_output_adapter@_W@__crt_stdio_output@@V?$standard_base@_WV?$string_output_adapter@_W@__crt_stdio_output@@@2@@__crt_stdio_output@@AEAA_NXZ 0000000180079eb0     libucrt:output.obj
 0004:00002eb0       $pdata$?type_case_n@?$output_processor@DV?$string_output_adapter@D@__crt_stdio_output@@V?$format_validation_base@DV?$string_output_adapter@D@__crt_stdio_output@@@2@@__crt_stdio_output@@AEAA_NXZ 0000000180079eb0     libucrt:output.obj
 0004:00002eb0       $pdata$?type_case_n@?$output_processor@_WV?$stream_output_adapter@_W@__crt_stdio_output@@V?$standard_base@_WV?$stream_output_adapter@_W@__crt_stdio_output@@@2@@__crt_stdio_output@@AEAA_NXZ 0000000180079eb0     libucrt:output.obj
 0004:00002ebc       $pdata$?type_case_s@?$output_processor@DV?$string_output_adapter@D@__crt_stdio_output@@V?$format_validation_base@DV?$string_output_adapter@D@__crt_stdio_output@@@2@@__crt_stdio_output@@AEAA_NXZ 0000000180079ebc     libucrt:output.obj
 0004:00002ec8       $pdata$?type_case_s@?$output_processor@_WV?$string_output_adapter@_W@__crt_stdio_output@@V?$standard_base@_WV?$string_output_adapter@_W@__crt_stdio_output@@@2@@__crt_stdio_output@@AEAA_NXZ 0000000180079ec8     libucrt:output.obj
 0004:00002ec8       $pdata$?type_case_s@?$output_processor@_WV?$stream_output_adapter@_W@__crt_stdio_output@@V?$standard_base@_WV?$stream_output_adapter@_W@__crt_stdio_output@@@2@@__crt_stdio_output@@AEAA_NXZ 0000000180079ec8     libucrt:output.obj
 0004:00002ed4       $pdata$?write_stored_string_tchar@?$output_processor@DV?$string_output_adapter@D@__crt_stdio_output@@V?$format_validation_base@DV?$string_output_adapter@D@__crt_stdio_output@@@2@@__crt_stdio_output@@AEAA_ND@Z 0000000180079ed4     libucrt:output.obj
 0004:00002ee0       $pdata$?write_stored_string_tchar@?$output_processor@_WV?$stream_output_adapter@_W@__crt_stdio_output@@V?$standard_base@_WV?$stream_output_adapter@_W@__crt_stdio_output@@@2@@__crt_stdio_output@@AEAA_N_W@Z 0000000180079ee0     libucrt:output.obj
 0004:00002eec       $pdata$?write_stored_string_tchar@?$output_processor@_WV?$string_output_adapter@_W@__crt_stdio_output@@V?$standard_base@_WV?$string_output_adapter@_W@__crt_stdio_output@@@2@@__crt_stdio_output@@AEAA_N_W@Z 0000000180079eec     libucrt:output.obj
 0004:00002ef8       $pdata$?write_string@?$stream_output_adapter@_W@__crt_stdio_output@@QEBAXQEB_WHQEAH1@Z 0000000180079ef8     libucrt:output.obj
 0004:00002f04       $pdata$?write_string@?$string_output_adapter@D@__crt_stdio_output@@QEBAXQEBDHQEAH1@Z 0000000180079f04     libucrt:output.obj
 0004:00002f10       $pdata$?write_string@?$string_output_adapter@_W@__crt_stdio_output@@QEBAXQEB_WHQEAH1@Z 0000000180079f10     libucrt:output.obj
 0004:00002f1c       $pdata$__stdio_common_vfwprintf 0000000180079f1c     libucrt:output.obj
 0004:00002f28       $pdata$__stdio_common_vsprintf_s 0000000180079f28     libucrt:output.obj
 0004:00002f34       $pdata$__stdio_common_vswprintf 0000000180079f34     libucrt:output.obj
 0004:00002f40       $pdata$localeconv          0000000180079f40     libucrt:localeconv.obj
 0004:00002f4c       $pdata$??$common_localtime_s@_J@@YAHQEAUtm@@QEB_J@Z 0000000180079f4c     libucrt:localtime.obj
 0004:00002f58       $pdata$_localtime64        0000000180079f58     libucrt:localtime.obj
 0004:00002f64       $pdata$frexp               0000000180079f64     libucrt:frexp.obj
 0004:00002f70       $pdata$??$common_assert_to_message_box@_W@@YAXQEB_W0IQEAX@Z 0000000180079f70     libucrt:assert.obj
 0004:00002f7c       $pdata$??$common_assert_to_message_box_build_string@_W@@YAXQEA_W_KQEB_W2IQEAX@Z 0000000180079f7c     libucrt:assert.obj
 0004:00002f88       $pdata$??$common_assert_to_stderr@_W@@YAXQEB_W0I@Z 0000000180079f88     libucrt:assert.obj
 0004:00002f94       $pdata$_wassert            0000000180079f94     libucrt:assert.obj
 0004:00002fa0       $pdata$fwprintf            0000000180079fa0     libucrt:assert.obj
 0004:00002fac       $pdata$swprintf            0000000180079fac     libucrt:assert.obj
 0004:00002fb8       $pdata$_stricmp            0000000180079fb8     libucrt:stricmp.obj
 0004:00002fc4       $pdata$_stricmp_l          0000000180079fc4     libucrt:stricmp.obj
 0004:00002fdc       $pdata$_Strftime_l         0000000180079fdc     libucrt:strftime.obj
 0004:00002fe8       $pdata$strftime            0000000180079fe8     libucrt:strftime.obj
 0004:00002ff4       $pdata$??$common_timespec_get@U_timespec64@@@@YAHQEAU_timespec64@@H@Z 0000000180079ff4     libucrt:time.obj
 0004:00003000       $pdata$_time64             000000018007a000     libucrt:time.obj
 0004:0000300c       $pdata$__acrt_initialize_locks 000000018007a00c     libucrt:locks.obj
 0004:00003018       $pdata$__acrt_uninitialize_locks 000000018007a018     libucrt:locks.obj
 0004:00003024       $pdata$call_wsetlocale     000000018007a024     libucrt:setlocale.obj
 0004:00003030       $pdata$setlocale           000000018007a030     libucrt:setlocale.obj
 0004:0000303c       $pdata$_calloc_base        000000018007a03c     libucrt:calloc_base.obj
 0004:00003048       $pdata$__pctype_func       000000018007a048     libucrt:ctype.obj
 0004:00003054       $pdata$isdigit             000000018007a054     libucrt:_ctype.obj
 0004:00003060       $pdata$islower             000000018007a060     libucrt:_ctype.obj
 0004:0000306c       $pdata$isupper             000000018007a06c     libucrt:_ctype.obj
 0004:00003078       $pdata$_wcsdup             000000018007a078     libucrt:wcsdup.obj
 0004:00003084       $pdata$___lc_codepage_func 000000018007a084     libucrt:initctype.obj
 0004:00003090       $pdata$___lc_locale_name_func 000000018007a090     libucrt:initctype.obj
 0004:0000309c       $pdata$___mb_cur_max_func  000000018007a09c     libucrt:initctype.obj
 0004:000030a8       $pdata$__acrt_locale_initialize_ctype 000000018007a0a8     libucrt:initctype.obj
 0004:000030b4       $pdata$__acrt_errno_map_os_error 000000018007a0b4     libucrt:errno.obj
 0004:000030c0       $pdata$__doserrno          000000018007a0c0     libucrt:errno.obj
 0004:000030cc       $pdata$_errno              000000018007a0cc     libucrt:errno.obj
 0004:000030d8       $pdata$?x_ismbbtype_l@@YAHPEAU__crt_locale_pointers@@IHH@Z 000000018007a0d8     libucrt:ismbbyte.obj
 0004:000030e4       $pdata$_malloc_base        000000018007a0e4     libucrt:malloc_base.obj
 0004:000030f0       $pdata$_realloc_base       000000018007a0f0     libucrt:realloc_base.obj
 0004:000030fc       $pdata$?divide@__crt_strtox@@YA_KAEAUbig_integer@1@AEBU21@@Z 000000018007a0fc     libucrt:strtod.obj
 0004:00003108       $pdata$5$?divide@__crt_strtox@@YA_KAEAUbig_integer@1@AEBU21@@Z 000000018007a108     libucrt:strtod.obj
 0004:00003114       $pdata$6$?divide@__crt_strtox@@YA_KAEAUbig_integer@1@AEBU21@@Z 000000018007a114     libucrt:strtod.obj
 0004:00003138       $pdata$_free_base          000000018007a138     libucrt:free_base.obj
 0004:00003144       $pdata$?compute_iso_week_internal@@YAHHHH@Z 000000018007a144     libucrt:wcsftime.obj
 0004:00003150       $pdata$?expand_time@@YA_NPEAU__crt_locale_pointers@@_WPEBUtm@@PEAPEA_WPEA_KPEBU__crt_lc_time_data@@_N@Z 000000018007a150     libucrt:wcsftime.obj
 0004:0000315c       $pdata$?store_number@@YAXHHQEAPEA_WQEA_K_W@Z 000000018007a15c     libucrt:wcsftime.obj
 0004:00003168       $pdata$?store_winword@@YA_NQEAU__crt_locale_pointers@@HQEBUtm@@QEAPEA_WQEA_KQEBU__crt_lc_time_data@@@Z 000000018007a168     libucrt:wcsftime.obj
 0004:00003174       $pdata$_Wcsftime_l         000000018007a174     libucrt:wcsftime.obj
 0004:00003180       $pdata$?internal_isupper_l@@YA_NHQEAU__crt_locale_pointers@@@Z 000000018007a180     libucrt:tolower_toupper.obj
 0004:0000318c       $pdata$_tolower_l          000000018007a18c     libucrt:tolower_toupper.obj
 0004:00003198       $pdata$tolower             000000018007a198     libucrt:tolower_toupper.obj
 0004:000031a4       $pdata$wcscpy_s            000000018007a1a4     libucrt:wcscpy_s.obj
 0004:000031b0       $pdata$strnlen             000000018007a1b0     libucrt:strnlen.obj
 0004:000031bc       $pdata$wcsnlen             000000018007a1bc     libucrt:strnlen.obj
 0004:000031c8       $pdata$_callnewh           000000018007a1c8     libucrt:new_handler.obj
 0004:000031d4       $pdata$_query_new_handler  000000018007a1d4     libucrt:new_handler.obj
 0004:000031e0       $pdata$_seh_filter_exe     000000018007a1e0     libucrt:exception_filter.obj
 0004:000031ec       $pdata$?common_exit@@YAXHW4_crt_exit_cleanup_mode@@W4_crt_exit_return_mode@@@Z 000000018007a1ec     libucrt:exit.obj
 0004:000031f8       $pdata$?exit_or_terminate_process@@YAXI@Z 000000018007a1f8     libucrt:exit.obj
 0004:00003204       $pdata$?try_cor_exit_process@@YAXI@Z 000000018007a204     libucrt:exit.obj
 0004:00003210       $pdata$??$parse_command_line@D@@YAXPEADPEAPEAD0PEA_K2@Z 000000018007a210     libucrt:argv_parsing.obj
 0004:0000321c       $pdata$__acrt_allocate_buffer_for_argv 000000018007a21c     libucrt:argv_parsing.obj
 0004:00003228       $pdata$_configure_narrow_argv 000000018007a228     libucrt:argv_parsing.obj
 0004:00003234       $pdata$??$common_get_or_create_environment_nolock@D@@YAPEAPEADXZ 000000018007a234     libucrt:environment_initialization.obj
 0004:00003240       $pdata$??$common_initialize_environment_nolock@D@@YAHXZ 000000018007a240     libucrt:environment_initialization.obj
 0004:0000324c       $pdata$??$create_environment@D@@YAQEAPEADQEAD@Z 000000018007a24c     libucrt:environment_initialization.obj
 0004:00003258       $pdata$??$free_environment@D@@YAXQEAPEAD@Z 000000018007a258     libucrt:environment_initialization.obj
 0004:00003258       $pdata$??$free_environment@_W@@YAXQEAPEA_W@Z 000000018007a258     libucrt:environment_initialization.obj
 0004:00003264       $pdata$??$initialize_environment_by_cloning_nolock@D@@YAHXZ 000000018007a264     libucrt:environment_initialization.obj
 0004:00003270       $pdata$??$uninitialize_environment_internal@D@@YAXAEAPEAPEAD@Z 000000018007a270     libucrt:environment_initialization.obj
 0004:0000327c       $pdata$??$uninitialize_environment_internal@_W@@YAXAEAPEAPEA_W@Z 000000018007a27c     libucrt:environment_initialization.obj
 0004:00003288       $pdata$__dcrt_uninitialize_environments_nolock 000000018007a288     libucrt:environment_initialization.obj
 0004:00003294       $pdata$??$?RV<lambda_b8c45f8f788dd370798f47cfe8ac3a86>@@AEAV<lambda_4e60a939b0d047cfe11ddc22648dfba9>@@V<lambda_332c3edc96d0294ec56c57d38c1cdfd5>@@@?$__crt_seh_guarded_call@H@@QEAAH$$QEAV<lambda_b8c45f8f788dd370798f47cfe8ac3a86>@@AEAV<lambda_4e60a939b0d047cfe11ddc22648dfba9>@@$$QEAV<lambda_332c3edc96d0294ec56c57d38c1cdfd5>@@@Z 000000018007a294     libucrt:onexit.obj
 0004:000032a0       $pdata$??$?RV<lambda_e24bbb7b643b32fcea6fa61b31d4c984>@@AEAV<lambda_275893d493268fdec8709772e3fcec0e>@@V<lambda_9d71df4d7cf3f480f8d633942495c3b0>@@@?$__crt_seh_guarded_call@H@@QEAAH$$QEAV<lambda_e24bbb7b643b32fcea6fa61b31d4c984>@@AEAV<lambda_275893d493268fdec8709772e3fcec0e>@@$$QEAV<lambda_9d71df4d7cf3f480f8d633942495c3b0>@@@Z 000000018007a2a0     libucrt:onexit.obj
 0004:000032ac       $pdata$??R<lambda_4e60a939b0d047cfe11ddc22648dfba9>@@QEBAHXZ 000000018007a2ac     libucrt:onexit.obj
 0004:000032b8       $pdata$_execute_onexit_table 000000018007a2b8     libucrt:onexit.obj
 0004:000032c4       $pdata$_register_onexit_function 000000018007a2c4     libucrt:onexit.obj
 0004:000032d0       $pdata$initialize_c        000000018007a2d0     libucrt:initialization.obj
 0004:000032dc       $pdata$uninitialize_environment 000000018007a2dc     libucrt:initialization.obj
 0004:000032e8       $pdata$initialize_pointers 000000018007a2e8     libucrt:initialization.obj
 0004:000032f4       $pdata$uninitialize_allocated_memory 000000018007a2f4     libucrt:initialization.obj
 0004:00003300       $pdata$__acrt_thread_attach 000000018007a300     libucrt:initialization.obj
 0004:0000330c       $pdata$__acrt_thread_detach 000000018007a30c     libucrt:initialization.obj
 0004:00003318       $pdata$__acrt_uninitialize_critical 000000018007a318     libucrt:initialization.obj
 0004:00003324       $pdata$_initterm           000000018007a324     libucrt:initterm.obj
 0004:00003330       $pdata$_initterm_e         000000018007a330     libucrt:initterm.obj
 0004:0000333c       $pdata$terminate           000000018007a33c     libucrt:terminate.obj
 0004:00003348       $pdata$??$common_xtox@KD@@YAHKQEAD_KI_N@Z 000000018007a348     libucrt:xtoa.obj
 0004:00003354       $pdata$??$common_xtox@K_W@@YAHKQEA_W_KI_N@Z 000000018007a354     libucrt:xtoa.obj
 0004:00003360       $pdata$??$common_xtox_s@K_W@@YAHKQEA_W_KI_N@Z 000000018007a360     libucrt:xtoa.obj
 0004:0000336c       $pdata$_itoa               000000018007a36c     libucrt:xtoa.obj
 0004:00003378       $pdata$_itow_s             000000018007a378     libucrt:xtoa.obj
 0004:00003384       $pdata$strcpy_s            000000018007a384     libucrt:strcpy_s.obj
 0004:00003390       $pdata$??$parse_integer@KV?$c_string_character_source@D@__crt_strtox@@@__crt_strtox@@YAKQEAU__crt_locale_pointers@@V?$c_string_character_source@D@0@H_N@Z 000000018007a390     libucrt:atox.obj
 0004:0000339c       $pdata$??$parse_integer@KV?$c_string_character_source@_W@__crt_strtox@@@__crt_strtox@@YAKQEAU__crt_locale_pointers@@V?$c_string_character_source@_W@0@H_N@Z 000000018007a39c     libucrt:atox.obj
 0004:000033a8       $pdata$_wtol               000000018007a3a8     libucrt:atox.obj
 0004:000033b4       $pdata$atol                000000018007a3b4     libucrt:atox.obj
 0004:000033c0       $pdata$??$?RV<lambda_c36588078e9f5dfd39652860aa6b3aaf>@@AEAV<lambda_ec61778202f4f5fc7e7711acc23c3bca>@@V<lambda_dc9d2797ccde5d239b4a0efae8ebd7db>@@@?$__crt_seh_guarded_call@P6AXH@Z@@QEAAP6AXH@Z$$QEAV<lambda_c36588078e9f5dfd39652860aa6b3aaf>@@AEAV<lambda_ec61778202f4f5fc7e7711acc23c3bca>@@$$QEAV<lambda_dc9d2797ccde5d239b4a0efae8ebd7db>@@@Z 000000018007a3c0     libucrt:signal.obj
 0004:000033cc       $pdata$__acrt_get_sigabrt_handler 000000018007a3cc     libucrt:signal.obj
 0004:000033d8       $pdata$raise               000000018007a3d8     libucrt:signal.obj
 0004:000033e4       $pdata$??$?RV<lambda_46352004c1216016012b18bd6f87e700>@@AEAV<lambda_3bd07e1a1191394380780325891bf33f>@@V<lambda_334532d3f185bcaa59b5be82d7d22bff>@@@?$__crt_seh_guarded_call@X@@QEAAX$$QEAV<lambda_46352004c1216016012b18bd6f87e700>@@AEAV<lambda_3bd07e1a1191394380780325891bf33f>@@$$QEAV<lambda_334532d3f185bcaa59b5be82d7d22bff>@@@Z 000000018007a3e4     libucrt:per_thread_data.obj
 0004:000033f0       $pdata$??$?RV<lambda_5e887d1dcbef67a5eb4283622ba103bf>@@AEAV<lambda_4466841279450cc726390878d4a41900>@@V<lambda_341c25c0346d94847f1f3c463c57e077>@@@?$__crt_seh_guarded_call@X@@QEAAX$$QEAV<lambda_5e887d1dcbef67a5eb4283622ba103bf>@@AEAV<lambda_4466841279450cc726390878d4a41900>@@$$QEAV<lambda_341c25c0346d94847f1f3c463c57e077>@@@Z 000000018007a3f0     libucrt:per_thread_data.obj
 0004:000033fc       $pdata$??$?RV<lambda_72d1df2b273a38828b1ce30cbf4cdab5>@@AEAV<lambda_876a65b173b8412d3a47c70a915b0cf4>@@V<lambda_41932305e351933ebe8f8be3ed8bb5dc>@@@?$__crt_seh_guarded_call@X@@QEAAX$$QEAV<lambda_72d1df2b273a38828b1ce30cbf4cdab5>@@AEAV<lambda_876a65b173b8412d3a47c70a915b0cf4>@@$$QEAV<lambda_41932305e351933ebe8f8be3ed8bb5dc>@@@Z 000000018007a3fc     libucrt:per_thread_data.obj
 0004:00003408       $pdata$??$?RV<lambda_fb3a7dec4e47f37f22dae91bb15c9095>@@AEAV<lambda_698284760c8add0bfb0756c19673e34b>@@V<lambda_dfb8eca1e75fef3034a8fb18dd509707>@@@?$__crt_seh_guarded_call@X@@QEAAX$$QEAV<lambda_fb3a7dec4e47f37f22dae91bb15c9095>@@AEAV<lambda_698284760c8add0bfb0756c19673e34b>@@$$QEAV<lambda_dfb8eca1e75fef3034a8fb18dd509707>@@@Z 000000018007a408     libucrt:per_thread_data.obj
 0004:00003414       $pdata$?construct_ptd_array@@YAXQEAU__acrt_ptd@@@Z 000000018007a414     libucrt:per_thread_data.obj
 0004:00003420       $pdata$?destroy_fls@@YAXPEAX@Z 000000018007a420     libucrt:per_thread_data.obj
 0004:0000342c       $pdata$?destroy_ptd_array@@YAXQEAU__acrt_ptd@@@Z 000000018007a42c     libucrt:per_thread_data.obj
 0004:00003438       $pdata$?replace_current_thread_locale_nolock@@YAXQEAU__acrt_ptd@@QEAU__crt_locale_data@@@Z 000000018007a438     libucrt:per_thread_data.obj
 0004:00003444       $pdata$__acrt_freeptd      000000018007a444     libucrt:per_thread_data.obj
 0004:00003450       $pdata$__acrt_getptd       000000018007a450     libucrt:per_thread_data.obj
 0004:0000345c       $pdata$__acrt_getptd_noexit 000000018007a45c     libucrt:per_thread_data.obj
 0004:00003468       $pdata$__acrt_initialize_ptd 000000018007a468     libucrt:per_thread_data.obj
 0004:00003474       $pdata$__acrt_uninitialize_ptd 000000018007a474     libucrt:per_thread_data.obj
 0004:00003480       $pdata$_get_daylight       000000018007a480     libucrt:timeset.obj
 0004:0000348c       $pdata$_get_dstbias        000000018007a48c     libucrt:timeset.obj
 0004:00003498       $pdata$_get_timezone       000000018007a498     libucrt:timeset.obj
 0004:000034a4       $pdata$??$common_gmtime_s@_J@@YAHQEAUtm@@QEB_J@Z 000000018007a4a4     libucrt:gmtime.obj
 0004:000034b0       $pdata$?compute_year@@YAHAEA_JAEA_N@Z 000000018007a4b0     libucrt:gmtime.obj
 0004:000034bc       $pdata$__getgmtimebuf      000000018007a4bc     libucrt:gmtime.obj
 0004:000034c8       $pdata$?_isindst_nolock@@YAHQEAUtm@@@Z 000000018007a4c8     libucrt:tzset.obj
 0004:000034d4       $pdata$?cvtdate@@YAXW4transition_type@?A0x1b14ceb2@@W4date_type@2@HHHHHHHHH@Z 000000018007a4d4     libucrt:tzset.obj
 0004:000034e0       $pdata$?tzset_from_environment_nolock@@YAXPEAD@Z 000000018007a4e0     libucrt:tzset.obj
 0004:000034ec       $pdata$?tzset_from_system_nolock@@YAXXZ 000000018007a4ec     libucrt:tzset.obj
 0004:000034f8       $pdata$?tzset_nolock@@YAXXZ 000000018007a4f8     libucrt:tzset.obj
 0004:00003504       $pdata$__tzset             000000018007a504     libucrt:tzset.obj
 0004:00003510       $pdata$_isindst            000000018007a510     libucrt:tzset.obj
 0004:0000351c       $pdata$strtol              000000018007a51c     libucrt:strtox.obj
 0004:00003528       $pdata$wcstol              000000018007a528     libucrt:strtox.obj
 0004:00003534       $pdata$_mbtowc_l           000000018007a534     libucrt:mbtowc.obj
 0004:00003540       $pdata$_wctomb_s_l         000000018007a540     libucrt:wctomb.obj
 0004:0000354c       $pdata$wctomb_s            000000018007a54c     libucrt:wctomb.obj
 0004:00003558       $pdata$__acrt_update_locale_info 000000018007a558     libucrt:locale_update.obj
 0004:00003564       $pdata$__acrt_update_multibyte_info 000000018007a564     libucrt:locale_update.obj
 0004:00003570       $pdata$?fp_format_a@@YAHQEBNPEAD_KQEAD2H_NIQEAU__crt_locale_pointers@@@Z 000000018007a570     libucrt:cvt.obj
 0004:0000357c       $pdata$?fp_format_e@@YAHQEBNQEAD_K12H_NIQEAU__crt_locale_pointers@@@Z 000000018007a57c     libucrt:cvt.obj
 0004:00003588       $pdata$?fp_format_e_internal@@YAHQEAD_KH_NIQEAU_strflt@@2QEAU__crt_locale_pointers@@@Z 000000018007a588     libucrt:cvt.obj
 0004:00003594       $pdata$?fp_format_f_internal@@YAHQEAD_KHQEAU_strflt@@_NQEAU__crt_locale_pointers@@@Z 000000018007a594     libucrt:cvt.obj
 0004:000035a0       $pdata$?fp_format_g@@YAHQEBNQEAD_K12H_NIQEAU__crt_locale_pointers@@@Z 000000018007a5a0     libucrt:cvt.obj
 0004:000035ac       $pdata$?fp_format_nan_or_infinity@@YAHW4__acrt_fp_class@@_NPEAD_K1@Z 000000018007a5ac     libucrt:cvt.obj
 0004:000035b8       $pdata$__acrt_fp_format    000000018007a5b8     libucrt:cvt.obj
 0004:000035c4       $pdata$_fputwc_nolock      000000018007a5c4     libucrt:fputwc.obj
 0004:000035d0       $pdata$_fileno             000000018007a5d0     libucrt:fileno.obj
 0004:000035dc       $pdata$__acrt_initialize_stdio 000000018007a5dc     libucrt:_file.obj
 0004:000035e8       $pdata$__acrt_uninitialize_stdio 000000018007a5e8     libucrt:_file.obj
 0004:000035f4       $pdata$__acrt_stdio_begin_temporary_buffering_nolock 000000018007a5f4     libucrt:_sftbuf.obj
 0004:00003600       $pdata$__acrt_stdio_end_temporary_buffering_nolock 000000018007a600     libucrt:_sftbuf.obj
 0004:0000360c       $pdata$??$?RV<lambda_5df02c53a8f32f81fd64e5bbb78039f1>@@AEAV<lambda_2af78c5f5901b1372d98f9ab3177dfa6>@@AEAV<lambda_f51fe5fd7c79a33db34fc9310f277369>@@@?$__crt_seh_guarded_call@X@@QEAAX$$QEAV<lambda_5df02c53a8f32f81fd64e5bbb78039f1>@@AEAV<lambda_2af78c5f5901b1372d98f9ab3177dfa6>@@AEAV<lambda_f51fe5fd7c79a33db34fc9310f277369>@@@Z 000000018007a60c     libucrt:wsetlocale.obj
 0004:00003618       $pdata$??$?RV<lambda_d67e8342c384adda8f857579ab50b2ae>@@AEAV<lambda_30712929f77e709619002f448b6a9510>@@V<lambda_4525336fd7e478d965fb7ca7a337cad8>@@@?$__crt_seh_guarded_call@X@@QEAAX$$QEAV<lambda_d67e8342c384adda8f857579ab50b2ae>@@AEAV<lambda_30712929f77e709619002f448b6a9510>@@$$QEAV<lambda_4525336fd7e478d965fb7ca7a337cad8>@@@Z 000000018007a618     libucrt:wsetlocale.obj
 0004:00003624       $pdata$??R<lambda_2af78c5f5901b1372d98f9ab3177dfa6>@@QEBAXXZ 000000018007a624     libucrt:wsetlocale.obj
 0004:00003630       $pdata$__acrt_copy_locale_name 000000018007a630     libucrt:wsetlocale.obj
 0004:0000363c       $pdata$__acrt_uninitialize_locale 000000018007a63c     libucrt:wsetlocale.obj
 0004:00003648       $pdata$__lc_lctowcs        000000018007a648     libucrt:wsetlocale.obj
 0004:00003654       $pdata$__lc_wcstolc        000000018007a654     libucrt:wsetlocale.obj
 0004:00003660       $pdata$_copytlocinfo_nolock 000000018007a660     libucrt:wsetlocale.obj
 0004:0000366c       $pdata$_expandlocale       000000018007a66c     libucrt:wsetlocale.obj
 0004:00003678       $pdata$_wcscats            000000018007a678     libucrt:wsetlocale.obj
 0004:00003684       $pdata$_wsetlocale         000000018007a684     libucrt:wsetlocale.obj
 0004:00003690       $pdata$_wsetlocale_get_all 000000018007a690     libucrt:wsetlocale.obj
 0004:0000369c       $pdata$_wsetlocale_nolock  000000018007a69c     libucrt:wsetlocale.obj
 0004:000036a8       $pdata$_wsetlocale_set_cat 000000018007a6a8     libucrt:wsetlocale.obj
 0004:000036b4       $pdata$?initialize_inherited_file_handles_nolock@@YAXXZ 000000018007a6b4     libucrt:ioinit.obj
 0004:000036c0       $pdata$?initialize_stdio_handles_nolock@@YAXXZ 000000018007a6c0     libucrt:ioinit.obj
 0004:000036cc       $pdata$__acrt_initialize_lowio 000000018007a6cc     libucrt:ioinit.obj
 0004:000036d8       $pdata$__acrt_uninitialize_lowio 000000018007a6d8     libucrt:ioinit.obj
 0004:000036e4       $pdata$_except1            000000018007a6e4     libucrt:fpexcept.obj
 0004:000036f0       $pdata$_handle_exc         000000018007a6f0     libucrt:fpexcept.obj
 0004:000036fc       $pdata$_raise_exc          000000018007a6fc     libucrt:fpexcept.obj
 0004:00003708       $pdata$_raise_exc_ex       000000018007a708     libucrt:fpexcept.obj
 0004:00003714       $pdata$_raise_excf         000000018007a714     libucrt:fpexcept.obj
 0004:00003720       $pdata$_set_errno_from_matherr 000000018007a720     libucrt:fpexcept.obj
 0004:0000372c       $pdata$_umatherr           000000018007a72c     libucrt:fpexcept.obj
 0004:00003738       $pdata$_clrfp              000000018007a738     libucrt:fpctrl.obj
 0004:00003744       $pdata$_ctrlfp             000000018007a744     libucrt:fpctrl.obj
 0004:00003750       $pdata$_set_statfp         000000018007a750     libucrt:fpctrl.obj
 0004:0000375c       $pdata$_statfp             000000018007a75c     libucrt:fpctrl.obj
 0004:00003768       $pdata$_set_error_mode     000000018007a768     libucrt:set_error_mode.obj
 0004:00003774       $pdata$wcscat_s            000000018007a774     libucrt:wcscat_s.obj
 0004:00003780       $pdata$wcsncat_s           000000018007a780     libucrt:wcsncat_s.obj
 0004:0000378c       $pdata$??$message_box_wait_thread@_W@@YAKQEAX@Z 000000018007a78c     libucrt:crtmbox.obj
 0004:00003798       $pdata$__acrt_show_wide_message_box 000000018007a798     libucrt:crtmbox.obj
 0004:000037a4       $pdata$__acrt_stdio_flush_nolock 000000018007a7a4     libucrt:fflush.obj
 0004:000037b0       $pdata$_fflush_nolock      000000018007a7b0     libucrt:fflush.obj
 0004:000037bc       $pdata$common_flush_all    000000018007a7bc     libucrt:fflush.obj
 0004:000037c8       $pdata$fflush              000000018007a7c8     libucrt:fflush.obj
 0004:000037d4       $pdata$??$?RV<lambda_7a5ef57ff966f610505f1d28a3d40618>@@AEAV<lambda_b721fa326cdb32351d23dfa67958c160>@@V<lambda_5e0fb27672408a07956fe59e48ccb2aa>@@@?$__crt_seh_guarded_call@H@@QEAAH$$QEAV<lambda_7a5ef57ff966f610505f1d28a3d40618>@@AEAV<lambda_b721fa326cdb32351d23dfa67958c160>@@$$QEAV<lambda_5e0fb27672408a07956fe59e48ccb2aa>@@@Z 000000018007a7d4     libucrt:setvbuf.obj
 0004:000037e0       $pdata$??R<lambda_b721fa326cdb32351d23dfa67958c160>@@QEBAHXZ 000000018007a7e0     libucrt:setvbuf.obj
 0004:000037ec       $pdata$setvbuf             000000018007a7ec     libucrt:setvbuf.obj
 0004:000037f8       $pdata$?<helper_func_cdecl>@<lambda_e2bb8337c48846e80c921ea5ddadc92d>@@CAHPEA_W@Z 000000018007a7f8     libucrt:winapi_thunks.obj
 0004:00003804       $pdata$??$?RV<lambda_630b2aca97f6d20d5b5ea6529ea6b6af>@@AEAV<lambda_af91936f1d075d609f72d9d8cba980af>@@V<lambda_e82fa975f615b5c7c7b0e4d178fdae67>@@@?$__crt_seh_guarded_call@H@@QEAAH$$QEAV<lambda_630b2aca97f6d20d5b5ea6529ea6b6af>@@AEAV<lambda_af91936f1d075d609f72d9d8cba980af>@@$$QEAV<lambda_e82fa975f615b5c7c7b0e4d178fdae67>@@@Z 000000018007a804     libucrt:winapi_thunks.obj
 0004:00003810       $pdata$?try_get_function@@YAPEAXW4function_id@?A0x63058377@@QEBDQEBW4module_id@2@2@Z 000000018007a810     libucrt:winapi_thunks.obj
 0004:0000381c       $pdata$__acrt_CompareStringEx 000000018007a81c     libucrt:winapi_thunks.obj
 0004:00003828       $pdata$__acrt_EnumSystemLocalesEx 000000018007a828     libucrt:winapi_thunks.obj
 0004:00003834       $pdata$__acrt_FlsAlloc     000000018007a834     libucrt:winapi_thunks.obj
 0004:00003840       $pdata$__acrt_FlsFree      000000018007a840     libucrt:winapi_thunks.obj
 0004:0000384c       $pdata$__acrt_FlsGetValue  000000018007a84c     libucrt:winapi_thunks.obj
 0004:00003858       $pdata$__acrt_FlsSetValue  000000018007a858     libucrt:winapi_thunks.obj
 0004:00003864       $pdata$__acrt_GetDateFormatEx 000000018007a864     libucrt:winapi_thunks.obj
 0004:00003870       $pdata$__acrt_GetLocaleInfoEx 000000018007a870     libucrt:winapi_thunks.obj
 0004:0000387c       $pdata$__acrt_GetSystemTimePreciseAsFileTime 000000018007a87c     libucrt:winapi_thunks.obj
 0004:00003888       $pdata$__acrt_GetTimeFormatEx 000000018007a888     libucrt:winapi_thunks.obj
 0004:00003894       $pdata$__acrt_GetUserDefaultLocaleName 000000018007a894     libucrt:winapi_thunks.obj
 0004:000038a0       $pdata$__acrt_InitializeCriticalSectionEx 000000018007a8a0     libucrt:winapi_thunks.obj
 0004:000038ac       $pdata$__acrt_IsValidLocaleName 000000018007a8ac     libucrt:winapi_thunks.obj
 0004:000038b8       $pdata$__acrt_LCIDToLocaleName 000000018007a8b8     libucrt:winapi_thunks.obj
 0004:000038c4       $pdata$__acrt_LCMapStringEx 000000018007a8c4     libucrt:winapi_thunks.obj
 0004:000038d0       $pdata$__acrt_LocaleNameToLCID 000000018007a8d0     libucrt:winapi_thunks.obj
 0004:000038dc       $pdata$__acrt_MessageBoxW  000000018007a8dc     libucrt:winapi_thunks.obj
 0004:000038e8       $pdata$__acrt_can_show_message_box 000000018007a8e8     libucrt:winapi_thunks.obj
 0004:000038f4       $pdata$__acrt_can_use_vista_locale_apis 000000018007a8f4     libucrt:winapi_thunks.obj
 0004:00003900       $pdata$__acrt_get_parent_window 000000018007a900     libucrt:winapi_thunks.obj
 0004:0000390c       $pdata$__acrt_initialize_winapi_thunks 000000018007a90c     libucrt:winapi_thunks.obj
 0004:00003918       $pdata$__acrt_is_interactive 000000018007a918     libucrt:winapi_thunks.obj
 0004:00003924       $pdata$__acrt_is_packaged_app 000000018007a924     libucrt:winapi_thunks.obj
 0004:00003930       $pdata$__acrt_uninitialize_winapi_thunks 000000018007a930     libucrt:winapi_thunks.obj
 0004:0000393c       $pdata$?_mbstowcs_l_helper@@YA_KPEA_WPEBD_KPEAU__crt_locale_pointers@@@Z 000000018007a93c     libucrt:mbstowcs.obj
 0004:00003948       $pdata$_mbstowcs_s_l       000000018007a948     libucrt:mbstowcs.obj
 0004:00003954       $pdata$mbstowcs_s          000000018007a954     libucrt:mbstowcs.obj
 0004:00003960       $pdata$?_wcstombs_l_helper@@YA_KPEADPEB_W_KPEAU__crt_locale_pointers@@@Z 000000018007a960     libucrt:wcstombs.obj
 0004:0000396c       $pdata$_wcstombs_s_l       000000018007a96c     libucrt:wcstombs.obj
 0004:00003978       $pdata$__acrt_initialize_heap 000000018007a978     libucrt:heap_handle.obj
 0004:00003984       $pdata$_isctype_l          000000018007a984     libucrt:isctype.obj
 0004:00003990       $pdata$?InternalGetLocaleInfoA@@YAHQEAU__crt_locale_pointers@@QEB_WKQEADH@Z 000000018007a990     libucrt:getlocaleinfoa.obj
 0004:0000399c       $pdata$__acrt_GetLocaleInfoA 000000018007a99c     libucrt:getlocaleinfoa.obj
 0004:000039a8       $pdata$__acrt_GetStringTypeA 000000018007a9a8     libucrt:getstringtypea.obj
 0004:000039b4       $pdata$?__acrt_LCMapStringA_stat@@YAHPEAU__crt_locale_pointers@@PEB_WKPEBDHPEADHHH@Z 000000018007a9b4     libucrt:lcmapstringa.obj
 0004:000039c0       $pdata$__acrt_LCMapStringA 000000018007a9c0     libucrt:lcmapstringa.obj
 0004:000039cc       $pdata$iswctype            000000018007a9cc     libucrt:iswctype.obj
 0004:000039d8       $pdata$__acrt_initialize_fma3 000000018007a9d8     libucrt:fma3_available.obj
 0004:000039e4       $pdata$_pow_special        000000018007a9e4     libucrt:pow_special.obj
 0004:000039f0       $pdata$_powf_special       000000018007a9f0     libucrt:pow_special.obj
 0004:000039fc       $pdata$_wcsicmp            000000018007a9fc     libucrt:wcsicmp.obj
 0004:00003a08       $pdata$_wcsicmp_l          000000018007aa08     libucrt:wcsicmp.obj
 0004:00003a14       $pdata$_isleadbyte_l       000000018007aa14     libucrt:_wctype.obj
 0004:00003a20       $pdata$??$common_expand_argv_wildcards@D@@YAHQEAPEADQEAPEAPEAD@Z 000000018007aa20     libucrt:argv_wildcards.obj
 0004:00003a2c       $pdata$??$copy_and_add_argument_to_buffer@D@@YAHQEBD0_KAEAV?$argument_list@D@?A0xca0879c4@@@Z 000000018007aa2c     libucrt:argv_wildcards.obj
 0004:00003a38       $pdata$??$expand_argument_wildcards@D@@YAHQEAD0AEAV?$argument_list@D@?A0xca0879c4@@@Z 000000018007aa38     libucrt:argv_wildcards.obj
 0004:00003a44       $pdata$?expand_if_necessary@?$argument_list@D@?A0xca0879c4@@AEAAHXZ 000000018007aa44     libucrt:argv_wildcards.obj
 0004:00003a50       $pdata$??$?RV<lambda_99476a1ad63dd22509b5d3e65b0ffc95>@@AEAV<lambda_ad1ced32f4ac17aa236e5ef05d6b3b7c>@@V<lambda_f7424dd8d45958661754dc4f2697e9c3>@@@?$__crt_seh_guarded_call@X@@QEAAX$$QEAV<lambda_99476a1ad63dd22509b5d3e65b0ffc95>@@AEAV<lambda_ad1ced32f4ac17aa236e5ef05d6b3b7c>@@$$QEAV<lambda_f7424dd8d45958661754dc4f2697e9c3>@@@Z 000000018007aa50     libucrt:mbctype.obj
 0004:00003a5c       $pdata$??R<lambda_ad1ced32f4ac17aa236e5ef05d6b3b7c>@@QEBAXXZ 000000018007aa5c     libucrt:mbctype.obj
 0004:00003a68       $pdata$?getSystemCP@@YAHH@Z 000000018007aa68     libucrt:mbctype.obj
 0004:00003a74       $pdata$?setSBCS@@YAXPEAU__crt_multibyte_data@@@Z 000000018007aa74     libucrt:mbctype.obj
 0004:00003a80       $pdata$?setSBUpLow@@YAXPEAU__crt_multibyte_data@@@Z 000000018007aa80     libucrt:mbctype.obj
 0004:00003a8c       $pdata$?setmbcp_internal@@YAHH_N@Z 000000018007aa8c     libucrt:mbctype.obj
 0004:00003a98       $pdata$__acrt_initialize_multibyte 000000018007aa98     libucrt:mbctype.obj
 0004:00003aa4       $pdata$__acrt_update_thread_multibyte_data 000000018007aaa4     libucrt:mbctype.obj
 0004:00003ab0       $pdata$_setmbcp_nolock     000000018007aab0     libucrt:mbctype.obj
 0004:00003abc       $pdata$__acrt_initialize_command_line 000000018007aabc     libucrt:argv_data.obj
 0004:00003ac8       $pdata$__dcrt_get_narrow_environment_from_os 000000018007aac8     libucrt:get_environment_from_os.obj
 0004:00003ad4       $pdata$??$common_set_variable_in_environment_nolock@D@@YAHQEADH@Z 000000018007aad4     libucrt:setenv.obj
 0004:00003ae0       $pdata$??$copy_environment@D@@YAPEAPEADQEAPEAD@Z 000000018007aae0     libucrt:setenv.obj
 0004:00003aec       $pdata$_recalloc_base      000000018007aaec     libucrt:recalloc.obj
 0004:00003af8       $pdata$__acrt_execute_initializers 000000018007aaf8     libucrt:shared_initialization.obj
 0004:00003b04       $pdata$__acrt_execute_uninitializers 000000018007ab04     libucrt:shared_initialization.obj
 0004:00003b10       $pdata$__acrt_invoke_user_matherr 000000018007ab10     libucrt:matherr.obj
 0004:00003b1c       $pdata$__acrt_free_locale  000000018007ab1c     libucrt:locale_refcounting.obj
 0004:00003b28       $pdata$__acrt_locale_free_lc_time_if_unreferenced 000000018007ab28     libucrt:locale_refcounting.obj
 0004:00003b34       $pdata$__acrt_release_locale_ref 000000018007ab34     libucrt:locale_refcounting.obj
 0004:00003b40       $pdata$__acrt_update_thread_locale_data 000000018007ab40     libucrt:locale_refcounting.obj
 0004:00003b4c       $pdata$_updatetlocinfoEx_nolock 000000018007ab4c     libucrt:locale_refcounting.obj
 0004:00003b58       $pdata$??$common_getenv_nolock@D@@YAPEADQEBD@Z 000000018007ab58     libucrt:getenv.obj
 0004:00003b64       $pdata$??$common_getenv_s@D@@YAHQEA_KQEAD_KQEBD@Z 000000018007ab64     libucrt:getenv.obj
 0004:00003b70       $pdata$strncpy_s           000000018007ab70     libucrt:strncpy_s.obj
 0004:00003b7c       $pdata$__acrt_fp_strflt_to_string 000000018007ab7c     libucrt:_fptostr.obj
 0004:00003b88       $pdata$__acrt_fltout       000000018007ab88     libucrt:cfout.obj
 0004:00003b94       $pdata$memcpy_s            000000018007ab94     libucrt:cfout.obj
 0004:00003b94       $pdata$memcpy_s            000000018007ab94     libucrt:strtod.obj
 0004:00003ba0       $pdata$??$write_buffer_nolock@D@@YA_NDV__crt_stdio_stream@@@Z 000000018007aba0     libucrt:_flsbuf.obj
 0004:00003bac       $pdata$??$write_buffer_nolock@_W@@YA_N_WV__crt_stdio_stream@@@Z 000000018007abac     libucrt:_flsbuf.obj
 0004:00003bb8       $pdata$__acrt_stdio_flush_and_write_narrow_nolock 000000018007abb8     libucrt:_flsbuf.obj
 0004:00003bc4       $pdata$__acrt_stdio_flush_and_write_wide_nolock 000000018007abc4     libucrt:_flsbuf.obj
 0004:00003bd0       $pdata$_fcloseall          000000018007abd0     libucrt:closeall.obj
 0004:00003bdc       $pdata$__acrt_stdio_free_buffer_nolock 000000018007abdc     libucrt:_freebuf.obj
 0004:00003be8       $pdata$_isatty             000000018007abe8     libucrt:isatty.obj
 0004:00003bf4       $pdata$__acrt_locale_free_monetary 000000018007abf4     libucrt:initmon.obj
 0004:00003c00       $pdata$__acrt_locale_initialize_monetary 000000018007ac00     libucrt:initmon.obj
 0004:00003c0c       $pdata$__acrt_locale_free_numeric 000000018007ac0c     libucrt:initnum.obj
 0004:00003c18       $pdata$__acrt_locale_initialize_numeric 000000018007ac18     libucrt:initnum.obj
 0004:00003c24       $pdata$?free_crt_array_internal@@YAXQEAPEBX_K@Z 000000018007ac24     libucrt:inittime.obj
 0004:00003c30       $pdata$?initialize_lc_time@@YA_NQEAU__crt_lc_time_data@@QEAU__crt_locale_data@@@Z 000000018007ac30     libucrt:inittime.obj
 0004:00003c3c       $pdata$__acrt_locale_free_time 000000018007ac3c     libucrt:inittime.obj
 0004:00003c48       $pdata$__acrt_locale_initialize_time 000000018007ac48     libucrt:inittime.obj
 0004:00003c54       $pdata$wcsncpy_s           000000018007ac54     libucrt:wcsncpy_s.obj
 0004:00003c60       $pdata$GetLocaleNameFromDefault 000000018007ac60     libucrt:get_qualified_locale.obj
 0004:00003c6c       $pdata$GetLocaleNameFromLangCountry 000000018007ac6c     libucrt:get_qualified_locale.obj
 0004:00003c78       $pdata$GetLocaleNameFromLanguage 000000018007ac78     libucrt:get_qualified_locale.obj
 0004:00003c84       $pdata$LangCountryEnumProcEx 000000018007ac84     libucrt:get_qualified_locale.obj
 0004:00003c90       $pdata$LanguageEnumProcEx  000000018007ac90     libucrt:get_qualified_locale.obj
 0004:00003c9c       $pdata$ProcessCodePage     000000018007ac9c     libucrt:get_qualified_locale.obj
 0004:00003ca8       $pdata$TestDefaultCountry  000000018007aca8     libucrt:get_qualified_locale.obj
 0004:00003cb4       $pdata$TranslateName       000000018007acb4     libucrt:get_qualified_locale.obj
 0004:00003cc0       $pdata$__acrt_get_qualified_locale 000000018007acc0     libucrt:get_qualified_locale.obj
 0004:00003ccc       $pdata$CountryEnumProc     000000018007accc     libucrt:getqloc_downlevel.obj
 0004:00003cd8       $pdata$GetLcidFromLangCountry 000000018007acd8     libucrt:getqloc_downlevel.obj
 0004:00003ce4       $pdata$GetLcidFromLanguage 000000018007ace4     libucrt:getqloc_downlevel.obj
 0004:00003cf0       $pdata$LangCountryEnumProc 000000018007acf0     libucrt:getqloc_downlevel.obj
 0004:00003cfc       $pdata$LanguageEnumProc    000000018007acfc     libucrt:getqloc_downlevel.obj
 0004:00003d08       $pdata$ProcessCodePage     000000018007ad08     libucrt:getqloc_downlevel.obj
 0004:00003d14       $pdata$TestDefaultLanguage 000000018007ad14     libucrt:getqloc_downlevel.obj
 0004:00003d20       $pdata$TranslateName       000000018007ad20     libucrt:getqloc_downlevel.obj
 0004:00003d2c       $pdata$__acrt_get_qualified_locale_downlevel 000000018007ad2c     libucrt:getqloc_downlevel.obj
 0004:00003d38       $pdata$__acrt_lowio_create_handle_array 000000018007ad38     libucrt:osfinfo.obj
 0004:00003d44       $pdata$__acrt_lowio_destroy_handle_array 000000018007ad44     libucrt:osfinfo.obj
 0004:00003d50       $pdata$__acrt_lowio_ensure_fh_exists 000000018007ad50     libucrt:osfinfo.obj
 0004:00003d5c       $pdata$_free_osfhnd        000000018007ad5c     libucrt:osfinfo.obj
 0004:00003d68       $pdata$_get_osfhandle      000000018007ad68     libucrt:osfinfo.obj
 0004:00003d80       $pdata$??$?RV<lambda_b521505b218e5242e90febf6bfebc422>@@AEAV<lambda_6978c1fb23f02e42e1d9e99668cc68aa>@@V<lambda_314360699dd331753a4119843814e9a7>@@@?$__crt_seh_guarded_call@H@@QEAAH$$QEAV<lambda_b521505b218e5242e90febf6bfebc422>@@AEAV<lambda_6978c1fb23f02e42e1d9e99668cc68aa>@@$$QEAV<lambda_314360699dd331753a4119843814e9a7>@@@Z 000000018007ad80     libucrt:commit.obj
 0004:00003d8c       $pdata$_commit             000000018007ad8c     libucrt:commit.obj
 0004:00003d98       $pdata$?write_double_translated_ansi_nolock@@YA?AUwrite_result@?A0x9c548279@@HQEBDI@Z 000000018007ad98     libucrt:write.obj
 0004:00003da4       $pdata$?write_text_ansi_nolock@@YA?AUwrite_result@?A0x9c548279@@HQEBDI@Z 000000018007ada4     libucrt:write.obj
 0004:00003db0       $pdata$?write_text_utf16le_nolock@@YA?AUwrite_result@?A0x9c548279@@HQEBDI@Z 000000018007adb0     libucrt:write.obj
 0004:00003dbc       $pdata$?write_text_utf8_nolock@@YA?AUwrite_result@?A0x9c548279@@HQEBDI@Z 000000018007adbc     libucrt:write.obj
 0004:00003dc8       $pdata$_write              000000018007adc8     libucrt:write.obj
 0004:00003dd4       $pdata$_write_nolock       000000018007add4     libucrt:write.obj
 0004:00003de0       $pdata$?GetTableIndexFromLocaleName@@YAHPEB_W@Z 000000018007ade0     libucrt:lcidtoname_downlevel.obj
 0004:00003dec       $pdata$__acrt_DownlevelLCIDToLocaleName 000000018007adec     libucrt:lcidtoname_downlevel.obj
 0004:00003df8       $pdata$__acrt_DownlevelLocaleNameToLCID 000000018007adf8     libucrt:lcidtoname_downlevel.obj
 0004:00003e04       $pdata$_getfpcontrolword   000000018007ae04     libucrt:_fenvutils.obj
 0004:00003e10       $pdata$_getfpstatusword    000000018007ae10     libucrt:_fenvutils.obj
 0004:00003e1c       $pdata$_setfpstatusword    000000018007ae1c     libucrt:_fenvutils.obj
 0004:00003e28       $pdata$_call_matherr       000000018007ae28     libucrt:libm_error.obj
 0004:00003e34       $pdata$_exception_enabled  000000018007ae34     libucrt:libm_error.obj
 0004:00003e40       $pdata$_handle_error       000000018007ae40     libucrt:libm_error.obj
 0004:00003e4c       $pdata$_handle_errorf      000000018007ae4c     libucrt:libm_error.obj
 0004:00003e58       $pdata$_towlower_l         000000018007ae58     libucrt:towlower.obj
 0004:00003e64       $pdata$?shortsort@@YAXPEAD0_KP6AHPEBX2@Z@Z 000000018007ae64     libucrt:qsort.obj
 0004:00003e70       $pdata$2$?shortsort@@YAXPEAD0_KP6AHPEBX2@Z@Z 000000018007ae70     libucrt:qsort.obj
 0004:00003e7c       $pdata$3$?shortsort@@YAXPEAD0_KP6AHPEBX2@Z@Z 000000018007ae7c     libucrt:qsort.obj
 0004:00003e88       $pdata$qsort               000000018007ae88     libucrt:qsort.obj
 0004:00003e94       $pdata$4$qsort             000000018007ae94     libucrt:qsort.obj
 0004:00003ea0       $pdata$5$qsort             000000018007aea0     libucrt:qsort.obj
 0004:00003eac       $pdata$strpbrk             000000018007aeac     libucrt:strpbrk.obj
 0004:00003eb8       $pdata$_mbsdec_l           000000018007aeb8     libucrt:mbsdec.obj
 0004:00003ec4       $pdata$?initialize_multibyte@@YAHXZ 000000018007aec4     libucrt:multibyte_initializer.obj
 0004:00003ed0       $pdata$_strnicoll_l        000000018007aed0     libucrt:strnicol.obj
 0004:00003edc       $pdata$_msize              000000018007aedc     libucrt:msize.obj
 0004:00003ee8       $pdata$fegetenv            000000018007aee8     libucrt:fegetenv.obj
 0004:00003ef4       $pdata$fesetenv            000000018007aef4     libucrt:fesetenv.obj
 0004:00003f00       $pdata$feholdexcept        000000018007af00     libucrt:feholdexcept.obj
 0004:00003f18       $pdata$??$common_lseek@_J@@YA_JH_JH@Z 000000018007af18     libucrt:lseek.obj
 0004:00003f24       $pdata$??$common_lseek_nolock@_J@@YA_JH_JH@Z 000000018007af24     libucrt:lseek.obj
 0004:00003f30       $pdata$__acrt_stdio_allocate_buffer_nolock 000000018007af30     libucrt:_getbuf.obj
 0004:00003f3c       $pdata$_fclose_nolock      000000018007af3c     libucrt:fclose.obj
 0004:00003f48       $pdata$fclose              000000018007af48     libucrt:fclose.obj
 0004:00003f54       $pdata$_wcsnicmp           000000018007af54     libucrt:wcsnicmp.obj
 0004:00003f60       $pdata$_wcsnicmp_l         000000018007af60     libucrt:wcsnicmp.obj
 0004:00003f6c       $pdata$_putwch_nolock      000000018007af6c     libucrt:putwch.obj
 0004:00003f78       $pdata$_clearfp            000000018007af78     libucrt:ieee.obj
 0004:00003f84       $pdata$common_control87    000000018007af84     libucrt:ieee.obj
 0004:00003f90       $pdata$__acrt_LCMapStringW 000000018007af90     libucrt:lcmapstringw.obj
 0004:00003f9c       $pdata$_strnicmp           000000018007af9c     libucrt:strnicmp.obj
 0004:00003fa8       $pdata$_strnicmp_l         000000018007afa8     libucrt:strnicmp.obj
 0004:00003fb4       $pdata$?InternalCompareStringA@@YAHPEAU__crt_locale_pointers@@PEB_WKPEBDH2HH@Z 000000018007afb4     libucrt:comparestringa.obj
 0004:00003fc0       $pdata$__acrt_CompareStringA 000000018007afc0     libucrt:comparestringa.obj
 0004:00003fcc       $pdata$_log10_special      000000018007afcc     libucrt:log_special.obj
 0004:00003fd8       $pdata$_log_special_common 000000018007afd8     libucrt:log_special.obj
 0004:00003fe4       $pdata$??$?RV<lambda_bfedae4ebbf01fab1bb6dcc6a9e276e0>@@AEAV<lambda_2fe9b910cf3cbf4a0ab98a02ba45b3ec>@@V<lambda_237c231691f317818eb88cc1d5d642d6>@@@?$__crt_seh_guarded_call@H@@QEAAH$$QEAV<lambda_bfedae4ebbf01fab1bb6dcc6a9e276e0>@@AEAV<lambda_2fe9b910cf3cbf4a0ab98a02ba45b3ec>@@$$QEAV<lambda_237c231691f317818eb88cc1d5d642d6>@@@Z 000000018007afe4     libucrt:close.obj
 0004:00003ff0       $pdata$_close              000000018007aff0     libucrt:close.obj
 0004:00003ffc       $pdata$_close_nolock       000000018007affc     libucrt:close.obj
 0004:00004008       $pdata$__dcrt_lowio_initialize_console_output 000000018007b008     libucrt:initcon.obj
 0004:00004014       $pdata$__dcrt_terminate_console_output 000000018007b014     libucrt:initcon.obj
 0004:00004020       $pdata$?DloadAcquireSectionWriteAccess@@YAXXZ 000000018007b020     DelayImp:delayhlp.obj
 0004:0000402c       $pdata$?DloadGetSRWLockFunctionPointers@@YAEXZ 000000018007b02c     DelayImp:delayhlp.obj
 0004:00004038       $pdata$?DloadMakePermanentImageCommit@@YAXPEAX_K@Z 000000018007b038     DelayImp:delayhlp.obj
 0004:00004044       $pdata$?DloadObtainSection@@YAPEAXPEAK0@Z 000000018007b044     DelayImp:delayhlp.obj
 0004:00004050       $pdata$?DloadProtectSection@@YAXKPEAK@Z 000000018007b050     DelayImp:delayhlp.obj
 0004:0000405c       $pdata$?DloadReleaseSectionWriteAccess@@YAXXZ 000000018007b05c     DelayImp:delayhlp.obj
 0004:00004068       $pdata$__delayLoadHelper2  000000018007b068     DelayImp:delayhlp.obj
 0004:00004074       $pdata$_IsNonwritableInCurrentImage 000000018007b074     LIBCMT:pesect.obj
 0004:00004080       $pdata$strrchr             000000018007b080     libvcruntime:strrchr.obj
 0004:0000408c       $pdata$strchr              000000018007b08c     libvcruntime:strchr.obj
 0004:00004098       $pdata$wcschr              000000018007b098     libvcruntime:wcschr.obj
 0004:000040b0       $pdata$Cli_ErrorText$catch$1 000000018007b0b0     snap7:snap7_libmain.obj
 0004:000040bc       $pdata$Srv_ErrorText$catch$1 000000018007b0bc     snap7:snap7_libmain.obj
 0004:000040c8       $pdata$Srv_EventText$catch$1 000000018007b0c8     snap7:snap7_libmain.obj
 0004:000040d4       $pdata$Par_ErrorText$catch$1 000000018007b0d4     snap7:snap7_libmain.obj
 0004:000040e0       $pdata$?dtor$0@?0??ServersManager_GetServer@@YAHIAEAPEAVTConnectionServer@@@Z@4HA 000000018007b0e0     snap7:s7_partner.obj
 0004:000040ec       $pdata$?dtor$0@?0??GetServer@TServersManager@@QEAAHIAEAPEAVTConnectionServer@@@Z@4HA 000000018007b0ec     snap7:s7_partner.obj
 0004:000040f8       $pdata$?dtor$0@?0??Start@TConnectionServer@@IEAAHXZ@4HA 000000018007b0f8     snap7:s7_partner.obj
 0004:000040f8       $pdata$?dtor$0@?0??StartListener@TCustomMsgServer@@AEAAHXZ@4HA 000000018007b0f8     snap7:snap_tcpsrvr.obj
 0004:00004104       $pdata$?catch$0@?0??CloseWorker@TSnap7Partner@@AEAAXXZ@4HA 000000018007b104     snap7:s7_partner.obj
 0004:00004110       $pdata$?catch$0@?0??CloseThread@TSnap7Client@@AEAAXXZ@4HA 000000018007b110     snap7:s7_client.obj
 0004:0000411c       $pdata$?catch$0@?0??DoCompletion@TSnap7Client@@IEAAXXZ@4HA 000000018007b11c     snap7:s7_client.obj
 0004:00004128       $pdata$?dtor$0@?0??NumToString@@YA?AV?$basic_string@DU?$char_traits@D@std@@V?$allocator@D@2@@std@@HHI@Z@4HA 000000018007b128     snap7:s7_text.obj
 0004:00004134       $pdata$?dtor$1@?0??TimeToString@@YA?AV?$basic_string@DU?$char_traits@D@std@@V?$allocator@D@2@@std@@_J@Z@4HA 000000018007b134     snap7:s7_text.obj
 0004:00004140       $pdata$?dtor$0@?0??SecurityText@@YA?AV?$basic_string@DU?$char_traits@D@std@@V?$allocator@D@2@@std@@AEAUTSrvEvent@@@Z@4HA 000000018007b140     snap7:s7_text.obj
 0004:00004140       $pdata$?dtor$0@?0???$?HDU?$char_traits@D@std@@V?$allocator@D@1@@std@@YA?AV?$basic_string@DU?$char_traits@D@std@@V?$allocator@D@2@@0@PEBD$$QEAV10@@Z@4HA 000000018007b140     snap7:s7_text.obj
 0004:00004140       $pdata$?dtor$0@?0??ClockText@@YA?AV?$basic_string@DU?$char_traits@D@std@@V?$allocator@D@2@@std@@G@Z@4HA 000000018007b140     snap7:s7_text.obj
 0004:00004140       $pdata$?dtor$0@?0??UploadText@@YA?AV?$basic_string@DU?$char_traits@D@std@@V?$allocator@D@2@@std@@AEAUTSrvEvent@@@Z@4HA 000000018007b140     snap7:s7_text.obj
 0004:00004140       $pdata$?dtor$0@?0??IpAddressToString@@YA?AV?$basic_string@DU?$char_traits@D@std@@V?$allocator@D@2@@std@@H@Z@4HA 000000018007b140     snap7:s7_text.obj
 0004:00004140       $pdata$?dtor$0@?0???$?HDU?$char_traits@D@std@@V?$allocator@D@1@@std@@YA?AV?$basic_string@DU?$char_traits@D@std@@V?$allocator@D@2@@0@$$QEAV10@AEBV10@@Z@4HA 000000018007b140     snap7:s7_text.obj
 0004:00004140       $pdata$?dtor$0@?0???$?HDU?$char_traits@D@std@@V?$allocator@D@1@@std@@YA?AV?$basic_string@DU?$char_traits@D@std@@V?$allocator@D@2@@0@AEBV10@PEBD@Z@4HA 000000018007b140     snap7:s7_text.obj
 0004:00004140       $pdata$?dtor$0@?0???$?HDU?$char_traits@D@std@@V?$allocator@D@1@@std@@YA?AV?$basic_string@DU?$char_traits@D@std@@V?$allocator@D@2@@0@PEBDAEBV10@@Z@4HA 000000018007b140     snap7:s7_text.obj
 0004:00004140       $pdata$?dtor$0@?0???$?HDU?$char_traits@D@std@@V?$allocator@D@1@@std@@YA?AV?$basic_string@DU?$char_traits@D@std@@V?$allocator@D@2@@0@$$QEAV10@PEBD@Z@4HA 000000018007b140     snap7:s7_text.obj
 0004:00004140       $pdata$?dtor$0@?0??DownloadText@@YA?AV?$basic_string@DU?$char_traits@D@std@@V?$allocator@D@2@@std@@AEAUTSrvEvent@@@Z@4HA 000000018007b140     snap7:s7_text.obj
 0004:0000414c       $pdata$?dtor$0@?0??SrvTextOf@@YA?AV?$basic_string@DU?$char_traits@D@std@@V?$allocator@D@2@@std@@H@Z@4HA 000000018007b14c     snap7:s7_text.obj
 0004:0000414c       $pdata$?dtor$0@?0??IsoTextOf@@YA?AV?$basic_string@DU?$char_traits@D@std@@V?$allocator@D@2@@std@@H@Z@4HA 000000018007b14c     snap7:s7_text.obj
 0004:0000414c       $pdata$?dtor$0@?0??CliTextOf@@YA?AV?$basic_string@DU?$char_traits@D@std@@V?$allocator@D@2@@std@@H@Z@4HA 000000018007b14c     snap7:s7_text.obj
 0004:0000414c       $pdata$?dtor$0@?0??TcpTextOf@@YA?AV?$basic_string@DU?$char_traits@D@std@@V?$allocator@D@2@@std@@H@Z@4HA 000000018007b14c     snap7:s7_text.obj
 0004:0000414c       $pdata$?dtor$0@?0??TxtDataResult@@YA?AV?$basic_string@DU?$char_traits@D@std@@V?$allocator@D@2@@std@@AEAUTSrvEvent@@@Z@4HA 000000018007b14c     snap7:s7_text.obj
 0004:0000414c       $pdata$?dtor$0@?0??StrBlockType@@YA?AV?$basic_string@DU?$char_traits@D@std@@V?$allocator@D@2@@std@@G@Z@4HA 000000018007b14c     snap7:s7_text.obj
 0004:0000414c       $pdata$?dtor$0@?0??ParTextOf@@YA?AV?$basic_string@DU?$char_traits@D@std@@V?$allocator@D@2@@std@@H@Z@4HA 000000018007b14c     snap7:s7_text.obj
 0004:00004158       $pdata$?dtor$0@?0??ErrParText@@YA?AV?$basic_string@DU?$char_traits@D@std@@V?$allocator@D@2@@std@@H@Z@4HA 000000018007b158     snap7:s7_text.obj
 0004:00004158       $pdata$?dtor$0@?0??ErrSrvText@@YA?AV?$basic_string@DU?$char_traits@D@std@@V?$allocator@D@2@@std@@H@Z@4HA 000000018007b158     snap7:s7_text.obj
 0004:00004158       $pdata$?dtor$0@?0??ErrCliText@@YA?AV?$basic_string@DU?$char_traits@D@std@@V?$allocator@D@2@@std@@H@Z@4HA 000000018007b158     snap7:s7_text.obj
 0004:00004164       $pdata$?dtor$4@?0??SenderText@@YA?AV?$basic_string@DU?$char_traits@D@std@@V?$allocator@D@2@@std@@AEAUTSrvEvent@@@Z@4HA 000000018007b164     snap7:s7_text.obj
 0004:00004170       $pdata$?dtor$9@?0??TcpServerEventText@@YA?AV?$basic_string@DU?$char_traits@D@std@@V?$allocator@D@2@@std@@AEAUTSrvEvent@@@Z@4HA 000000018007b170     snap7:s7_text.obj
 0004:0000417c       $pdata$?dtor$2@?0??PDUText@@YA?AV?$basic_string@DU?$char_traits@D@std@@V?$allocator@D@2@@std@@AEAUTSrvEvent@@@Z@4HA 000000018007b17c     snap7:s7_text.obj
 0004:00004188       $pdata$?dtor$0@?0??TxtArea@@YA?AV?$basic_string@DU?$char_traits@D@std@@V?$allocator@D@2@@std@@AEAUTSrvEvent@@@Z@4HA 000000018007b188     snap7:s7_text.obj
 0004:00004194       $pdata$?dtor$4@?0??TxtStartSize@@YA?AV?$basic_string@DU?$char_traits@D@std@@V?$allocator@D@2@@std@@AEAUTSrvEvent@@@Z@4HA 000000018007b194     snap7:s7_text.obj
 0004:000041a0       $pdata$?dtor$1@?0??ControlText@@YA?AV?$basic_string@DU?$char_traits@D@std@@V?$allocator@D@2@@std@@G@Z@4HA 000000018007b1a0     snap7:s7_text.obj
 0004:000041ac       $pdata$?dtor$5@?0??ReadSZLText@@YA?AV?$basic_string@DU?$char_traits@D@std@@V?$allocator@D@2@@std@@AEAUTSrvEvent@@@Z@4HA 000000018007b1ac     snap7:s7_text.obj
 0004:000041b8       $pdata$?dtor$12@?0??BlockInfoText@@YA?AV?$basic_string@DU?$char_traits@D@std@@V?$allocator@D@2@@std@@AEAUTSrvEvent@@@Z@4HA 000000018007b1b8     snap7:s7_text.obj
 0004:000041c4       $pdata$?dtor$29@?0??EvtSrvText@@YA?AV?$basic_string@DU?$char_traits@D@std@@V?$allocator@D@2@@std@@AEAUTSrvEvent@@@Z@4HA 000000018007b1c4     snap7:s7_text.obj
 0004:000041d0       $pdata$?dtor$0@?0???$?HDU?$char_traits@D@std@@V?$allocator@D@1@@std@@YA?AV?$basic_string@DU?$char_traits@D@std@@V?$allocator@D@2@@0@$$QEAV10@0@Z@4HA 000000018007b1d0     snap7:s7_text.obj
 0004:000041dc       $pdata$?dtor$0@?0??CreateWorkerSocket@TSnap7Server@@MEAAPEAVTMsgSocket@@_K@Z@4HA 000000018007b1dc     snap7:s7_server.obj
 0004:000041e8       $pdata$?catch$0@?0??DoReadEvent@TSnap7Server@@IEAAXHIGGGGG@Z@4HA 000000018007b1e8     snap7:s7_server.obj
 0004:000041f4       $pdata$?catch$0@?0??DoReadArea@TSnap7Server@@IEAA_NHHHHHHPEAX@Z@4HA 000000018007b1f4     snap7:s7_server.obj
 0004:00004200       $pdata$?catch$0@?0??DoWriteArea@TSnap7Server@@IEAA_NHHHHHHPEAX@Z@4HA 000000018007b200     snap7:s7_server.obj
 0004:0000420c       $pdata$?catch$0@?0??Execute@TMsgWorkerThread@@UEAAXXZ@4HA 000000018007b20c     snap7:snap_tcpsrvr.obj
 0004:00004218       $pdata$?dtor$2@?0???0TCustomMsgServer@@QEAA@XZ@4HA 000000018007b218     snap7:snap_tcpsrvr.obj
 0004:00004224       $pdata$?catch$0@?0??KillAll@TCustomMsgServer@@IEAAXXZ@4HA 000000018007b224     snap7:snap_tcpsrvr.obj
 0004:00004230       $pdata$?dtor$0@?0??CreateWorkerSocket@TCustomMsgServer@@MEAAPEAVTMsgSocket@@_K@Z@4HA 000000018007b230     snap7:snap_tcpsrvr.obj
 0004:0000423c       $pdata$?catch$0@?0??DoEvent@TCustomMsgServer@@MEAAXHIGGGGG@Z@4HA 000000018007b23c     snap7:snap_tcpsrvr.obj
 0004:00004248       $pdata$?catch$0@?0??PickEvent@TCustomMsgServer@@QEAA_NPEAX@Z@4HA 000000018007b248     snap7:snap_tcpsrvr.obj
 0004:00004254       $pdata$?catch$0@?0??ForceClose@TMsgSocket@@QEAAXXZ@4HA 000000018007b254     snap7:snap_msgsock.obj
 0004:00004260       $pdata$?catch$0@?0??ThreadProc@@YAKPEAX@Z@4HA 000000018007b260     snap7:snap_threads.obj
 0004:0000426c       $pdata$__scrt_is_nonwritable_in_current_image$filt$0 000000018007b26c     LIBCMT:utility.obj
 0004:00004278       $pdata$?fin$0@?0??dllmain_crt_process_attach@@YAHQEAUHINSTANCE__@@QEAX@Z@4HA 000000018007b278     LIBCMT:dll_dllmain.obj
 0004:00004284       $pdata$?fin$0@?0??dllmain_crt_process_detach@@YAH_N@Z@4HA 000000018007b284     LIBCMT:dll_dllmain.obj
 0004:00004290       $pdata$?filt$0@?0??dllmain_dispatch@@YAHQEAUHINSTANCE__@@KQEAX@Z@4HA 000000018007b290     LIBCMT:dll_dllmain.obj
 0004:0000429c       $pdata$__CxxCallCatchBlock$filt$0 000000018007b29c     libvcruntime:frame.obj
 0004:000042a8       $pdata$__CxxCallCatchBlock$fin$1 000000018007b2a8     libvcruntime:frame.obj
 0004:000042b4       $pdata$__DestructExceptionObject$filt$0 000000018007b2b4     libvcruntime:frame.obj
 0004:000042c0       $pdata$__FrameUnwindToState$filt$0 000000018007b2c0     libvcruntime:frame.obj
 0004:000042cc       $pdata$__FrameUnwindToState$fin$1 000000018007b2cc     libvcruntime:frame.obj
 0004:000042d8       $pdata$_CallSETranslator$filt$0 000000018007b2d8     libvcruntime:trnsctrl.obj
 0004:000042e4       $pdata$setlocale$fin$0     000000018007b2e4     libucrt:setlocale.obj
 0004:000042f0       $pdata$_query_new_handler$fin$0 000000018007b2f0     libucrt:new_handler.obj
 0004:000042fc       $pdata$?filt$0@?0??common_exit@@YAXHW4_crt_exit_cleanup_mode@@W4_crt_exit_return_mode@@@Z@4HA 000000018007b2fc     libucrt:exit.obj
 0004:00004308       $pdata$?fin$1@?0??common_exit@@YAXHW4_crt_exit_cleanup_mode@@W4_crt_exit_return_mode@@@Z@4HA 000000018007b308     libucrt:exit.obj
 0004:00004314       $pdata$?fin$0@?0???$?RV<lambda_e24bbb7b643b32fcea6fa61b31d4c984>@@AEAV<lambda_275893d493268fdec8709772e3fcec0e>@@V<lambda_9d71df4d7cf3f480f8d633942495c3b0>@@@?$__crt_seh_guarded_call@H@@QEAAH$$QEAV<lambda_e24bbb7b643b32fcea6fa61b31d4c984>@@AEAV<lambda_275893d493268fdec8709772e3fcec0e>@@$$QEAV<lambda_9d71df4d7cf3f480f8d633942495c3b0>@@@Z@4HA 000000018007b314     libucrt:onexit.obj
 0004:00004320       $pdata$raise$fin$0         000000018007b320     libucrt:signal.obj
 0004:0000432c       $pdata$?fin$0@?0???$?RV<lambda_46352004c1216016012b18bd6f87e700>@@AEAV<lambda_3bd07e1a1191394380780325891bf33f>@@V<lambda_334532d3f185bcaa59b5be82d7d22bff>@@@?$__crt_seh_guarded_call@X@@QEAAX$$QEAV<lambda_46352004c1216016012b18bd6f87e700>@@AEAV<lambda_3bd07e1a1191394380780325891bf33f>@@$$QEAV<lambda_334532d3f185bcaa59b5be82d7d22bff>@@@Z@4HA 000000018007b32c     libucrt:per_thread_data.obj
 0004:0000432c       $pdata$?fin$0@?0???$?RV<lambda_99476a1ad63dd22509b5d3e65b0ffc95>@@AEAV<lambda_ad1ced32f4ac17aa236e5ef05d6b3b7c>@@V<lambda_f7424dd8d45958661754dc4f2697e9c3>@@@?$__crt_seh_guarded_call@X@@QEAAX$$QEAV<lambda_99476a1ad63dd22509b5d3e65b0ffc95>@@AEAV<lambda_ad1ced32f4ac17aa236e5ef05d6b3b7c>@@$$QEAV<lambda_f7424dd8d45958661754dc4f2697e9c3>@@@Z@4HA 000000018007b32c     libucrt:mbctype.obj
 0004:0000432c       $pdata$?fin$0@?0???$?RV<lambda_c36588078e9f5dfd39652860aa6b3aaf>@@AEAV<lambda_ec61778202f4f5fc7e7711acc23c3bca>@@V<lambda_dc9d2797ccde5d239b4a0efae8ebd7db>@@@?$__crt_seh_guarded_call@P6AXH@Z@@QEAAP6AXH@Z$$QEAV<lambda_c36588078e9f5dfd39652860aa6b3aaf>@@AEAV<lambda_ec61778202f4f5fc7e7711acc23c3bca>@@$$QEAV<lambda_dc9d2797ccde5d239b4a0efae8ebd7db>@@@Z@4HA 000000018007b32c     libucrt:signal.obj
 0004:0000432c       $pdata$?fin$0@?0???$?RV<lambda_5e887d1dcbef67a5eb4283622ba103bf>@@AEAV<lambda_4466841279450cc726390878d4a41900>@@V<lambda_341c25c0346d94847f1f3c463c57e077>@@@?$__crt_seh_guarded_call@X@@QEAAX$$QEAV<lambda_5e887d1dcbef67a5eb4283622ba103bf>@@AEAV<lambda_4466841279450cc726390878d4a41900>@@$$QEAV<lambda_341c25c0346d94847f1f3c463c57e077>@@@Z@4HA 000000018007b32c     libucrt:per_thread_data.obj
 0004:0000432c       $pdata$?fin$0@?0???$?RV<lambda_72d1df2b273a38828b1ce30cbf4cdab5>@@AEAV<lambda_876a65b173b8412d3a47c70a915b0cf4>@@V<lambda_41932305e351933ebe8f8be3ed8bb5dc>@@@?$__crt_seh_guarded_call@X@@QEAAX$$QEAV<lambda_72d1df2b273a38828b1ce30cbf4cdab5>@@AEAV<lambda_876a65b173b8412d3a47c70a915b0cf4>@@$$QEAV<lambda_41932305e351933ebe8f8be3ed8bb5dc>@@@Z@4HA 000000018007b32c     libucrt:per_thread_data.obj
 0004:0000432c       $pdata$?fin$0@?0???$?RV<lambda_fb3a7dec4e47f37f22dae91bb15c9095>@@AEAV<lambda_698284760c8add0bfb0756c19673e34b>@@V<lambda_dfb8eca1e75fef3034a8fb18dd509707>@@@?$__crt_seh_guarded_call@X@@QEAAX$$QEAV<lambda_fb3a7dec4e47f37f22dae91bb15c9095>@@AEAV<lambda_698284760c8add0bfb0756c19673e34b>@@$$QEAV<lambda_dfb8eca1e75fef3034a8fb18dd509707>@@@Z@4HA 000000018007b32c     libucrt:per_thread_data.obj
 0004:0000432c       $pdata$?fin$0@?0???$?RV<lambda_630b2aca97f6d20d5b5ea6529ea6b6af>@@AEAV<lambda_af91936f1d075d609f72d9d8cba980af>@@V<lambda_e82fa975f615b5c7c7b0e4d178fdae67>@@@?$__crt_seh_guarded_call@H@@QEAAH$$QEAV<lambda_630b2aca97f6d20d5b5ea6529ea6b6af>@@AEAV<lambda_af91936f1d075d609f72d9d8cba980af>@@$$QEAV<lambda_e82fa975f615b5c7c7b0e4d178fdae67>@@@Z@4HA 000000018007b32c     libucrt:winapi_thunks.obj
 0004:0000432c       $pdata$?fin$0@?0???$?RV<lambda_d67e8342c384adda8f857579ab50b2ae>@@AEAV<lambda_30712929f77e709619002f448b6a9510>@@V<lambda_4525336fd7e478d965fb7ca7a337cad8>@@@?$__crt_seh_guarded_call@X@@QEAAX$$QEAV<lambda_d67e8342c384adda8f857579ab50b2ae>@@AEAV<lambda_30712929f77e709619002f448b6a9510>@@$$QEAV<lambda_4525336fd7e478d965fb7ca7a337cad8>@@@Z@4HA 000000018007b32c     libucrt:wsetlocale.obj
 0004:0000432c       $pdata$?fin$0@?0???$?RV<lambda_b8c45f8f788dd370798f47cfe8ac3a86>@@AEAV<lambda_4e60a939b0d047cfe11ddc22648dfba9>@@V<lambda_332c3edc96d0294ec56c57d38c1cdfd5>@@@?$__crt_seh_guarded_call@H@@QEAAH$$QEAV<lambda_b8c45f8f788dd370798f47cfe8ac3a86>@@AEAV<lambda_4e60a939b0d047cfe11ddc22648dfba9>@@$$QEAV<lambda_332c3edc96d0294ec56c57d38c1cdfd5>@@@Z@4HA 000000018007b32c     libucrt:onexit.obj
 0004:00004338       $pdata$__tzset$fin$0       000000018007b338     libucrt:tzset.obj
 0004:00004338       $pdata$_isindst$fin$0      000000018007b338     libucrt:tzset.obj
 0004:00004344       $pdata$?fin$0@?0???$?RV<lambda_5df02c53a8f32f81fd64e5bbb78039f1>@@AEAV<lambda_2af78c5f5901b1372d98f9ab3177dfa6>@@AEAV<lambda_f51fe5fd7c79a33db34fc9310f277369>@@@?$__crt_seh_guarded_call@X@@QEAAX$$QEAV<lambda_5df02c53a8f32f81fd64e5bbb78039f1>@@AEAV<lambda_2af78c5f5901b1372d98f9ab3177dfa6>@@AEAV<lambda_f51fe5fd7c79a33db34fc9310f277369>@@@Z@4HA 000000018007b344     libucrt:wsetlocale.obj
 0004:00004350       $pdata$__acrt_initialize_lowio$fin$0 000000018007b350     libucrt:ioinit.obj
 0004:00004350       $pdata$__acrt_lowio_ensure_fh_exists$fin$0 000000018007b350     libucrt:osfinfo.obj
 0004:0000435c       $pdata$_ctrlfp$filt$0      000000018007b35c     libucrt:fpctrl.obj
 0004:0000435c       $pdata$common_control87$filt$0 000000018007b35c     libucrt:ieee.obj
 0004:00004368       $pdata$common_flush_all$fin$0 000000018007b368     libucrt:fflush.obj
 0004:00004374       $pdata$common_flush_all$fin$1 000000018007b374     libucrt:fflush.obj
 0004:00004380       $pdata$?fin$0@?0???$?RV<lambda_7b91131dde12e1c3dfc74ff76b3f2eac>@@AEAV<lambda_dd75445284c072d0bd3768540cc698fa>@@V<lambda_16bc4ecb55b4718497c16bceaea2ceaf>@@@?$__crt_seh_guarded_call@H@@QEAAH$$QEAV<lambda_7b91131dde12e1c3dfc74ff76b3f2eac>@@AEAV<lambda_dd75445284c072d0bd3768540cc698fa>@@$$QEAV<lambda_16bc4ecb55b4718497c16bceaea2ceaf>@@@Z@4HA 000000018007b380     libucrt:output.obj
 0004:00004380       $pdata$?fin$0@?0???$?RV<lambda_7a5ef57ff966f610505f1d28a3d40618>@@AEAV<lambda_b721fa326cdb32351d23dfa67958c160>@@V<lambda_5e0fb27672408a07956fe59e48ccb2aa>@@@?$__crt_seh_guarded_call@H@@QEAAH$$QEAV<lambda_7a5ef57ff966f610505f1d28a3d40618>@@AEAV<lambda_b721fa326cdb32351d23dfa67958c160>@@$$QEAV<lambda_5e0fb27672408a07956fe59e48ccb2aa>@@@Z@4HA 000000018007b380     libucrt:setvbuf.obj
 0004:0000438c       $pdata$__acrt_update_thread_multibyte_data$fin$0 000000018007b38c     libucrt:mbctype.obj
 0004:00004398       $pdata$__acrt_update_thread_locale_data$fin$0 000000018007b398     libucrt:locale_refcounting.obj
 0004:00004398       $pdata$__acrt_uninitialize_locale$fin$0 000000018007b398     libucrt:wsetlocale.obj
 0004:000043a4       $pdata$?fin$0@?0???$common_getenv_s@D@@YAHQEA_KQEAD_KQEBD@Z@4HA 000000018007b3a4     libucrt:getenv.obj
 0004:000043b0       $pdata$_fcloseall$fin$0    000000018007b3b0     libucrt:closeall.obj
 0004:000043bc       $pdata$?fin$0@?0???$?RV<lambda_bfedae4ebbf01fab1bb6dcc6a9e276e0>@@AEAV<lambda_2fe9b910cf3cbf4a0ab98a02ba45b3ec>@@V<lambda_237c231691f317818eb88cc1d5d642d6>@@@?$__crt_seh_guarded_call@H@@QEAAH$$QEAV<lambda_bfedae4ebbf01fab1bb6dcc6a9e276e0>@@AEAV<lambda_2fe9b910cf3cbf4a0ab98a02ba45b3ec>@@$$QEAV<lambda_237c231691f317818eb88cc1d5d642d6>@@@Z@4HA 000000018007b3bc     libucrt:close.obj
 0004:000043bc       $pdata$?fin$0@?0???$?RV<lambda_b521505b218e5242e90febf6bfebc422>@@AEAV<lambda_6978c1fb23f02e42e1d9e99668cc68aa>@@V<lambda_314360699dd331753a4119843814e9a7>@@@?$__crt_seh_guarded_call@H@@QEAAH$$QEAV<lambda_b521505b218e5242e90febf6bfebc422>@@AEAV<lambda_6978c1fb23f02e42e1d9e99668cc68aa>@@$$QEAV<lambda_314360699dd331753a4119843814e9a7>@@@Z@4HA 000000018007b3bc     libucrt:commit.obj
 0004:000043c8       $pdata$?fin$0@?0???$common_lseek@_J@@YA_JH_JH@Z@4HA 000000018007b3c8     libucrt:lseek.obj
 0004:000043c8       $pdata$_write$fin$0        000000018007b3c8     libucrt:write.obj
 0004:000043d4       $pdata$fclose$fin$0        000000018007b3d4     libucrt:fclose.obj
 0004:000043d4       $pdata$fflush$fin$0        000000018007b3d4     libucrt:fflush.obj
 0004:000043e0       $pdata$_IsNonwritableInCurrentImage$filt$0 000000018007b3e0     LIBCMT:pesect.obj
 0004:000043ec       $pdata$??__FSocketsLayerInitializer@@YAXXZ 000000018007b3ec     snap7:snap_msgsock.obj
 0004:000043f8       $pdata$??__F_Fac_tidy_reg@std@@YAXXZ 000000018007b3f8     libcpmt:locale0.obj
 0004:00004404       $pdata$??__Fclassic_locale@std@@YAXXZ 000000018007b404     libcpmt:locale0.obj
 0004:00004410       $pdata$??__Finit_atexit@@YAXXZ 000000018007b410     libcpmt:iosptrs.obj
 0005:00000000       __guard_fids__             000000018007c000     libucrt:initialization.obj
 0005:00000060       __guard_fids___acrt_initialize_ptd 000000018007c060     libucrt:per_thread_data.obj
 0005:00000064       __guard_fids__             000000018007c064     libucrt:wsetlocale.obj
 0005:0000007c       __guard_fids___acrt_show_wide_message_box 000000018007c07c     libucrt:crtmbox.obj
 0005:00000080       __guard_fids_??$?RV<lambda_630b2aca97f6d20d5b5ea6529ea6b6af>@@AEAV<lambda_af91936f1d075d609f72d9d8cba980af>@@V<lambda_e82fa975f615b5c7c7b0e4d178fdae67>@@@?$__crt_seh_guarded_call@H@@QEAAH$$QEAV<lambda_630b2aca97f6d20d5b5ea6529ea6b6af>@@AEAV<lambda_af91936f1d075d609f72d9d8cba980af>@@$$QEAV<lambda_e82fa975f615b5c7c7b0e4d178fdae67>@@@Z 000000018007c080     libucrt:winapi_thunks.obj
 0005:00000084       __guard_fids_??$expand_argument_wildcards@D@@YAHQEAD0AEAV?$argument_list@D@?A0xca0879c4@@@Z 000000018007c084     libucrt:argv_wildcards.obj
 0005:00000088       __guard_fids__             000000018007c088     libucrt:timeset_initializer.obj
 0005:0000008c       __guard_fids__             000000018007c08c     libucrt:stdio_initializer.obj
 0005:00000090       __guard_fids__             000000018007c090     libucrt:stdio_initializer.obj
 0005:00000094       __guard_fids__             000000018007c094     libucrt:locale_initializer.obj
 0005:00000098       __guard_fids_GetLocaleNameFromLangCountry 000000018007c098     libucrt:get_qualified_locale.obj
 0005:0000009c       __guard_fids_GetLocaleNameFromLanguage 000000018007c09c     libucrt:get_qualified_locale.obj
 0005:000000a0       __guard_fids___acrt_get_qualified_locale_downlevel 000000018007c0a0     libucrt:getqloc_downlevel.obj
 0005:000000a4       __guard_fids_GetLcidFromLangCountry 000000018007c0a4     libucrt:getqloc_downlevel.obj
 0005:000000a8       __guard_fids_GetLcidFromLanguage 000000018007c0a8     libucrt:getqloc_downlevel.obj
 0005:000000ac       __guard_fids__             000000018007c0ac     libucrt:fma3_initializer.obj
 0005:000000b0       __guard_fids__             000000018007c0b0     libucrt:multibyte_initializer.obj
 0005:000000b4       __guard_fids__             000000018007c0b4     libucrt:console_output_initializer.obj
 0005:000000b8       __guard_fids_??__Einitlocks@std@@YAXXZ 000000018007c0b8     libcpmt:xlock.obj
 0005:000000bc       __guard_fids__             000000018007c0bc     libcpmt:xlock.obj
 0005:000000c0       __guard_fids_??__E_Fac_tidy_reg@std@@YAXXZ 000000018007c0c0     libcpmt:locale0.obj
 0005:000000c4       __guard_fids_?_Setgloballocale@locale@std@@CAXPEAX@Z 000000018007c0c4     libcpmt:locale0.obj
 0005:000000c8       __guard_fids_??__Eclassic_locale@std@@YAXXZ 000000018007c0c8     libcpmt:locale0.obj
 0005:000000cc       __guard_fids__             000000018007c0cc     libcpmt:locale0.obj
 0005:000000d8       __guard_fids__             000000018007c0d8     libcpmt:locale0.obj
 0005:000000e4       __guard_fids__             000000018007c0e4     libcpmt:locale0.obj
 0005:000000e8       __guard_fids__             000000018007c0e8     libcpmt:locale0.obj
 0005:000000ec       __guard_fids__             000000018007c0ec     libcpmt:xthrow.obj
 0005:000000f4       __guard_fids__             000000018007c0f4     libcpmt:xthrow.obj
 0005:000000fc       __guard_fids__             000000018007c0fc     libcpmt:xthrow.obj
 0005:00000104       __guard_fids__             000000018007c104     libcpmt:xthrow.obj
 0005:0000010c       __guard_fids__             000000018007c10c     libcpmt:xthrow.obj
 0005:00000114       __guard_fids__             000000018007c114     libcpmt:xthrow.obj
 0005:0000011c       __guard_fids_??__Einitlocks@std@@YAXXZ 000000018007c11c     libcpmt:iosptrs.obj
 0005:00000120       __guard_fids_??__Einit_atexit@@YAXXZ 000000018007c120     libcpmt:iosptrs.obj
 0005:00000124       __guard_fids__             000000018007c124     libcpmt:iosptrs.obj
 0005:00000128       __guard_fids__             000000018007c128     libcpmt:iosptrs.obj
 0005:0000012c       __guard_fids__             000000018007c12c     libcpmt:locale.obj
 0005:00000158       __guard_fids__             000000018007c158     libcpmt:locale.obj
 0005:00000184       __guard_fids__             000000018007c184     libcpmt:locale.obj
 0005:000001a4       __guard_fids__             000000018007c1a4     libcpmt:winapisupp.obj
 0005:000001a8       __guard_fids__             000000018007c1a8     LIBCMT:thread_safe_statics.obj
 0005:000001ac       __guard_fids_?__scrt_initialize_thread_safe_statics@@YAHXZ 000000018007c1ac     LIBCMT:thread_safe_statics.obj
 0005:000001b0       __guard_fids_?dllmain_crt_process_attach@@YAHQEAUHINSTANCE__@@QEAX@Z 000000018007c1b0     LIBCMT:dll_dllmain.obj
 0005:000001b8       __guard_fids_?dllmain_dispatch@@YAHQEAUHINSTANCE__@@KQEAX@Z 000000018007c1b8     LIBCMT:dll_dllmain.obj
 0005:000001bc       __guard_fids__             000000018007c1bc     LIBCMT:std_type_info_static.obj
 0005:000001c0       __guard_fids__             000000018007c1c0     LIBCMT:throw_bad_alloc.obj
 0005:000001c8       __guard_fids__             000000018007c1c8     LIBCMT:guard_support.obj
 0005:000001cc       __guard_fids__             000000018007c1cc     libvcruntime:frame.obj
 0005:000001d0       __guard_fids__             000000018007c1d0     libvcruntime:frame.obj
 0005:000001d8       __guard_fids__UnwindNestedFrames 000000018007c1d8     libvcruntime:trnsctrl.obj
 0005:000001dc       __guard_fids___vcrt_initialize_ptd 000000018007c1dc     libvcruntime:per_thread_data.obj
 0007:00000060       $R000000                   000000018007e060     * linker generated manifest res *

 Exports

  ordinal    name

        1    Cli_ABRead
        2    Cli_ABWrite
        3    Cli_AsABRead
        4    Cli_AsABWrite
        5    Cli_AsCTRead
        6    Cli_AsCTWrite
        7    Cli_AsCompress
        8    Cli_AsCopyRamToRom
        9    Cli_AsDBFill
       10    Cli_AsDBGet
       11    Cli_AsDBRead
       12    Cli_AsDBWrite
       13    Cli_AsDownload
       14    Cli_AsEBRead
       15    Cli_AsEBWrite
       16    Cli_AsFullUpload
       17    Cli_AsListBlocksOfType
       18    Cli_AsMBRead
       19    Cli_AsMBWrite
       20    Cli_AsReadArea
       21    Cli_AsReadSZL
       22    Cli_AsReadSZLList
       23    Cli_AsTMRead
       24    Cli_AsTMWrite
       25    Cli_AsUpload
       26    Cli_AsWriteArea
       27    Cli_CTRead
       28    Cli_CTWrite
       29    Cli_CheckAsCompletion
       30    Cli_ClearSessionPassword
       31    Cli_Compress
       32    Cli_Connect
       33    Cli_ConnectTo
       34    Cli_CopyRamToRom
       35    Cli_Create
       36    Cli_DBFill
       37    Cli_DBGet
       38    Cli_DBRead
       39    Cli_DBWrite
       40    Cli_Delete
       41    Cli_Destroy
       42    Cli_Disconnect
       43    Cli_Download
       44    Cli_EBRead
       45    Cli_EBWrite
       46    Cli_ErrorText
       47    Cli_FullUpload
       48    Cli_GetAgBlockInfo
       49    Cli_GetConnected
       50    Cli_GetCpInfo
       51    Cli_GetCpuInfo
       52    Cli_GetExecTime
       53    Cli_GetLastError
       54    Cli_GetOrderCode
       55    Cli_GetParam
       56    Cli_GetPduLength
       57    Cli_GetPgBlockInfo
       58    Cli_GetPlcDateTime
       59    Cli_GetPlcStatus
       60    Cli_GetProtection
       61    Cli_IsoExchangeBuffer
       62    Cli_ListBlocks
       63    Cli_ListBlocksOfType
       64    Cli_MBRead
       65    Cli_MBWrite
       66    Cli_PlcColdStart
       67    Cli_PlcHotStart
       68    Cli_PlcStop
       69    Cli_ReadArea
       70    Cli_ReadMultiVars
       71    Cli_ReadSZL
       72    Cli_ReadSZLList
       73    Cli_SetAsCallback
       74    Cli_SetConnectionParams
       75    Cli_SetConnectionType
       76    Cli_SetParam
       77    Cli_SetPlcDateTime
       78    Cli_SetPlcSystemDateTime
       79    Cli_SetSessionPassword
       80    Cli_TMRead
       81    Cli_TMWrite
       82    Cli_Upload
       83    Cli_WaitAsCompletion
       84    Cli_WriteArea
       85    Cli_WriteMultiVars
       86    Par_AsBSend
       87    Par_BRecv
       88    Par_BSend
       89    Par_CheckAsBRecvCompletion
       90    Par_CheckAsBSendCompletion
       91    Par_Create
       92    Par_Destroy
       93    Par_ErrorText
       94    Par_GetLastError
       95    Par_GetParam
       96    Par_GetStats
       97    Par_GetStatus
       98    Par_GetTimes
       99    Par_SetParam
      100    Par_SetRecvCallback
      101    Par_SetSendCallback
      102    Par_Start
      103    Par_StartTo
      104    Par_Stop
      105    Par_WaitAsBSendCompletion
      106    Srv_ClearEvents
      107    Srv_Create
      108    Srv_Destroy
      109    Srv_ErrorText
      110    Srv_EventText
      111    Srv_GetMask
      112    Srv_GetParam
      113    Srv_GetStatus
      114    Srv_LockArea
      115    Srv_PickEvent
      116    Srv_RegisterArea
      117    Srv_SetCpuStatus
      118    Srv_SetEventsCallback
      119    Srv_SetMask
      120    Srv_SetParam
      121    Srv_SetRWAreaCallback
      122    Srv_SetReadEventsCallback
      123    Srv_Start
      124    Srv_StartTo
      125    Srv_Stop
      126    Srv_UnlockArea
      127    Srv_UnregisterArea
      128    _register_node_snap7_
